Certificate:
    Data:
        Version: 3 (0x2)
        Serial Number: 192 (0xc0)
    Signature Algorithm: sha256WithRSAEncryption
        Issuer: C=FR, ST=idf, L=paris, O=Vitam., CN=CA_server
        Validity
            Not Before: Mar  6 18:04:14 2017 GMT
            Not After : Mar  5 18:04:14 2020 GMT
        Subject: C=FR, ST=idf, L=paris, O=Vitam., CN=access-external.service.consul
        Subject Public Key Info:
            Public Key Algorithm: rsaEncryption
                Public-Key: (4096 bit)
                Modulus:
                    00:a7:a4:d5:8e:2d:f2:69:ae:c5:d0:ec:ac:21:24:
                    5e:df:46:3a:6b:cb:89:97:73:af:6a:6d:37:58:55:
                    05:d7:07:1d:7d:ab:cc:e1:3a:47:87:3b:2d:03:d0:
                    b6:c7:10:ed:cc:6d:ea:89:20:d2:be:2d:6e:1c:4b:
                    82:27:a7:2b:08:b9:44:19:39:72:9f:e8:a7:d6:21:
                    73:45:b0:b3:b8:3c:10:9b:66:5a:17:6f:7a:18:fb:
                    df:7e:04:f8:cc:b1:2a:f5:da:9f:50:ab:5c:6f:84:
                    07:22:89:64:12:34:17:33:44:af:bb:a0:c8:dc:cd:
                    5d:b4:0b:8b:76:96:17:eb:c7:df:cd:cd:98:93:51:
                    e5:db:28:b1:10:68:6e:24:21:d3:aa:db:ae:e9:18:
                    9b:ab:e8:c3:e4:c6:ee:9d:a5:a8:de:0a:31:99:2d:
                    57:a4:68:d7:cb:19:20:e0:ec:89:dc:2c:6a:22:75:
                    2f:a6:f2:69:d8:0a:70:d7:76:5d:f3:04:a3:6f:31:
                    db:f9:92:b5:2f:9f:76:fe:9f:54:e3:5c:bd:de:68:
                    59:2d:34:ac:57:f7:ea:2f:3f:09:ea:ed:6e:b0:5e:
                    f6:fc:44:e2:2c:c8:fa:07:91:9e:2c:4b:4b:9b:6f:
                    a7:14:83:3d:a4:88:48:20:c5:32:2c:81:64:9a:14:
                    ba:8d:73:e8:16:4e:3b:e3:0c:54:93:64:ca:a9:0a:
                    15:cd:b6:37:6f:c8:fe:38:be:c4:55:64:0c:03:8a:
                    fa:e8:62:a6:6b:bd:62:72:bc:77:22:14:d5:d0:42:
                    b8:2f:80:13:e8:76:06:5d:8b:af:21:1c:8e:84:b7:
                    14:79:81:7b:0e:83:3b:7f:83:8f:44:d2:e5:b1:eb:
                    ce:de:2e:5b:bf:2a:3a:3d:3e:d7:f3:06:08:56:18:
                    c0:75:dd:8e:b1:ea:51:2f:06:02:65:71:a6:81:3b:
                    bc:c7:92:c2:7d:d3:86:d1:1a:a1:52:1e:5b:9a:b5:
                    6f:13:f5:6f:87:73:56:25:34:8e:37:e7:9a:5e:cb:
                    a9:54:8d:d1:e6:d4:09:bb:4a:94:ad:8a:29:9e:51:
                    3c:a1:a9:38:fd:fe:87:02:ed:28:ac:db:89:23:9b:
                    76:84:b7:fa:fd:b0:4c:f8:a2:4f:24:de:51:95:fd:
                    c8:57:0a:fb:05:c3:76:b1:c5:5e:4f:93:2d:3c:25:
                    4f:5b:46:cf:9c:83:3d:0d:37:be:96:bb:78:91:9f:
                    9d:cb:de:39:aa:55:b8:19:c1:2e:fe:98:26:cf:68:
                    e4:53:d3:d7:86:14:75:04:a9:c4:bd:20:38:70:57:
                    ac:6a:88:db:43:9b:5b:ef:70:6a:b5:9c:25:88:2c:
                    36:e9:b1
                Exponent: 65537 (0x10001)
        X509v3 extensions:
            Netscape Comment: 
                Certificat Serveur SSL
            X509v3 Subject Key Identifier: 
                4B:E2:8E:D8:BF:65:1C:9A:31:D7:B0:18:93:0E:FA:00:B3:18:7A:C4
            X509v3 Authority Key Identifier: 
                keyid:02:1D:D3:9D:31:15:D2:16:71:31:23:BE:98:05:EC:31:42:E7:77:E8
                DirName:/C=FR/ST=idf/L=paris/O=Vitam./CN=CA_server
                serial:BE

            X509v3 Issuer Alternative Name: 
                <EMPTY>

            X509v3 Subject Alternative Name: 
                DNS:ingest-external.service.consul
            X509v3 Basic Constraints: critical
                CA:FALSE
            X509v3 Key Usage: 
                Digital Signature, Non Repudiation, Key Encipherment
            Netscape Cert Type: 
                SSL Server
            X509v3 Extended Key Usage: 
                TLS Web Server Authentication
    Signature Algorithm: sha256WithRSAEncryption
         71:89:42:b6:b2:99:ab:02:f8:eb:ee:1b:3c:0f:61:97:50:dd:
         c9:df:77:cd:16:4e:85:d9:71:5d:be:a8:3f:89:98:0f:7f:a5:
         7b:25:fe:92:d7:59:bf:c9:3b:87:14:cd:9c:85:7a:06:b5:43:
         73:73:c5:bc:20:c4:56:2e:7c:d7:31:d7:7d:7c:46:4d:43:d0:
         6b:72:e0:36:6e:fd:d4:d0:8d:f4:7f:84:c1:b0:67:23:ee:c3:
         35:35:03:24:6c:cf:0a:a7:18:a4:06:7c:44:9b:68:d5:ab:15:
         50:0a:a2:a9:17:0a:e8:8b:b9:fe:ae:9f:c3:ae:35:82:ce:2c:
         8e:e8:6a:00:49:f8:6d:c0:c7:ee:92:64:4d:1d:43:60:de:a6:
         88:e1:cb:20:b2:f5:c1:ac:d7:8a:9e:d1:9c:2c:e5:ca:d5:e6:
         e7:db:99:dc:81:4c:04:fc:27:9c:a6:36:ef:7c:c7:86:a3:11:
         16:f2:7d:36:4a:87:b6:00:a2:1f:ca:f8:b5:9b:3f:25:fc:fd:
         61:4c:19:b2:a7:97:c2:63:a7:b5:d8:fa:92:b9:76:1c:2d:26:
         ff:41:f7:28:16:4e:1a:71:7e:db:3f:f4:55:34:da:38:93:40:
         a7:d0:ab:af:c5:bb:35:99:4e:d8:88:ea:89:32:17:5a:a2:22:
         77:72:f6:17:4f:dd:62:d7:5b:56:9f:d2:88:66:0e:62:bb:b6:
         52:74:0d:fa:7e:29:0f:1f:6a:a1:a9:98:ad:5e:36:75:59:12:
         0e:8a:30:4a:0a:fb:a4:dd:aa:37:ff:d4:1e:9b:28:0d:61:1a:
         2c:ff:8c:66:e6:64:0a:24:df:18:20:25:8e:7c:35:63:b3:f7:
         23:75:5f:0f:45:62:54:79:35:00:9c:15:df:8f:ee:ce:15:26:
         1e:4c:67:bd:75:9f:3f:b6:49:60:82:f1:79:ab:02:62:b3:ad:
         09:fb:1e:00:27:9b:aa:a6:92:ee:d6:3c:df:ac:ef:35:0e:7d:
         48:07:dd:47:9b:41:5b:b0:a8:aa:e7:f5:f1:08:4a:62:cf:69:
         20:09:9f:42:c4:12:fc:5e:a9:14:02:20:bb:38:76:fc:e2:d2:
         82:05:47:8b:9d:64:c3:86:32:e5:aa:89:2c:1a:54:39:6e:4d:
         9d:6a:5b:c6:07:03:91:c8:b1:b7:10:be:7f:69:89:04:65:be:
         82:50:10:d3:74:89:ee:1f:c7:ca:94:49:fa:11:f6:9a:32:43:
         cd:a1:fe:47:8a:17:7c:b9:ab:15:03:96:58:ef:0b:ba:d6:6b:
         c4:f2:16:8d:a0:85:24:29:29:d0:79:9b:ed:86:eb:e3:a6:1a:
         e5:e0:db:c3:3a:84:9a:df
-----BEGIN CERTIFICATE-----
MIIGcTCCBFmgAwIBAgICAMAwDQYJKoZIhvcNAQELBQAwUDELMAkGA1UEBhMCRlIx
DDAKBgNVBAgMA2lkZjEOMAwGA1UEBwwFcGFyaXMxDzANBgNVBAoMBlZpdGFtLjES
MBAGA1UEAwwJQ0Ffc2VydmVyMB4XDTE3MDMwNjE4MDQxNFoXDTIwMDMwNTE4MDQx
NFowZTELMAkGA1UEBhMCRlIxDDAKBgNVBAgMA2lkZjEOMAwGA1UEBwwFcGFyaXMx
DzANBgNVBAoMBlZpdGFtLjEnMCUGA1UEAwweYWNjZXNzLWV4dGVybmFsLnNlcnZp
Y2UuY29uc3VsMIICIjANBgkqhkiG9w0BAQEFAAOCAg8AMIICCgKCAgEAp6TVji3y
aa7F0OysISRe30Y6a8uJl3Ovam03WFUF1wcdfavM4TpHhzstA9C2xxDtzG3qiSDS
vi1uHEuCJ6crCLlEGTlyn+in1iFzRbCzuDwQm2ZaF296GPvffgT4zLEq9dqfUKtc
b4QHIolkEjQXM0Svu6DI3M1dtAuLdpYX68ffzc2Yk1Hl2yixEGhuJCHTqtuu6Rib
q+jD5MbunaWo3goxmS1XpGjXyxkg4OyJ3CxqInUvpvJp2Apw13Zd8wSjbzHb+ZK1
L592/p9U41y93mhZLTSsV/fqLz8J6u1usF72/ETiLMj6B5GeLEtLm2+nFIM9pIhI
IMUyLIFkmhS6jXPoFk474wxUk2TKqQoVzbY3b8j+OL7EVWQMA4r66GKma71icrx3
IhTV0EK4L4AT6HYGXYuvIRyOhLcUeYF7DoM7f4OPRNLlsevO3i5bvyo6PT7X8wYI
VhjAdd2OsepRLwYCZXGmgTu8x5LCfdOG0RqhUh5bmrVvE/Vvh3NWJTSON+eaXsup
VI3R5tQJu0qUrYopnlE8oak4/f6HAu0orNuJI5t2hLf6/bBM+KJPJN5Rlf3IVwr7
BcN2scVeT5MtPCVPW0bPnIM9DTe+lrt4kZ+dy945qlW4GcEu/pgmz2jkU9PXhhR1
BKnEvSA4cFesaojbQ5tb73BqtZwliCw26bECAwEAAaOCAT4wggE6MCUGCWCGSAGG
+EIBDQQYFhZDZXJ0aWZpY2F0IFNlcnZldXIgU1NMMB0GA1UdDgQWBBRL4o7Yv2Uc
mjHXsBiTDvoAsxh6xDB5BgNVHSMEcjBwgBQCHdOdMRXSFnExI76YBewxQud36KFU
pFIwUDELMAkGA1UEBhMCRlIxDDAKBgNVBAgMA2lkZjEOMAwGA1UEBwwFcGFyaXMx
DzANBgNVBAoMBlZpdGFtLjESMBAGA1UEAwwJQ0Ffc2VydmVyggIAvjAJBgNVHRIE
AjAAMCkGA1UdEQQiMCCCHmluZ2VzdC1leHRlcm5hbC5zZXJ2aWNlLmNvbnN1bDAM
BgNVHRMBAf8EAjAAMAsGA1UdDwQEAwIF4DARBglghkgBhvhCAQEEBAMCBkAwEwYD
VR0lBAwwCgYIKwYBBQUHAwEwDQYJKoZIhvcNAQELBQADggIBAHGJQraymasC+Ovu
GzwPYZdQ3cnfd80WToXZcV2+qD+JmA9/pXsl/pLXWb/JO4cUzZyFega1Q3Nzxbwg
xFYufNcx1318Rk1D0Gty4DZu/dTQjfR/hMGwZyPuwzU1AyRszwqnGKQGfESbaNWr
FVAKoqkXCuiLuf6un8OuNYLOLI7oagBJ+G3Ax+6SZE0dQ2DepojhyyCy9cGs14qe
0Zws5crV5ufbmdyBTAT8J5ymNu98x4ajERbyfTZKh7YAoh/K+LWbPyX8/WFMGbKn
l8Jjp7XY+pK5dhwtJv9B9ygWThpxfts/9FU02jiTQKfQq6/FuzWZTtiI6okyF1qi
Indy9hdP3WLXW1af0ohmDmK7tlJ0Dfp+KQ8faqGpmK1eNnVZEg6KMEoK+6Tdqjf/
1B6bKA1hGiz/jGbmZAok3xggJY58NWOz9yN1Xw9FYlR5NQCcFd+P7s4VJh5MZ711
nz+2SWCC8XmrAmKzrQn7HgAnm6qmku7WPN+s7zUOfUgH3UebQVuwqKrn9fEISmLP
aSAJn0LEEvxeqRQCILs4dvzi0oIFR4udZMOGMuWqiSwaVDluTZ1qW8YHA5HIsbcQ
vn9piQRlvoJQENN0ie4fx8qUSfoR9poyQ82h/keKF3y5qxUDlljvC7rWa8TyFo2g
hSQpKdB5m+2G6+OmGuXg28M6hJrf
-----END CERTIFICATE-----
