Certificate:
    Data:
        Version: 3 (0x2)
        Serial Number: 197 (0xc5)
    Signature Algorithm: sha256WithRSAEncryption
        Issuer: C=FR, ST=idf, L=paris, O=Vitam., CN=CA_server
        Validity
            Not Before: Mar 15 12:18:46 2017 GMT
            Not After : Mar 14 12:18:46 2020 GMT
        Subject: C=FR, ST=idf, L=paris, O=Vitam., CN=access-external.service.consul
        Subject Public Key Info:
            Public Key Algorithm: rsaEncryption
                Public-Key: (4096 bit)
                Modulus:
                    00:b9:bd:a3:23:fd:38:4f:5b:88:47:55:fb:b7:43:
                    43:1b:86:3a:be:5d:72:6f:3c:d5:d6:97:3c:41:6f:
                    59:96:ac:46:40:41:e7:11:a4:8d:dd:29:bc:18:10:
                    a5:f7:44:5b:96:12:9e:76:d4:ab:4b:2b:9d:8c:c3:
                    bc:69:dc:20:78:75:ff:f0:65:96:94:16:df:e0:cc:
                    61:f3:44:9c:1b:26:bf:1d:ef:2f:b3:6f:ac:57:5c:
                    f7:69:18:e1:27:f0:66:c6:2d:83:4e:91:f4:8e:54:
                    32:19:b1:9f:f3:83:02:01:ef:37:74:50:7e:73:0b:
                    01:06:be:ef:5f:f0:d1:ab:0c:de:f2:e6:92:1e:bb:
                    f8:bd:4d:f0:39:93:25:e8:a6:94:96:8e:28:d3:4e:
                    b3:52:87:9d:dc:42:af:b3:9a:9d:61:8b:61:56:d9:
                    38:00:1e:9d:b7:8e:ad:68:47:e1:ca:0f:9b:a9:d5:
                    1d:b5:1e:55:b5:3c:11:40:29:a1:f2:6e:24:f5:a0:
                    f8:fc:53:d2:6e:3f:82:25:89:1c:bb:a1:ea:09:0a:
                    ce:66:14:d7:5c:bb:68:e6:f6:47:6d:56:e9:78:aa:
                    9b:92:55:33:cd:bc:c9:b6:94:20:6b:ed:14:15:80:
                    43:d1:a9:c0:3a:dc:34:a9:40:d7:36:d2:75:54:0b:
                    a0:d4:81:3b:34:71:0a:20:d6:89:61:ee:ee:50:3e:
                    72:56:09:f5:05:fb:48:c1:27:8e:dc:50:b4:71:50:
                    0d:10:c6:52:4c:84:44:16:19:2a:98:b1:77:3a:dd:
                    98:0e:ff:43:74:bc:da:e5:9a:54:c9:fd:19:59:54:
                    8b:f2:29:8b:a6:a6:c1:46:fd:39:c1:2f:91:9f:ca:
                    9c:63:32:02:43:07:78:cc:8c:cb:24:05:ff:b0:d9:
                    a2:6a:75:97:a6:4a:74:28:1d:c9:2b:f5:ad:37:ee:
                    9b:1e:5f:67:d0:b8:69:e7:ad:4d:79:96:27:bb:af:
                    12:90:b4:33:82:c0:22:f2:1c:ae:48:12:cd:3a:e0:
                    93:d2:0e:b4:03:de:76:11:25:09:c1:29:be:02:48:
                    dd:65:08:35:7e:5d:90:c9:a4:e2:cb:fe:8d:bf:57:
                    2d:5c:bd:5b:72:f4:6b:02:91:d1:e7:12:87:2d:8e:
                    4f:fe:8a:a7:9b:48:dc:fb:1b:9c:01:72:89:d9:3c:
                    25:f1:41:13:af:6d:8a:cb:d9:03:3c:95:ab:38:e8:
                    41:39:54:88:a7:e8:d2:36:53:d7:e0:d6:65:59:ac:
                    ee:10:39:2e:61:e8:c9:f8:61:9c:88:7f:32:05:5b:
                    05:5a:cf:89:71:98:a1:92:58:21:c8:05:4f:51:0e:
                    d1:92:99
                Exponent: 65537 (0x10001)
        X509v3 extensions:
            Netscape Comment: 
                Certificat Serveur SSL
            X509v3 Subject Key Identifier: 
                0E:04:22:F5:CF:5A:DC:24:3D:A7:15:BE:D0:C8:F1:9A:33:3E:16:CA
            X509v3 Authority Key Identifier: 
                keyid:0F:DF:43:C3:C4:C2:8F:E7:DB:7B:5F:A7:FF:B7:ED:6D:B7:B0:0D:4B
                DirName:/C=FR/ST=idf/L=paris/O=Vitam./CN=CA_server
                serial:C3

            X509v3 Issuer Alternative Name: 
                <EMPTY>

            X509v3 Subject Alternative Name: 
                DNS:ingest-external.service.consul
            X509v3 Basic Constraints: critical
                CA:FALSE
            X509v3 Key Usage: 
                Digital Signature, Non Repudiation, Key Encipherment
            Netscape Cert Type: 
                SSL Server
            X509v3 Extended Key Usage: 
                TLS Web Server Authentication
    Signature Algorithm: sha256WithRSAEncryption
         75:24:25:72:ac:71:97:14:09:b9:38:ad:bb:38:67:f1:b4:cd:
         cd:e2:00:c8:0c:76:03:21:d1:27:da:e2:84:24:f1:89:90:ee:
         fb:26:8a:95:a6:72:14:52:6f:db:41:75:c1:82:72:7b:b3:54:
         0a:ae:79:36:9a:dc:78:b2:72:1c:14:d9:04:4c:ec:eb:01:62:
         5a:d9:1a:70:30:51:17:ce:02:f9:c7:2d:d1:b9:85:6c:31:ab:
         42:2b:7f:d0:1f:b9:4e:95:1a:18:2e:4b:b6:93:9f:68:2d:13:
         9a:e2:4f:a3:a8:74:d9:f8:be:3b:5c:03:67:ce:07:11:fb:66:
         e3:37:de:9b:b7:db:17:22:98:96:bc:5c:41:fc:f1:32:fd:cc:
         42:ce:02:b8:57:2b:3e:4e:8e:8a:4f:ab:aa:28:3a:18:5a:2f:
         f1:fc:13:97:d6:af:f2:18:4f:12:cb:21:5f:00:84:f9:8b:26:
         f5:ee:57:5d:4f:4a:04:db:0f:a3:ec:09:e8:a6:8f:bd:d2:42:
         7b:82:9d:f4:17:51:3c:36:f1:6e:7e:f3:78:a9:95:d6:e9:57:
         ef:9a:68:04:25:fc:65:f6:dd:4a:9a:92:6c:3d:02:be:77:16:
         9e:bd:d1:9e:ee:52:b2:12:c2:1b:26:0f:51:81:5c:b8:58:ea:
         88:c0:82:3a:31:dd:d7:50:7b:78:57:b8:ea:f3:84:22:cd:0d:
         61:96:95:41:14:22:99:db:36:e2:89:b6:d8:91:c3:16:57:be:
         2a:72:95:a4:38:e5:38:8a:44:d9:6e:35:44:52:ce:01:bb:72:
         d8:d3:98:f0:d1:24:5c:af:f0:41:68:48:d4:ac:f4:82:fc:5a:
         2c:c8:84:52:98:d7:f7:a4:b4:fe:be:e4:70:dd:4d:a6:86:76:
         55:96:e3:6e:fe:cf:8a:59:00:31:3f:e0:9e:cd:28:4f:6a:79:
         10:1c:6d:51:10:cc:87:ed:28:f9:42:c1:9b:54:da:a9:9e:c7:
         97:01:50:70:0e:00:6e:38:24:ad:55:b8:46:67:b9:41:f6:b7:
         e4:3f:2f:c5:4f:7f:fb:d5:87:4f:bc:1f:f8:56:08:52:f8:9e:
         c7:eb:d0:c7:f9:a6:28:7d:72:26:f4:41:6a:57:62:b4:25:75:
         a4:bf:be:ec:d6:82:d1:d6:3d:a6:3d:27:d4:b7:76:e4:ff:b4:
         9b:55:33:e7:70:f3:38:35:65:dd:68:1e:4f:4d:ab:8a:3a:e4:
         d6:ff:69:35:92:ee:2c:cc:5f:69:44:86:51:b8:f5:95:e7:0a:
         75:9b:fb:c7:11:16:d7:4e:8b:2d:6f:9c:46:0f:64:de:46:5a:
         9d:3d:09:f0:fe:90:2d:c1
-----BEGIN CERTIFICATE-----
MIIGcTCCBFmgAwIBAgICAMUwDQYJKoZIhvcNAQELBQAwUDELMAkGA1UEBhMCRlIx
DDAKBgNVBAgTA2lkZjEOMAwGA1UEBxMFcGFyaXMxDzANBgNVBAoTBlZpdGFtLjES
MBAGA1UEAxQJQ0Ffc2VydmVyMB4XDTE3MDMxNTEyMTg0NloXDTIwMDMxNDEyMTg0
NlowZTELMAkGA1UEBhMCRlIxDDAKBgNVBAgTA2lkZjEOMAwGA1UEBxMFcGFyaXMx
DzANBgNVBAoTBlZpdGFtLjEnMCUGA1UEAxMeYWNjZXNzLWV4dGVybmFsLnNlcnZp
Y2UuY29uc3VsMIICIjANBgkqhkiG9w0BAQEFAAOCAg8AMIICCgKCAgEAub2jI/04
T1uIR1X7t0NDG4Y6vl1ybzzV1pc8QW9ZlqxGQEHnEaSN3Sm8GBCl90RblhKedtSr
SyudjMO8adwgeHX/8GWWlBbf4Mxh80ScGya/He8vs2+sV1z3aRjhJ/Bmxi2DTpH0
jlQyGbGf84MCAe83dFB+cwsBBr7vX/DRqwze8uaSHrv4vU3wOZMl6KaUlo4o006z
Uoed3EKvs5qdYYthVtk4AB6dt46taEfhyg+bqdUdtR5VtTwRQCmh8m4k9aD4/FPS
bj+CJYkcu6HqCQrOZhTXXLto5vZHbVbpeKqbklUzzbzJtpQga+0UFYBD0anAOtw0
qUDXNtJ1VAug1IE7NHEKINaJYe7uUD5yVgn1BftIwSeO3FC0cVANEMZSTIREFhkq
mLF3Ot2YDv9DdLza5ZpUyf0ZWVSL8imLpqbBRv05wS+Rn8qcYzICQwd4zIzLJAX/
sNmianWXpkp0KB3JK/WtN+6bHl9n0Lhp561NeZYnu68SkLQzgsAi8hyuSBLNOuCT
0g60A952ESUJwSm+AkjdZQg1fl2QyaTiy/6Nv1ctXL1bcvRrApHR5xKHLY5P/oqn
m0jc+xucAXKJ2Twl8UETr22Ky9kDPJWrOOhBOVSIp+jSNlPX4NZlWazuEDkuYejJ
+GGciH8yBVsFWs+JcZihklghyAVPUQ7RkpkCAwEAAaOCAT4wggE6MCUGCWCGSAGG
+EIBDQQYFhZDZXJ0aWZpY2F0IFNlcnZldXIgU1NMMB0GA1UdDgQWBBQOBCL1z1rc
JD2nFb7QyPGaMz4WyjB5BgNVHSMEcjBwgBQP30PDxMKP59t7X6f/t+1tt7ANS6FU
pFIwUDELMAkGA1UEBhMCRlIxDDAKBgNVBAgTA2lkZjEOMAwGA1UEBxMFcGFyaXMx
DzANBgNVBAoTBlZpdGFtLjESMBAGA1UEAxQJQ0Ffc2VydmVyggIAwzAJBgNVHRIE
AjAAMCkGA1UdEQQiMCCCHmluZ2VzdC1leHRlcm5hbC5zZXJ2aWNlLmNvbnN1bDAM
BgNVHRMBAf8EAjAAMAsGA1UdDwQEAwIF4DARBglghkgBhvhCAQEEBAMCBkAwEwYD
VR0lBAwwCgYIKwYBBQUHAwEwDQYJKoZIhvcNAQELBQADggIBAHUkJXKscZcUCbk4
rbs4Z/G0zc3iAMgMdgMh0Sfa4oQk8YmQ7vsmipWmchRSb9tBdcGCcnuzVAqueTaa
3HiychwU2QRM7OsBYlrZGnAwURfOAvnHLdG5hWwxq0Irf9AfuU6VGhguS7aTn2gt
E5riT6OodNn4vjtcA2fOBxH7ZuM33pu32xcimJa8XEH88TL9zELOArhXKz5OjopP
q6ooOhhaL/H8E5fWr/IYTxLLIV8AhPmLJvXuV11PSgTbD6PsCeimj73SQnuCnfQX
UTw28W5+83ipldbpV++aaAQl/GX23Uqakmw9Ar53Fp690Z7uUrISwhsmD1GBXLhY
6ojAgjox3ddQe3hXuOrzhCLNDWGWlUEUIpnbNuKJttiRwxZXvipylaQ45TiKRNlu
NURSzgG7ctjTmPDRJFyv8EFoSNSs9IL8WizIhFKY1/ektP6+5HDdTaaGdlWW427+
z4pZADE/4J7NKE9qeRAcbVEQzIftKPlCwZtU2qmex5cBUHAOAG44JK1VuEZnuUH2
t+Q/L8VPf/vVh0+8H/hWCFL4nsfr0Mf5pih9cib0QWpXYrQldaS/vuzWgtHWPaY9
J9S3duT/tJtVM+dw8zg1Zd1oHk9Nq4o65Nb/aTWS7izMX2lEhlG49ZXnCnWb+8cR
FtdOiy1vnEYPZN5GWp09CfD+kC3B
-----END CERTIFICATE-----
