Certificate:
    Data:
        Version: 3 (0x2)
        Serial Number: 191 (0xbf)
    Signature Algorithm: sha256WithRSAEncryption
        Issuer: C=FR, ST=idf, L=paris, O=Vitam., CN=CA_server
        Validity
            Not Before: Mar  6 18:04:13 2017 GMT
            Not After : Mar  5 18:04:13 2020 GMT
        Subject: C=FR, ST=idf, L=paris, O=Vitam., CN=ingest-external.service.consul
        Subject Public Key Info:
            Public Key Algorithm: rsaEncryption
                Public-Key: (4096 bit)
                Modulus:
                    00:c4:2a:12:86:fd:77:48:8c:19:08:4b:86:58:4b:
                    7a:c8:4c:9b:0b:e1:8e:50:f7:8d:b5:d6:ee:01:26:
                    45:ed:49:10:39:2c:62:a7:ff:40:a6:39:fa:f5:37:
                    c7:a5:2f:25:45:8c:d4:e7:8f:a2:58:41:3f:93:86:
                    19:b9:01:78:fb:6f:8b:ef:f1:61:22:96:87:41:f0:
                    0f:4a:79:a3:39:20:42:7d:86:1c:e8:0e:d3:3f:44:
                    ec:36:38:62:d7:09:3f:3d:b7:19:6b:35:db:9a:64:
                    c3:0c:06:df:c2:d0:92:8c:b4:dc:6d:57:c0:00:25:
                    a2:6b:35:3d:63:eb:6f:5d:ce:25:9f:8b:3a:63:59:
                    83:68:3e:0e:8a:75:23:aa:fc:9c:45:fb:15:27:d9:
                    9a:e8:db:5e:12:99:95:ed:1a:2c:e8:19:18:6c:ee:
                    26:52:a2:8f:0f:46:60:29:9a:3e:60:38:ad:91:b5:
                    cc:78:34:27:f1:fa:9c:66:64:22:5e:ff:2a:d6:58:
                    c5:99:2b:0c:a4:80:b9:e1:38:54:ae:e9:58:aa:c7:
                    cf:3f:e9:8a:0c:4b:f4:de:12:4b:f7:ba:b0:cb:01:
                    9a:29:2f:46:73:6c:11:8a:c9:a4:36:fc:9a:a5:e2:
                    60:27:74:0e:29:c9:b7:11:eb:9f:3c:52:00:90:50:
                    e0:ab:07:dc:d3:9e:5c:ef:ea:c0:d1:d2:ba:c1:c0:
                    93:70:cb:a5:14:99:25:90:07:62:9c:dd:e1:f4:40:
                    a9:fb:1a:f3:ab:f3:a9:9b:81:40:57:9e:b1:eb:e6:
                    e7:8f:d7:aa:ea:c7:fe:b5:20:f5:19:50:5f:6e:ae:
                    55:78:4d:23:ba:95:8a:9f:08:0d:3f:af:1d:37:d7:
                    34:46:b7:51:37:f3:d1:51:05:d4:04:bd:cc:4f:0b:
                    29:39:a4:57:33:46:55:3a:aa:10:6d:b7:92:22:bd:
                    d2:78:ef:03:83:4d:25:ef:5b:36:9c:76:4d:70:dc:
                    de:a4:27:27:ba:6d:4b:1d:f3:d6:a2:35:51:d2:6a:
                    c5:69:7b:d4:7c:ec:c2:5e:cf:06:6c:b1:90:42:e9:
                    5a:3a:0c:c9:c0:7f:67:df:60:bc:bd:20:85:57:b3:
                    4b:fb:08:0d:91:97:ba:55:77:7e:9d:97:55:3c:36:
                    12:72:6b:f1:74:2f:8f:38:58:3f:a3:c2:10:4d:5b:
                    c0:a8:87:2b:f7:0e:08:de:ae:b6:51:a2:5a:10:fc:
                    ea:de:0f:ba:72:c0:a2:fe:64:c0:46:38:17:70:84:
                    58:ad:cd:e7:37:56:b6:06:9a:96:3c:7a:46:c8:63:
                    29:a4:8f:3f:4b:fb:6d:83:5d:43:58:a4:50:3e:d6:
                    93:19:85
                Exponent: 65537 (0x10001)
        X509v3 extensions:
            Netscape Comment: 
                Certificat Serveur SSL
            X509v3 Subject Key Identifier: 
                AB:7D:91:AD:CF:EF:07:13:A7:C2:F9:30:E6:AB:46:16:D0:10:56:14
            X509v3 Authority Key Identifier: 
                keyid:02:1D:D3:9D:31:15:D2:16:71:31:23:BE:98:05:EC:31:42:E7:77:E8
                DirName:/C=FR/ST=idf/L=paris/O=Vitam./CN=CA_server
                serial:BE

            X509v3 Issuer Alternative Name: 
                <EMPTY>

            X509v3 Subject Alternative Name: 
                DNS:ingest-external.service.consul
            X509v3 Basic Constraints: critical
                CA:FALSE
            X509v3 Key Usage: 
                Digital Signature, Non Repudiation, Key Encipherment
            Netscape Cert Type: 
                SSL Server
            X509v3 Extended Key Usage: 
                TLS Web Server Authentication
    Signature Algorithm: sha256WithRSAEncryption
         88:73:c6:33:d5:2b:cb:48:bc:c5:aa:c2:4a:1c:62:9d:af:fc:
         6a:5c:d5:a2:5a:7e:18:d8:c2:0b:5f:1a:70:83:9a:25:ef:86:
         dd:72:55:b8:4b:55:23:1f:77:8b:20:a6:e7:c8:a6:20:0e:b9:
         37:48:58:57:22:8f:a1:22:83:e0:b2:73:9e:bb:5f:73:f5:9d:
         86:01:73:81:d4:a5:8f:fb:c4:f4:fe:7d:2e:21:3f:f2:71:09:
         f7:53:e2:77:e8:e1:08:87:55:71:96:32:b3:97:fa:df:80:28:
         a4:66:04:01:a2:0f:48:70:db:c5:08:16:39:be:1f:d2:d2:b6:
         f2:3e:b2:bf:44:da:3b:ce:65:08:96:24:65:49:72:71:b2:10:
         40:7f:29:8a:ed:ef:45:c9:1e:1b:23:c0:2d:f8:85:94:5a:c0:
         08:ba:1e:1b:ec:57:54:86:a4:52:d9:50:a5:2c:08:42:d4:e4:
         7c:c4:cd:ac:31:7f:01:5d:7e:6c:67:25:78:88:b7:fe:b0:99:
         d3:9c:5f:dc:18:08:b0:38:85:29:2b:a6:2f:c8:f6:ee:9d:e3:
         62:e9:50:e1:f7:19:d4:a2:c5:6e:55:ae:95:89:65:3b:97:a2:
         fe:43:62:49:bc:0d:90:fb:04:3e:a1:3c:7a:e1:37:72:8b:65:
         1f:cc:cf:32:a8:9a:49:ea:af:1a:34:8f:9b:59:fa:7d:0e:70:
         7e:b4:20:20:92:60:b6:30:c1:7f:df:45:66:f7:85:7f:a0:57:
         49:d2:ad:3e:52:d3:93:c9:8d:ac:cc:f7:0f:77:b1:d4:e1:7f:
         10:6c:bc:0a:55:b2:51:dc:fe:24:b3:2f:df:65:ab:46:5e:7f:
         67:0a:4b:45:2b:96:21:38:59:f9:1c:b5:ba:f8:64:d8:27:f4:
         3e:7a:97:60:0c:19:10:bc:a9:a7:70:d7:2e:fb:ee:58:fa:22:
         42:f4:f4:f1:44:f6:ad:cc:3a:5a:ba:23:53:eb:93:78:db:70:
         40:01:4f:3b:2e:1a:42:e1:97:e6:64:54:5a:7d:66:b7:d1:2c:
         63:47:98:1b:79:a7:90:3b:14:cb:75:53:1d:9c:7e:2e:3e:4f:
         b9:81:c6:09:1c:05:3f:e6:3c:06:dc:db:c1:86:ca:12:39:ff:
         6b:2b:04:b1:71:14:ed:41:dc:be:e0:e2:cb:68:b5:b7:aa:2a:
         bd:8c:d6:f3:59:a1:5e:b6:d4:d9:46:01:5c:1f:48:34:a7:38:
         1e:1e:5b:79:d2:8f:5f:2e:d8:8e:8b:91:78:90:e6:7b:e9:0e:
         1b:e1:11:5b:2a:2f:88:ce:d5:84:5f:7d:8b:52:99:4e:75:64:
         1c:2d:da:a3:ad:54:f6:c5
-----BEGIN CERTIFICATE-----
MIIGcTCCBFmgAwIBAgICAL8wDQYJKoZIhvcNAQELBQAwUDELMAkGA1UEBhMCRlIx
DDAKBgNVBAgMA2lkZjEOMAwGA1UEBwwFcGFyaXMxDzANBgNVBAoMBlZpdGFtLjES
MBAGA1UEAwwJQ0Ffc2VydmVyMB4XDTE3MDMwNjE4MDQxM1oXDTIwMDMwNTE4MDQx
M1owZTELMAkGA1UEBhMCRlIxDDAKBgNVBAgMA2lkZjEOMAwGA1UEBwwFcGFyaXMx
DzANBgNVBAoMBlZpdGFtLjEnMCUGA1UEAwweaW5nZXN0LWV4dGVybmFsLnNlcnZp
Y2UuY29uc3VsMIICIjANBgkqhkiG9w0BAQEFAAOCAg8AMIICCgKCAgEAxCoShv13
SIwZCEuGWEt6yEybC+GOUPeNtdbuASZF7UkQOSxip/9Apjn69TfHpS8lRYzU54+i
WEE/k4YZuQF4+2+L7/FhIpaHQfAPSnmjOSBCfYYc6A7TP0TsNjhi1wk/PbcZazXb
mmTDDAbfwtCSjLTcbVfAACWiazU9Y+tvXc4ln4s6Y1mDaD4OinUjqvycRfsVJ9ma
6NteEpmV7Ros6BkYbO4mUqKPD0ZgKZo+YDitkbXMeDQn8fqcZmQiXv8q1ljFmSsM
pIC54ThUrulYqsfPP+mKDEv03hJL97qwywGaKS9Gc2wRismkNvyapeJgJ3QOKcm3
EeufPFIAkFDgqwfc055c7+rA0dK6wcCTcMulFJklkAdinN3h9ECp+xrzq/Opm4FA
V56x6+bnj9eq6sf+tSD1GVBfbq5VeE0jupWKnwgNP68dN9c0RrdRN/PRUQXUBL3M
TwspOaRXM0ZVOqoQbbeSIr3SeO8Dg00l71s2nHZNcNzepCcnum1LHfPWojVR0mrF
aXvUfOzCXs8GbLGQQulaOgzJwH9n32C8vSCFV7NL+wgNkZe6VXd+nZdVPDYScmvx
dC+POFg/o8IQTVvAqIcr9w4I3q62UaJaEPzq3g+6csCi/mTARjgXcIRYrc3nN1a2
BpqWPHpGyGMppI8/S/ttg11DWKRQPtaTGYUCAwEAAaOCAT4wggE6MCUGCWCGSAGG
+EIBDQQYFhZDZXJ0aWZpY2F0IFNlcnZldXIgU1NMMB0GA1UdDgQWBBSrfZGtz+8H
E6fC+TDmq0YW0BBWFDB5BgNVHSMEcjBwgBQCHdOdMRXSFnExI76YBewxQud36KFU
pFIwUDELMAkGA1UEBhMCRlIxDDAKBgNVBAgMA2lkZjEOMAwGA1UEBwwFcGFyaXMx
DzANBgNVBAoMBlZpdGFtLjESMBAGA1UEAwwJQ0Ffc2VydmVyggIAvjAJBgNVHRIE
AjAAMCkGA1UdEQQiMCCCHmluZ2VzdC1leHRlcm5hbC5zZXJ2aWNlLmNvbnN1bDAM
BgNVHRMBAf8EAjAAMAsGA1UdDwQEAwIF4DARBglghkgBhvhCAQEEBAMCBkAwEwYD
VR0lBAwwCgYIKwYBBQUHAwEwDQYJKoZIhvcNAQELBQADggIBAIhzxjPVK8tIvMWq
wkocYp2v/Gpc1aJafhjYwgtfGnCDmiXvht1yVbhLVSMfd4sgpufIpiAOuTdIWFci
j6Eig+Cyc567X3P1nYYBc4HUpY/7xPT+fS4hP/JxCfdT4nfo4QiHVXGWMrOX+t+A
KKRmBAGiD0hw28UIFjm+H9LStvI+sr9E2jvOZQiWJGVJcnGyEEB/KYrt70XJHhsj
wC34hZRawAi6HhvsV1SGpFLZUKUsCELU5HzEzawxfwFdfmxnJXiIt/6wmdOcX9wY
CLA4hSkrpi/I9u6d42LpUOH3GdSixW5VrpWJZTuXov5DYkm8DZD7BD6hPHrhN3KL
ZR/MzzKomknqrxo0j5tZ+n0OcH60ICCSYLYwwX/fRWb3hX+gV0nSrT5S05PJjazM
9w93sdThfxBsvApVslHc/iSzL99lq0Zef2cKS0UrliE4Wfkctbr4ZNgn9D56l2AM
GRC8qadw1y777lj6IkL09PFE9q3MOlq6I1Prk3jbcEABTzsuGkLhl+ZkVFp9ZrfR
LGNHmBt5p5A7FMt1Ux2cfi4+T7mBxgkcBT/mPAbc28GGyhI5/2srBLFxFO1B3L7g
4stotbeqKr2M1vNZoV621NlGAVwfSDSnOB4eW3nSj18u2I6LkXiQ5nvpDhvhEVsq
L4jO1YRffYtSmU51ZBwt2qOtVPbF
-----END CERTIFICATE-----
