Certificate:
    Data:
        Version: 3 (0x2)
        Serial Number: 200 (0xc8)
    Signature Algorithm: sha256WithRSAEncryption
        Issuer: C=fr, ST=idf, L=paris, O=vitam, OU=authorities, CN=ca_root_server
        Validity
            Not Before: Jul 12 14:29:00 2017 GMT
            Not After : Jul 10 14:29:00 2027 GMT
        Subject: C=fr, ST=idf, L=paris, O=vitam, OU=authorities, CN=ca_intermediate_server
        Subject Public Key Info:
            Public Key Algorithm: rsaEncryption
                Public-Key: (4096 bit)
                Modulus:
                    00:c4:3a:a5:0d:b3:06:9f:e8:8e:43:36:0a:a2:b8:
                    90:44:ab:bc:8b:9f:29:71:17:04:1a:08:14:0f:db:
                    61:f1:44:ef:19:fd:c5:c4:8d:d1:13:43:77:8a:dc:
                    e6:fb:90:8d:c7:5f:77:81:86:d0:eb:fd:2e:7c:5b:
                    5b:62:4e:5e:9c:ec:ff:49:15:1f:72:1e:cd:2f:41:
                    97:6c:c6:95:12:cb:cb:3a:5c:d6:9b:36:f4:c5:20:
                    10:bc:1f:8c:7a:f0:40:6e:7c:6d:c5:6a:f8:64:73:
                    cf:dc:84:30:eb:7a:5b:61:af:69:3a:d2:da:bf:f6:
                    6a:87:5d:42:8b:d0:3f:d1:30:ec:e0:80:34:de:d2:
                    88:5a:09:bc:b4:b1:33:e7:8f:b7:2a:a9:a3:44:6c:
                    07:6f:4d:c0:15:87:70:ff:4c:11:84:1c:41:16:e8:
                    0a:3e:a5:1f:ff:57:89:13:24:a2:c8:47:77:93:0e:
                    06:61:84:df:fa:be:60:6c:dd:94:45:c4:9b:27:d8:
                    cc:be:54:dd:62:54:1e:37:f4:02:50:f2:36:34:0d:
                    4f:19:7e:c4:9f:8d:b6:95:3f:e1:b2:a8:00:70:58:
                    63:c5:a9:12:1f:26:e7:89:48:a8:83:2c:68:1c:02:
                    9a:89:78:44:55:72:c6:43:d3:60:88:87:89:63:aa:
                    9b:c0:c5:fa:49:df:65:db:33:e5:e1:a0:4c:1d:22:
                    34:1b:62:3c:0b:2e:cc:fe:19:01:0b:ce:f2:1e:ea:
                    8c:c4:31:01:42:72:11:78:dd:f4:f0:8a:eb:45:1d:
                    c6:31:42:be:86:bb:94:e0:d4:66:49:75:60:53:64:
                    d3:f0:8b:af:f1:19:0f:d3:9a:75:4e:dc:d9:d8:de:
                    08:e6:19:61:89:9d:c2:bc:b6:1c:b8:a6:33:9d:a3:
                    fa:89:ff:9e:3f:1f:08:0d:43:0e:0f:d0:e3:15:de:
                    6b:4f:07:7f:d4:71:6f:92:0e:a5:0f:1a:63:bb:c4:
                    b8:cf:0f:ac:22:86:57:71:fa:10:1c:72:2b:45:cd:
                    41:42:3f:31:d5:91:36:eb:dd:03:83:48:dd:52:af:
                    14:e1:ca:69:ec:34:e8:c9:c2:a7:1d:bf:22:e5:e5:
                    d1:81:e1:31:5c:5c:27:60:8d:1f:40:a3:60:01:d9:
                    9c:4c:99:63:fa:2e:f8:54:ce:a2:bb:d9:c1:6e:97:
                    87:07:e8:56:82:bd:34:de:51:a5:a5:bd:80:4f:de:
                    3c:7c:32:3d:60:77:c5:2a:ec:d2:d4:4d:c7:6b:9f:
                    94:39:59:1c:c0:90:5e:01:44:38:cf:df:fa:89:60:
                    a9:bc:d8:14:5e:8b:9d:64:86:c3:22:48:a8:52:8c:
                    4d:1c:8d
                Exponent: 65537 (0x10001)
        X509v3 extensions:
            Netscape Comment: 
                CA Intermediate
            X509v3 Subject Key Identifier: 
                80:0B:DF:DC:D5:21:B0:C8:E3:CC:91:21:8F:29:18:A0:6E:B4:C8:12
            X509v3 Authority Key Identifier: 
                keyid:BF:9A:3A:FF:34:48:10:6A:20:F1:63:0F:DF:2C:14:45:B9:54:13:CC
                DirName:/C=fr/ST=idf/L=paris/O=vitam/OU=authorities/CN=ca_root_server
                serial:C7

            X509v3 Basic Constraints: critical
                CA:TRUE, pathlen:0
            X509v3 Issuer Alternative Name: 
                <EMPTY>

            X509v3 Key Usage: 
                Certificate Sign, CRL Sign
            Netscape Cert Type: 
                SSL CA
    Signature Algorithm: sha256WithRSAEncryption
         6a:93:6b:65:78:3f:72:f1:e4:de:59:aa:17:c1:81:f8:c1:cb:
         0b:a4:6d:7b:25:8e:d2:c1:3a:83:61:c3:24:bf:da:a0:1e:cc:
         b6:21:bf:af:db:2d:27:bd:b5:21:36:8f:aa:2b:0f:4e:26:db:
         36:13:c1:da:84:a4:13:7e:44:3e:be:ff:fb:c2:62:2d:b3:e3:
         29:35:72:1e:36:1d:27:94:f6:45:9f:6e:2f:f0:50:c2:99:f5:
         68:f5:fa:44:7b:da:4e:d5:34:4a:c2:18:63:01:c5:b5:49:14:
         3a:fb:38:a8:34:d8:2d:26:c9:f9:e7:6b:d9:7f:e2:e3:5d:72:
         38:d1:75:67:46:bd:bc:a3:e7:ca:e9:a7:69:9f:63:81:cc:1d:
         88:7f:11:93:7b:b2:8c:d1:e4:10:7e:d9:a4:59:b7:8d:1e:08:
         80:db:55:59:29:e4:36:08:0c:e3:2d:fc:95:1d:72:32:2c:01:
         fe:21:29:69:04:eb:06:da:43:e5:c1:5d:00:d5:bc:ba:46:1c:
         eb:62:18:51:f2:23:d0:fb:11:17:9a:5b:84:25:81:8a:60:d6:
         a6:c9:1a:61:2f:5f:3e:a5:3b:42:0d:a0:d7:27:f5:65:54:af:
         89:d1:11:65:32:d9:52:1b:e9:b9:1c:b4:cf:81:ee:79:c6:a8:
         7c:13:d7:4a:e6:8f:cd:0a:dd:de:39:74:2c:75:17:11:2b:6b:
         de:c5:56:4e:57:77:f8:22:a4:61:04:3b:a9:3a:6b:84:ca:cc:
         44:d1:e7:8d:68:41:41:66:1e:00:a2:ea:94:1b:78:e9:5e:63:
         41:f3:54:a4:92:26:ce:55:5a:ec:94:c2:c1:6d:4b:3d:d5:0a:
         7b:1d:db:6b:bd:0c:9c:46:88:8b:6e:20:fb:19:94:84:f5:a0:
         2d:07:2b:f9:74:9b:12:16:39:dd:bc:2e:74:15:5c:cc:02:57:
         6a:80:9c:5a:94:db:35:e9:e7:d2:33:cc:62:3e:05:f0:28:a2:
         86:e2:0e:0f:a1:32:90:75:21:38:ee:d8:ea:b6:fc:90:a1:d8:
         40:c8:98:56:6a:0d:6d:1f:d9:4c:4e:fd:a6:0c:3d:0b:5c:96:
         61:d7:64:ce:2c:c4:a6:03:d0:bd:95:4c:ea:aa:dd:48:66:6e:
         c8:46:7c:1d:1b:0a:65:7e:35:a0:d0:5a:4a:b6:08:6a:7f:b0:
         46:3f:80:d1:22:45:03:75:26:db:ee:d8:6a:fc:f1:9a:e2:76:
         1b:3d:a9:fe:92:ed:8b:a2:28:fb:33:f6:2e:be:61:a7:36:2e:
         91:fa:a7:13:81:0b:f2:51:1c:ad:f2:c9:8a:38:3b:a7:3c:2c:
         63:7a:5e:20:be:8e:bf:eb
-----BEGIN CERTIFICATE-----
MIIGdDCCBFygAwIBAgICAMgwDQYJKoZIhvcNAQELBQAwajELMAkGA1UEBhMCZnIx
DDAKBgNVBAgMA2lkZjEOMAwGA1UEBwwFcGFyaXMxDjAMBgNVBAoMBXZpdGFtMRQw
EgYDVQQLDAthdXRob3JpdGllczEXMBUGA1UEAwwOY2Ffcm9vdF9zZXJ2ZXIwHhcN
MTcwNzEyMTQyOTAwWhcNMjcwNzEwMTQyOTAwWjByMQswCQYDVQQGEwJmcjEMMAoG
A1UECAwDaWRmMQ4wDAYDVQQHDAVwYXJpczEOMAwGA1UECgwFdml0YW0xFDASBgNV
BAsMC2F1dGhvcml0aWVzMR8wHQYDVQQDDBZjYV9pbnRlcm1lZGlhdGVfc2VydmVy
MIICIjANBgkqhkiG9w0BAQEFAAOCAg8AMIICCgKCAgEAxDqlDbMGn+iOQzYKoriQ
RKu8i58pcRcEGggUD9th8UTvGf3FxI3RE0N3itzm+5CNx193gYbQ6/0ufFtbYk5e
nOz/SRUfch7NL0GXbMaVEsvLOlzWmzb0xSAQvB+MevBAbnxtxWr4ZHPP3IQw63pb
Ya9pOtLav/Zqh11Ci9A/0TDs4IA03tKIWgm8tLEz54+3KqmjRGwHb03AFYdw/0wR
hBxBFugKPqUf/1eJEySiyEd3kw4GYYTf+r5gbN2URcSbJ9jMvlTdYlQeN/QCUPI2
NA1PGX7En422lT/hsqgAcFhjxakSHybniUiogyxoHAKaiXhEVXLGQ9NgiIeJY6qb
wMX6Sd9l2zPl4aBMHSI0G2I8Cy7M/hkBC87yHuqMxDEBQnIReN308IrrRR3GMUK+
hruU4NRmSXVgU2TT8Iuv8RkP05p1TtzZ2N4I5hlhiZ3CvLYcuKYznaP6if+ePx8I
DUMOD9DjFd5rTwd/1HFvkg6lDxpju8S4zw+sIoZXcfoQHHIrRc1BQj8x1ZE2690D
g0jdUq8U4cpp7DToycKnHb8i5eXRgeExXFwnYI0fQKNgAdmcTJlj+i74VM6iu9nB
bpeHB+hWgr003lGlpb2AT948fDI9YHfFKuzS1E3Ha5+UOVkcwJBeAUQ4z9/6iWCp
vNgUXoudZIbDIkioUoxNHI0CAwEAAaOCARowggEWMB4GCWCGSAGG+EIBDQQRFg9D
QSBJbnRlcm1lZGlhdGUwHQYDVR0OBBYEFIAL39zVIbDI48yRIY8pGKButMgSMIGV
BgNVHSMEgY0wgYqAFL+aOv80SBBqIPFjD98sFEW5VBPMoW6kbDBqMQswCQYDVQQG
EwJmcjEMMAoGA1UECAwDaWRmMQ4wDAYDVQQHDAVwYXJpczEOMAwGA1UECgwFdml0
YW0xFDASBgNVBAsMC2F1dGhvcml0aWVzMRcwFQYDVQQDDA5jYV9yb290X3NlcnZl
coICAMcwEgYDVR0TAQH/BAgwBgEB/wIBADAJBgNVHRIEAjAAMAsGA1UdDwQEAwIB
BjARBglghkgBhvhCAQEEBAMCAgQwDQYJKoZIhvcNAQELBQADggIBAGqTa2V4P3Lx
5N5ZqhfBgfjBywukbXsljtLBOoNhwyS/2qAezLYhv6/bLSe9tSE2j6orD04m2zYT
wdqEpBN+RD6+//vCYi2z4yk1ch42HSeU9kWfbi/wUMKZ9Wj1+kR72k7VNErCGGMB
xbVJFDr7OKg02C0myfnna9l/4uNdcjjRdWdGvbyj58rpp2mfY4HMHYh/EZN7sozR
5BB+2aRZt40eCIDbVVkp5DYIDOMt/JUdcjIsAf4hKWkE6wbaQ+XBXQDVvLpGHOti
GFHyI9D7EReaW4QlgYpg1qbJGmEvXz6lO0INoNcn9WVUr4nREWUy2VIb6bkctM+B
7nnGqHwT10rmj80K3d45dCx1FxEra97FVk5Xd/gipGEEO6k6a4TKzETR541oQUFm
HgCi6pQbeOleY0HzVKSSJs5VWuyUwsFtSz3VCnsd22u9DJxGiItuIPsZlIT1oC0H
K/l0mxIWOd28LnQVXMwCV2qAnFqU2zXp59IzzGI+BfAooobiDg+hMpB1ITju2Oq2
/JCh2EDImFZqDW0f2UxO/aYMPQtclmHXZM4sxKYD0L2VTOqq3UhmbshGfB0bCmV+
NaDQWkq2CGp/sEY/gNEiRQN1Jtvu2Gr88Zridhs9qf6S7YuiKPsz9i6+Yac2LpH6
pxOBC/JRHK3yyYo4O6c8LGN6XiC+jr/r
-----END CERTIFICATE-----
