Certificate:
    Data:
        Version: 3 (0x2)
        Serial Number: 261 (0x105)
    Signature Algorithm: sha256WithRSAEncryption
        Issuer: C=fr, ST=idf, L=paris, O=vitam, OU=authorities, CN=ca_root_server
        Validity
            Not Before: Oct 19 08:30:57 2018 GMT
            Not After : Oct 16 08:30:57 2028 GMT
        Subject: C=fr, ST=idf, L=paris, O=vitam, OU=authorities, CN=ca_intermediate_server
        Subject Public Key Info:
            Public Key Algorithm: rsaEncryption
                Public-Key: (4096 bit)
                Modulus:
                    00:ea:e6:9b:ae:99:e7:a3:0a:5e:ce:33:c4:ef:fc:
                    f4:d9:35:49:bc:73:94:40:45:47:65:00:67:e3:d1:
                    00:cc:1d:b1:91:0d:32:bb:f7:cb:95:c5:94:3f:99:
                    74:80:57:8f:f2:ae:90:64:52:e4:47:05:1d:6d:db:
                    54:0a:6f:89:90:c7:58:84:25:c1:41:8c:b7:ee:c2:
                    01:c2:b5:7a:ef:32:4b:e9:66:c1:86:0f:21:9d:3e:
                    c1:3a:6f:a9:67:34:9d:8a:cf:b7:f3:ef:dd:82:c4:
                    34:50:ea:e7:27:fc:f6:af:fc:85:a5:10:84:ef:68:
                    97:5b:e1:50:3d:e3:d0:6d:07:20:7c:8a:bf:55:a4:
                    b2:fa:18:cd:b5:f5:31:c4:63:bc:e9:77:0e:1e:ea:
                    06:1d:c6:41:82:7c:ee:21:53:e6:ad:40:f9:49:e0:
                    ef:5f:31:af:d3:92:16:d5:2d:d2:39:e9:ed:cc:cb:
                    5b:1c:e5:54:26:9b:e4:e0:71:36:04:3c:46:9e:ee:
                    48:fa:72:84:cc:0c:a7:e5:c7:45:90:89:bf:fb:34:
                    32:9f:10:44:f3:63:b1:8f:6e:6a:54:7b:58:84:9b:
                    74:81:cf:5c:02:13:4d:bf:f1:48:49:58:98:79:51:
                    92:34:85:33:c6:4f:3c:63:f7:71:55:f3:02:83:61:
                    03:26:aa:ff:37:22:ee:30:8c:73:08:a9:47:f5:c5:
                    90:8b:ef:0d:43:cf:86:76:eb:ac:68:ce:a2:5d:85:
                    61:e6:42:1f:65:68:f4:72:e3:15:5e:98:d7:da:a0:
                    d1:ed:0b:c3:99:33:1e:e4:47:5e:34:e9:9b:f8:95:
                    35:23:6a:b9:6b:64:75:32:77:d0:76:01:4e:0a:a7:
                    18:4f:95:68:87:8b:61:41:f8:cd:dd:a2:f7:68:46:
                    c1:51:4d:4e:4b:0e:a7:52:c9:cc:80:9e:0f:00:42:
                    a9:3d:5e:85:6d:17:2c:6b:93:ae:e0:d5:54:2b:72:
                    e5:98:40:80:51:f8:1f:83:67:56:15:f2:37:6e:5f:
                    91:af:db:51:c4:74:2b:50:dd:7e:61:0c:66:af:1c:
                    3c:fd:fa:49:0c:e6:37:f3:f2:2d:7d:97:d4:13:4c:
                    0b:a5:fd:21:4a:a4:e0:a7:fe:ad:15:54:4b:a7:eb:
                    bc:c6:55:1e:9e:7f:ac:64:e8:68:e1:09:bc:c8:4d:
                    a9:fa:4f:a8:85:9d:e6:0a:8a:ac:96:9c:1b:9d:fc:
                    f5:58:76:09:8a:dd:3e:a3:29:0a:2a:f8:6e:fc:2b:
                    a1:c1:5d:20:bb:59:d3:49:90:31:d2:03:e1:ee:8d:
                    af:d3:6d:dd:56:71:05:d1:0b:cb:c0:fe:fe:b5:b9:
                    fb:31:eb
                Exponent: 65537 (0x10001)
        X509v3 extensions:
            Netscape Comment: 
                CA Intermediate
            X509v3 Subject Key Identifier: 
                8E:45:CA:B9:5E:F2:8A:F9:A0:3A:C0:5C:78:C2:FC:E5:E8:6E:29:D9
            X509v3 Authority Key Identifier: 
                keyid:FD:3B:09:6B:D9:7D:68:C6:BA:D7:E0:F0:C0:68:D8:18:FA:B0:C8:2C
                DirName:/C=fr/ST=idf/L=paris/O=vitam/OU=authorities/CN=ca_root_server
                serial:01:04

            X509v3 Basic Constraints: critical
                CA:TRUE, pathlen:0
            X509v3 Issuer Alternative Name: 
                <EMPTY>

            X509v3 Key Usage: 
                Certificate Sign, CRL Sign
            Netscape Cert Type: 
                SSL CA
    Signature Algorithm: sha256WithRSAEncryption
         15:38:ff:cc:75:90:e0:76:01:85:4a:d7:48:df:1d:83:de:12:
         a9:e9:c8:5a:d6:be:18:76:e8:4c:ff:7a:a2:ab:fd:f0:12:1d:
         7c:bc:0d:f2:c3:93:9b:7a:35:44:57:a6:f2:14:de:02:9d:78:
         ea:a5:48:16:a0:54:a6:b2:4e:4b:2a:d7:e5:76:96:69:d3:1d:
         0b:e0:0f:b1:5b:9a:fe:c0:24:20:31:ae:50:f3:11:61:b2:bc:
         63:65:23:75:bf:ac:54:6a:3d:ac:9b:77:ea:43:6d:05:e5:68:
         7a:29:15:ee:47:11:2e:f5:10:2f:1a:75:62:34:85:95:f9:1d:
         7c:a1:1b:39:1e:86:b2:46:21:67:87:f3:45:85:16:2c:de:71:
         f2:a6:a0:c2:ed:5f:1a:06:eb:14:05:ed:d7:69:59:fc:59:54:
         7a:81:bc:b1:f0:56:3a:13:28:95:a5:e5:3a:90:73:04:4e:b4:
         3c:ed:80:61:ec:20:8f:04:b0:5e:92:64:6d:8d:e4:1b:ae:c6:
         3a:d1:b1:de:86:fe:88:63:21:98:e0:10:cd:c2:28:f5:e4:bb:
         bc:ae:da:48:d5:32:6e:b4:58:cd:b8:5a:00:54:29:45:74:ee:
         95:92:61:4c:3a:93:2e:27:96:84:c2:0b:0f:21:6f:a6:51:d7:
         f7:21:b9:91:14:21:e5:87:df:2e:fe:74:18:78:3c:27:f6:c6:
         f2:14:fc:2d:16:06:f6:a6:84:cc:ea:7d:f4:04:23:25:69:77:
         9d:db:6f:03:e8:cd:5b:84:dc:62:65:a9:fe:19:b8:45:5b:0f:
         ba:0e:84:d4:16:85:70:a6:58:59:cc:40:20:cf:f9:4d:9a:1f:
         50:e7:b3:ff:64:27:89:97:a4:41:a3:5b:57:d4:c8:05:69:96:
         7d:68:eb:62:c4:bb:6c:03:95:8d:1a:ef:95:87:56:76:13:64:
         1d:b0:53:0b:24:b9:0e:26:66:14:61:32:65:d0:46:da:10:f2:
         e4:7f:b8:04:a7:08:66:61:7d:03:ff:1c:a2:ca:d0:ab:f9:a2:
         bc:ad:a0:0d:dd:c5:cf:82:c8:7d:97:3e:0c:dc:0c:3b:a0:9e:
         b7:1f:c6:82:15:b8:fc:4e:1d:47:0b:59:ef:d6:3b:e3:fd:7a:
         ef:85:12:d0:be:35:f8:25:27:b1:7a:8b:80:fb:59:28:28:59:
         19:ac:a2:80:69:63:bd:48:97:6f:52:9c:5c:92:f7:2b:6a:be:
         bd:6b:5d:a9:d0:6f:85:8e:75:85:b4:ef:dc:c2:c6:59:7b:be:
         8e:b5:99:ff:c2:2c:b0:de:b1:54:40:d5:6b:06:6f:6a:a8:25:
         d7:3f:64:ec:d2:ad:91:3a
-----BEGIN CERTIFICATE-----
MIIGdDCCBFygAwIBAgICAQUwDQYJKoZIhvcNAQELBQAwajELMAkGA1UEBhMCZnIx
DDAKBgNVBAgMA2lkZjEOMAwGA1UEBwwFcGFyaXMxDjAMBgNVBAoMBXZpdGFtMRQw
EgYDVQQLDAthdXRob3JpdGllczEXMBUGA1UEAwwOY2Ffcm9vdF9zZXJ2ZXIwHhcN
MTgxMDE5MDgzMDU3WhcNMjgxMDE2MDgzMDU3WjByMQswCQYDVQQGEwJmcjEMMAoG
A1UECAwDaWRmMQ4wDAYDVQQHDAVwYXJpczEOMAwGA1UECgwFdml0YW0xFDASBgNV
BAsMC2F1dGhvcml0aWVzMR8wHQYDVQQDDBZjYV9pbnRlcm1lZGlhdGVfc2VydmVy
MIICIjANBgkqhkiG9w0BAQEFAAOCAg8AMIICCgKCAgEA6uabrpnnowpezjPE7/z0
2TVJvHOUQEVHZQBn49EAzB2xkQ0yu/fLlcWUP5l0gFeP8q6QZFLkRwUdbdtUCm+J
kMdYhCXBQYy37sIBwrV67zJL6WbBhg8hnT7BOm+pZzSdis+38+/dgsQ0UOrnJ/z2
r/yFpRCE72iXW+FQPePQbQcgfIq/VaSy+hjNtfUxxGO86XcOHuoGHcZBgnzuIVPm
rUD5SeDvXzGv05IW1S3SOentzMtbHOVUJpvk4HE2BDxGnu5I+nKEzAyn5cdFkIm/
+zQynxBE82Oxj25qVHtYhJt0gc9cAhNNv/FISViYeVGSNIUzxk88Y/dxVfMCg2ED
Jqr/NyLuMIxzCKlH9cWQi+8NQ8+GduusaM6iXYVh5kIfZWj0cuMVXpjX2qDR7QvD
mTMe5EdeNOmb+JU1I2q5a2R1MnfQdgFOCqcYT5Voh4thQfjN3aL3aEbBUU1OSw6n
UsnMgJ4PAEKpPV6FbRcsa5Ou4NVUK3LlmECAUfgfg2dWFfI3bl+Rr9tRxHQrUN1+
YQxmrxw8/fpJDOY38/ItfZfUE0wLpf0hSqTgp/6tFVRLp+u8xlUenn+sZOho4Qm8
yE2p+k+ohZ3mCoqslpwbnfz1WHYJit0+oykKKvhu/CuhwV0gu1nTSZAx0gPh7o2v
023dVnEF0QvLwP7+tbn7MesCAwEAAaOCARowggEWMB4GCWCGSAGG+EIBDQQRFg9D
QSBJbnRlcm1lZGlhdGUwHQYDVR0OBBYEFI5Fyrle8or5oDrAXHjC/OXobinZMIGV
BgNVHSMEgY0wgYqAFP07CWvZfWjGutfg8MBo2Bj6sMgsoW6kbDBqMQswCQYDVQQG
EwJmcjEMMAoGA1UECAwDaWRmMQ4wDAYDVQQHDAVwYXJpczEOMAwGA1UECgwFdml0
YW0xFDASBgNVBAsMC2F1dGhvcml0aWVzMRcwFQYDVQQDDA5jYV9yb290X3NlcnZl
coICAQQwEgYDVR0TAQH/BAgwBgEB/wIBADAJBgNVHRIEAjAAMAsGA1UdDwQEAwIB
BjARBglghkgBhvhCAQEEBAMCAgQwDQYJKoZIhvcNAQELBQADggIBABU4/8x1kOB2
AYVK10jfHYPeEqnpyFrWvhh26Ez/eqKr/fASHXy8DfLDk5t6NURXpvIU3gKdeOql
SBagVKayTksq1+V2lmnTHQvgD7Fbmv7AJCAxrlDzEWGyvGNlI3W/rFRqPaybd+pD
bQXlaHopFe5HES71EC8adWI0hZX5HXyhGzkehrJGIWeH80WFFizecfKmoMLtXxoG
6xQF7ddpWfxZVHqBvLHwVjoTKJWl5TqQcwROtDztgGHsII8EsF6SZG2N5BuuxjrR
sd6G/ohjIZjgEM3CKPXku7yu2kjVMm60WM24WgBUKUV07pWSYUw6ky4nloTCCw8h
b6ZR1/chuZEUIeWH3y7+dBh4PCf2xvIU/C0WBvamhMzqffQEIyVpd53bbwPozVuE
3GJlqf4ZuEVbD7oOhNQWhXCmWFnMQCDP+U2aH1Dns/9kJ4mXpEGjW1fUyAVpln1o
62LEu2wDlY0a75WHVnYTZB2wUwskuQ4mZhRhMmXQRtoQ8uR/uASnCGZhfQP/HKLK
0Kv5orytoA3dxc+CyH2XPgzcDDugnrcfxoIVuPxOHUcLWe/WO+P9eu+FEtC+Nfgl
J7F6i4D7WSgoWRmsooBpY71Il29SnFyS9ytqvr1rXanQb4WOdYW079zCxll7vo61
mf/CLLDesVRA1WsGb2qoJdc/ZOzSrZE6
-----END CERTIFICATE-----
