Certificate:
    Data:
        Version: 3 (0x2)
        Serial Number: 260 (0x104)
    Signature Algorithm: sha256WithRSAEncryption
        Issuer: C=fr, ST=idf, L=paris, O=vitam, OU=authorities, CN=ca_root_server
        Validity
            Not Before: Oct 19 08:30:56 2018 GMT
            Not After : Oct 16 08:30:56 2028 GMT
        Subject: C=fr, ST=idf, L=paris, O=vitam, OU=authorities, CN=ca_root_server
        Subject Public Key Info:
            Public Key Algorithm: rsaEncryption
                Public-Key: (4096 bit)
                Modulus:
                    00:99:c2:dc:b5:d6:f1:36:ee:24:ae:ed:4a:f2:dc:
                    ea:38:8f:c2:1c:f1:b0:1e:77:7c:6b:c5:69:bf:c0:
                    d0:12:1d:e9:e5:05:27:b8:ea:eb:2c:45:8e:11:16:
                    6c:c2:9b:03:57:02:84:70:ff:7c:78:1b:d1:e4:ae:
                    10:48:b7:1e:cc:14:76:a2:18:68:ca:ee:60:b8:bc:
                    90:f1:de:23:06:46:9e:a9:8d:4b:8d:89:ae:ac:28:
                    25:7a:df:c9:2a:9b:ee:f3:3b:71:52:b6:1f:7e:0f:
                    90:6b:a4:5a:61:20:11:ef:f6:e2:d5:87:70:4c:9b:
                    29:a1:1f:8f:2c:e1:a3:53:47:d6:62:ae:52:18:48:
                    7d:d4:12:f9:50:fa:fd:f0:01:f7:f2:b3:c7:a9:d0:
                    7c:53:3d:78:cc:07:7d:f1:ab:3c:36:20:2f:b8:e0:
                    d1:a0:49:0d:16:77:29:b5:5e:7d:86:3b:00:39:f3:
                    99:70:ed:6e:10:4e:2b:50:e6:56:ae:d5:7d:31:d4:
                    10:82:b5:a8:92:25:4e:07:da:a8:4d:e1:27:a1:58:
                    89:c4:65:2d:1c:ba:a8:37:40:76:e5:57:0e:03:87:
                    87:f4:e1:09:d1:47:fd:ad:37:fc:ec:60:ee:6e:a6:
                    ad:9a:b4:49:4e:c3:a1:5b:32:87:0c:4b:4e:41:71:
                    a3:2e:6f:00:9f:bd:ec:06:75:e3:e2:c5:82:1f:dc:
                    d0:0d:bc:ef:bd:2c:0f:89:67:ae:75:1d:b9:5f:3f:
                    cf:14:b3:75:d0:e0:0f:22:f1:47:13:da:e8:90:b0:
                    92:d9:51:ce:fc:b1:c2:28:7d:cf:fe:c6:30:d8:f4:
                    5d:63:72:b5:e4:e5:d7:30:87:92:69:dd:9b:ec:73:
                    4a:e0:46:7f:47:c9:fa:c9:55:b7:1c:d7:4f:aa:57:
                    75:7d:6e:61:7b:da:f5:98:63:57:7c:e7:6b:e1:01:
                    5e:30:b2:4f:a8:aa:e0:97:ac:8a:3a:06:2c:1c:69:
                    8d:fb:03:f8:3f:7c:56:ae:5d:01:6c:fd:f8:3b:1c:
                    d1:73:83:df:77:43:04:6d:85:a2:de:76:48:1b:0d:
                    91:01:fe:6c:ab:76:1d:9e:d4:98:e4:c3:f5:d8:62:
                    a4:81:61:7b:40:24:8b:d5:ea:76:9e:e0:2d:8b:25:
                    c6:82:d8:9c:02:48:94:b3:21:24:79:46:7d:45:16:
                    25:9e:21:37:5c:b6:82:ac:58:5c:e4:69:27:20:c0:
                    58:e9:ba:60:cd:a3:82:7e:82:70:8f:9a:8a:77:94:
                    42:e3:f0:11:eb:f9:b9:ba:d1:07:e6:49:f2:5e:d2:
                    83:c8:e5:01:87:8e:03:71:12:9e:d4:19:8a:e5:57:
                    9a:a3:fb
                Exponent: 65537 (0x10001)
        X509v3 extensions:
            Netscape Comment: 
                CA Root
            X509v3 Subject Key Identifier: 
                FD:3B:09:6B:D9:7D:68:C6:BA:D7:E0:F0:C0:68:D8:18:FA:B0:C8:2C
            X509v3 Authority Key Identifier: 
                keyid:FD:3B:09:6B:D9:7D:68:C6:BA:D7:E0:F0:C0:68:D8:18:FA:B0:C8:2C

            X509v3 Basic Constraints: critical
                CA:TRUE, pathlen:1
            X509v3 Key Usage: 
                Certificate Sign, CRL Sign
            Netscape Cert Type: 
                SSL CA
    Signature Algorithm: sha256WithRSAEncryption
         0d:b6:f9:a2:5b:b0:ee:5a:a0:dc:7c:4e:28:73:e3:56:1d:51:
         90:32:63:28:eb:4b:e9:2c:b3:02:bd:d1:c0:69:d5:ec:55:72:
         8c:89:f0:92:fa:15:ab:93:cf:7e:ab:cf:02:7a:a1:ff:64:12:
         10:83:14:0f:20:da:dc:50:d4:d2:8e:12:9c:c9:06:71:bb:bc:
         f2:ee:99:02:2f:7e:41:1a:29:3d:5e:18:b2:79:0e:de:c2:a0:
         5e:4e:d6:7e:cb:4a:0f:f4:da:90:a9:2c:a0:38:d5:b0:3c:1a:
         d1:eb:73:ea:79:f6:4e:a0:4d:0e:c9:06:70:92:14:cb:c9:e5:
         63:de:5e:b7:f6:c9:ef:9d:ab:06:1e:a7:1e:7a:87:e5:ef:1b:
         88:41:60:66:60:34:d4:a8:70:3c:42:84:54:37:e8:07:4f:58:
         85:9b:5c:0c:b3:c9:56:03:39:74:bb:3f:94:26:ab:52:64:09:
         7b:d9:77:c8:75:7c:e8:54:e8:a7:14:76:f7:1e:73:03:63:f2:
         01:88:18:f1:21:c9:18:61:b6:76:51:71:63:d7:83:f5:76:29:
         00:a4:90:b9:43:70:4a:ad:e7:6a:48:48:08:97:e1:f4:62:9d:
         7d:20:cb:2d:7c:0f:a0:71:d3:a0:b2:32:41:98:80:19:5c:18:
         3e:11:3d:60:58:d9:dd:2d:bc:15:89:ed:14:a3:c9:c5:9f:2b:
         e5:b3:e0:be:61:e6:a9:01:8b:0c:aa:cd:e6:f3:c0:7a:50:4f:
         9b:4c:b6:72:dd:cc:41:fa:1c:8b:bf:ea:8d:6c:28:eb:c8:27:
         70:ca:8b:96:70:95:c6:62:83:bb:d3:30:f2:d9:9d:43:35:30:
         60:20:f5:a5:9c:de:7b:be:ab:24:4b:27:52:ab:72:5e:c2:b9:
         7c:80:13:5b:20:5a:ef:8b:e3:dc:80:00:2e:5d:a0:d6:4b:8b:
         c7:89:7c:c4:83:7c:8f:1d:7d:8a:91:9d:a2:60:49:e7:39:50:
         f4:66:a2:99:71:6c:75:9d:a0:09:c7:27:8d:e4:6b:49:52:72:
         f7:70:a4:40:41:7a:df:66:96:e4:31:e2:15:da:f8:a9:08:a8:
         c0:24:d5:43:9f:9a:69:0a:31:41:fa:26:59:18:ea:89:30:9f:
         db:ab:18:db:42:fd:34:35:88:55:9a:bb:11:67:5a:0d:ad:21:
         a9:9e:17:7c:bc:46:c6:96:60:25:55:18:1c:e7:07:2c:f9:cc:
         d0:37:ca:0d:ca:39:d5:6c:15:9b:92:d8:ae:08:ef:f9:74:f0:
         29:0a:92:ce:22:a6:d3:86:2b:f4:88:1a:b9:be:c4:42:a0:d5:
         4c:0c:0f:72:d7:59:ee:f3
-----BEGIN CERTIFICATE-----
MIIF4DCCA8igAwIBAgICAQQwDQYJKoZIhvcNAQELBQAwajELMAkGA1UEBhMCZnIx
DDAKBgNVBAgMA2lkZjEOMAwGA1UEBwwFcGFyaXMxDjAMBgNVBAoMBXZpdGFtMRQw
EgYDVQQLDAthdXRob3JpdGllczEXMBUGA1UEAwwOY2Ffcm9vdF9zZXJ2ZXIwHhcN
MTgxMDE5MDgzMDU2WhcNMjgxMDE2MDgzMDU2WjBqMQswCQYDVQQGEwJmcjEMMAoG
A1UECAwDaWRmMQ4wDAYDVQQHDAVwYXJpczEOMAwGA1UECgwFdml0YW0xFDASBgNV
BAsMC2F1dGhvcml0aWVzMRcwFQYDVQQDDA5jYV9yb290X3NlcnZlcjCCAiIwDQYJ
KoZIhvcNAQEBBQADggIPADCCAgoCggIBAJnC3LXW8TbuJK7tSvLc6jiPwhzxsB53
fGvFab/A0BId6eUFJ7jq6yxFjhEWbMKbA1cChHD/fHgb0eSuEEi3HswUdqIYaMru
YLi8kPHeIwZGnqmNS42JrqwoJXrfySqb7vM7cVK2H34PkGukWmEgEe/24tWHcEyb
KaEfjyzho1NH1mKuUhhIfdQS+VD6/fAB9/Kzx6nQfFM9eMwHffGrPDYgL7jg0aBJ
DRZ3KbVefYY7ADnzmXDtbhBOK1DmVq7VfTHUEIK1qJIlTgfaqE3hJ6FYicRlLRy6
qDdAduVXDgOHh/ThCdFH/a03/Oxg7m6mrZq0SU7DoVsyhwxLTkFxoy5vAJ+97AZ1
4+LFgh/c0A28770sD4lnrnUduV8/zxSzddDgDyLxRxPa6JCwktlRzvyxwih9z/7G
MNj0XWNyteTl1zCHkmndm+xzSuBGf0fJ+slVtxzXT6pXdX1uYXva9ZhjV3zna+EB
XjCyT6iq4JesijoGLBxpjfsD+D98Vq5dAWz9+Dsc0XOD33dDBG2Fot52SBsNkQH+
bKt2HZ7UmOTD9dhipIFhe0Aki9Xqdp7gLYslxoLYnAJIlLMhJHlGfUUWJZ4hN1y2
gqxYXORpJyDAWOm6YM2jgn6CcI+aineUQuPwEev5ubrRB+ZJ8l7Sg8jlAYeOA3ES
ntQZiuVXmqP7AgMBAAGjgY8wgYwwFgYJYIZIAYb4QgENBAkWB0NBIFJvb3QwHQYD
VR0OBBYEFP07CWvZfWjGutfg8MBo2Bj6sMgsMB8GA1UdIwQYMBaAFP07CWvZfWjG
utfg8MBo2Bj6sMgsMBIGA1UdEwEB/wQIMAYBAf8CAQEwCwYDVR0PBAQDAgEGMBEG
CWCGSAGG+EIBAQQEAwICBDANBgkqhkiG9w0BAQsFAAOCAgEADbb5oluw7lqg3HxO
KHPjVh1RkDJjKOtL6SyzAr3RwGnV7FVyjInwkvoVq5PPfqvPAnqh/2QSEIMUDyDa
3FDU0o4SnMkGcbu88u6ZAi9+QRopPV4YsnkO3sKgXk7WfstKD/TakKksoDjVsDwa
0etz6nn2TqBNDskGcJIUy8nlY95et/bJ752rBh6nHnqH5e8biEFgZmA01KhwPEKE
VDfoB09YhZtcDLPJVgM5dLs/lCarUmQJe9l3yHV86FTopxR29x5zA2PyAYgY8SHJ
GGG2dlFxY9eD9XYpAKSQuUNwSq3nakhICJfh9GKdfSDLLXwPoHHToLIyQZiAGVwY
PhE9YFjZ3S28FYntFKPJxZ8r5bPgvmHmqQGLDKrN5vPAelBPm0y2ct3MQfoci7/q
jWwo68gncMqLlnCVxmKDu9Mw8tmdQzUwYCD1pZzee76rJEsnUqtyXsK5fIATWyBa
74vj3IAALl2g1kuLx4l8xIN8jx19ipGdomBJ5zlQ9GaimXFsdZ2gCccnjeRrSVJy
93CkQEF632aW5DHiFdr4qQiowCTVQ5+aaQoxQfomWRjqiTCf26sY20L9NDWIVZq7
EWdaDa0hqZ4XfLxGxpZgJVUYHOcHLPnM0DfKDco51WwVm5LYrgjv+XTwKQqSziKm
04Yr9Igaub7EQqDVTAwPctdZ7vM=
-----END CERTIFICATE-----
