Certificate:
    Data:
        Version: 3 (0x2)
        Serial Number: 166 (0xa6)
    Signature Algorithm: sha256WithRSAEncryption
        Issuer: C=FR, ST=idf, L=paris, O=Vitam., CN=CA_server_intermediate
        Validity
            Not Before: Nov 18 14:13:18 2016 GMT
            Not After : Nov 18 14:13:18 2019 GMT
        Subject: C=FR, ST=idf, L=paris, O=Vitam., CN=ingest-external.service.consul
        Subject Public Key Info:
            Public Key Algorithm: rsaEncryption
                Public-Key: (4096 bit)
                Modulus:
                    00:c1:8a:65:6e:21:47:5c:77:f6:d2:fd:39:01:a0:
                    63:21:8c:52:65:50:6b:90:27:f8:bf:69:36:d1:0b:
                    29:b6:eb:95:39:f0:ed:4e:9f:a7:c7:d3:1f:ac:64:
                    2c:92:54:03:d4:fa:e2:98:7e:21:ca:ec:8b:68:ee:
                    99:9c:dc:85:2e:aa:bd:08:6c:6b:e5:10:a8:4e:78:
                    8a:11:08:c0:71:1e:4d:85:c2:37:fc:b7:81:e4:0e:
                    83:72:fb:e1:3f:92:7d:a2:a3:cc:cb:b5:5c:df:27:
                    07:6b:81:75:31:e8:25:d2:c9:cf:1f:d2:bf:fd:c0:
                    0b:44:ad:41:50:f7:d3:ff:01:d8:0b:bc:e5:19:8e:
                    c0:28:d4:a3:f2:86:20:ab:9e:76:e3:bc:9b:3d:f3:
                    c1:47:c0:84:5b:13:1f:0f:53:23:1a:9c:28:1f:f7:
                    65:b3:9d:c5:50:9e:56:57:4c:c4:67:c0:45:78:85:
                    54:3d:6f:c5:38:51:0d:5d:cc:92:9e:bf:73:2f:d1:
                    e1:bf:f9:d3:83:58:38:6b:3c:6f:0c:c2:44:09:20:
                    e7:37:e4:f2:45:a1:04:51:ef:de:56:63:a4:01:e8:
                    33:fb:bf:2e:da:0d:ae:02:5f:31:7e:d7:a2:81:c7:
                    f0:e1:4f:27:f6:17:46:f1:3a:b3:6d:4b:ca:cd:a5:
                    c9:98:de:5a:69:45:74:41:c8:50:86:17:a2:70:38:
                    ef:6f:9b:be:7b:e9:45:bb:20:3e:7f:47:a2:7d:53:
                    46:b5:11:ab:ab:69:74:f0:7b:96:9b:8b:0e:2a:c6:
                    85:e7:7b:8c:88:fa:6b:47:ff:74:ae:95:1c:21:f9:
                    f5:89:66:1c:6f:ff:c5:c4:57:f2:53:43:81:17:97:
                    33:96:25:bd:9b:f7:26:6b:38:7b:53:eb:62:a5:8a:
                    1f:71:3a:ac:d3:4c:4a:13:29:38:1d:b9:59:50:78:
                    1b:18:aa:b2:f9:2e:c2:ed:4c:48:4e:87:9b:9a:f9:
                    e0:01:97:0b:af:27:ed:f3:73:3b:52:ac:f7:92:03:
                    a1:15:2c:28:c3:2a:17:57:3f:df:95:ea:cc:56:c2:
                    d2:bf:80:49:f8:10:64:92:34:83:c9:f9:33:19:7c:
                    16:d6:e0:07:0d:53:f2:cf:c1:e6:97:ae:e0:0e:24:
                    ac:e0:f6:8e:ab:de:06:d2:4d:2b:90:75:18:91:da:
                    e1:8d:47:6a:76:33:de:0c:30:60:b4:c7:1f:2f:b2:
                    f5:6b:f6:2c:d0:f6:d6:fb:83:ae:03:35:9d:99:21:
                    78:a0:da:03:09:1d:2f:02:a0:c4:16:44:98:b6:3e:
                    0b:70:23:92:85:bd:c1:a0:6a:18:af:1e:83:94:71:
                    aa:e9:63
                Exponent: 65537 (0x10001)
        X509v3 extensions:
            Netscape Comment: 
                Certificat Serveur SSL
            X509v3 Subject Key Identifier: 
                DD:DA:51:BE:6F:4D:D5:17:8F:E6:40:CB:09:31:84:EE:D2:03:A7:46
            X509v3 Authority Key Identifier: 
                keyid:FD:BE:45:C2:E5:35:43:C6:F3:85:0B:93:8A:BE:0C:DC:A5:B8:E8:D3
                DirName:/C=FR/ST=idf/L=paris/O=Vitam./CN=CA_server
                serial:A5

            X509v3 Issuer Alternative Name: 
                <EMPTY>

            X509v3 Subject Alternative Name: 
                DNS:ingest-external.service.consul
            X509v3 Basic Constraints: critical
                CA:FALSE
            X509v3 Key Usage: 
                Digital Signature, Non Repudiation, Key Encipherment
            Netscape Cert Type: 
                SSL Server
            X509v3 Extended Key Usage: 
                TLS Web Server Authentication
    Signature Algorithm: sha256WithRSAEncryption
         40:c1:75:e3:1f:21:c0:57:76:51:b6:70:e1:26:aa:cf:41:b6:
         c9:95:13:c2:83:f0:79:a1:4a:ca:7f:63:ac:4f:f9:92:49:8d:
         4d:da:d2:8a:66:16:31:16:a2:46:0e:13:03:5e:9b:30:72:ed:
         a0:ab:4a:45:7d:9c:a3:39:fa:b0:c7:3e:98:82:93:83:3c:b7:
         e3:ef:c9:c0:83:e7:83:81:7f:38:ac:2e:44:86:5b:1b:09:ce:
         84:a3:86:7e:2d:96:49:1f:34:bd:6e:f4:00:4a:0c:45:78:a1:
         01:57:99:32:7f:b5:76:08:e3:d9:21:8f:cd:e7:1a:4f:71:5e:
         8d:81:aa:88:8a:83:f6:39:77:cd:27:be:b7:73:7a:bb:8c:73:
         d5:62:08:34:cf:bf:9d:df:37:2a:0a:e1:f6:e8:e3:b8:01:67:
         df:15:21:58:cb:2c:cf:9d:22:76:cd:54:a4:3e:3e:c1:15:f5:
         4e:80:9c:7d:f1:68:34:21:ee:97:a3:1c:f1:c2:67:be:df:58:
         68:be:3f:dd:de:38:46:8b:8c:03:e8:92:57:3a:9d:8b:4e:78:
         a8:a8:6a:58:bf:7a:f3:77:75:51:86:22:6f:d0:4f:39:b9:63:
         bf:02:9a:3f:44:ab:16:9b:dd:8c:23:70:97:66:5e:22:a6:e2:
         39:55:32:0c:6f:86:91:9a:83:45:96:c1:5a:e9:26:90:99:f6:
         32:2b:7e:5b:44:e3:ea:37:e1:8a:d4:90:ba:1e:70:d7:60:e4:
         a8:3f:e5:32:81:8c:77:66:ae:40:f0:ae:42:74:67:dc:08:87:
         17:8b:84:a3:0e:e4:98:3b:04:5b:ec:58:69:4f:f2:a8:f8:36:
         bd:0c:3d:1c:8c:50:4b:db:b6:e3:4e:35:3c:21:e9:24:7b:fb:
         e0:a2:80:9b:76:08:fb:e8:95:35:cf:e4:5f:d7:4f:2e:e4:f8:
         1f:7b:30:ce:bd:91:e9:fa:78:c4:84:35:bc:17:f3:e4:5a:62:
         24:a7:4b:7b:74:cc:e4:45:7e:85:b7:bd:53:51:91:cb:43:86:
         28:6c:33:b9:75:07:e3:e1:3e:af:23:72:11:cb:cf:90:15:81:
         4e:23:d1:93:8d:3f:37:f9:f8:23:c3:9c:fd:3a:3a:32:f1:3d:
         ab:0d:bc:5e:30:2e:1a:68:4a:a0:42:3a:74:01:96:de:d5:8d:
         db:a7:2f:86:e7:cc:94:47:32:2b:b6:2c:09:7f:ce:a0:92:62:
         14:24:36:90:92:15:83:f6:af:53:59:76:82:e8:5c:fc:d4:42:
         0a:bf:52:7c:a9:8f:48:2b:2c:af:63:15:b1:f4:dd:67:33:ce:
         0a:c8:5d:a0:ad:f8:5e:e4
-----BEGIN CERTIFICATE-----
MIIGfjCCBGagAwIBAgICAKYwDQYJKoZIhvcNAQELBQAwXTELMAkGA1UEBhMCRlIx
DDAKBgNVBAgTA2lkZjEOMAwGA1UEBxMFcGFyaXMxDzANBgNVBAoTBlZpdGFtLjEf
MB0GA1UEAxQWQ0Ffc2VydmVyX2ludGVybWVkaWF0ZTAeFw0xNjExMTgxNDEzMTha
Fw0xOTExMTgxNDEzMThaMGUxCzAJBgNVBAYTAkZSMQwwCgYDVQQIEwNpZGYxDjAM
BgNVBAcTBXBhcmlzMQ8wDQYDVQQKEwZWaXRhbS4xJzAlBgNVBAMTHmluZ2VzdC1l
eHRlcm5hbC5zZXJ2aWNlLmNvbnN1bDCCAiIwDQYJKoZIhvcNAQEBBQADggIPADCC
AgoCggIBAMGKZW4hR1x39tL9OQGgYyGMUmVQa5An+L9pNtELKbbrlTnw7U6fp8fT
H6xkLJJUA9T64ph+Icrsi2jumZzchS6qvQhsa+UQqE54ihEIwHEeTYXCN/y3geQO
g3L74T+SfaKjzMu1XN8nB2uBdTHoJdLJzx/Sv/3AC0StQVD30/8B2Au85RmOwCjU
o/KGIKueduO8mz3zwUfAhFsTHw9TIxqcKB/3ZbOdxVCeVldMxGfARXiFVD1vxThR
DV3Mkp6/cy/R4b/504NYOGs8bwzCRAkg5zfk8kWhBFHv3lZjpAHoM/u/LtoNrgJf
MX7XooHH8OFPJ/YXRvE6s21Lys2lyZjeWmlFdEHIUIYXonA472+bvnvpRbsgPn9H
on1TRrURq6tpdPB7lpuLDirGhed7jIj6a0f/dK6VHCH59YlmHG//xcRX8lNDgReX
M5YlvZv3Jms4e1PrYqWKH3E6rNNMShMpOB25WVB4Gxiqsvkuwu1MSE6Hm5r54AGX
C68n7fNzO1Ks95IDoRUsKMMqF1c/35XqzFbC0r+ASfgQZJI0g8n5Mxl8FtbgBw1T
8s/B5peu4A4krOD2jqveBtJNK5B1GJHa4Y1HanYz3gwwYLTHHy+y9Wv2LND21vuD
rgM1nZkheKDaAwkdLwKgxBZEmLY+C3AjkoW9waBqGK8eg5RxquljAgMBAAGjggE+
MIIBOjAlBglghkgBhvhCAQ0EGBYWQ2VydGlmaWNhdCBTZXJ2ZXVyIFNTTDAdBgNV
HQ4EFgQU3dpRvm9N1ReP5kDLCTGE7tIDp0YweQYDVR0jBHIwcIAU/b5FwuU1Q8bz
hQuTir4M3KW46NOhVKRSMFAxCzAJBgNVBAYTAkZSMQwwCgYDVQQIEwNpZGYxDjAM
BgNVBAcTBXBhcmlzMQ8wDQYDVQQKEwZWaXRhbS4xEjAQBgNVBAMUCUNBX3NlcnZl
coICAKUwCQYDVR0SBAIwADApBgNVHREEIjAggh5pbmdlc3QtZXh0ZXJuYWwuc2Vy
dmljZS5jb25zdWwwDAYDVR0TAQH/BAIwADALBgNVHQ8EBAMCBeAwEQYJYIZIAYb4
QgEBBAQDAgZAMBMGA1UdJQQMMAoGCCsGAQUFBwMBMA0GCSqGSIb3DQEBCwUAA4IC
AQBAwXXjHyHAV3ZRtnDhJqrPQbbJlRPCg/B5oUrKf2OsT/mSSY1N2tKKZhYxFqJG
DhMDXpswcu2gq0pFfZyjOfqwxz6YgpODPLfj78nAg+eDgX84rC5EhlsbCc6Eo4Z+
LZZJHzS9bvQASgxFeKEBV5kyf7V2COPZIY/N5xpPcV6NgaqIioP2OXfNJ763c3q7
jHPVYgg0z7+d3zcqCuH26OO4AWffFSFYyyzPnSJ2zVSkPj7BFfVOgJx98Wg0Ie6X
oxzxwme+31hovj/d3jhGi4wD6JJXOp2LTnioqGpYv3rzd3VRhiJv0E85uWO/Apo/
RKsWm92MI3CXZl4ipuI5VTIMb4aRmoNFlsFa6SaQmfYyK35bROPqN+GK1JC6HnDX
YOSoP+UygYx3Zq5A8K5CdGfcCIcXi4SjDuSYOwRb7FhpT/Ko+Da9DD0cjFBL27bj
TjU8Iekke/vgooCbdgj76JU1z+Rf108u5PgfezDOvZHp+njEhDW8F/PkWmIkp0t7
dMzkRX6Ft71TUZHLQ4YobDO5dQfj4T6vI3IRy8+QFYFOI9GTjT83+fgjw5z9Ojoy
8T2rDbxeMC4aaEqgQjp0AZbe1Y3bpy+G58yURzIrtiwJf86gkmIUJDaQkhWD9q9T
WXaC6Fz81EIKv1J8qY9IKyyvYxWx9N1nM84KyF2grfhe5A==
-----END CERTIFICATE-----
