Certificate:
    Data:
        Version: 3 (0x2)
        Serial Number: 167 (0xa7)
    Signature Algorithm: sha256WithRSAEncryption
        Issuer: C=FR, ST=idf, L=paris, O=Vitam., CN=CA_server_intermediate
        Validity
            Not Before: Nov 18 14:13:22 2016 GMT
            Not After : Nov 18 14:13:22 2019 GMT
        Subject: C=FR, ST=idf, L=paris, O=Vitam., CN=access-external.service.consul
        Subject Public Key Info:
            Public Key Algorithm: rsaEncryption
                Public-Key: (4096 bit)
                Modulus:
                    00:e1:c9:83:46:e1:9f:d1:52:04:06:40:5b:2b:c1:
                    d6:10:93:f4:1f:67:59:0c:3b:1e:96:f3:9d:70:62:
                    1b:9e:3a:8a:f1:86:0a:d0:73:19:52:03:d0:98:cc:
                    49:59:d9:d8:9b:5d:4e:b9:07:f2:e9:66:4e:04:db:
                    8e:a0:8f:e6:0a:29:43:69:e2:91:6f:2a:f0:f4:ad:
                    36:27:b7:a7:c8:77:fc:d7:66:ab:9e:63:30:83:6a:
                    0d:42:43:26:7a:ce:09:30:9b:f8:76:8d:93:ea:3e:
                    0e:4b:26:54:91:d1:fa:b7:d7:6e:35:b7:a1:95:d4:
                    f8:de:ef:03:a4:6e:c1:ca:94:3e:69:3d:eb:a9:5a:
                    db:b4:7f:a7:e8:76:97:c7:6e:d8:cb:8f:b4:19:02:
                    75:2d:1d:f2:10:0d:bc:af:5b:45:0f:78:f0:17:bb:
                    93:c9:be:2e:44:6d:a5:d6:b9:d7:90:93:f5:d2:85:
                    2e:75:d2:1f:e1:3d:fe:6f:25:da:35:5e:a9:b8:71:
                    09:75:ef:0b:80:ba:0c:2e:be:dc:b9:f8:fa:d0:c8:
                    3d:2d:3a:31:98:32:77:0b:81:2c:40:df:f1:f7:63:
                    53:9b:c8:40:86:61:e4:2b:6d:db:07:e0:45:e9:be:
                    17:e0:44:bf:6e:17:61:85:ba:1c:e9:b2:c2:05:2f:
                    6b:dd:23:01:a5:03:65:5a:8b:2d:87:91:c9:60:7f:
                    4e:ea:d4:b6:7d:27:06:e3:e7:05:2f:15:9d:7f:e1:
                    99:0c:c3:36:9e:2f:1f:c9:a5:cf:b7:93:60:a2:d6:
                    36:08:26:6f:98:c3:7b:cb:64:e6:56:d9:20:c2:6b:
                    b9:e8:57:51:34:7b:15:55:b5:05:cd:4f:10:1e:8f:
                    75:89:df:22:6a:49:2d:8c:bc:ec:a8:e4:3a:94:e1:
                    78:a3:e2:cd:31:18:91:f4:78:e9:06:7e:7b:66:34:
                    08:65:7e:21:87:c9:1e:fe:85:6c:37:d1:0d:85:98:
                    a3:2c:99:8e:99:86:a5:9e:36:d2:26:60:3a:05:dd:
                    b2:a0:b5:7e:56:33:f9:3e:42:26:60:9b:51:10:2e:
                    ac:90:49:da:fe:1a:3c:e5:71:35:c2:8c:af:5b:e9:
                    69:0d:d1:a9:92:85:ff:2d:1a:57:98:fa:f1:b9:0e:
                    f6:49:83:c3:20:71:64:5a:c9:78:70:13:d9:7d:4f:
                    09:fe:6a:ec:72:ca:86:20:f1:c8:94:a4:ca:4a:1f:
                    1b:26:ff:0f:50:21:e5:51:6a:e4:16:a3:98:71:75:
                    00:04:5d:e0:dd:b7:8e:ac:ef:2a:b6:89:79:76:2f:
                    6b:2d:2f:a9:6a:ae:1f:a8:44:45:ec:45:ff:3e:d2:
                    f3:d2:5d
                Exponent: 65537 (0x10001)
        X509v3 extensions:
            Netscape Comment: 
                Certificat Serveur SSL
            X509v3 Subject Key Identifier: 
                9B:9E:CC:0E:44:12:11:00:3C:59:8E:D5:71:EB:08:1C:6E:A5:C0:30
            X509v3 Authority Key Identifier: 
                keyid:FD:BE:45:C2:E5:35:43:C6:F3:85:0B:93:8A:BE:0C:DC:A5:B8:E8:D3
                DirName:/C=FR/ST=idf/L=paris/O=Vitam./CN=CA_server
                serial:A5

            X509v3 Issuer Alternative Name: 
                <EMPTY>

            X509v3 Subject Alternative Name: 
                DNS:ingest-external.service.consul
            X509v3 Basic Constraints: critical
                CA:FALSE
            X509v3 Key Usage: 
                Digital Signature, Non Repudiation, Key Encipherment
            Netscape Cert Type: 
                SSL Server
            X509v3 Extended Key Usage: 
                TLS Web Server Authentication
    Signature Algorithm: sha256WithRSAEncryption
         7d:c4:e0:96:91:73:b5:bc:9d:76:6a:66:76:c9:a2:58:90:81:
         ef:6a:4e:a6:b7:f2:60:a5:aa:a8:5a:74:91:6c:f3:20:87:fd:
         b4:6d:91:36:db:d8:32:35:9f:88:d0:d1:18:f7:c6:97:ee:89:
         c7:88:79:a6:d9:bf:25:3d:fa:af:c7:b4:77:00:6f:58:eb:e1:
         02:30:a3:d5:cd:38:8e:a6:c4:9e:6d:ac:3d:7e:19:4d:3d:55:
         c6:47:b1:64:2e:29:5b:b1:e6:6b:a2:99:c0:c6:f0:d0:38:fd:
         ce:4c:fd:20:c9:07:8b:62:7b:49:d5:36:84:09:02:53:80:89:
         09:0b:3f:e1:e0:9d:a4:81:33:71:10:58:20:75:13:a8:b5:c2:
         b2:8b:3f:b1:40:69:80:24:b2:d7:ff:7e:5d:68:20:50:03:0d:
         ac:04:35:e9:47:18:4d:1c:3d:1c:69:dc:24:f9:ee:b9:9f:89:
         bd:c7:c8:9e:71:43:02:e1:98:97:48:b2:0b:65:64:91:7a:a0:
         3b:c3:8e:ab:77:29:8a:ab:5e:4d:a1:69:4b:45:aa:f8:71:72:
         06:98:10:04:5f:a8:9c:a4:a6:9b:99:65:55:b6:5b:55:fb:14:
         2e:10:01:5e:10:ac:58:46:10:76:db:69:fc:8c:a5:10:0e:a2:
         3d:9c:d1:a6:26:f0:76:89:62:c9:ac:5b:bb:5b:65:b3:f0:49:
         cb:b6:e7:4e:67:38:39:f7:27:cf:70:30:4f:ce:d7:58:74:60:
         e0:6e:c6:51:63:30:3d:35:5f:c5:ec:20:b9:33:9e:36:20:89:
         52:0a:bf:a0:76:c0:66:e5:aa:0e:4d:a5:4d:98:33:47:31:c2:
         e3:17:55:05:11:d4:3d:6b:f1:70:51:99:e2:3c:46:a8:de:fd:
         57:fc:8f:e7:c5:c3:12:9e:a8:ce:2f:57:ad:87:62:63:f1:95:
         1a:a9:bf:9b:3a:ac:ca:60:11:eb:f9:4d:61:81:80:85:be:24:
         f9:d5:b6:26:3c:75:1a:52:29:46:fa:49:34:d2:db:61:ed:c4:
         ea:e0:f7:46:c6:93:64:c0:05:8d:16:64:dd:67:f9:93:22:83:
         54:08:f4:26:4b:6d:da:81:ee:54:c6:cd:32:d4:49:02:d6:51:
         94:07:06:b4:bc:1b:97:8e:10:f2:b8:f1:ac:8c:a0:d3:80:6e:
         b2:89:65:ea:d8:a7:94:88:50:c3:84:cf:3f:9c:1c:d6:ac:d8:
         eb:62:50:d4:c3:f3:ff:f0:45:a7:fa:1c:21:e4:98:e1:5f:fc:
         72:c4:9f:16:ca:8a:41:d4:07:cf:b8:59:c3:5d:17:1a:31:f3:
         dc:06:60:c3:d1:28:44:ed
-----BEGIN CERTIFICATE-----
MIIGfjCCBGagAwIBAgICAKcwDQYJKoZIhvcNAQELBQAwXTELMAkGA1UEBhMCRlIx
DDAKBgNVBAgTA2lkZjEOMAwGA1UEBxMFcGFyaXMxDzANBgNVBAoTBlZpdGFtLjEf
MB0GA1UEAxQWQ0Ffc2VydmVyX2ludGVybWVkaWF0ZTAeFw0xNjExMTgxNDEzMjJa
Fw0xOTExMTgxNDEzMjJaMGUxCzAJBgNVBAYTAkZSMQwwCgYDVQQIEwNpZGYxDjAM
BgNVBAcTBXBhcmlzMQ8wDQYDVQQKEwZWaXRhbS4xJzAlBgNVBAMTHmFjY2Vzcy1l
eHRlcm5hbC5zZXJ2aWNlLmNvbnN1bDCCAiIwDQYJKoZIhvcNAQEBBQADggIPADCC
AgoCggIBAOHJg0bhn9FSBAZAWyvB1hCT9B9nWQw7HpbznXBiG546ivGGCtBzGVID
0JjMSVnZ2JtdTrkH8ulmTgTbjqCP5gopQ2nikW8q8PStNie3p8h3/Ndmq55jMINq
DUJDJnrOCTCb+HaNk+o+DksmVJHR+rfXbjW3oZXU+N7vA6RuwcqUPmk966la27R/
p+h2l8du2MuPtBkCdS0d8hANvK9bRQ948Be7k8m+LkRtpda515CT9dKFLnXSH+E9
/m8l2jVeqbhxCXXvC4C6DC6+3Ln4+tDIPS06MZgydwuBLEDf8fdjU5vIQIZh5Ctt
2wfgRem+F+BEv24XYYW6HOmywgUva90jAaUDZVqLLYeRyWB/TurUtn0nBuPnBS8V
nX/hmQzDNp4vH8mlz7eTYKLWNggmb5jDe8tk5lbZIMJruehXUTR7FVW1Bc1PEB6P
dYnfImpJLYy87KjkOpTheKPizTEYkfR46QZ+e2Y0CGV+IYfJHv6FbDfRDYWYoyyZ
jpmGpZ420iZgOgXdsqC1flYz+T5CJmCbURAurJBJ2v4aPOVxNcKMr1vpaQ3RqZKF
/y0aV5j68bkO9kmDwyBxZFrJeHAT2X1PCf5q7HLKhiDxyJSkykofGyb/D1Ah5VFq
5BajmHF1AARd4N23jqzvKraJeXYvay0vqWquH6hERexF/z7S89JdAgMBAAGjggE+
MIIBOjAlBglghkgBhvhCAQ0EGBYWQ2VydGlmaWNhdCBTZXJ2ZXVyIFNTTDAdBgNV
HQ4EFgQUm57MDkQSEQA8WY7VcesIHG6lwDAweQYDVR0jBHIwcIAU/b5FwuU1Q8bz
hQuTir4M3KW46NOhVKRSMFAxCzAJBgNVBAYTAkZSMQwwCgYDVQQIEwNpZGYxDjAM
BgNVBAcTBXBhcmlzMQ8wDQYDVQQKEwZWaXRhbS4xEjAQBgNVBAMUCUNBX3NlcnZl
coICAKUwCQYDVR0SBAIwADApBgNVHREEIjAggh5pbmdlc3QtZXh0ZXJuYWwuc2Vy
dmljZS5jb25zdWwwDAYDVR0TAQH/BAIwADALBgNVHQ8EBAMCBeAwEQYJYIZIAYb4
QgEBBAQDAgZAMBMGA1UdJQQMMAoGCCsGAQUFBwMBMA0GCSqGSIb3DQEBCwUAA4IC
AQB9xOCWkXO1vJ12amZ2yaJYkIHvak6mt/JgpaqoWnSRbPMgh/20bZE229gyNZ+I
0NEY98aX7onHiHmm2b8lPfqvx7R3AG9Y6+ECMKPVzTiOpsSebaw9fhlNPVXGR7Fk
LilbseZropnAxvDQOP3OTP0gyQeLYntJ1TaECQJTgIkJCz/h4J2kgTNxEFggdROo
tcKyiz+xQGmAJLLX/35daCBQAw2sBDXpRxhNHD0cadwk+e65n4m9x8iecUMC4ZiX
SLILZWSReqA7w46rdymKq15NoWlLRar4cXIGmBAEX6icpKabmWVVtltV+xQuEAFe
EKxYRhB222n8jKUQDqI9nNGmJvB2iWLJrFu7W2Wz8EnLtudOZzg59yfPcDBPztdY
dGDgbsZRYzA9NV/F7CC5M542IIlSCr+gdsBm5aoOTaVNmDNHMcLjF1UFEdQ9a/Fw
UZniPEao3v1X/I/nxcMSnqjOL1eth2Jj8ZUaqb+bOqzKYBHr+U1hgYCFviT51bYm
PHUaUilG+kk00tth7cTq4PdGxpNkwAWNFmTdZ/mTIoNUCPQmS23age5Uxs0y1EkC
1lGUBwa0vBuXjhDyuPGsjKDTgG6yiWXq2KeUiFDDhM8/nBzWrNjrYlDUw/P/8EWn
+hwh5JjhX/xyxJ8WyopB1AfPuFnDXRcaMfPcBmDD0ShE7Q==
-----END CERTIFICATE-----
