Certificate:
    Data:
        Version: 3 (0x2)
        Serial Number: 197 (0xc5)
    Signature Algorithm: sha256WithRSAEncryption
        Issuer: C=FR, ST=idf, L=paris, O=Vitam., CN=CA_client_intermediate
        Validity
            Not Before: Nov 18 14:13:14 2016 GMT
            Not After : Nov 18 14:13:14 2019 GMT
        Subject: C=FR, ST=idf, L=paris, O=Vitam., CN=ihm-demo
        Subject Public Key Info:
            Public Key Algorithm: rsaEncryption
                Public-Key: (4096 bit)
                Modulus:
                    00:c5:18:5f:b2:1a:d1:8f:a0:9b:c3:dc:39:68:24:
                    e5:6c:ba:8c:31:07:44:e3:33:ec:bc:4f:a6:7b:04:
                    30:7f:be:1b:45:df:a7:e1:c4:c6:43:df:e0:e1:6b:
                    7b:43:29:ed:0e:28:bf:5a:fb:29:f8:9e:38:a7:82:
                    cc:20:82:93:13:1e:a7:a5:fc:35:56:8a:23:53:1a:
                    ca:ab:ab:ab:54:c1:fb:3e:1f:d2:3c:74:56:8f:11:
                    44:c8:fa:bb:1f:b9:0f:91:4b:7b:3d:20:6e:ae:c2:
                    e2:4f:4b:0d:11:eb:7e:10:92:d8:91:ff:97:62:fb:
                    94:66:9c:23:c5:da:5f:ab:2e:f1:cc:bc:fa:72:09:
                    88:b0:fa:f6:5b:7b:1d:ca:cb:58:ee:06:d6:bc:d0:
                    eb:91:40:60:75:69:ab:96:00:c9:10:27:6d:7c:08:
                    81:8d:68:f5:29:90:98:dd:a7:3b:bd:a0:45:69:65:
                    00:55:7b:8d:cc:b2:13:0a:aa:e1:77:e4:04:9b:05:
                    0b:f0:e3:ee:f5:15:08:fc:1c:52:a3:80:17:b5:fb:
                    6f:24:b6:39:72:f7:31:9b:9e:84:c7:d3:80:62:84:
                    04:92:2f:a9:9c:df:11:4d:97:6c:c0:a4:77:33:b4:
                    bb:e7:a8:11:7e:92:41:59:f9:f9:ba:12:ed:9d:4f:
                    ca:d4:69:3e:e3:61:1a:79:b2:e5:18:c7:84:b8:c9:
                    d7:50:d6:91:ca:f1:db:43:41:d9:8a:f8:86:ef:bc:
                    cb:5d:a0:ba:a9:1a:8d:34:44:c1:76:f5:0a:bb:d3:
                    f6:cb:59:3f:eb:78:23:24:60:d2:2e:a7:94:30:69:
                    82:05:f0:46:b4:39:93:4d:e2:a5:69:f7:b5:72:f4:
                    ea:06:8d:66:4a:01:e3:42:bf:ac:5f:92:56:80:3e:
                    b1:6d:1f:1a:07:00:b7:52:61:6d:6c:e8:d5:7e:ad:
                    b0:0e:be:5f:1e:d0:1b:9b:6d:c8:74:87:69:4e:57:
                    8c:d1:7b:b8:24:2d:b4:cb:9b:de:23:da:44:cb:d0:
                    dd:12:a2:2a:dd:45:b6:cc:2e:86:01:aa:c9:7d:19:
                    82:12:c7:03:2c:d1:04:fb:35:22:bf:5a:7b:7c:4a:
                    65:f4:e2:aa:20:e4:aa:2a:b6:50:0d:eb:52:a3:e1:
                    08:9b:cd:c7:d9:10:91:6c:08:cd:f8:ad:f1:c0:79:
                    7d:ab:40:2e:c3:3b:7e:50:14:b5:0c:e8:d6:4b:1e:
                    31:50:b0:ef:27:b0:a3:ae:bf:96:90:9f:3a:2b:d3:
                    38:bf:f5:14:0b:a4:b6:c1:aa:64:d0:ae:35:28:44:
                    cc:f0:dc:29:2d:ec:fd:a3:4e:fa:d6:61:9f:70:b9:
                    0d:3c:a3
                Exponent: 65537 (0x10001)
        X509v3 extensions:
            Netscape Comment: 
                Certificat Client SSL
            X509v3 Subject Key Identifier: 
                3A:9D:25:3C:1C:8A:D0:05:CD:34:BD:8B:2D:61:A2:46:A4:73:C5:64
            X509v3 Authority Key Identifier: 
                keyid:B8:64:05:68:8C:72:F7:D2:70:71:BC:B2:31:0E:E3:31:05:5D:E0:1F
                DirName:/C=FR/ST=idf/L=paris/O=Vitam./CN=CA_client
                serial:C4

            X509v3 Issuer Alternative Name: 
                <EMPTY>

            X509v3 Subject Alternative Name: 
                DNS:ingest-external.service.consul
            X509v3 Basic Constraints: critical
                CA:FALSE
            X509v3 Key Usage: 
                Digital Signature, Non Repudiation, Key Encipherment
            Netscape Cert Type: 
                SSL Client
            X509v3 Extended Key Usage: 
                TLS Web Client Authentication
    Signature Algorithm: sha256WithRSAEncryption
         47:a4:02:4a:0d:35:73:68:8f:76:d4:9f:cb:7f:02:7c:71:3e:
         a5:70:21:a8:d5:d1:d3:ff:47:1f:19:1b:f3:4f:fb:35:48:8c:
         7b:02:ec:ba:7b:0f:a1:3e:8d:a3:43:d2:03:4a:cd:3d:61:7e:
         f6:45:4b:1d:35:ee:cc:65:d6:db:e7:f5:4a:86:fe:e3:b1:eb:
         80:fe:f9:02:56:75:dd:64:c9:b9:1c:2d:bf:77:22:cf:71:b2:
         18:12:4a:dc:55:66:5b:7c:df:17:b0:93:a4:a4:6d:88:77:a9:
         8c:f6:58:38:38:3c:64:df:56:ce:be:75:08:9e:d8:4c:cf:f9:
         f2:bc:23:4a:4c:25:53:81:13:46:a8:a7:f6:ea:42:09:5b:fd:
         96:85:0f:36:a5:05:19:18:f1:4c:a5:8b:e8:ce:a9:86:44:0c:
         b5:91:51:57:ec:6e:13:82:08:9e:74:af:dc:e1:18:14:13:94:
         9a:94:82:cc:4c:03:2c:7f:99:f4:ba:4f:9d:63:2e:d1:77:16:
         22:29:27:87:2c:f5:1e:1b:5f:53:c8:cb:ed:09:9a:8d:ce:0c:
         93:63:0d:bd:89:8c:1c:42:ca:59:de:95:c6:eb:e8:71:98:38:
         a8:40:6d:48:e2:a6:b7:66:93:24:c2:48:9d:b3:35:67:27:0d:
         0f:e8:2b:85:46:aa:c3:94:58:c2:e0:19:69:c2:54:36:96:f2:
         15:19:11:bd:14:9f:8c:71:03:39:ae:40:62:6e:ab:d4:92:28:
         2a:e2:3a:95:50:f8:85:a5:c3:fd:2f:8e:7d:8f:af:b1:68:4c:
         5a:0d:39:25:68:dc:ed:42:27:05:b2:4e:5f:92:48:3f:b9:ec:
         66:a8:52:4f:33:37:d4:22:db:80:c6:89:14:c7:60:6a:5f:65:
         ff:9e:b1:3b:6b:b8:c3:8e:b1:ac:45:55:f6:f5:6b:06:29:65:
         03:09:6a:8b:39:93:99:33:bd:fb:78:bc:b2:d7:fe:04:37:19:
         4a:d9:20:99:53:f4:ca:86:db:33:ce:14:b1:6c:4d:75:b9:32:
         9a:95:39:43:66:40:a4:0c:e4:e7:3d:92:07:cf:96:01:fc:73:
         82:14:d7:a4:56:68:d0:cb:2a:35:86:67:ba:61:21:cb:74:88:
         97:08:ad:25:68:34:44:2a:0f:44:26:83:6a:72:18:75:05:77:
         18:9d:9e:05:28:77:1f:70:96:68:0e:1c:fa:6b:a5:88:1e:35:
         87:e0:be:c9:50:8d:61:79:9b:27:86:4d:08:25:08:cd:1b:81:
         f7:4d:59:4c:cf:44:da:41:d7:f0:29:8b:8d:f5:5a:ce:4f:39:
         2b:df:6a:f7:b6:02:d8:62
-----BEGIN CERTIFICATE-----
MIIGZzCCBE+gAwIBAgICAMUwDQYJKoZIhvcNAQELBQAwXTELMAkGA1UEBhMCRlIx
DDAKBgNVBAgTA2lkZjEOMAwGA1UEBxMFcGFyaXMxDzANBgNVBAoTBlZpdGFtLjEf
MB0GA1UEAxQWQ0FfY2xpZW50X2ludGVybWVkaWF0ZTAeFw0xNjExMTgxNDEzMTRa
Fw0xOTExMTgxNDEzMTRaME8xCzAJBgNVBAYTAkZSMQwwCgYDVQQIEwNpZGYxDjAM
BgNVBAcTBXBhcmlzMQ8wDQYDVQQKEwZWaXRhbS4xETAPBgNVBAMTCGlobS1kZW1v
MIICIjANBgkqhkiG9w0BAQEFAAOCAg8AMIICCgKCAgEAxRhfshrRj6Cbw9w5aCTl
bLqMMQdE4zPsvE+mewQwf74bRd+n4cTGQ9/g4Wt7QyntDii/Wvsp+J44p4LMIIKT
Ex6npfw1VoojUxrKq6urVMH7Ph/SPHRWjxFEyPq7H7kPkUt7PSBursLiT0sNEet+
EJLYkf+XYvuUZpwjxdpfqy7xzLz6cgmIsPr2W3sdystY7gbWvNDrkUBgdWmrlgDJ
ECdtfAiBjWj1KZCY3ac7vaBFaWUAVXuNzLITCqrhd+QEmwUL8OPu9RUI/BxSo4AX
tftvJLY5cvcxm56Ex9OAYoQEki+pnN8RTZdswKR3M7S756gRfpJBWfn5uhLtnU/K
1Gk+42EaebLlGMeEuMnXUNaRyvHbQ0HZiviG77zLXaC6qRqNNETBdvUKu9P2y1k/
63gjJGDSLqeUMGmCBfBGtDmTTeKlafe1cvTqBo1mSgHjQr+sX5JWgD6xbR8aBwC3
UmFtbOjVfq2wDr5fHtAbm23IdIdpTleM0Xu4JC20y5veI9pEy9DdEqIq3UW2zC6G
AarJfRmCEscDLNEE+zUiv1p7fEpl9OKqIOSqKrZQDetSo+EIm83H2RCRbAjN+K3x
wHl9q0Auwzt+UBS1DOjWSx4xULDvJ7Cjrr+WkJ86K9M4v/UUC6S2wapk0K41KETM
8NwpLez9o0761mGfcLkNPKMCAwEAAaOCAT0wggE5MCQGCWCGSAGG+EIBDQQXFhVD
ZXJ0aWZpY2F0IENsaWVudCBTU0wwHQYDVR0OBBYEFDqdJTwcitAFzTS9iy1hokak
c8VkMHkGA1UdIwRyMHCAFLhkBWiMcvfScHG8sjEO4zEFXeAfoVSkUjBQMQswCQYD
VQQGEwJGUjEMMAoGA1UECBMDaWRmMQ4wDAYDVQQHEwVwYXJpczEPMA0GA1UEChMG
Vml0YW0uMRIwEAYDVQQDFAlDQV9jbGllbnSCAgDEMAkGA1UdEgQCMAAwKQYDVR0R
BCIwIIIeaW5nZXN0LWV4dGVybmFsLnNlcnZpY2UuY29uc3VsMAwGA1UdEwEB/wQC
MAAwCwYDVR0PBAQDAgXgMBEGCWCGSAGG+EIBAQQEAwIHgDATBgNVHSUEDDAKBggr
BgEFBQcDAjANBgkqhkiG9w0BAQsFAAOCAgEAR6QCSg01c2iPdtSfy38CfHE+pXAh
qNXR0/9HHxkb80/7NUiMewLsunsPoT6No0PSA0rNPWF+9kVLHTXuzGXW2+f1Sob+
47HrgP75AlZ13WTJuRwtv3ciz3GyGBJK3FVmW3zfF7CTpKRtiHepjPZYODg8ZN9W
zr51CJ7YTM/58rwjSkwlU4ETRqin9upCCVv9loUPNqUFGRjxTKWL6M6phkQMtZFR
V+xuE4IInnSv3OEYFBOUmpSCzEwDLH+Z9LpPnWMu0XcWIiknhyz1HhtfU8jL7Qma
jc4Mk2MNvYmMHELKWd6VxuvocZg4qEBtSOKmt2aTJMJInbM1ZycND+grhUaqw5RY
wuAZacJUNpbyFRkRvRSfjHEDOa5AYm6r1JIoKuI6lVD4haXD/S+OfY+vsWhMWg05
JWjc7UInBbJOX5JIP7nsZqhSTzM31CLbgMaJFMdgal9l/56xO2u4w46xrEVV9vVr
BillAwlqizmTmTO9+3i8stf+BDcZStkgmVP0yobbM84UsWxNdbkympU5Q2ZApAzk
5z2SB8+WAfxzghTXpFZo0MsqNYZnumEhy3SIlwitJWg0RCoPRCaDanIYdQV3GJ2e
BSh3H3CWaA4c+muliB41h+C+yVCNYXmbJ4ZNCCUIzRuB901ZTM9E2kHX8CmLjfVa
zk85K99q97YC2GI=
-----END CERTIFICATE-----
