Certificate:
    Data:
        Version: 3 (0x2)
        Serial Number: 198 (0xc6)
    Signature Algorithm: sha256WithRSAEncryption
        Issuer: C=FR, ST=idf, L=paris, O=Vitam., CN=CA_client_intermediate
        Validity
            Not Before: Nov 18 14:13:14 2016 GMT
            Not After : Nov 18 14:13:14 2019 GMT
        Subject: C=FR, ST=idf, L=paris, O=Vitam., CN=ihm-recette
        Subject Public Key Info:
            Public Key Algorithm: rsaEncryption
                Public-Key: (4096 bit)
                Modulus:
                    00:d1:21:a2:e6:cb:6b:bc:9b:3c:e8:70:e0:da:55:
                    15:cc:a5:a5:00:c2:07:6c:4c:05:d6:ff:8e:fb:5a:
                    86:bb:2b:c8:a5:df:fa:a7:6a:cd:0c:63:68:e5:bd:
                    84:cc:f7:b6:75:d3:2e:e5:5d:15:9f:e3:25:2a:80:
                    07:26:68:13:a8:9d:d8:f4:75:d3:81:45:95:51:7d:
                    73:ee:2c:af:58:fa:c6:24:d0:37:d9:a8:47:9b:bc:
                    c5:4e:e3:39:e2:fe:f6:c5:31:b4:4b:c3:c5:6f:e0:
                    22:90:98:d2:bb:6b:ea:55:87:a3:00:81:88:52:54:
                    cd:5b:bc:a6:bb:d3:82:ce:29:5c:bb:c0:2b:f7:0d:
                    a8:f8:ca:79:e4:07:c9:57:16:81:b1:bf:87:9f:89:
                    57:c2:09:0c:9c:0f:aa:4c:ad:bc:ba:2e:48:11:1c:
                    71:ea:c6:96:d1:df:c4:35:fd:39:5e:2c:99:b6:b7:
                    96:01:aa:3c:16:67:b6:49:93:c3:f3:b4:51:3c:18:
                    98:6b:af:c9:ea:ad:f4:0b:eb:ad:60:9a:37:3e:21:
                    83:11:ff:33:ac:9f:d9:4c:4c:10:2a:72:13:a2:63:
                    ce:37:47:1f:49:f5:19:f3:36:17:72:5c:8d:b3:45:
                    3f:9f:15:bb:cf:5d:19:47:45:d8:3c:4b:04:ad:36:
                    98:e4:8a:48:19:68:60:11:a0:95:c6:d8:8c:41:93:
                    6e:b6:2b:78:89:fc:eb:b0:17:fa:83:32:c8:25:7c:
                    56:e1:ca:3d:2c:d9:cd:8a:17:95:07:40:48:ad:8b:
                    7e:35:aa:b6:90:ae:e9:0b:44:fa:37:8d:4f:66:11:
                    84:0d:4e:43:27:a8:cb:c3:8b:d4:90:e7:7f:bc:f4:
                    53:56:f7:c1:a4:d8:a0:e0:20:c0:3e:8d:cc:62:e5:
                    3f:1e:65:5c:3e:db:87:41:11:15:41:1e:df:16:dd:
                    09:42:78:f8:27:e9:5a:29:26:21:f7:50:3a:2a:89:
                    80:9a:c8:17:96:34:06:5c:b9:27:4e:b8:e9:d2:a7:
                    94:2a:ea:49:cd:02:77:d5:6a:34:be:8a:06:15:dc:
                    b7:d0:f8:da:a1:79:28:19:5a:94:09:df:46:cc:cd:
                    60:80:b5:90:b6:93:c0:4b:9a:f8:16:b6:c8:0e:d0:
                    e0:96:9a:f6:31:23:ae:e3:2d:13:f0:2e:22:63:95:
                    86:ef:e7:b7:08:08:cb:08:d3:eb:54:02:5f:39:27:
                    34:70:b8:9a:37:53:f1:e8:25:d4:b6:48:0f:e3:e9:
                    5d:37:96:97:3e:f8:fe:b0:ed:ff:d2:00:d8:66:8b:
                    61:a9:64:d8:fb:ae:a0:24:0f:3c:cb:ea:cf:bc:74:
                    29:23:07
                Exponent: 65537 (0x10001)
        X509v3 extensions:
            Netscape Comment: 
                Certificat Client SSL
            X509v3 Subject Key Identifier: 
                76:86:84:93:51:70:B6:F1:0B:E5:12:DC:1B:BB:EF:FC:6A:AE:DB:47
            X509v3 Authority Key Identifier: 
                keyid:B8:64:05:68:8C:72:F7:D2:70:71:BC:B2:31:0E:E3:31:05:5D:E0:1F
                DirName:/C=FR/ST=idf/L=paris/O=Vitam./CN=CA_client
                serial:C4

            X509v3 Issuer Alternative Name: 
                <EMPTY>

            X509v3 Subject Alternative Name: 
                DNS:ingest-external.service.consul
            X509v3 Basic Constraints: critical
                CA:FALSE
            X509v3 Key Usage: 
                Digital Signature, Non Repudiation, Key Encipherment
            Netscape Cert Type: 
                SSL Client
            X509v3 Extended Key Usage: 
                TLS Web Client Authentication
    Signature Algorithm: sha256WithRSAEncryption
         5a:a0:07:6e:13:92:df:92:54:d4:a4:47:ac:74:cd:b1:38:12:
         4d:64:04:d2:4e:7b:46:dd:d1:9a:08:1f:b2:a7:e6:19:6d:ce:
         26:61:81:5c:92:e1:11:7d:80:26:5c:40:8c:7f:1e:fa:2b:23:
         a5:d0:b0:20:ff:55:e3:60:6b:f0:8f:3c:df:10:74:19:9e:d4:
         81:4d:ea:76:7d:a5:93:f9:73:65:7c:d3:ab:7e:2e:48:60:18:
         4d:fb:12:f1:65:e0:d8:00:2d:22:67:07:aa:b1:79:0e:83:2b:
         ad:02:65:9a:82:d5:bd:63:3e:8b:85:ed:cb:aa:23:34:d6:95:
         3e:41:ba:aa:fb:16:4d:5e:b3:69:21:82:6d:f1:3f:4a:c7:f4:
         66:b3:e8:bf:e3:04:e3:c5:6b:e8:ff:07:90:be:13:5c:52:14:
         b6:27:b0:65:a8:ce:9f:86:95:0a:f0:27:75:6e:37:2e:2f:d5:
         5c:67:98:74:7d:13:5b:18:be:a1:c4:51:33:01:2e:ac:29:2a:
         5e:96:02:8f:29:55:0a:ab:04:a9:3c:6c:20:f7:e1:2d:3d:8f:
         c4:dd:43:81:45:c4:79:70:c7:83:8a:a4:2f:be:68:f3:13:71:
         88:20:69:a5:fc:24:3e:78:e8:e0:d4:be:6a:23:39:f4:3d:2f:
         0f:f0:b9:d1:16:00:bb:85:47:e1:c1:db:c4:0f:2d:98:40:3c:
         ae:3b:d4:8f:d3:ba:1a:7d:d6:be:e8:35:e8:a9:82:2d:d4:02:
         d0:13:07:87:63:16:8b:0d:ee:04:d0:36:fa:e5:73:35:71:db:
         ab:72:1b:6f:c9:d2:40:db:be:19:e4:04:ec:7a:81:2a:f5:f0:
         a1:a2:db:82:45:b9:c1:f1:5d:5c:24:d9:2c:87:68:17:42:2a:
         77:76:22:e8:db:0c:b4:89:7a:a2:76:06:30:68:9f:53:85:c7:
         22:8d:8d:2a:44:76:65:b7:33:3d:b4:f5:f5:a2:3c:b0:cb:13:
         7c:4e:10:c5:2f:44:87:3f:52:6f:73:35:59:97:fb:8d:ad:c4:
         58:b8:d6:32:6a:ce:33:b9:dc:79:78:64:1d:dd:52:71:4e:5d:
         24:1f:a0:e8:ed:31:04:ea:b6:98:16:e6:ca:d6:de:3f:66:49:
         ae:e1:08:c4:13:38:86:be:5b:f4:c8:ff:6f:c0:ad:da:69:87:
         10:be:28:f0:68:aa:af:4b:d4:b5:7d:b3:77:95:32:c1:fa:e0:
         91:00:c9:84:3c:0a:cb:c6:a1:9c:fc:be:9c:76:72:70:35:f3:
         60:62:c5:ea:2e:00:10:7a:40:ff:56:db:63:d5:73:27:30:56:
         20:00:d3:04:7e:2a:58:59
-----BEGIN CERTIFICATE-----
MIIGajCCBFKgAwIBAgICAMYwDQYJKoZIhvcNAQELBQAwXTELMAkGA1UEBhMCRlIx
DDAKBgNVBAgTA2lkZjEOMAwGA1UEBxMFcGFyaXMxDzANBgNVBAoTBlZpdGFtLjEf
MB0GA1UEAxQWQ0FfY2xpZW50X2ludGVybWVkaWF0ZTAeFw0xNjExMTgxNDEzMTRa
Fw0xOTExMTgxNDEzMTRaMFIxCzAJBgNVBAYTAkZSMQwwCgYDVQQIEwNpZGYxDjAM
BgNVBAcTBXBhcmlzMQ8wDQYDVQQKEwZWaXRhbS4xFDASBgNVBAMTC2lobS1yZWNl
dHRlMIICIjANBgkqhkiG9w0BAQEFAAOCAg8AMIICCgKCAgEA0SGi5strvJs86HDg
2lUVzKWlAMIHbEwF1v+O+1qGuyvIpd/6p2rNDGNo5b2EzPe2ddMu5V0Vn+MlKoAH
JmgTqJ3Y9HXTgUWVUX1z7iyvWPrGJNA32ahHm7zFTuM54v72xTG0S8PFb+AikJjS
u2vqVYejAIGIUlTNW7ymu9OCzilcu8Ar9w2o+Mp55AfJVxaBsb+Hn4lXwgkMnA+q
TK28ui5IERxx6saW0d/ENf05XiyZtreWAao8Fme2SZPD87RRPBiYa6/J6q30C+ut
YJo3PiGDEf8zrJ/ZTEwQKnITomPON0cfSfUZ8zYXclyNs0U/nxW7z10ZR0XYPEsE
rTaY5IpIGWhgEaCVxtiMQZNutit4ifzrsBf6gzLIJXxW4co9LNnNiheVB0BIrYt+
Naq2kK7pC0T6N41PZhGEDU5DJ6jLw4vUkOd/vPRTVvfBpNig4CDAPo3MYuU/HmVc
PtuHQREVQR7fFt0JQnj4J+laKSYh91A6KomAmsgXljQGXLknTrjp0qeUKupJzQJ3
1Wo0vooGFdy30PjaoXkoGVqUCd9GzM1ggLWQtpPAS5r4FrbIDtDglpr2MSOu4y0T
8C4iY5WG7+e3CAjLCNPrVAJfOSc0cLiaN1Px6CXUtkgP4+ldN5aXPvj+sO3/0gDY
ZothqWTY+66gJA88y+rPvHQpIwcCAwEAAaOCAT0wggE5MCQGCWCGSAGG+EIBDQQX
FhVDZXJ0aWZpY2F0IENsaWVudCBTU0wwHQYDVR0OBBYEFHaGhJNRcLbxC+US3Bu7
7/xqrttHMHkGA1UdIwRyMHCAFLhkBWiMcvfScHG8sjEO4zEFXeAfoVSkUjBQMQsw
CQYDVQQGEwJGUjEMMAoGA1UECBMDaWRmMQ4wDAYDVQQHEwVwYXJpczEPMA0GA1UE
ChMGVml0YW0uMRIwEAYDVQQDFAlDQV9jbGllbnSCAgDEMAkGA1UdEgQCMAAwKQYD
VR0RBCIwIIIeaW5nZXN0LWV4dGVybmFsLnNlcnZpY2UuY29uc3VsMAwGA1UdEwEB
/wQCMAAwCwYDVR0PBAQDAgXgMBEGCWCGSAGG+EIBAQQEAwIHgDATBgNVHSUEDDAK
BggrBgEFBQcDAjANBgkqhkiG9w0BAQsFAAOCAgEAWqAHbhOS35JU1KRHrHTNsTgS
TWQE0k57Rt3RmggfsqfmGW3OJmGBXJLhEX2AJlxAjH8e+isjpdCwIP9V42Br8I88
3xB0GZ7UgU3qdn2lk/lzZXzTq34uSGAYTfsS8WXg2AAtImcHqrF5DoMrrQJlmoLV
vWM+i4Xty6ojNNaVPkG6qvsWTV6zaSGCbfE/Ssf0ZrPov+ME48Vr6P8HkL4TXFIU
tiewZajOn4aVCvAndW43Li/VXGeYdH0TWxi+ocRRMwEurCkqXpYCjylVCqsEqTxs
IPfhLT2PxN1DgUXEeXDHg4qkL75o8xNxiCBppfwkPnjo4NS+aiM59D0vD/C50RYA
u4VH4cHbxA8tmEA8rjvUj9O6Gn3Wvug16KmCLdQC0BMHh2MWiw3uBNA2+uVzNXHb
q3Ibb8nSQNu+GeQE7HqBKvXwoaLbgkW5wfFdXCTZLIdoF0Iqd3Yi6NsMtIl6onYG
MGifU4XHIo2NKkR2ZbczPbT19aI8sMsTfE4QxS9Ehz9Sb3M1WZf7ja3EWLjWMmrO
M7nceXhkHd1ScU5dJB+g6O0xBOq2mBbmytbeP2ZJruEIxBM4hr5b9Mj/b8Ct2mmH
EL4o8Giqr0vUtX2zd5UywfrgkQDJhDwKy8ahnPy+nHZycDXzYGLF6i4AEHpA/1bb
Y9VzJzBWIADTBH4qWFk=
-----END CERTIFICATE-----
