Certificate:
    Data:
        Version: 3 (0x2)
        Serial Number: 190 (0xbe)
    Signature Algorithm: sha256WithRSAEncryption
        Issuer: C=FR, ST=idf, L=paris, O=Vitam., CN=CA_server
        Validity
            Not Before: Mar  6 18:03:39 2017 GMT
            Not After : Mar  4 18:03:39 2027 GMT
        Subject: C=FR, ST=idf, L=paris, O=Vitam., CN=CA_server
        Subject Public Key Info:
            Public Key Algorithm: rsaEncryption
                Public-Key: (4096 bit)
                Modulus:
                    00:d8:07:fa:d5:6f:68:b3:69:74:5e:e4:e4:83:41:
                    b8:1b:f0:59:ae:07:2e:24:55:e8:73:08:b1:a3:3f:
                    c5:35:b9:20:16:96:aa:c8:4e:98:e5:e5:21:b0:61:
                    f8:c7:ad:60:76:df:3f:e7:53:c9:f7:02:18:98:fa:
                    87:50:fd:f7:d0:0e:dc:1c:4f:68:47:8b:37:63:10:
                    40:e5:7e:cb:61:40:e1:05:57:20:66:ec:b7:a1:cf:
                    87:99:0d:a5:3f:8b:a4:c7:3d:11:d7:5b:82:86:51:
                    07:9e:cd:54:20:2c:a1:37:7d:2e:e6:b2:14:cb:ea:
                    3d:16:18:5b:5f:9e:9b:b6:5c:3a:34:5f:9c:a2:b2:
                    80:f9:de:9f:91:b9:c9:32:c3:14:42:ba:e7:47:93:
                    52:1b:91:f1:41:b3:3a:e3:47:ae:eb:dc:5c:c3:a8:
                    66:6e:40:d1:49:9c:7e:3d:10:ec:f7:ee:58:1d:b4:
                    69:84:04:89:2d:4b:db:46:66:ff:09:f2:f2:70:56:
                    e0:10:14:59:6a:c4:01:be:77:5f:e3:10:8e:76:71:
                    40:b9:b4:ee:61:3f:18:07:2f:f2:2c:2c:91:86:ed:
                    18:b9:43:cf:9f:30:ca:ae:1f:06:ae:a4:e3:32:1f:
                    2f:c3:65:fc:3a:6a:aa:bf:de:01:65:c3:09:dc:b5:
                    c3:f3:54:ab:98:a8:73:6b:34:6d:6c:d6:e0:77:2b:
                    92:96:79:33:c9:82:45:6b:e0:f9:bc:51:f2:20:cf:
                    df:ac:1c:20:3e:2a:65:84:92:12:02:df:52:f7:39:
                    7e:a3:dc:1b:dc:cd:94:92:01:3c:a6:4b:dc:24:77:
                    ff:79:91:7f:e9:4d:dd:60:e0:ca:9a:6e:98:ad:bb:
                    72:e7:29:10:de:c8:e8:9c:62:e2:5a:4e:a4:a3:5c:
                    bb:ea:fd:03:a4:8e:ba:1e:b6:b5:0a:fb:49:37:04:
                    19:8e:33:c2:32:13:90:57:d4:3b:6d:22:8b:5d:83:
                    04:4b:c7:4d:c6:82:ef:9f:5d:32:f6:5c:c7:20:db:
                    cd:69:32:94:e3:a1:d0:91:e0:65:25:c1:86:0d:0e:
                    48:68:2e:bb:79:a4:63:db:26:96:5d:80:dd:3e:0f:
                    23:31:4f:94:19:b3:5b:7a:1d:79:6d:e4:62:56:6c:
                    ef:9f:32:49:3a:87:68:87:47:00:5b:ae:37:97:17:
                    29:29:dc:fe:cb:66:72:b0:1a:cb:ba:76:a4:46:b8:
                    86:e3:8f:b6:bb:fb:20:6c:7a:bd:bb:c7:67:fd:a5:
                    f5:63:c9:8a:45:57:9d:13:0f:d3:1e:c9:a4:d7:53:
                    f0:7e:a7:44:f1:1c:39:35:0e:24:89:05:56:4c:e1:
                    f2:df:d5
                Exponent: 65537 (0x10001)
        X509v3 extensions:
            Netscape Comment: 
                CA SSL
            X509v3 Basic Constraints: critical
                CA:TRUE, pathlen:0
            X509v3 Subject Key Identifier: 
                02:1D:D3:9D:31:15:D2:16:71:31:23:BE:98:05:EC:31:42:E7:77:E8
            X509v3 Authority Key Identifier: 
                keyid:D1:A1:7D:0C:F9:D1:96:06:4E:AA:95:D4:24:83:D2:EC:43:F2:A8:39
                DirName:/C=FR/ST=idf/L=paris/O=Vitam./CN=CA_server
                serial:BD

            X509v3 Issuer Alternative Name: 
                <EMPTY>

            X509v3 Key Usage: 
                Certificate Sign, CRL Sign
            Netscape Cert Type: 
                SSL CA
    Signature Algorithm: sha256WithRSAEncryption
         ca:a7:41:2d:22:8f:f2:f7:6d:cb:72:23:ac:e3:69:5a:33:76:
         47:1b:8c:1e:71:53:07:c3:b0:9e:80:63:17:6a:50:f1:5d:66:
         f6:ac:f5:53:90:1d:a7:bd:40:fb:3e:d5:ab:b4:4f:73:6a:d7:
         c2:c6:de:79:66:e1:82:45:d9:d8:59:b4:d1:e1:42:5a:37:39:
         dc:3b:df:96:2d:97:73:0a:3f:1f:99:ee:f6:d9:e3:29:76:94:
         f2:3d:9d:f8:ca:01:ef:96:f9:5a:89:57:d4:36:63:f6:02:e5:
         dc:8f:e6:d6:4f:7b:5b:97:65:b2:64:9a:2a:19:7f:11:49:df:
         2e:23:f2:a7:39:a4:64:0d:05:ed:33:ba:6d:28:e2:74:3d:7f:
         f0:f2:04:db:cf:32:30:7c:30:f3:9d:d8:5b:67:7e:60:0f:e4:
         c3:b7:cb:54:a1:ea:95:d9:8a:8c:ab:a7:48:0a:21:70:8f:69:
         d4:ff:c4:56:21:7c:75:be:7f:b7:b9:37:01:cb:b2:0e:24:ea:
         b6:96:1a:5c:8c:37:38:2a:2e:86:05:11:03:41:0c:c3:46:83:
         23:3c:60:b1:86:e1:18:ea:ca:02:27:da:79:c5:77:42:f4:21:
         58:37:b7:59:dc:b8:81:c6:f2:36:69:5b:ad:91:24:2d:4d:50:
         b9:59:dc:26
-----BEGIN CERTIFICATE-----
MIIFEDCCA/igAwIBAgICAL4wDQYJKoZIhvcNAQELBQAwUDELMAkGA1UEBhMCRlIx
DDAKBgNVBAgMA2lkZjEOMAwGA1UEBwwFcGFyaXMxDzANBgNVBAoMBlZpdGFtLjES
MBAGA1UEAwwJQ0Ffc2VydmVyMB4XDTE3MDMwNjE4MDMzOVoXDTI3MDMwNDE4MDMz
OVowUDELMAkGA1UEBhMCRlIxDDAKBgNVBAgMA2lkZjEOMAwGA1UEBwwFcGFyaXMx
DzANBgNVBAoMBlZpdGFtLjESMBAGA1UEAwwJQ0Ffc2VydmVyMIICIjANBgkqhkiG
9w0BAQEFAAOCAg8AMIICCgKCAgEA2Af61W9os2l0XuTkg0G4G/BZrgcuJFXocwix
oz/FNbkgFpaqyE6Y5eUhsGH4x61gdt8/51PJ9wIYmPqHUP330A7cHE9oR4s3YxBA
5X7LYUDhBVcgZuy3oc+HmQ2lP4ukxz0R11uChlEHns1UICyhN30u5rIUy+o9Fhhb
X56btlw6NF+corKA+d6fkbnJMsMUQrrnR5NSG5HxQbM640eu69xcw6hmbkDRSZx+
PRDs9+5YHbRphASJLUvbRmb/CfLycFbgEBRZasQBvndf4xCOdnFAubTuYT8YBy/y
LCyRhu0YuUPPnzDKrh8GrqTjMh8vw2X8Omqqv94BZcMJ3LXD81SrmKhzazRtbNbg
dyuSlnkzyYJFa+D5vFHyIM/frBwgPiplhJISAt9S9zl+o9wb3M2UkgE8pkvcJHf/
eZF/6U3dYODKmm6Yrbty5ykQ3sjonGLiWk6ko1y76v0DpI66Hra1CvtJNwQZjjPC
MhOQV9Q7bSKLXYMES8dNxoLvn10y9lzHINvNaTKU46HQkeBlJcGGDQ5IaC67eaRj
2yaWXYDdPg8jMU+UGbNbeh15beRiVmzvnzJJOodoh0cAW643lxcpKdz+y2ZysBrL
unakRriG44+2u/sgbHq9u8dn/aX1Y8mKRVedEw/THsmk11PwfqdE8Rw5NQ4kiQVW
TOHy39UCAwEAAaOB8zCB8DAVBglghkgBhvhCAQ0ECBYGQ0EgU1NMMBIGA1UdEwEB
/wQIMAYBAf8CAQAwHQYDVR0OBBYEFAId050xFdIWcTEjvpgF7DFC53foMHkGA1Ud
IwRyMHCAFNGhfQz50ZYGTqqV1CSD0uxD8qg5oVSkUjBQMQswCQYDVQQGEwJGUjEM
MAoGA1UECAwDaWRmMQ4wDAYDVQQHDAVwYXJpczEPMA0GA1UECgwGVml0YW0uMRIw
EAYDVQQDDAlDQV9zZXJ2ZXKCAgC9MAkGA1UdEgQCMAAwCwYDVR0PBAQDAgEGMBEG
CWCGSAGG+EIBAQQEAwICBDANBgkqhkiG9w0BAQsFAAOCAQEAyqdBLSKP8vdty3Ij
rONpWjN2RxuMHnFTB8OwnoBjF2pQ8V1m9qz1U5Adp71A+z7Vq7RPc2rXwsbeeWbh
gkXZ2Fm00eFCWjc53Dvfli2Xcwo/H5nu9tnjKXaU8j2d+MoB75b5WolX1DZj9gLl
3I/m1k97W5dlsmSaKhl/EUnfLiPypzmkZA0F7TO6bSjidD1/8PIE288yMHww853Y
W2d+YA/kw7fLVKHqldmKjKunSAohcI9p1P/EViF8db5/t7k3AcuyDiTqtpYaXIw3
OCouhgURA0EMw0aDIzxgsYbhGOrKAifaecV3QvQhWDe3Wdy4gcbyNmlbrZEkLU1Q
uVncJg==
-----END CERTIFICATE-----
