Certificate:
    Data:
        Version: 3 (0x2)
        Serial Number: 289 (0x121)
    Signature Algorithm: sha256WithRSAEncryption
        Issuer: C=fr, ST=idf, L=paris, O=vitam, OU=authorities, CN=ca_intermediate_client-external
        Validity
            Not Before: Feb 22 16:37:06 2018 GMT
            Not After : Feb 21 16:37:06 2021 GMT
        Subject: C=fr, ST=idf, L=paris, O=vitam, CN=gatling
        Subject Public Key Info:
            Public Key Algorithm: rsaEncryption
                Public-Key: (4096 bit)
                Modulus:
                    00:9f:7b:84:f5:65:13:e6:46:68:d5:84:b7:2f:e6:
                    22:11:fb:34:80:27:b6:62:6e:9b:78:2b:4a:83:d9:
                    74:4e:5e:12:87:d7:47:c2:d8:1f:8f:01:c4:67:b0:
                    9b:bd:74:36:15:a4:aa:4b:0e:3c:9e:f5:31:7c:48:
                    d7:72:09:a6:89:b4:4a:f6:1d:69:70:8b:bc:b6:6d:
                    c0:34:09:5f:e4:7e:b6:ac:55:32:2a:bb:ae:99:0f:
                    51:b7:98:aa:e0:0f:b7:61:80:07:f1:bc:33:66:e4:
                    0b:9c:b5:58:cb:06:ba:d2:9b:e4:97:7c:24:e8:1f:
                    fc:07:46:47:09:e5:14:a5:b1:be:e0:3a:63:f2:28:
                    82:1a:e2:dd:c7:33:65:3f:ac:8c:1f:66:31:2d:ac:
                    5a:4d:af:27:8e:7d:6c:34:79:02:87:d1:9f:60:af:
                    08:56:2e:3f:79:e3:14:74:f4:d6:4d:4b:ba:66:e3:
                    3b:c4:31:68:4b:6c:93:da:75:65:8e:7a:fd:26:10:
                    fc:82:9a:b5:a1:97:a4:08:c2:61:18:b3:1a:00:b6:
                    cf:8a:7a:91:2e:ae:10:68:c2:a7:9a:37:0d:2a:76:
                    c9:c2:1a:05:c9:f0:d2:f7:4d:b6:c4:ee:27:d9:e2:
                    cd:67:d6:d5:13:8f:68:be:df:39:dc:c0:f7:43:f4:
                    a6:a4:9c:5c:fc:da:e0:40:83:7e:75:08:44:2b:3f:
                    97:f5:99:a0:ac:f9:c9:b9:c1:26:69:32:12:9f:1f:
                    44:eb:d5:53:04:ff:47:ba:00:2a:cb:fe:60:38:85:
                    aa:ff:30:24:57:c1:b8:1c:23:98:41:32:b2:e7:f8:
                    1b:49:20:9a:03:f1:b3:4d:c6:a9:c2:cc:4d:fd:4e:
                    16:f7:3d:15:2b:34:58:5c:bd:53:dd:18:d5:ed:12:
                    55:df:fa:44:db:5e:a6:d5:e3:83:b2:b0:e3:a9:5f:
                    89:51:57:f3:24:fd:7d:ff:93:fc:e5:59:02:9e:1c:
                    e5:1b:f2:f2:b0:d4:25:28:da:8e:97:ca:76:51:a8:
                    09:d2:d1:96:3a:4a:af:8a:2b:ba:c4:5e:55:04:4f:
                    6e:5f:a0:af:fc:4c:4a:ec:8f:57:64:a2:e4:fa:df:
                    d5:3b:5c:2c:5d:0b:2d:ae:cf:62:05:0d:bf:cd:de:
                    d6:93:4d:9b:48:bc:e6:ff:82:3e:a4:0a:f6:4f:03:
                    e8:c1:41:4b:3f:f3:09:59:1b:d9:1a:91:e3:6c:d1:
                    d8:4d:68:0e:07:e5:1a:87:bf:f0:78:14:57:bd:11:
                    ea:64:15:21:8a:a8:8b:e8:7e:2d:1f:9e:47:f4:43:
                    7b:3e:32:7e:3e:8b:76:61:47:ac:ec:85:e9:79:15:
                    bd:79:8b
                Exponent: 65537 (0x10001)
        X509v3 extensions:
            Netscape Comment: 
                Certificat Client SSL
            X509v3 Subject Key Identifier: 
                B2:8F:D1:87:D9:63:BC:47:5B:7A:0F:E5:05:F5:F1:D8:7F:AD:42:BC
            X509v3 Authority Key Identifier: 
                keyid:9C:8B:2B:E0:30:68:BA:20:26:1D:BA:07:A0:48:19:6B:2C:DE:0E:26
                DirName:/C=fr/ST=idf/L=paris/O=vitam/OU=authorities/CN=ca_root_client-external
                serial:FC

            X509v3 Issuer Alternative Name: 
                <EMPTY>

            X509v3 Basic Constraints: critical
                CA:FALSE
            X509v3 Key Usage: 
                Digital Signature, Non Repudiation, Key Encipherment
            Netscape Cert Type: 
                SSL Client
            X509v3 Extended Key Usage: 
                TLS Web Client Authentication
    Signature Algorithm: sha256WithRSAEncryption
         06:06:8f:00:47:b4:6b:8b:69:61:75:b9:04:ca:ab:ce:85:ce:
         08:32:9d:a8:33:56:e4:ba:40:d5:13:d2:af:d6:4d:e2:db:cf:
         f2:a0:ac:fe:11:a0:ef:0c:b4:fa:cf:e8:4b:cb:51:c6:6f:d9:
         15:c9:a4:61:65:f9:27:b1:b9:38:d4:f5:40:ef:8a:2b:32:3f:
         82:e4:71:8a:48:74:8e:07:f7:c4:5a:7a:5b:47:dd:74:d6:f3:
         48:48:a8:16:95:7a:1c:05:63:ec:5d:a1:0d:90:7f:5f:03:79:
         f4:2d:3b:e7:a2:e7:d0:c3:c1:25:67:48:6d:7f:ca:0a:91:ca:
         f9:63:c0:f7:b7:c7:ec:1b:89:56:8b:3f:96:eb:75:58:f2:36:
         3c:06:c6:79:ad:58:1a:bd:a0:e4:db:e7:2d:f3:6f:92:94:e8:
         0d:42:c6:31:1b:f5:c8:f0:d3:ac:44:c0:ea:84:c0:36:48:7d:
         77:c6:a0:64:d2:1e:14:21:80:3a:1d:7e:7d:a4:c5:73:89:24:
         ed:74:2e:50:2b:fa:f1:f0:33:df:45:f6:68:af:82:b4:2c:b5:
         a2:ed:6b:a4:0d:48:9d:88:77:5f:8e:40:17:40:99:5b:29:a6:
         7a:5f:92:ff:00:69:f9:74:0a:b7:5b:4d:92:5c:b8:c2:ce:fe:
         35:67:a5:b0:c0:45:1f:7c:ba:13:6d:27:c2:2f:f3:f3:ca:50:
         d5:25:a7:e4:64:13:d7:4a:3e:91:68:84:d5:b9:d0:cf:32:d5:
         d1:ca:7c:9b:6d:da:13:c1:41:fb:3b:f3:b9:f0:e3:ee:d9:1e:
         d1:f9:bc:cd:f4:7c:fe:20:3b:2f:f7:35:d3:ae:3a:a4:40:c7:
         e7:ca:59:aa:95:0a:90:3e:24:93:03:04:30:4c:e9:f1:85:cc:
         32:9a:05:6c:63:65:49:45:e8:d5:5b:4c:e3:96:89:ad:46:a0:
         f8:b4:5b:1b:e9:53:0b:a1:c9:4f:f2:0a:cb:f7:4d:34:65:79:
         c7:4d:4d:e1:61:33:8d:f3:f2:13:bc:c3:5d:0d:f9:2f:ea:bd:
         6a:69:11:38:c4:eb:8c:1a:f2:e3:ce:57:43:cf:1d:6a:00:84:
         a1:95:87:df:81:6c:6b:99:29:a9:f4:40:e2:cd:7b:34:12:42:
         b2:ed:03:2d:c3:b8:4b:c2:6a:d0:c7:2f:c9:d5:33:50:ce:61:
         01:34:10:cc:aa:ea:69:c5:79:c8:f7:d2:29:66:68:47:c9:65:
         26:ee:52:fd:89:2f:38:7d:3b:3f:13:7d:22:b6:1f:a6:d4:cd:
         05:74:f5:26:83:30:59:6c:31:71:2c:84:80:f6:e2:f4:93:a3:
         7f:7d:64:22:39:43:18:a9
-----BEGIN CERTIFICATE-----
MIIGfjCCBGagAwIBAgICASEwDQYJKoZIhvcNAQELBQAwezELMAkGA1UEBhMCZnIx
DDAKBgNVBAgMA2lkZjEOMAwGA1UEBwwFcGFyaXMxDjAMBgNVBAoMBXZpdGFtMRQw
EgYDVQQLDAthdXRob3JpdGllczEoMCYGA1UEAwwfY2FfaW50ZXJtZWRpYXRlX2Ns
aWVudC1leHRlcm5hbDAeFw0xODAyMjIxNjM3MDZaFw0yMTAyMjExNjM3MDZaME0x
CzAJBgNVBAYTAmZyMQwwCgYDVQQIDANpZGYxDjAMBgNVBAcMBXBhcmlzMQ4wDAYD
VQQKDAV2aXRhbTEQMA4GA1UEAwwHZ2F0bGluZzCCAiIwDQYJKoZIhvcNAQEBBQAD
ggIPADCCAgoCggIBAJ97hPVlE+ZGaNWEty/mIhH7NIAntmJum3grSoPZdE5eEofX
R8LYH48BxGewm710NhWkqksOPJ71MXxI13IJpom0SvYdaXCLvLZtwDQJX+R+tqxV
Miq7rpkPUbeYquAPt2GAB/G8M2bkC5y1WMsGutKb5Jd8JOgf/AdGRwnlFKWxvuA6
Y/Ioghri3cczZT+sjB9mMS2sWk2vJ459bDR5AofRn2CvCFYuP3njFHT01k1Lumbj
O8QxaEtsk9p1ZY56/SYQ/IKataGXpAjCYRizGgC2z4p6kS6uEGjCp5o3DSp2ycIa
Bcnw0vdNtsTuJ9nizWfW1ROPaL7fOdzA90P0pqScXPza4ECDfnUIRCs/l/WZoKz5
ybnBJmkyEp8fROvVUwT/R7oAKsv+YDiFqv8wJFfBuBwjmEEysuf4G0kgmgPxs03G
qcLMTf1OFvc9FSs0WFy9U90Y1e0SVd/6RNteptXjg7Kw46lfiVFX8yT9ff+T/OVZ
Ap4c5Rvy8rDUJSjajpfKdlGoCdLRljpKr4orusReVQRPbl+gr/xMSuyPV2Si5Prf
1TtcLF0LLa7PYgUNv83e1pNNm0i85v+CPqQK9k8D6MFBSz/zCVkb2RqR42zR2E1o
DgflGoe/8HgUV70R6mQVIYqoi+h+LR+eR/RDez4yfj6LdmFHrOyF6XkVvXmLAgMB
AAGjggE4MIIBNDAkBglghkgBhvhCAQ0EFxYVQ2VydGlmaWNhdCBDbGllbnQgU1NM
MB0GA1UdDgQWBBSyj9GH2WO8R1t6D+UF9fHYf61CvDCBngYDVR0jBIGWMIGTgBSc
iyvgMGi6ICYdugegSBlrLN4OJqF3pHUwczELMAkGA1UEBhMCZnIxDDAKBgNVBAgM
A2lkZjEOMAwGA1UEBwwFcGFyaXMxDjAMBgNVBAoMBXZpdGFtMRQwEgYDVQQLDAth
dXRob3JpdGllczEgMB4GA1UEAwwXY2Ffcm9vdF9jbGllbnQtZXh0ZXJuYWyCAgD8
MAkGA1UdEgQCMAAwDAYDVR0TAQH/BAIwADALBgNVHQ8EBAMCBeAwEQYJYIZIAYb4
QgEBBAQDAgeAMBMGA1UdJQQMMAoGCCsGAQUFBwMCMA0GCSqGSIb3DQEBCwUAA4IC
AQAGBo8AR7Rri2lhdbkEyqvOhc4IMp2oM1bkukDVE9Kv1k3i28/yoKz+EaDvDLT6
z+hLy1HGb9kVyaRhZfknsbk41PVA74orMj+C5HGKSHSOB/fEWnpbR9101vNISKgW
lXocBWPsXaENkH9fA3n0LTvnoufQw8ElZ0htf8oKkcr5Y8D3t8fsG4lWiz+W63VY
8jY8BsZ5rVgavaDk2+ct82+SlOgNQsYxG/XI8NOsRMDqhMA2SH13xqBk0h4UIYA6
HX59pMVziSTtdC5QK/rx8DPfRfZor4K0LLWi7WukDUidiHdfjkAXQJlbKaZ6X5L/
AGn5dAq3W02SXLjCzv41Z6WwwEUffLoTbSfCL/PzylDVJafkZBPXSj6RaITVudDP
MtXRynybbdoTwUH7O/O58OPu2R7R+bzN9Hz+IDsv9zXTrjqkQMfnylmqlQqQPiST
AwQwTOnxhcwymgVsY2VJRejVW0zjlomtRqD4tFsb6VMLoclP8grL9000ZXnHTU3h
YTON8/ITvMNdDfkv6r1qaRE4xOuMGvLjzldDzx1qAIShlYffgWxrmSmp9EDizXs0
EkKy7QMtw7hLwmrQxy/J1TNQzmEBNBDMquppxXnI99IpZmhHyWUm7lL9iS84fTs/
E30ith+m1M0FdPUmgzBZbDFxLISA9uL0k6N/fWQiOUMYqQ==
-----END CERTIFICATE-----
