Certificate:
    Data:
        Version: 3 (0x2)
        Serial Number: 314 (0x13a)
        Signature Algorithm: sha256WithRSAEncryption
        Issuer: C=fr, ST=idf, L=paris, O=vitam, OU=authorities, CN=ca_intermediate_client-external
        Validity
            Not Before: Nov 10 14:35:53 2021 GMT
            Not After : Nov  9 14:35:53 2024 GMT
        Subject: C=fr, ST=idf, L=paris, O=vitam, CN=gatling
        Subject Public Key Info:
            Public Key Algorithm: rsaEncryption
                RSA Public-Key: (4096 bit)
                Modulus:
                    00:b3:da:38:74:7a:13:07:b4:71:f8:21:c8:f8:57:
                    0f:32:56:bf:7f:cf:5e:93:27:cc:96:f8:1a:56:f6:
                    a3:28:b7:18:db:19:46:1e:72:40:b6:47:35:9e:0f:
                    0a:9e:73:a8:67:e5:92:58:d6:ff:4e:09:cf:8e:99:
                    9b:11:ff:b5:69:50:bd:42:74:c7:c2:79:6a:60:12:
                    4b:c3:a9:02:1b:57:a5:bd:c1:ae:6f:93:53:9e:de:
                    6b:e6:a4:8f:f9:be:ea:0a:d0:bb:d3:1c:d1:18:aa:
                    87:56:d0:6e:6f:38:1c:64:3a:23:d7:f6:53:21:3c:
                    2d:69:78:5a:b8:e0:65:70:af:63:87:4b:5c:6d:48:
                    60:d6:49:4e:2c:3e:fb:10:74:7e:35:a1:e0:c7:ac:
                    09:e8:98:45:d3:8b:63:de:e4:56:68:5b:77:8e:7b:
                    43:f7:94:dd:d7:23:36:e5:03:cc:15:ab:02:73:f4:
                    6e:b1:b2:22:29:e7:c4:bd:b2:ac:af:51:ef:93:35:
                    0e:d6:64:57:67:01:18:66:ef:64:0d:fe:06:cb:fe:
                    c3:b4:52:e1:5d:d9:ed:f2:fc:62:07:24:7f:93:ad:
                    54:64:62:68:b7:33:83:62:e2:bc:81:63:6f:a9:03:
                    00:9b:e8:91:1a:27:17:c5:06:1b:80:6d:01:b5:b3:
                    e6:7c:69:a6:6a:f5:c3:a1:7a:26:eb:4c:2a:d6:95:
                    3c:de:67:2f:80:c4:5b:88:e3:c6:8c:9c:5a:d9:92:
                    bc:0d:5c:3c:96:da:ab:fd:7d:5f:cd:58:31:d9:c4:
                    f0:29:e1:ab:73:f2:50:fb:37:7d:24:d0:9a:49:c2:
                    9b:70:f2:f3:88:bb:dd:35:4c:26:53:fe:85:db:d6:
                    3b:77:91:35:8d:43:06:ae:6d:2f:57:24:75:22:e2:
                    e2:05:f0:30:29:dd:0e:37:4b:73:4b:78:4d:1c:e2:
                    e5:2d:fa:1a:8c:d9:f5:8d:74:77:c5:90:43:b3:9a:
                    d6:cd:6a:84:f8:01:7b:02:34:1d:95:a7:fd:25:1c:
                    2d:82:f3:b5:b0:d1:94:79:ed:d5:d2:24:56:af:a6:
                    60:22:b7:20:7b:3c:0e:b3:3c:2e:80:d1:38:18:ea:
                    d9:0f:c7:f6:63:a7:1b:f8:cc:31:8d:5d:9d:00:c8:
                    89:62:4f:9d:63:18:df:6f:c1:63:cc:53:fd:12:8d:
                    68:93:a7:f3:b6:38:07:bc:2a:4b:0d:67:71:ac:bb:
                    8f:27:3e:92:5d:e9:df:54:15:7e:63:b1:f3:81:cf:
                    4b:37:6e:46:3f:2d:05:98:2d:29:5c:51:ca:8b:db:
                    c3:35:bb:a6:e8:36:04:85:12:21:ca:28:20:8b:0b:
                    95:6c:bb
                Exponent: 65537 (0x10001)
        X509v3 extensions:
            Netscape Comment: 
                Certificat Client SSL
            X509v3 Subject Key Identifier: 
                DD:0B:49:17:26:A4:06:FD:45:B1:E0:78:29:9E:47:01:27:D7:85:55
            X509v3 Authority Key Identifier: 
                keyid:D1:7F:00:C3:F0:94:D6:CB:E3:AE:F7:23:18:2E:1E:BA:53:66:F2:F8
                DirName:/C=fr/ST=idf/L=paris/O=vitam/OU=authorities/CN=ca_root_client-external
                serial:01:2D

            X509v3 Issuer Alternative Name: 
                <EMPTY>

            X509v3 Basic Constraints: critical
                CA:FALSE
            X509v3 Key Usage: 
                Digital Signature
            Netscape Cert Type: 
                SSL Client
            X509v3 Extended Key Usage: 
                TLS Web Client Authentication
    Signature Algorithm: sha256WithRSAEncryption
         34:7f:ec:b6:31:b0:9b:70:f9:4d:f6:02:3e:80:62:fc:2e:8f:
         e8:f0:cb:c7:af:d1:2c:5f:20:e9:02:fa:67:8a:3d:34:16:99:
         b1:7b:24:c9:b0:7f:dd:08:b6:cf:f0:a1:2b:0c:07:09:30:48:
         09:28:b2:59:16:ac:d4:1e:e6:12:54:f9:93:0d:20:c5:35:ad:
         e8:51:1f:58:ac:aa:c2:cb:57:ed:e8:37:59:db:f1:f4:d8:d7:
         8f:c8:cc:1a:30:b8:e6:cb:30:5b:03:3a:23:9d:dd:96:ce:38:
         9b:40:14:c5:ff:2e:82:30:71:a5:34:a8:dd:f3:19:7c:d1:d2:
         c3:ca:f4:57:b9:91:63:08:84:88:f7:f6:e9:c7:3c:3b:92:5f:
         d0:3b:0a:92:08:39:e8:f6:98:27:73:9f:6f:2b:92:3b:fd:74:
         35:9c:d9:1c:d7:06:33:75:ee:5c:a6:69:dd:34:4e:92:69:3b:
         fd:fc:80:09:dc:dd:6a:e9:11:3f:39:c7:86:1d:bf:cb:af:6f:
         8a:ea:8e:0f:05:83:ad:cb:c4:be:44:e5:95:e0:0f:c0:67:c3:
         0f:b2:ab:84:5c:9b:1c:5f:eb:91:10:df:6c:ea:16:f3:7f:bc:
         97:63:ba:a9:c7:12:d1:87:69:86:8d:1d:49:a3:31:bc:12:d2:
         62:b4:84:37:e5:48:06:77:05:bf:71:07:a3:43:3f:f3:cb:58:
         53:9b:7b:d9:9f:20:6a:5b:52:a5:b2:b1:bf:99:f6:0b:73:77:
         e3:3e:4a:f4:a1:16:89:97:bf:f9:19:a1:c2:77:6a:a6:30:72:
         03:91:93:6c:ef:7d:66:a3:18:04:a2:1c:1d:53:2d:d0:3b:b2:
         81:a2:43:ef:85:a6:10:f2:c9:94:34:88:eb:df:a2:6a:d5:b9:
         29:47:62:c0:ec:2e:09:87:a1:7d:b1:9b:df:36:3e:60:0a:26:
         7b:a5:14:23:07:7b:4c:4d:c4:05:df:73:bf:cd:ac:e4:d5:bc:
         7b:e7:27:e6:26:e2:ec:d4:d9:15:5b:a2:6d:69:09:04:21:4d:
         8e:ba:f8:59:c3:f1:08:6d:5e:f0:f5:46:84:ae:36:77:d7:0c:
         00:49:9f:8e:bd:28:96:59:3c:10:8f:e0:31:a3:fe:eb:a9:94:
         7c:c8:75:7e:39:ba:9a:96:96:80:7d:63:10:c7:61:be:64:4a:
         69:02:0b:e0:bf:65:f1:c3:8f:99:e6:f6:df:c6:84:89:5d:7e:
         5c:bc:67:d2:d4:99:2b:00:a7:fb:fd:34:2d:0f:14:bc:a5:f0:
         79:a0:57:4d:c4:93:19:f9:62:8f:9b:1e:d2:29:26:72:f9:3d:
         b7:23:ba:7d:74:64:92:de
-----BEGIN CERTIFICATE-----
MIIGfjCCBGagAwIBAgICATowDQYJKoZIhvcNAQELBQAwezELMAkGA1UEBhMCZnIx
DDAKBgNVBAgMA2lkZjEOMAwGA1UEBwwFcGFyaXMxDjAMBgNVBAoMBXZpdGFtMRQw
EgYDVQQLDAthdXRob3JpdGllczEoMCYGA1UEAwwfY2FfaW50ZXJtZWRpYXRlX2Ns
aWVudC1leHRlcm5hbDAeFw0yMTExMTAxNDM1NTNaFw0yNDExMDkxNDM1NTNaME0x
CzAJBgNVBAYTAmZyMQwwCgYDVQQIDANpZGYxDjAMBgNVBAcMBXBhcmlzMQ4wDAYD
VQQKDAV2aXRhbTEQMA4GA1UEAwwHZ2F0bGluZzCCAiIwDQYJKoZIhvcNAQEBBQAD
ggIPADCCAgoCggIBALPaOHR6Ewe0cfghyPhXDzJWv3/PXpMnzJb4Glb2oyi3GNsZ
Rh5yQLZHNZ4PCp5zqGflkljW/04Jz46ZmxH/tWlQvUJ0x8J5amASS8OpAhtXpb3B
rm+TU57ea+akj/m+6grQu9Mc0Riqh1bQbm84HGQ6I9f2UyE8LWl4WrjgZXCvY4dL
XG1IYNZJTiw++xB0fjWh4MesCeiYRdOLY97kVmhbd457Q/eU3dcjNuUDzBWrAnP0
brGyIinnxL2yrK9R75M1DtZkV2cBGGbvZA3+Bsv+w7RS4V3Z7fL8Ygckf5OtVGRi
aLczg2LivIFjb6kDAJvokRonF8UGG4BtAbWz5nxppmr1w6F6JutMKtaVPN5nL4DE
W4jjxoycWtmSvA1cPJbaq/19X81YMdnE8Cnhq3PyUPs3fSTQmknCm3Dy84i73TVM
JlP+hdvWO3eRNY1DBq5tL1ckdSLi4gXwMCndDjdLc0t4TRzi5S36GozZ9Y10d8WQ
Q7Oa1s1qhPgBewI0HZWn/SUcLYLztbDRlHnt1dIkVq+mYCK3IHs8DrM8LoDROBjq
2Q/H9mOnG/jMMY1dnQDIiWJPnWMY32/BY8xT/RKNaJOn87Y4B7wqSw1ncay7jyc+
kl3p31QVfmOx84HPSzduRj8tBZgtKVxRyovbwzW7pug2BIUSIcooIIsLlWy7AgMB
AAGjggE4MIIBNDAkBglghkgBhvhCAQ0EFxYVQ2VydGlmaWNhdCBDbGllbnQgU1NM
MB0GA1UdDgQWBBTdC0kXJqQG/UWx4HgpnkcBJ9eFVTCBngYDVR0jBIGWMIGTgBTR
fwDD8JTWy+Ou9yMYLh66U2by+KF3pHUwczELMAkGA1UEBhMCZnIxDDAKBgNVBAgM
A2lkZjEOMAwGA1UEBwwFcGFyaXMxDjAMBgNVBAoMBXZpdGFtMRQwEgYDVQQLDAth
dXRob3JpdGllczEgMB4GA1UEAwwXY2Ffcm9vdF9jbGllbnQtZXh0ZXJuYWyCAgEt
MAkGA1UdEgQCMAAwDAYDVR0TAQH/BAIwADALBgNVHQ8EBAMCB4AwEQYJYIZIAYb4
QgEBBAQDAgeAMBMGA1UdJQQMMAoGCCsGAQUFBwMCMA0GCSqGSIb3DQEBCwUAA4IC
AQA0f+y2MbCbcPlN9gI+gGL8Lo/o8MvHr9EsXyDpAvpnij00FpmxeyTJsH/dCLbP
8KErDAcJMEgJKLJZFqzUHuYSVPmTDSDFNa3oUR9YrKrCy1ft6DdZ2/H02NePyMwa
MLjmyzBbAzojnd2WzjibQBTF/y6CMHGlNKjd8xl80dLDyvRXuZFjCISI9/bpxzw7
kl/QOwqSCDno9pgnc59vK5I7/XQ1nNkc1wYzde5cpmndNE6SaTv9/IAJ3N1q6RE/
OceGHb/Lr2+K6o4PBYOty8S+ROWV4A/AZ8MPsquEXJscX+uREN9s6hbzf7yXY7qp
xxLRh2mGjR1JozG8EtJitIQ35UgGdwW/cQejQz/zy1hTm3vZnyBqW1KlsrG/mfYL
c3fjPkr0oRaJl7/5GaHCd2qmMHIDkZNs731moxgEohwdUy3QO7KBokPvhaYQ8smU
NIjr36Jq1bkpR2LA7C4Jh6F9sZvfNj5gCiZ7pRQjB3tMTcQF33O/zazk1bx75yfm
JuLs1NkVW6JtaQkEIU2OuvhZw/EIbV7w9UaErjZ31wwASZ+OvSiWWTwQj+Axo/7r
qZR8yHV+ObqalpaAfWMQx2G+ZEppAgvgv2Xxw4+Z5vbfxoSJXX5cvGfS1JkrAKf7
/TQtDxS8pfB5oFdNxJMZ+WKPmx7SKSZy+T23I7p9dGSS3g==
-----END CERTIFICATE-----
