Certificate:
    Data:
        Version: 3 (0x2)
        Serial Number: 319 (0x13f)
        Signature Algorithm: sha256WithRSAEncryption
        Issuer: C=fr, ST=idf, L=paris, O=vitam, OU=authorities, CN=ca_intermediate_client-external
        Validity
            Not Before: Jan 12 16:13:01 2022 GMT
            Not After : Jan 11 16:13:01 2025 GMT
        Subject: C=fr, ST=idf, L=paris, O=vitam, CN=gatling
        Subject Public Key Info:
            Public Key Algorithm: rsaEncryption
                RSA Public-Key: (4096 bit)
                Modulus:
                    00:d2:f5:ed:28:dd:04:b8:b2:c8:91:fc:1c:8b:ab:
                    0c:84:d2:db:9e:5b:e6:11:02:51:11:47:e0:8b:07:
                    bb:66:d5:a7:9e:6e:85:ce:11:62:af:57:59:cd:94:
                    e2:43:18:4f:b9:06:53:04:7f:93:ce:ff:dd:2a:c7:
                    d5:ac:ce:3e:af:14:b1:e0:23:c8:d2:62:67:c9:b4:
                    14:cf:99:77:2c:e9:89:b1:97:42:c8:cc:ef:bd:18:
                    2b:d9:ab:35:c4:88:84:10:a2:16:f6:cf:43:36:00:
                    1d:c9:42:ef:21:71:4a:c9:75:bf:ae:ab:67:44:06:
                    d2:13:9d:81:e8:ee:b1:ae:6c:4e:64:10:a6:3f:0f:
                    76:8e:20:73:26:da:8d:6c:14:71:05:ee:cf:e2:ea:
                    d3:b2:21:45:53:39:96:48:09:52:fa:b4:7b:d9:8d:
                    65:b3:f6:eb:2f:38:e6:1d:52:19:51:d7:fb:91:7c:
                    10:4f:97:a4:63:34:98:b4:90:73:e6:c7:b1:f3:34:
                    80:23:9a:1e:8b:d4:bb:8e:21:bd:e3:fb:06:81:75:
                    9c:eb:8a:2a:ed:0f:c3:c2:9d:87:36:2f:ab:eb:1a:
                    f0:73:a5:b1:c8:bf:6e:68:e8:b8:fb:43:7a:d3:27:
                    99:b9:fa:dd:48:88:4f:15:7e:37:96:dd:b9:2c:be:
                    c9:a3:b4:f4:d4:a0:54:83:32:a3:01:12:a7:fb:c1:
                    a8:02:f4:13:df:c9:7b:e6:cc:3b:19:5a:c6:ce:15:
                    01:30:3d:21:74:96:0f:34:36:14:06:8f:b1:cf:cf:
                    eb:f8:48:a0:e5:41:c6:2b:71:cc:e0:1d:b8:68:5e:
                    06:46:c9:06:bd:96:93:b6:26:db:f8:84:1d:8a:d7:
                    26:d6:3d:67:a9:a3:e5:e6:81:c1:a2:27:ba:72:de:
                    19:25:d0:2d:58:4a:92:71:82:41:36:ea:f5:e0:8b:
                    bd:50:4e:f6:45:ce:28:b3:81:9c:13:47:14:7d:12:
                    97:91:ff:15:e7:b8:0b:ec:1d:b4:da:e4:23:54:c9:
                    91:97:4c:65:dd:fc:08:d3:9a:8c:db:cd:e9:c7:52:
                    5a:e0:d8:b3:cd:b2:3a:ce:2f:51:a7:58:d6:bb:60:
                    61:a6:20:6b:c5:29:8a:c3:e5:a6:4f:72:c7:e9:fe:
                    0a:9d:3c:17:ac:c2:0a:2f:d7:82:70:38:25:0a:bc:
                    20:7f:b6:80:90:d4:75:fb:6a:a2:41:94:cd:71:a1:
                    da:74:bf:bb:a9:68:95:48:3c:93:cd:d7:b0:0c:00:
                    f9:a3:8e:b7:7b:a0:0c:28:74:2c:1d:b3:08:a9:01:
                    89:e5:3a:87:40:ba:4d:d2:0e:a6:d1:dc:88:ab:2a:
                    31:f6:4f
                Exponent: 65537 (0x10001)
        X509v3 extensions:
            Netscape Comment: 
                Certificat Client SSL
            X509v3 Subject Key Identifier: 
                97:2E:22:A7:EC:10:3F:F5:CF:F2:23:B4:E4:2C:91:78:18:08:D5:0F
            X509v3 Authority Key Identifier: 
                keyid:D1:7F:00:C3:F0:94:D6:CB:E3:AE:F7:23:18:2E:1E:BA:53:66:F2:F8
                DirName:/C=fr/ST=idf/L=paris/O=vitam/OU=authorities/CN=ca_root_client-external
                serial:01:2D

            X509v3 Issuer Alternative Name: 
                <EMPTY>

            X509v3 Basic Constraints: critical
                CA:FALSE
            X509v3 Key Usage: 
                Digital Signature
            Netscape Cert Type: 
                SSL Client
            X509v3 Extended Key Usage: 
                TLS Web Client Authentication
    Signature Algorithm: sha256WithRSAEncryption
         68:ea:df:d4:26:fc:4f:f4:7a:83:09:6f:d6:29:8c:d8:8b:82:
         9f:e2:63:64:c6:b1:ae:2f:6b:6b:82:bb:65:c5:46:a8:16:3b:
         a5:bb:aa:c3:94:5d:93:1d:e2:ed:98:c1:b8:d3:15:e1:e5:2a:
         15:ef:f7:d1:dd:b0:b5:81:02:6a:13:26:b2:33:16:f2:1d:9a:
         c4:af:41:26:f3:8b:d3:62:a4:42:f6:a6:91:3e:d0:fb:09:34:
         35:a6:a6:23:9e:b3:34:7c:75:86:31:76:ed:8d:8a:ce:c9:67:
         5a:1b:3e:96:cf:0e:e4:45:b7:e6:1e:0b:63:1b:96:d1:a3:31:
         4e:0d:60:b9:cf:07:58:5d:db:56:4c:d7:a4:1c:4b:0d:74:4d:
         db:5b:5b:78:03:fa:3e:b8:5a:41:b9:04:a8:77:9d:3a:08:48:
         28:98:08:25:7c:17:39:94:2c:e6:0b:fe:42:2a:f2:a0:c0:3b:
         de:75:ed:41:3c:d9:10:8c:64:04:2c:e6:96:f8:b5:d7:94:e7:
         a0:1f:c8:d8:b0:a9:00:8f:56:8b:68:1f:67:5e:df:60:d8:71:
         ca:7a:71:ce:78:f8:8d:62:85:8a:27:1f:37:26:25:35:b2:96:
         b8:96:21:83:78:40:90:aa:30:12:45:a5:48:11:99:f8:6a:9e:
         c7:d6:9c:09:6f:1a:8b:2d:3c:44:15:b2:75:f3:a5:8f:d4:3c:
         9e:c4:7f:6e:ad:d6:10:96:99:3d:f2:61:e9:3e:a9:2e:eb:1f:
         6f:91:1f:94:54:a7:9c:fd:07:bc:b7:aa:7f:21:97:47:fd:bc:
         20:5d:64:48:4b:6e:29:62:bf:65:05:80:2b:55:63:9b:f0:31:
         38:bb:20:cd:ef:86:4f:3e:e1:47:8e:c5:ae:b0:24:af:46:c8:
         11:df:07:1d:20:54:49:d5:40:f2:74:5c:db:ff:81:f0:be:fe:
         d8:54:70:4f:e6:c2:70:37:1d:4e:9f:67:8d:0b:3e:8b:8a:3d:
         9d:2a:f4:25:0d:39:34:33:29:01:e0:66:42:51:5f:21:9a:dc:
         a3:59:d4:85:c1:dc:b4:c0:64:36:ae:7c:67:43:08:5b:2e:8a:
         fa:53:85:de:2b:c1:a5:f8:75:57:aa:18:d0:f7:3f:b6:1c:0e:
         04:0e:46:9a:c2:ed:58:a1:f8:0f:e3:ae:fe:a4:43:64:ba:fd:
         44:c2:3d:bd:1b:57:3c:b7:9c:a6:06:4e:86:fe:41:e5:56:db:
         03:96:10:a9:56:97:26:e1:07:30:e9:11:f1:2e:ab:a7:60:45:
         38:07:f2:b9:11:b1:10:ac:1b:3c:cf:d7:d4:0b:54:84:f4:87:
         83:5c:fc:7b:d7:40:e2:14
-----BEGIN CERTIFICATE-----
MIIGfjCCBGagAwIBAgICAT8wDQYJKoZIhvcNAQELBQAwezELMAkGA1UEBhMCZnIx
DDAKBgNVBAgMA2lkZjEOMAwGA1UEBwwFcGFyaXMxDjAMBgNVBAoMBXZpdGFtMRQw
EgYDVQQLDAthdXRob3JpdGllczEoMCYGA1UEAwwfY2FfaW50ZXJtZWRpYXRlX2Ns
aWVudC1leHRlcm5hbDAeFw0yMjAxMTIxNjEzMDFaFw0yNTAxMTExNjEzMDFaME0x
CzAJBgNVBAYTAmZyMQwwCgYDVQQIDANpZGYxDjAMBgNVBAcMBXBhcmlzMQ4wDAYD
VQQKDAV2aXRhbTEQMA4GA1UEAwwHZ2F0bGluZzCCAiIwDQYJKoZIhvcNAQEBBQAD
ggIPADCCAgoCggIBANL17SjdBLiyyJH8HIurDITS255b5hECURFH4IsHu2bVp55u
hc4RYq9XWc2U4kMYT7kGUwR/k87/3SrH1azOPq8UseAjyNJiZ8m0FM+ZdyzpibGX
QsjM770YK9mrNcSIhBCiFvbPQzYAHclC7yFxSsl1v66rZ0QG0hOdgejusa5sTmQQ
pj8Pdo4gcybajWwUcQXuz+Lq07IhRVM5lkgJUvq0e9mNZbP26y845h1SGVHX+5F8
EE+XpGM0mLSQc+bHsfM0gCOaHovUu44hveP7BoF1nOuKKu0Pw8KdhzYvq+sa8HOl
sci/bmjouPtDetMnmbn63UiITxV+N5bduSy+yaO09NSgVIMyowESp/vBqAL0E9/J
e+bMOxlaxs4VATA9IXSWDzQ2FAaPsc/P6/hIoOVBxitxzOAduGheBkbJBr2Wk7Ym
2/iEHYrXJtY9Z6mj5eaBwaInunLeGSXQLVhKknGCQTbq9eCLvVBO9kXOKLOBnBNH
FH0Sl5H/Fee4C+wdtNrkI1TJkZdMZd38CNOajNvN6cdSWuDYs82yOs4vUadY1rtg
YaYga8UpisPlpk9yx+n+Cp08F6zCCi/XgnA4JQq8IH+2gJDUdftqokGUzXGh2nS/
u6lolUg8k83XsAwA+aOOt3ugDCh0LB2zCKkBieU6h0C6TdIOptHciKsqMfZPAgMB
AAGjggE4MIIBNDAkBglghkgBhvhCAQ0EFxYVQ2VydGlmaWNhdCBDbGllbnQgU1NM
MB0GA1UdDgQWBBSXLiKn7BA/9c/yI7TkLJF4GAjVDzCBngYDVR0jBIGWMIGTgBTR
fwDD8JTWy+Ou9yMYLh66U2by+KF3pHUwczELMAkGA1UEBhMCZnIxDDAKBgNVBAgM
A2lkZjEOMAwGA1UEBwwFcGFyaXMxDjAMBgNVBAoMBXZpdGFtMRQwEgYDVQQLDAth
dXRob3JpdGllczEgMB4GA1UEAwwXY2Ffcm9vdF9jbGllbnQtZXh0ZXJuYWyCAgEt
MAkGA1UdEgQCMAAwDAYDVR0TAQH/BAIwADALBgNVHQ8EBAMCB4AwEQYJYIZIAYb4
QgEBBAQDAgeAMBMGA1UdJQQMMAoGCCsGAQUFBwMCMA0GCSqGSIb3DQEBCwUAA4IC
AQBo6t/UJvxP9HqDCW/WKYzYi4Kf4mNkxrGuL2trgrtlxUaoFjulu6rDlF2THeLt
mMG40xXh5SoV7/fR3bC1gQJqEyayMxbyHZrEr0Em84vTYqRC9qaRPtD7CTQ1pqYj
nrM0fHWGMXbtjYrOyWdaGz6Wzw7kRbfmHgtjG5bRozFODWC5zwdYXdtWTNekHEsN
dE3bW1t4A/o+uFpBuQSod506CEgomAglfBc5lCzmC/5CKvKgwDvede1BPNkQjGQE
LOaW+LXXlOegH8jYsKkAj1aLaB9nXt9g2HHKenHOePiNYoWKJx83JiU1spa4liGD
eECQqjASRaVIEZn4ap7H1pwJbxqLLTxEFbJ186WP1DyexH9urdYQlpk98mHpPqku
6x9vkR+UVKec/Qe8t6p/IZdH/bwgXWRIS24pYr9lBYArVWOb8DE4uyDN74ZPPuFH
jsWusCSvRsgR3wcdIFRJ1UDydFzb/4Hwvv7YVHBP5sJwNx1On2eNCz6Lij2dKvQl
DTk0MykB4GZCUV8hmtyjWdSFwdy0wGQ2rnxnQwhbLor6U4XeK8Gl+HVXqhjQ9z+2
HA4EDkaawu1YofgP467+pENkuv1Ewj29G1c8t5ymBk6G/kHlVtsDlhCpVpcm4Qcw
6RHxLqunYEU4B/K5EbEQrBs8z9fUC1SE9IeDXPx710DiFA==
-----END CERTIFICATE-----
