Certificate:
    Data:
        Version: 3 (0x2)
        Serial Number: 303 (0x12f)
        Signature Algorithm: sha256WithRSAEncryption
        Issuer: C=fr, ST=idf, L=paris, O=vitam, OU=authorities, CN=ca_intermediate_client-external
        Validity
            Not Before: Sep 15 13:01:11 2020 GMT
            Not After : Dec 31 23:59:59 9999 GMT
        Subject: C=fr, ST=idf, L=paris, O=vitam, CN=gatling
        Subject Public Key Info:
            Public Key Algorithm: rsaEncryption
                RSA Public-Key: (4096 bit)
                Modulus:
                    00:d1:ee:b0:10:6d:1e:7b:4f:3c:44:44:22:89:40:
                    c2:01:35:bf:e7:79:6a:91:6c:e4:8f:f1:50:49:05:
                    a1:65:99:90:c2:a5:a1:c2:b0:d9:db:84:bd:14:bf:
                    21:9a:41:7d:85:00:2b:cf:be:09:f1:85:6b:72:db:
                    2c:fd:27:92:b9:95:f1:f1:0e:0b:bb:da:41:77:3a:
                    99:3c:b9:01:ad:67:a1:0f:e3:50:62:ca:7d:12:82:
                    0f:59:36:b6:e6:98:18:37:f4:03:c6:3d:f1:65:b4:
                    45:e0:eb:f3:e6:e4:06:59:52:d7:5d:c9:85:67:c7:
                    a5:19:62:31:22:27:55:37:55:ec:ff:fa:8c:32:7d:
                    80:c4:95:84:17:c6:94:76:e2:ad:e8:f9:c2:b9:4c:
                    d4:b6:f4:cf:ab:f9:9d:fa:f1:53:de:08:52:90:0c:
                    02:90:2f:8b:ca:ae:34:91:3a:48:c0:3c:c6:9c:39:
                    a6:d2:ad:00:8c:cc:25:97:6d:12:a8:37:4c:92:97:
                    52:a5:b5:2c:29:d5:b6:60:f3:04:30:3f:a2:9a:b7:
                    f4:f7:39:fc:24:ab:36:ef:b4:b3:a2:09:ad:2b:24:
                    c7:21:67:2f:fc:4a:32:a6:de:85:32:7a:df:3c:30:
                    fd:21:9e:7e:85:d1:93:20:cc:4e:aa:e2:5f:29:12:
                    99:8a:5a:6f:ed:a5:77:b2:d6:0b:f3:3b:d5:01:76:
                    f9:ce:ce:bc:bd:9f:f3:da:90:13:47:d0:10:d8:60:
                    43:87:42:33:10:b8:51:07:e0:5c:f3:70:1e:f2:bb:
                    e3:db:31:45:ab:93:c9:d7:fa:bc:c6:d5:2e:ec:7f:
                    2d:04:90:42:fb:12:60:94:c2:35:f1:22:94:cc:20:
                    81:9e:0d:d3:ec:ab:96:c8:e2:02:1f:af:ac:96:db:
                    02:2a:20:d4:a0:4a:2d:d4:f8:06:e4:9b:50:f6:a9:
                    07:49:ba:a7:ce:e6:89:ec:0d:c6:03:b4:4e:78:5c:
                    d8:10:d5:ab:04:4c:a4:31:0c:f5:b8:e8:e7:29:80:
                    7f:7e:6f:a7:cf:68:aa:f7:fe:62:db:1a:6a:78:a4:
                    bd:e6:ea:f1:d1:f1:45:a1:6e:8e:57:a4:af:31:d0:
                    3e:31:0c:a2:2c:c5:c0:b1:a5:e8:49:5d:a0:7e:83:
                    2a:ee:51:2b:e3:b8:d7:c0:c5:eb:c5:9e:c3:f1:c6:
                    4a:41:49:2a:90:d7:7d:a6:dc:35:20:e8:2b:1d:2b:
                    10:aa:c1:42:54:34:84:3f:2f:36:c8:5f:b5:bc:32:
                    30:5d:a6:1e:4e:6c:86:ad:a6:54:8b:e5:dd:23:8e:
                    9e:d6:7f:58:46:81:f2:df:47:22:91:21:f4:57:33:
                    69:f1:a1
                Exponent: 65537 (0x10001)
        X509v3 extensions:
            Netscape Comment: 
                Certificat Client SSL
            X509v3 Subject Key Identifier: 
                83:26:71:D7:0E:30:3B:4D:2E:D5:2E:3C:8D:8D:7B:DF:7E:D9:58:DD
            X509v3 Authority Key Identifier: 
                keyid:D1:7F:00:C3:F0:94:D6:CB:E3:AE:F7:23:18:2E:1E:BA:53:66:F2:F8
                DirName:/C=fr/ST=idf/L=paris/O=vitam/OU=authorities/CN=ca_root_client-external
                serial:01:2D

            X509v3 Issuer Alternative Name: 
                <EMPTY>

            X509v3 Basic Constraints: critical
                CA:FALSE
            X509v3 Key Usage: 
                Digital Signature
            Netscape Cert Type: 
                SSL Client
            X509v3 Extended Key Usage: 
                TLS Web Client Authentication
    Signature Algorithm: sha256WithRSAEncryption
         06:3d:d0:21:52:24:23:98:9a:00:5f:dc:52:74:a8:aa:f9:76:
         8d:ab:17:67:01:35:a9:3e:6a:97:d0:09:37:6f:90:16:20:7e:
         00:2e:18:0a:a3:0e:0b:d7:9c:cd:9a:c7:e7:13:2b:b4:a4:1a:
         8a:48:db:2b:f3:73:86:f8:c2:d1:3a:f9:33:41:d7:01:48:6f:
         d4:30:c6:30:75:0c:b8:c0:d6:3a:d7:cb:8f:a0:ba:d8:1b:1c:
         23:a0:3e:b7:f9:39:e1:e3:0e:ef:d9:4f:8d:2b:c0:47:d7:9a:
         c1:51:0f:16:58:5c:0b:1f:95:44:0e:49:0c:05:c3:90:e7:41:
         33:cc:f1:d6:79:65:84:c1:a0:6b:79:83:8b:30:48:b4:50:dc:
         8d:5c:d1:3c:b3:2e:35:46:04:b0:bc:9a:96:86:96:22:1e:93:
         4b:8f:bc:88:03:9d:e4:fb:1e:54:42:62:69:ff:19:4f:d3:35:
         cc:0e:b0:12:3a:0d:f0:68:7e:1f:6c:02:e3:c7:69:b2:84:e7:
         6e:f8:6f:b9:16:3d:a3:4a:fd:f8:c8:75:c3:28:c7:44:ab:98:
         19:d6:b1:f0:cd:25:0f:26:48:a8:a8:c7:1b:27:d0:ce:3f:15:
         82:54:c4:16:f4:bc:1c:5e:79:0a:59:b0:f4:f2:c8:ae:f8:39:
         4d:48:d6:1f:9d:26:00:31:10:07:e6:70:bd:48:65:73:5a:68:
         fb:91:fb:a2:10:4c:b2:30:67:b6:50:36:69:91:1e:9a:33:18:
         10:65:4a:dd:9e:60:6d:1a:e9:0f:19:54:d5:3b:5b:4c:e7:f7:
         e9:07:7a:e4:5d:55:8b:f9:9b:60:94:b0:40:5c:a3:83:47:27:
         1b:ba:84:06:06:46:af:df:b2:8a:2e:8a:6c:74:be:2d:f9:9a:
         2c:1a:41:b2:b1:7e:db:06:af:b8:f5:3f:73:d6:77:0f:c5:80:
         16:31:f3:8d:e7:d2:02:0f:13:de:c0:d0:e4:e2:98:d7:c2:23:
         48:b2:bb:a9:fb:81:bf:a1:8c:00:c1:65:96:16:1c:75:c4:cf:
         20:43:74:15:e2:c4:ff:bb:73:f7:8e:ee:e1:d7:f7:e8:0c:32:
         36:3d:b0:e3:bf:ec:8c:19:87:06:3f:70:4e:ea:a2:97:2f:f4:
         6b:ba:27:4c:62:8b:f8:92:2b:44:7f:40:c8:ba:f4:e4:01:fd:
         b3:47:1c:9b:d1:30:40:48:f8:f5:d9:b2:95:7b:0a:2d:84:68:
         4e:8d:be:ce:69:7d:81:85:ee:11:e0:aa:dd:67:ba:96:bb:5e:
         10:9a:f2:20:3b:85:54:51:1f:a7:05:ce:e3:ac:d5:48:ab:4c:
         93:72:ac:a0:e7:7b:e3:0f
-----BEGIN CERTIFICATE-----
MIIGgDCCBGigAwIBAgICAS8wDQYJKoZIhvcNAQELBQAwezELMAkGA1UEBhMCZnIx
DDAKBgNVBAgMA2lkZjEOMAwGA1UEBwwFcGFyaXMxDjAMBgNVBAoMBXZpdGFtMRQw
EgYDVQQLDAthdXRob3JpdGllczEoMCYGA1UEAwwfY2FfaW50ZXJtZWRpYXRlX2Ns
aWVudC1leHRlcm5hbDAgFw0yMDA5MTUxMzAxMTFaGA85OTk5MTIzMTIzNTk1OVow
TTELMAkGA1UEBhMCZnIxDDAKBgNVBAgMA2lkZjEOMAwGA1UEBwwFcGFyaXMxDjAM
BgNVBAoMBXZpdGFtMRAwDgYDVQQDDAdnYXRsaW5nMIICIjANBgkqhkiG9w0BAQEF
AAOCAg8AMIICCgKCAgEA0e6wEG0ee088REQiiUDCATW/53lqkWzkj/FQSQWhZZmQ
wqWhwrDZ24S9FL8hmkF9hQArz74J8YVrctss/SeSuZXx8Q4Lu9pBdzqZPLkBrWeh
D+NQYsp9EoIPWTa25pgYN/QDxj3xZbRF4Ovz5uQGWVLXXcmFZ8elGWIxIidVN1Xs
//qMMn2AxJWEF8aUduKt6PnCuUzUtvTPq/md+vFT3ghSkAwCkC+Lyq40kTpIwDzG
nDmm0q0AjMwll20SqDdMkpdSpbUsKdW2YPMEMD+imrf09zn8JKs277SzogmtKyTH
IWcv/Eoypt6FMnrfPDD9IZ5+hdGTIMxOquJfKRKZilpv7aV3stYL8zvVAXb5zs68
vZ/z2pATR9AQ2GBDh0IzELhRB+Bc83Ae8rvj2zFFq5PJ1/q8xtUu7H8tBJBC+xJg
lMI18SKUzCCBng3T7KuWyOICH6+sltsCKiDUoEot1PgG5JtQ9qkHSbqnzuaJ7A3G
A7ROeFzYENWrBEykMQz1uOjnKYB/fm+nz2iq9/5i2xpqeKS95urx0fFFoW6OV6Sv
MdA+MQyiLMXAsaXoSV2gfoMq7lEr47jXwMXrxZ7D8cZKQUkqkNd9ptw1IOgrHSsQ
qsFCVDSEPy82yF+1vDIwXaYeTmyGraZUi+XdI46e1n9YRoHy30cikSH0VzNp8aEC
AwEAAaOCATgwggE0MCQGCWCGSAGG+EIBDQQXFhVDZXJ0aWZpY2F0IENsaWVudCBT
U0wwHQYDVR0OBBYEFIMmcdcOMDtNLtUuPI2Ne99+2VjdMIGeBgNVHSMEgZYwgZOA
FNF/AMPwlNbL4673IxguHrpTZvL4oXekdTBzMQswCQYDVQQGEwJmcjEMMAoGA1UE
CAwDaWRmMQ4wDAYDVQQHDAVwYXJpczEOMAwGA1UECgwFdml0YW0xFDASBgNVBAsM
C2F1dGhvcml0aWVzMSAwHgYDVQQDDBdjYV9yb290X2NsaWVudC1leHRlcm5hbIIC
AS0wCQYDVR0SBAIwADAMBgNVHRMBAf8EAjAAMAsGA1UdDwQEAwIHgDARBglghkgB
hvhCAQEEBAMCB4AwEwYDVR0lBAwwCgYIKwYBBQUHAwIwDQYJKoZIhvcNAQELBQAD
ggIBAAY90CFSJCOYmgBf3FJ0qKr5do2rF2cBNak+apfQCTdvkBYgfgAuGAqjDgvX
nM2ax+cTK7SkGopI2yvzc4b4wtE6+TNB1wFIb9QwxjB1DLjA1jrXy4+gutgbHCOg
Prf5OeHjDu/ZT40rwEfXmsFRDxZYXAsflUQOSQwFw5DnQTPM8dZ5ZYTBoGt5g4sw
SLRQ3I1c0TyzLjVGBLC8mpaGliIek0uPvIgDneT7HlRCYmn/GU/TNcwOsBI6DfBo
fh9sAuPHabKE5274b7kWPaNK/fjIdcMox0SrmBnWsfDNJQ8mSKioxxsn0M4/FYJU
xBb0vBxeeQpZsPTyyK74OU1I1h+dJgAxEAfmcL1IZXNaaPuR+6IQTLIwZ7ZQNmmR
HpozGBBlSt2eYG0a6Q8ZVNU7W0zn9+kHeuRdVYv5m2CUsEBco4NHJxu6hAYGRq/f
soouimx0vi35miwaQbKxftsGr7j1P3PWdw/FgBYx843n0gIPE97A0OTimNfCI0iy
u6n7gb+hjADBZZYWHHXEzyBDdBXixP+7c/eO7uHX9+gMMjY9sOO/7IwZhwY/cE7q
opcv9Gu6J0xii/iSK0R/QMi69OQB/bNHHJvRMEBI+PXZspV7Ci2EaE6Nvs5pfYGF
7hHgqt1nupa7XhCa8iA7hVRRH6cFzuOs1UirTJNyrKDne+MP
-----END CERTIFICATE-----
