Certificate:
    Data:
        Version: 3 (0x2)
        Serial Number: 250 (0xfa)
    Signature Algorithm: sha256WithRSAEncryption
        Issuer: C=fr, ST=idf, L=paris, O=vitam, OU=authorities, CN=ca_intermediate_client-external
        Validity
            Not Before: Dec 21 16:21:53 2017 GMT
            Not After : Dec 20 16:21:53 2020 GMT
        Subject: C=fr, ST=idf, L=paris, O=vitam, CN=gatling
        Subject Public Key Info:
            Public Key Algorithm: rsaEncryption
                Public-Key: (4096 bit)
                Modulus:
                    00:b8:8b:c3:44:24:94:c2:41:44:10:c3:a1:2a:27:
                    c8:a0:31:ac:12:13:dd:37:a9:b0:06:55:76:3a:e9:
                    33:ef:1a:80:d0:aa:05:62:6a:9e:7e:53:86:2f:81:
                    19:1f:69:8a:af:23:60:07:47:af:66:c9:9c:44:0a:
                    24:3a:b0:e1:45:31:5a:f0:58:90:5d:a8:66:50:bb:
                    70:d1:ee:d4:6f:10:28:f0:fb:23:c0:22:95:2d:24:
                    98:ac:da:db:ec:c2:cf:f6:38:64:6d:49:0c:5b:4c:
                    c3:c1:f9:1d:99:2c:63:14:d2:76:73:bc:a6:ff:07:
                    76:33:54:d4:5f:18:60:e6:c8:e4:ae:0d:90:ff:6a:
                    11:f8:08:04:8b:16:8a:48:9f:68:39:7a:79:a4:09:
                    5a:94:36:21:20:fd:ad:c1:71:45:07:4a:2b:50:f5:
                    14:67:a3:2c:97:ba:5c:63:58:76:27:52:a3:bc:48:
                    dd:f1:ef:bf:1e:50:6a:7f:67:35:79:fe:55:3b:19:
                    4c:4d:66:59:cb:75:f4:fa:81:03:ae:30:af:e0:12:
                    f2:4a:9f:df:3d:af:fe:d6:47:ed:36:e1:82:97:83:
                    ab:32:9d:5a:cc:a2:b0:03:11:1a:e0:4b:f3:a7:f2:
                    f4:2e:a9:a8:8a:a5:6e:18:56:1e:e5:2d:65:eb:79:
                    ed:65:cb:1b:25:c1:52:21:a1:6c:2d:e5:9a:11:0f:
                    99:32:fa:38:70:b4:ce:1d:97:79:47:13:c3:1f:46:
                    2f:4a:8d:18:cd:cd:19:ff:d5:05:de:7e:cf:eb:c9:
                    73:fe:69:00:50:36:28:32:ed:9e:1c:61:05:51:2c:
                    37:b9:14:69:2e:ca:b9:24:2c:bb:17:51:23:d7:62:
                    55:57:3b:86:fc:ed:0e:74:5d:83:40:57:c4:4e:dc:
                    c2:ce:6f:05:28:e7:64:26:d5:39:61:16:5d:13:67:
                    d4:ae:4c:3a:73:dd:e6:d7:37:85:4a:b6:6f:76:f2:
                    80:99:02:2e:43:68:7c:b1:ce:c7:4b:e8:0e:d5:74:
                    63:08:92:0f:03:1f:52:18:b4:56:3a:5f:38:e5:4f:
                    5d:3f:fb:90:7d:bd:f4:d7:47:0f:29:f4:3f:5b:1d:
                    84:4f:ad:f1:f4:30:95:cf:3e:cc:db:42:91:ae:40:
                    90:3a:68:41:9f:a0:a1:1a:9d:9b:1e:8e:b9:76:e9:
                    27:f9:86:17:0f:c9:11:a2:9b:65:7d:33:a1:76:9c:
                    3b:5f:f0:91:ca:a0:ec:5f:9d:7c:35:b9:e8:e3:66:
                    ae:28:4a:51:87:44:1d:54:81:99:34:97:87:2f:11:
                    9c:bc:71:41:f9:f3:4c:6f:94:76:12:96:ce:99:34:
                    58:0e:4f
                Exponent: 65537 (0x10001)
        X509v3 extensions:
            Netscape Comment: 
                Certificat Client SSL
            X509v3 Subject Key Identifier: 
                0C:2B:6F:B7:39:9B:E4:B7:E2:67:9F:1E:0F:F4:70:93:A9:1C:69:48
            X509v3 Authority Key Identifier: 
                keyid:96:3E:D4:77:D3:84:42:19:D3:62:5C:41:7C:64:76:26:5C:39:95:0D
                DirName:/C=fr/ST=idf/L=paris/O=vitam/OU=authorities/CN=ca_root_client-external
                serial:F6

            X509v3 Issuer Alternative Name: 
                <EMPTY>

            X509v3 Basic Constraints: critical
                CA:FALSE
            X509v3 Key Usage: 
                Digital Signature, Non Repudiation, Key Encipherment
            Netscape Cert Type: 
                SSL Client
            X509v3 Extended Key Usage: 
                TLS Web Client Authentication
    Signature Algorithm: sha256WithRSAEncryption
         62:3e:07:9e:5e:61:1b:27:bc:45:4c:79:2e:2e:c1:19:9f:e4:
         0c:84:80:94:f0:cf:bc:38:91:6a:aa:14:90:95:6c:bb:e7:ad:
         3e:0b:10:e8:40:d3:11:f9:fc:bf:34:da:6d:d3:b6:2a:b5:28:
         d2:9e:62:e7:4f:65:3a:05:1d:ff:61:60:34:48:e6:dd:84:c7:
         b9:77:d0:21:1e:24:18:10:c1:aa:2d:32:df:30:c5:1b:5a:13:
         70:e7:90:ef:49:73:99:5d:76:9e:27:77:28:cc:87:31:91:76:
         06:fd:51:de:18:8f:cb:80:c0:92:cf:db:0c:dd:ec:e8:cc:f4:
         e3:83:55:d4:6e:92:fd:ee:a3:34:ce:84:90:d1:36:61:4b:5e:
         37:ef:f2:d9:df:56:01:b5:e6:ca:07:38:fa:37:07:0d:d5:07:
         54:58:f4:33:3f:77:cd:f2:2f:a0:83:f7:f3:f6:73:53:2f:ad:
         f7:6e:94:8a:4a:0f:8c:ac:6c:ff:5f:d4:7e:95:a6:05:0a:df:
         35:f1:c3:9a:9c:cc:3b:c4:e8:96:74:0d:56:37:d5:d7:f8:ed:
         ef:98:75:c1:5e:4f:eb:86:b5:b7:ff:c0:92:d6:24:53:3b:68:
         f4:72:3f:68:d2:d9:2e:1f:95:61:26:6e:72:49:08:87:68:9d:
         55:44:90:18:89:02:52:28:54:07:47:d5:6d:97:77:da:a1:1d:
         19:3d:02:f3:47:a6:12:6b:38:db:22:6a:0f:f1:3a:8a:0d:7e:
         e5:53:d8:f5:63:2d:ed:49:94:e1:19:9e:ed:3a:b8:7b:c4:7a:
         06:92:38:c4:03:fe:ed:de:29:77:1a:22:82:1a:16:02:d3:1c:
         0f:b3:12:2f:d9:e1:c7:11:66:26:41:73:33:59:6a:db:b6:95:
         8d:0f:26:29:56:28:6e:3d:5f:3b:54:5f:60:15:33:cd:c3:8e:
         8f:63:08:99:70:d7:35:42:e0:f1:1c:65:ab:3d:98:b6:40:c7:
         cc:13:19:ea:d9:f9:a6:02:5a:2a:69:9c:79:91:79:93:94:9d:
         db:80:8e:7c:5e:57:5b:53:65:cf:cf:46:8b:4d:3d:9b:55:da:
         f7:68:be:c1:d3:49:0f:a0:2a:7a:09:dc:9e:ba:e7:f0:1b:4b:
         1b:15:fe:f0:e7:2d:11:a6:f0:5c:31:6b:e6:1e:24:8b:33:9e:
         ce:2f:33:72:47:7f:fd:59:12:e5:61:ae:4a:56:42:2e:2d:98:
         09:11:f9:28:f9:81:32:c8:ba:82:57:c4:c5:13:99:5f:2d:e1:
         1b:e0:73:99:2b:e1:e6:fe:b5:2f:97:2e:09:d4:b9:1b:70:17:
         21:f1:46:81:fc:81:33:54
-----BEGIN CERTIFICATE-----
MIIGfjCCBGagAwIBAgICAPowDQYJKoZIhvcNAQELBQAwezELMAkGA1UEBhMCZnIx
DDAKBgNVBAgMA2lkZjEOMAwGA1UEBwwFcGFyaXMxDjAMBgNVBAoMBXZpdGFtMRQw
EgYDVQQLDAthdXRob3JpdGllczEoMCYGA1UEAwwfY2FfaW50ZXJtZWRpYXRlX2Ns
aWVudC1leHRlcm5hbDAeFw0xNzEyMjExNjIxNTNaFw0yMDEyMjAxNjIxNTNaME0x
CzAJBgNVBAYTAmZyMQwwCgYDVQQIDANpZGYxDjAMBgNVBAcMBXBhcmlzMQ4wDAYD
VQQKDAV2aXRhbTEQMA4GA1UEAwwHZ2F0bGluZzCCAiIwDQYJKoZIhvcNAQEBBQAD
ggIPADCCAgoCggIBALiLw0QklMJBRBDDoSonyKAxrBIT3TepsAZVdjrpM+8agNCq
BWJqnn5Thi+BGR9piq8jYAdHr2bJnEQKJDqw4UUxWvBYkF2oZlC7cNHu1G8QKPD7
I8AilS0kmKza2+zCz/Y4ZG1JDFtMw8H5HZksYxTSdnO8pv8HdjNU1F8YYObI5K4N
kP9qEfgIBIsWikifaDl6eaQJWpQ2ISD9rcFxRQdKK1D1FGejLJe6XGNYdidSo7xI
3fHvvx5Qan9nNXn+VTsZTE1mWct19PqBA64wr+AS8kqf3z2v/tZH7TbhgpeDqzKd
WsyisAMRGuBL86fy9C6pqIqlbhhWHuUtZet57WXLGyXBUiGhbC3lmhEPmTL6OHC0
zh2XeUcTwx9GL0qNGM3NGf/VBd5+z+vJc/5pAFA2KDLtnhxhBVEsN7kUaS7KuSQs
uxdRI9diVVc7hvztDnRdg0BXxE7cws5vBSjnZCbVOWEWXRNn1K5MOnPd5tc3hUq2
b3bygJkCLkNofLHOx0voDtV0YwiSDwMfUhi0VjpfOOVPXT/7kH299NdHDyn0P1sd
hE+t8fQwlc8+zNtCka5AkDpoQZ+goRqdmx6OuXbpJ/mGFw/JEaKbZX0zoXacO1/w
kcqg7F+dfDW56ONmrihKUYdEHVSBmTSXhy8RnLxxQfnzTG+UdhKWzpk0WA5PAgMB
AAGjggE4MIIBNDAkBglghkgBhvhCAQ0EFxYVQ2VydGlmaWNhdCBDbGllbnQgU1NM
MB0GA1UdDgQWBBQMK2+3OZvkt+Jnnx4P9HCTqRxpSDCBngYDVR0jBIGWMIGTgBSW
PtR304RCGdNiXEF8ZHYmXDmVDaF3pHUwczELMAkGA1UEBhMCZnIxDDAKBgNVBAgM
A2lkZjEOMAwGA1UEBwwFcGFyaXMxDjAMBgNVBAoMBXZpdGFtMRQwEgYDVQQLDAth
dXRob3JpdGllczEgMB4GA1UEAwwXY2Ffcm9vdF9jbGllbnQtZXh0ZXJuYWyCAgD2
MAkGA1UdEgQCMAAwDAYDVR0TAQH/BAIwADALBgNVHQ8EBAMCBeAwEQYJYIZIAYb4
QgEBBAQDAgeAMBMGA1UdJQQMMAoGCCsGAQUFBwMCMA0GCSqGSIb3DQEBCwUAA4IC
AQBiPgeeXmEbJ7xFTHkuLsEZn+QMhICU8M+8OJFqqhSQlWy7560+CxDoQNMR+fy/
NNpt07YqtSjSnmLnT2U6BR3/YWA0SObdhMe5d9AhHiQYEMGqLTLfMMUbWhNw55Dv
SXOZXXaeJ3cozIcxkXYG/VHeGI/LgMCSz9sM3ezozPTjg1XUbpL97qM0zoSQ0TZh
S1437/LZ31YBtebKBzj6NwcN1QdUWPQzP3fN8i+gg/fz9nNTL633bpSKSg+MrGz/
X9R+laYFCt818cOanMw7xOiWdA1WN9XX+O3vmHXBXk/rhrW3/8CS1iRTO2j0cj9o
0tkuH5VhJm5ySQiHaJ1VRJAYiQJSKFQHR9Vtl3faoR0ZPQLzR6YSazjbImoP8TqK
DX7lU9j1Yy3tSZThGZ7tOrh7xHoGkjjEA/7t3il3GiKCGhYC0xwPsxIv2eHHEWYm
QXMzWWrbtpWNDyYpVihuPV87VF9gFTPNw46PYwiZcNc1QuDxHGWrPZi2QMfMExnq
2fmmAloqaZx5kXmTlJ3bgI58XldbU2XPz0aLTT2bVdr3aL7B00kPoCp6Cdyeuufw
G0sbFf7w5y0RpvBcMWvmHiSLM57OLzNyR3/9WRLlYa5KVkIuLZgJEfko+YEyyLqC
V8TFE5lfLeEb4HOZK+Hm/rUvly4J1LkbcBch8UaB/IEzVA==
-----END CERTIFICATE-----
