Certificate:
    Data:
        Version: 3 (0x2)
        Serial Number: 296 (0x128)
    Signature Algorithm: sha256WithRSAEncryption
        Issuer: C=fr, ST=idf, L=paris, O=vitam, OU=authorities, CN=ca_intermediate_client-external
        Validity
            Not Before: Oct 19 08:41:04 2018 GMT
            Not After : Oct 18 08:41:04 2021 GMT
        Subject: C=fr, ST=idf, L=paris, O=vitam, CN=gatling
        Subject Public Key Info:
            Public Key Algorithm: rsaEncryption
                Public-Key: (4096 bit)
                Modulus:
                    00:a2:be:6e:93:b0:0f:83:8a:06:7e:59:89:a4:84:
                    54:67:0e:b8:f6:78:26:cb:28:9c:c2:fa:43:41:9a:
                    e7:82:07:ef:24:a6:05:15:67:41:21:d8:14:99:95:
                    ff:17:1f:01:00:23:42:7e:b4:a3:b4:ed:99:07:9d:
                    01:d0:5a:3d:af:6f:f5:38:4f:e1:d5:c9:93:be:98:
                    94:46:1f:af:81:cb:2e:e4:ae:f8:fe:8f:ab:c0:0e:
                    45:48:c2:24:0c:21:6c:4d:30:dc:e5:d4:2e:97:ee:
                    37:20:8d:e8:ea:43:58:cd:c9:65:fc:cd:ce:3f:29:
                    49:11:6f:1f:94:a1:d6:1f:c8:7c:33:4d:eb:5f:dc:
                    12:e8:6b:c5:9c:e8:b4:c7:4c:a1:ab:15:8c:7d:ba:
                    b9:b7:e7:03:62:39:68:50:ba:82:c3:ff:12:df:a6:
                    72:0f:d6:2c:d5:83:ba:2a:6d:b8:49:38:44:1b:10:
                    59:b3:98:46:8c:96:0b:53:c8:d8:e9:38:ac:07:99:
                    77:60:d2:86:6a:fe:b5:33:03:0d:cd:22:05:d4:3e:
                    ac:85:ff:0a:46:cc:68:c6:e9:c4:9c:fd:c9:80:56:
                    68:e7:74:43:d5:f6:f1:c2:23:9d:4e:52:f4:8a:df:
                    c6:b5:c4:92:65:1a:71:e9:e5:e0:15:ab:ec:fc:3f:
                    24:69:d1:1f:e4:d1:e3:8b:49:66:51:f1:d4:dc:47:
                    51:d4:ba:0d:b9:ba:5c:38:96:1a:ba:99:dc:d3:04:
                    09:3b:fb:1d:79:09:20:6a:2f:12:18:65:86:de:cc:
                    13:96:42:5b:e4:08:37:c1:7c:4b:e5:b1:30:ae:d1:
                    e3:39:db:94:0d:47:0d:0b:b7:72:7d:47:29:e4:12:
                    ee:2e:ac:cc:66:44:e6:fc:f0:84:9d:3d:bb:e9:42:
                    f5:81:4f:8d:18:ab:f2:2d:fa:98:cd:3f:d1:96:b4:
                    8b:43:b6:c5:91:fb:a4:92:a8:92:0c:2e:50:81:c2:
                    63:ab:37:54:61:1a:f0:65:6d:da:dd:3d:dc:d3:5d:
                    39:a2:44:f3:3a:76:44:3c:1b:7c:7d:ca:cf:db:98:
                    e2:13:9b:5c:8a:6f:94:fd:c6:d8:b3:4b:7a:2c:c1:
                    8f:64:eb:79:7b:86:14:59:24:8a:2b:97:1e:6e:70:
                    06:b4:83:f0:9a:cd:44:93:ef:83:ad:a4:f9:82:ca:
                    46:cc:68:4a:ef:33:13:48:04:39:82:e3:5c:44:cc:
                    d2:6f:53:a0:42:2c:35:7b:f1:a1:d0:c9:2d:ae:65:
                    c9:77:62:e5:cd:73:27:0d:ad:df:d8:1d:4d:78:52:
                    3f:ea:d4:89:3a:d6:f1:03:2c:83:93:78:7c:a1:70:
                    60:cf:85
                Exponent: 65537 (0x10001)
        X509v3 extensions:
            Netscape Comment: 
                Certificat Client SSL
            X509v3 Subject Key Identifier: 
                A1:F7:60:EF:8F:A7:A4:0E:73:B8:CD:A6:F4:72:85:B7:00:07:36:D2
            X509v3 Authority Key Identifier: 
                keyid:C9:3C:3C:C8:A5:F9:D0:93:F8:D5:E2:7E:36:7A:C6:91:ED:2A:7B:AC
                DirName:/C=fr/ST=idf/L=paris/O=vitam/OU=authorities/CN=ca_root_client-external
                serial:01:26

            X509v3 Issuer Alternative Name: 
                <EMPTY>

            X509v3 Basic Constraints: critical
                CA:FALSE
            X509v3 Key Usage: 
                Digital Signature
            Netscape Cert Type: 
                SSL Client
            X509v3 Extended Key Usage: 
                TLS Web Client Authentication
    Signature Algorithm: sha256WithRSAEncryption
         3f:63:aa:ca:3e:a9:b5:1c:60:c9:f4:6a:90:09:94:0b:72:bb:
         31:d5:12:e2:31:86:1f:75:d9:d2:52:6a:f0:fa:d4:6b:62:4f:
         b6:ac:81:3d:5e:10:c8:13:e9:b5:76:8b:09:56:6a:5c:2f:9f:
         0b:fc:9a:e2:4e:be:ca:4a:12:8c:db:18:42:f1:db:58:89:7f:
         fc:b5:2b:02:b5:cd:6e:49:ae:0f:58:b5:3c:14:b7:19:52:95:
         01:b7:c2:e1:d4:31:2d:5d:a5:02:b6:fa:7b:83:0a:91:6a:9e:
         f8:02:d6:b7:1f:76:8e:76:51:05:55:66:df:d1:ac:9e:e5:9e:
         6f:b6:67:9c:cd:7b:71:a2:84:6a:6a:96:53:cd:74:7f:09:77:
         3c:da:ab:75:fc:06:4c:b9:50:13:d5:a6:cd:f2:77:0a:9b:01:
         8d:3a:f9:56:32:a9:24:c9:70:b4:60:a9:65:5b:a4:40:4e:bf:
         6f:c4:43:9d:c0:b7:85:bd:d0:1e:6d:87:5f:e6:55:c5:7c:c5:
         ec:9c:e2:94:6d:da:36:46:f1:c6:6e:5e:fb:cc:76:24:11:48:
         92:38:ff:4f:da:fe:10:df:8a:4e:91:12:a9:f5:a2:51:d2:74:
         fe:37:d8:6c:ca:61:c4:ec:89:02:48:7c:89:33:2c:f1:c4:a1:
         c7:d4:a2:f0:4b:ed:5f:60:3d:3e:c9:90:09:90:6c:c9:9e:e8:
         32:cd:ef:a9:f0:4f:57:5f:aa:84:41:c6:36:13:fd:8b:69:08:
         cd:54:43:6e:02:ad:5e:05:1d:5b:bc:89:ee:bf:7e:09:df:54:
         09:b9:cd:75:50:3b:f6:18:13:68:5c:2a:5d:a2:f8:da:cd:9a:
         29:b6:0d:4d:d5:6c:29:e2:0f:b6:61:56:90:f5:7d:bd:d8:8e:
         3c:0b:73:9e:13:67:0d:6a:21:a6:15:f4:ea:a9:75:a4:6f:cc:
         dc:5b:2a:9b:0f:d9:ad:78:68:6b:f5:62:04:ff:87:46:1b:27:
         ed:5f:5e:d1:e6:50:79:73:5b:f3:49:fb:83:24:5d:a8:4b:4f:
         22:72:89:12:58:77:8c:be:be:82:d9:04:63:ea:e2:79:01:58:
         ef:06:1f:2d:99:a6:43:e8:6d:ae:e9:02:aa:2a:46:32:c8:17:
         81:95:2e:24:36:fa:43:7a:e3:8d:ee:ce:fc:a7:de:6e:89:a1:
         88:5e:ac:c7:7b:12:b8:51:02:82:bb:f5:28:bf:37:ce:5e:3d:
         6a:49:ff:88:24:f4:81:e6:b2:53:a6:40:91:a7:19:28:a3:8d:
         ae:31:9b:77:2d:e3:42:ac:fd:22:44:eb:b9:dd:ab:1a:9f:da:
         8d:fe:8c:05:fe:6a:62:46
-----BEGIN CERTIFICATE-----
MIIGfjCCBGagAwIBAgICASgwDQYJKoZIhvcNAQELBQAwezELMAkGA1UEBhMCZnIx
DDAKBgNVBAgMA2lkZjEOMAwGA1UEBwwFcGFyaXMxDjAMBgNVBAoMBXZpdGFtMRQw
EgYDVQQLDAthdXRob3JpdGllczEoMCYGA1UEAwwfY2FfaW50ZXJtZWRpYXRlX2Ns
aWVudC1leHRlcm5hbDAeFw0xODEwMTkwODQxMDRaFw0yMTEwMTgwODQxMDRaME0x
CzAJBgNVBAYTAmZyMQwwCgYDVQQIDANpZGYxDjAMBgNVBAcMBXBhcmlzMQ4wDAYD
VQQKDAV2aXRhbTEQMA4GA1UEAwwHZ2F0bGluZzCCAiIwDQYJKoZIhvcNAQEBBQAD
ggIPADCCAgoCggIBAKK+bpOwD4OKBn5ZiaSEVGcOuPZ4JssonML6Q0Ga54IH7ySm
BRVnQSHYFJmV/xcfAQAjQn60o7TtmQedAdBaPa9v9ThP4dXJk76YlEYfr4HLLuSu
+P6Pq8AORUjCJAwhbE0w3OXULpfuNyCN6OpDWM3JZfzNzj8pSRFvH5Sh1h/IfDNN
61/cEuhrxZzotMdMoasVjH26ubfnA2I5aFC6gsP/Et+mcg/WLNWDuiptuEk4RBsQ
WbOYRoyWC1PI2Ok4rAeZd2DShmr+tTMDDc0iBdQ+rIX/CkbMaMbpxJz9yYBWaOd0
Q9X28cIjnU5S9IrfxrXEkmUacenl4BWr7Pw/JGnRH+TR44tJZlHx1NxHUdS6Dbm6
XDiWGrqZ3NMECTv7HXkJIGovEhhlht7ME5ZCW+QIN8F8S+WxMK7R4znblA1HDQu3
cn1HKeQS7i6szGZE5vzwhJ09u+lC9YFPjRir8i36mM0/0Za0i0O2xZH7pJKokgwu
UIHCY6s3VGEa8GVt2t093NNdOaJE8zp2RDwbfH3Kz9uY4hObXIpvlP3G2LNLeizB
j2TreXuGFFkkiiuXHm5wBrSD8JrNRJPvg62k+YLKRsxoSu8zE0gEOYLjXETM0m9T
oEIsNXvxodDJLa5lyXdi5c1zJw2t39gdTXhSP+rUiTrW8QMsg5N4fKFwYM+FAgMB
AAGjggE4MIIBNDAkBglghkgBhvhCAQ0EFxYVQ2VydGlmaWNhdCBDbGllbnQgU1NM
MB0GA1UdDgQWBBSh92Dvj6ekDnO4zab0coW3AAc20jCBngYDVR0jBIGWMIGTgBTJ
PDzIpfnQk/jV4n42esaR7Sp7rKF3pHUwczELMAkGA1UEBhMCZnIxDDAKBgNVBAgM
A2lkZjEOMAwGA1UEBwwFcGFyaXMxDjAMBgNVBAoMBXZpdGFtMRQwEgYDVQQLDAth
dXRob3JpdGllczEgMB4GA1UEAwwXY2Ffcm9vdF9jbGllbnQtZXh0ZXJuYWyCAgEm
MAkGA1UdEgQCMAAwDAYDVR0TAQH/BAIwADALBgNVHQ8EBAMCB4AwEQYJYIZIAYb4
QgEBBAQDAgeAMBMGA1UdJQQMMAoGCCsGAQUFBwMCMA0GCSqGSIb3DQEBCwUAA4IC
AQA/Y6rKPqm1HGDJ9GqQCZQLcrsx1RLiMYYfddnSUmrw+tRrYk+2rIE9XhDIE+m1
dosJVmpcL58L/JriTr7KShKM2xhC8dtYiX/8tSsCtc1uSa4PWLU8FLcZUpUBt8Lh
1DEtXaUCtvp7gwqRap74Ata3H3aOdlEFVWbf0aye5Z5vtmeczXtxooRqapZTzXR/
CXc82qt1/AZMuVAT1abN8ncKmwGNOvlWMqkkyXC0YKllW6RATr9vxEOdwLeFvdAe
bYdf5lXFfMXsnOKUbdo2RvHGbl77zHYkEUiSOP9P2v4Q34pOkRKp9aJR0nT+N9hs
ymHE7IkCSHyJMyzxxKHH1KLwS+1fYD0+yZAJkGzJnugyze+p8E9XX6qEQcY2E/2L
aQjNVENuAq1eBR1bvInuv34J31QJuc11UDv2GBNoXCpdovjazZoptg1N1Wwp4g+2
YVaQ9X292I48C3OeE2cNaiGmFfTqqXWkb8zcWyqbD9mteGhr9WIE/4dGGyftX17R
5lB5c1vzSfuDJF2oS08icokSWHeMvr6C2QRj6uJ5AVjvBh8tmaZD6G2u6QKqKkYy
yBeBlS4kNvpDeuON7s78p95uiaGIXqzHexK4UQKCu/UovzfOXj1qSf+IJPSB5rJT
pkCRpxkoo42uMZt3LeNCrP0iROu53asan9qN/owF/mpiRg==
-----END CERTIFICATE-----
