Certificate:
    Data:
        Version: 3 (0x2)
        Serial Number: 259 (0x103)
    Signature Algorithm: sha256WithRSAEncryption
        Issuer: C=fr, ST=idf, L=paris, O=vitam, OU=authorities, CN=ca_intermediate_client-external
        Validity
            Not Before: Feb  5 12:57:32 2018 GMT
            Not After : Feb  4 12:57:32 2021 GMT
        Subject: C=fr, ST=idf, L=paris, O=vitam, CN=gatling
        Subject Public Key Info:
            Public Key Algorithm: rsaEncryption
                Public-Key: (4096 bit)
                Modulus:
                    00:b6:a3:73:62:51:a8:65:12:5a:52:e7:1b:6a:ba:
                    82:b0:31:62:3d:51:56:4f:06:db:2d:57:a4:a3:d3:
                    65:8f:8e:6d:59:f6:7a:00:57:22:84:0f:43:b5:98:
                    3a:45:2f:69:fc:92:b7:4c:61:0d:d5:6b:b0:fb:48:
                    e8:6c:bd:b8:b9:fd:96:ff:8c:97:c1:54:01:e2:e0:
                    2c:1c:cd:5f:91:80:f7:60:d5:81:cf:aa:01:30:de:
                    d2:e2:03:9e:b9:78:a0:88:b9:03:8e:d4:5d:83:d0:
                    16:6c:41:de:60:78:14:85:48:c8:c0:7b:3e:98:d5:
                    f7:dd:60:a2:29:d4:a5:11:fd:40:3c:fe:d4:bc:e6:
                    46:5f:03:75:c7:af:33:6c:dd:46:cd:cd:2f:0e:9e:
                    2a:97:99:58:c1:cf:99:7c:47:f2:07:e9:68:25:1c:
                    7a:31:b4:eb:91:06:78:03:d1:a7:1d:f1:c8:cf:79:
                    c6:11:ec:8b:85:4b:f7:6d:d5:42:a6:c8:fd:de:0a:
                    98:28:be:6e:98:7b:99:34:ea:6a:95:c1:8a:27:77:
                    c9:25:81:59:92:c7:fc:fe:7b:54:48:e5:ca:b5:1f:
                    3d:10:5b:85:f9:38:68:11:4c:81:90:82:af:53:87:
                    c3:40:4d:cf:0e:4c:c4:93:1e:ba:92:ca:b7:2e:2b:
                    c1:ad:c0:e6:f7:da:f8:aa:f0:3c:c1:ba:d5:ea:f9:
                    7c:7d:7f:be:22:52:7d:dd:22:0c:f1:7c:e6:c7:d7:
                    12:21:82:40:b9:7b:d5:3e:9b:47:2e:52:3c:ac:5a:
                    30:9a:cc:da:08:8a:98:03:ee:33:6d:81:d1:07:03:
                    ed:d1:53:28:83:f8:ec:8c:17:3c:b0:40:c6:17:b0:
                    b2:24:cb:9f:8a:9f:5a:c5:75:d8:ca:87:a4:e5:48:
                    1e:0f:11:d6:93:13:96:91:0d:ef:12:c3:ea:35:ae:
                    7e:af:0c:db:d2:de:64:2f:c3:3b:2b:f3:c7:ae:47:
                    65:01:ad:bb:81:b9:1b:ed:f3:85:0b:49:f0:62:88:
                    69:ca:da:8a:57:bc:05:9f:cf:6b:a5:fa:ec:8c:99:
                    22:21:69:e8:32:e0:a9:87:07:a0:dd:40:54:fd:0c:
                    03:6a:da:d9:47:fe:f3:9c:6d:28:44:20:f5:ba:80:
                    3d:38:10:0e:b4:46:a6:29:1b:62:b1:37:25:a2:29:
                    b2:af:c6:eb:24:85:f2:c2:06:c0:5b:f7:49:96:43:
                    ba:97:3b:5c:71:7a:5a:89:8c:dd:ae:cd:cf:67:aa:
                    8b:e3:eb:05:4f:0f:5f:96:fc:6a:ae:1c:bb:65:3b:
                    c4:fd:2d:bd:6d:a3:c3:30:0f:a0:2f:34:36:01:1e:
                    54:55:3b
                Exponent: 65537 (0x10001)
        X509v3 extensions:
            Netscape Comment: 
                Certificat Client SSL
            X509v3 Subject Key Identifier: 
                DD:E8:92:9C:80:C1:FD:59:5F:19:4D:BF:DE:97:79:36:F0:43:42:16
            X509v3 Authority Key Identifier: 
                keyid:99:4E:FD:BA:7D:CF:EE:E1:A9:EA:F5:DA:73:BD:4A:D1:46:DA:D7:7C
                DirName:/C=fr/ST=idf/L=paris/O=vitam/OU=authorities/CN=ca_root_client-external
                serial:FC

            X509v3 Issuer Alternative Name: 
                <EMPTY>

            X509v3 Basic Constraints: critical
                CA:FALSE
            X509v3 Key Usage: 
                Digital Signature, Non Repudiation, Key Encipherment
            Netscape Cert Type: 
                SSL Client
            X509v3 Extended Key Usage: 
                TLS Web Client Authentication
    Signature Algorithm: sha256WithRSAEncryption
         72:fe:c0:47:8d:6c:65:e3:bb:37:bb:bb:ca:ce:49:44:4e:1e:
         e8:75:d6:68:e4:ce:91:67:00:01:54:a6:57:a7:fd:98:0d:9f:
         d7:e9:b2:ce:51:8e:6b:b9:59:2a:83:22:17:e7:f5:2a:43:75:
         45:02:eb:1f:5e:4e:08:c5:af:55:91:cc:98:f8:1a:b3:1d:7d:
         2a:e8:73:ea:d3:3a:f3:34:ac:66:61:e5:04:c1:a5:52:f8:b7:
         df:cf:d2:a3:28:34:f5:d1:0c:3d:a7:59:6a:58:af:dc:93:2e:
         01:d3:f4:f0:36:12:a8:ea:97:53:17:46:4e:5f:e0:d6:f9:24:
         54:b3:1a:82:ab:b3:ff:7f:a0:09:03:e5:20:1f:23:1d:a4:af:
         02:c2:4f:e3:74:54:21:e8:57:00:ec:c2:92:54:67:b7:87:30:
         99:24:cd:44:f7:bd:c4:ae:4a:59:0c:94:27:9b:e0:9f:92:36:
         49:60:cd:04:5c:97:f9:80:6d:a5:47:d7:22:8e:75:95:b8:cd:
         5f:5f:ee:ee:21:5c:c9:04:1b:1f:ad:d4:fe:88:b2:7f:57:ce:
         b2:dc:6d:30:23:c9:76:c5:53:e3:cb:2e:13:b2:57:c1:5c:23:
         a6:78:3a:1c:e9:b8:2a:a9:a6:fd:0b:9c:0e:d8:89:f0:71:e4:
         fb:92:f3:f4:1f:65:8b:fd:5e:cb:19:42:ad:ad:0a:34:c6:3c:
         ae:12:cc:51:51:d5:4f:87:10:19:7f:9d:11:fd:12:61:eb:0f:
         e6:19:aa:64:4a:39:3d:67:da:d3:1a:6d:7d:1f:43:7c:ab:6f:
         09:22:68:67:f9:01:19:37:2e:90:d8:53:8c:87:91:2b:2f:fe:
         bd:34:a0:e9:22:6b:02:8d:4b:c6:7f:8a:35:5f:c2:f7:c8:eb:
         d6:ca:99:7a:66:ca:74:53:4b:50:74:51:b8:81:ba:d1:17:0b:
         c3:68:44:77:f9:98:7b:f9:39:27:d1:91:b7:ff:b4:74:af:b1:
         1a:d2:e8:eb:8d:23:c0:5a:9f:42:3b:76:02:b8:b2:30:94:a7:
         20:6c:7a:b2:dd:05:eb:82:29:2f:56:62:e6:5a:87:15:7b:43:
         e3:e3:f6:12:da:74:87:7e:f8:7e:3d:33:f4:49:cf:63:b9:af:
         a0:c4:ed:9e:38:f9:dc:83:8e:ff:44:be:df:73:6c:f6:86:f1:
         57:01:9a:4c:a9:fa:b2:81:22:bf:4f:4a:ba:5b:50:93:4e:6b:
         6f:d7:46:a6:fb:d9:d4:78:79:f0:6d:f5:4f:70:92:68:5b:87:
         14:25:ac:84:16:08:b1:cb:d6:4a:00:6b:70:6a:f8:f4:2c:82:
         94:d2:ee:72:af:80:ca:bf
-----BEGIN CERTIFICATE-----
MIIGfjCCBGagAwIBAgICAQMwDQYJKoZIhvcNAQELBQAwezELMAkGA1UEBhMCZnIx
DDAKBgNVBAgMA2lkZjEOMAwGA1UEBwwFcGFyaXMxDjAMBgNVBAoMBXZpdGFtMRQw
EgYDVQQLDAthdXRob3JpdGllczEoMCYGA1UEAwwfY2FfaW50ZXJtZWRpYXRlX2Ns
aWVudC1leHRlcm5hbDAeFw0xODAyMDUxMjU3MzJaFw0yMTAyMDQxMjU3MzJaME0x
CzAJBgNVBAYTAmZyMQwwCgYDVQQIDANpZGYxDjAMBgNVBAcMBXBhcmlzMQ4wDAYD
VQQKDAV2aXRhbTEQMA4GA1UEAwwHZ2F0bGluZzCCAiIwDQYJKoZIhvcNAQEBBQAD
ggIPADCCAgoCggIBALajc2JRqGUSWlLnG2q6grAxYj1RVk8G2y1XpKPTZY+ObVn2
egBXIoQPQ7WYOkUvafySt0xhDdVrsPtI6Gy9uLn9lv+Ml8FUAeLgLBzNX5GA92DV
gc+qATDe0uIDnrl4oIi5A47UXYPQFmxB3mB4FIVIyMB7PpjV991goinUpRH9QDz+
1LzmRl8DdcevM2zdRs3NLw6eKpeZWMHPmXxH8gfpaCUcejG065EGeAPRpx3xyM95
xhHsi4VL923VQqbI/d4KmCi+bph7mTTqapXBiid3ySWBWZLH/P57VEjlyrUfPRBb
hfk4aBFMgZCCr1OHw0BNzw5MxJMeupLKty4rwa3A5vfa+KrwPMG61er5fH1/viJS
fd0iDPF85sfXEiGCQLl71T6bRy5SPKxaMJrM2giKmAPuM22B0QcD7dFTKIP47IwX
PLBAxhewsiTLn4qfWsV12MqHpOVIHg8R1pMTlpEN7xLD6jWufq8M29LeZC/DOyvz
x65HZQGtu4G5G+3zhQtJ8GKIacraile8BZ/Pa6X67IyZIiFp6DLgqYcHoN1AVP0M
A2ra2Uf+85xtKEQg9bqAPTgQDrRGpikbYrE3JaIpsq/G6ySF8sIGwFv3SZZDupc7
XHF6WomM3a7Nz2eqi+PrBU8PX5b8aq4cu2U7xP0tvW2jwzAPoC80NgEeVFU7AgMB
AAGjggE4MIIBNDAkBglghkgBhvhCAQ0EFxYVQ2VydGlmaWNhdCBDbGllbnQgU1NM
MB0GA1UdDgQWBBTd6JKcgMH9WV8ZTb/el3k28ENCFjCBngYDVR0jBIGWMIGTgBSZ
Tv26fc/u4anq9dpzvUrRRtrXfKF3pHUwczELMAkGA1UEBhMCZnIxDDAKBgNVBAgM
A2lkZjEOMAwGA1UEBwwFcGFyaXMxDjAMBgNVBAoMBXZpdGFtMRQwEgYDVQQLDAth
dXRob3JpdGllczEgMB4GA1UEAwwXY2Ffcm9vdF9jbGllbnQtZXh0ZXJuYWyCAgD8
MAkGA1UdEgQCMAAwDAYDVR0TAQH/BAIwADALBgNVHQ8EBAMCBeAwEQYJYIZIAYb4
QgEBBAQDAgeAMBMGA1UdJQQMMAoGCCsGAQUFBwMCMA0GCSqGSIb3DQEBCwUAA4IC
AQBy/sBHjWxl47s3u7vKzklETh7oddZo5M6RZwABVKZXp/2YDZ/X6bLOUY5ruVkq
gyIX5/UqQ3VFAusfXk4Ixa9VkcyY+BqzHX0q6HPq0zrzNKxmYeUEwaVS+Lffz9Kj
KDT10Qw9p1lqWK/cky4B0/TwNhKo6pdTF0ZOX+DW+SRUsxqCq7P/f6AJA+UgHyMd
pK8Cwk/jdFQh6FcA7MKSVGe3hzCZJM1E973ErkpZDJQnm+CfkjZJYM0EXJf5gG2l
R9cijnWVuM1fX+7uIVzJBBsfrdT+iLJ/V86y3G0wI8l2xVPjyy4TslfBXCOmeDoc
6bgqqab9C5wO2InwceT7kvP0H2WL/V7LGUKtrQo0xjyuEsxRUdVPhxAZf50R/RJh
6w/mGapkSjk9Z9rTGm19H0N8q28JImhn+QEZNy6Q2FOMh5ErL/69NKDpImsCjUvG
f4o1X8L3yOvWypl6Zsp0U0tQdFG4gbrRFwvDaER3+Zh7+Tkn0ZG3/7R0r7Ea0ujr
jSPAWp9CO3YCuLIwlKcgbHqy3QXrgikvVmLmWocVe0Pj4/YS2nSHfvh+PTP0Sc9j
ua+gxO2eOPncg47/RL7fc2z2hvFXAZpMqfqygSK/T0q6W1CTTmtv10am+9nUeHnw
bfVPcJJoW4cUJayEFgixy9ZKAGtwavj0LIKU0u5yr4DKvw==
-----END CERTIFICATE-----
