Certificate:
    Data:
        Version: 3 (0x2)
        Serial Number: 237 (0xed)
    Signature Algorithm: sha256WithRSAEncryption
        Issuer: C=fr, ST=idf, L=paris, O=vitam, OU=authorities, CN=ca_intermediate_client-external
        Validity
            Not Before: Jul 12 14:29:56 2017 GMT
            Not After : Jul 11 14:29:56 2020 GMT
        Subject: C=fr, ST=idf, L=paris, O=vitam, CN=ihm-demo
        Subject Public Key Info:
            Public Key Algorithm: rsaEncryption
                Public-Key: (4096 bit)
                Modulus:
                    00:b8:27:a4:ec:4a:c3:6e:f0:da:a2:ae:64:3e:6a:
                    d4:02:64:03:f9:3d:6e:c8:c2:f6:2f:dd:72:76:70:
                    b0:be:a0:46:23:a8:a5:b0:07:d2:ca:9e:d4:5f:da:
                    8c:be:31:41:a7:fc:04:ba:ce:a3:df:8c:1c:c1:12:
                    b4:5e:12:9b:14:91:c1:8f:83:84:40:c8:51:51:a0:
                    e5:df:e8:6e:7d:c6:83:e2:7c:cf:1d:b0:ce:cd:ea:
                    21:a1:2c:66:e4:cf:f0:f3:0f:50:01:f1:4d:da:02:
                    96:97:4f:31:86:fc:98:02:93:fb:60:2e:9b:64:78:
                    ec:2f:f4:0e:37:9b:03:f2:1a:43:67:b4:95:e7:4f:
                    e9:fa:23:aa:ca:a5:66:7e:7e:a6:7b:e6:53:35:78:
                    5b:63:f4:d1:3f:02:07:5d:4b:d1:eb:5d:c4:95:c6:
                    13:51:c4:54:63:3a:c4:19:88:98:1a:5d:e4:4a:e2:
                    c4:3b:af:3d:95:e5:b7:5b:47:ce:cb:5f:b1:5e:b1:
                    c2:f5:63:eb:d3:a8:94:26:a6:99:c4:f1:19:7f:35:
                    7c:51:c8:84:2b:0d:81:ce:7b:74:8f:eb:53:55:36:
                    42:32:2c:00:4e:40:45:ac:e8:38:9c:7b:4e:7b:61:
                    d8:80:d8:ca:8f:cd:bd:13:6d:16:62:10:4c:cb:a0:
                    35:9c:9a:b6:63:77:d7:20:de:9b:c4:af:3d:85:c0:
                    b2:7b:99:ff:00:0a:68:31:a5:e9:bc:e3:fa:73:f7:
                    18:d7:28:55:f0:34:fd:05:a6:d6:ac:bd:4b:1b:00:
                    6e:b2:3b:a5:15:22:81:fb:d0:67:bd:98:26:eb:8d:
                    5b:a5:78:9b:15:6b:08:8e:b3:5c:d8:0d:01:ff:42:
                    fc:10:1f:9f:de:22:b5:65:d3:dd:7a:48:f8:fb:5f:
                    d3:b0:72:5d:14:5c:ad:a3:f6:a2:ae:63:09:a8:dc:
                    89:03:5d:bb:d5:71:b2:4b:44:e3:22:f7:30:5d:01:
                    ed:f8:22:89:f5:04:19:9b:6d:1a:8e:03:b4:4b:8a:
                    14:e6:67:31:be:84:07:ed:28:37:da:a4:5b:59:14:
                    99:eb:d1:28:96:37:e6:e8:59:55:bd:29:81:c4:2a:
                    cb:91:2b:29:47:73:91:57:e7:c9:60:7f:55:24:1c:
                    3a:1e:11:3f:c2:91:9a:31:7d:25:eb:ce:fb:f3:c2:
                    47:95:c7:c5:63:ee:43:48:e8:b4:f9:2d:a5:fc:89:
                    06:30:b1:d4:0d:a1:92:eb:f2:31:42:7d:d7:0a:89:
                    db:f6:14:23:62:8c:45:f6:3f:7c:f8:f8:ae:22:c1:
                    1d:a4:53:cb:75:65:e0:bc:8a:e3:cc:5c:c8:0b:68:
                    cb:58:c9
                Exponent: 65537 (0x10001)
        X509v3 extensions:
            Netscape Comment: 
                Certificat Client SSL
            X509v3 Subject Key Identifier: 
                C4:6C:CD:B8:08:18:63:C3:C7:77:81:39:2C:90:FF:CC:A0:97:D2:49
            X509v3 Authority Key Identifier: 
                keyid:9F:47:4A:13:86:86:E6:CE:B1:7D:B0:A9:CD:A8:A0:9D:7D:A6:A5:F1
                DirName:/C=fr/ST=idf/L=paris/O=vitam/OU=authorities/CN=ca_root_client-external
                serial:EC

            X509v3 Issuer Alternative Name: 
                <EMPTY>

            X509v3 Basic Constraints: critical
                CA:FALSE
            X509v3 Key Usage: 
                Digital Signature, Non Repudiation, Key Encipherment
            Netscape Cert Type: 
                SSL Client
            X509v3 Extended Key Usage: 
                TLS Web Client Authentication
    Signature Algorithm: sha256WithRSAEncryption
         67:b1:97:3e:60:3f:4e:ee:af:1d:4a:bd:63:e6:e0:a7:dc:56:
         39:a8:00:d6:c8:b4:26:48:92:e5:97:fe:22:3c:ac:c1:be:1d:
         1a:b1:b9:47:53:5d:3b:27:27:65:3b:91:b5:a9:50:a0:25:e5:
         8a:4b:23:ed:66:65:38:33:e6:b9:08:9c:83:34:0b:52:87:40:
         b1:84:56:57:b2:29:ae:39:a3:2b:df:6f:d3:ff:ac:0e:eb:85:
         61:ec:60:29:f2:f6:f6:64:d4:ce:00:89:36:57:6f:a6:84:01:
         44:06:f9:09:53:ec:92:13:f5:fe:3b:d1:82:8c:8b:a6:b7:5c:
         9f:52:7e:ca:2e:6f:f5:7f:68:02:b9:eb:6f:be:a3:0a:03:52:
         51:e6:71:2f:c6:8a:b0:80:20:80:25:b9:16:73:0a:10:82:de:
         b1:48:3b:a9:cc:70:aa:e4:72:a3:ff:87:ef:c8:c5:a7:37:aa:
         3c:ae:91:6c:01:7e:ba:bd:0a:01:8c:b8:5e:f7:94:a7:e8:bb:
         59:e6:b4:a1:11:45:67:39:89:8c:96:71:79:62:71:74:e4:2c:
         28:58:1d:3a:41:26:7c:83:d8:a3:be:bd:e0:33:41:25:f4:fc:
         5c:5a:dd:9f:e2:e0:e8:04:a1:aa:d8:e7:92:80:a5:73:f1:17:
         ac:a8:0e:28:4c:f0:57:88:e9:d9:02:b4:ab:28:f2:23:ca:65:
         2b:ff:d6:4e:22:c0:bf:08:78:43:a6:4f:24:52:0f:a1:97:c2:
         b3:a4:0f:6d:12:99:27:5d:b8:79:7b:24:b8:14:d3:3c:1a:fe:
         2a:63:62:04:00:7f:21:34:75:09:7d:c2:fb:1a:6e:be:4b:bc:
         c1:4c:f4:15:42:ff:d8:e5:12:d2:d6:77:de:18:f8:65:ee:21:
         f3:99:d5:d3:42:11:78:a5:ea:46:19:f2:5b:36:c8:6d:ef:b6:
         4a:6a:48:9d:1e:63:75:ef:f8:74:ae:51:62:10:f9:4f:30:b9:
         7a:57:65:64:89:f4:5d:2a:55:af:92:c6:3d:81:c4:31:89:c5:
         7c:3c:c6:0d:ae:d7:a2:70:c0:70:a1:96:4b:a9:90:b1:54:1f:
         34:93:bc:51:6e:1c:5a:2c:4f:7b:62:6f:74:e4:03:aa:bd:44:
         40:90:4f:39:1b:d9:bb:e6:b5:0e:f6:21:74:2a:2f:11:d6:6f:
         b7:aa:97:67:53:57:09:c5:82:28:a0:53:00:e0:ef:21:67:bb:
         59:6d:02:69:30:4a:ee:18:8c:11:a5:17:38:05:7e:b5:03:e4:
         b1:f8:4a:72:2d:d2:6b:f2:9c:b0:1f:ea:92:38:38:d5:ee:d9:
         14:6d:f0:6e:a4:eb:69:4a
-----BEGIN CERTIFICATE-----
MIIGfzCCBGegAwIBAgICAO0wDQYJKoZIhvcNAQELBQAwezELMAkGA1UEBhMCZnIx
DDAKBgNVBAgMA2lkZjEOMAwGA1UEBwwFcGFyaXMxDjAMBgNVBAoMBXZpdGFtMRQw
EgYDVQQLDAthdXRob3JpdGllczEoMCYGA1UEAwwfY2FfaW50ZXJtZWRpYXRlX2Ns
aWVudC1leHRlcm5hbDAeFw0xNzA3MTIxNDI5NTZaFw0yMDA3MTExNDI5NTZaME4x
CzAJBgNVBAYTAmZyMQwwCgYDVQQIDANpZGYxDjAMBgNVBAcMBXBhcmlzMQ4wDAYD
VQQKDAV2aXRhbTERMA8GA1UEAwwIaWhtLWRlbW8wggIiMA0GCSqGSIb3DQEBAQUA
A4ICDwAwggIKAoICAQC4J6TsSsNu8NqirmQ+atQCZAP5PW7IwvYv3XJ2cLC+oEYj
qKWwB9LKntRf2oy+MUGn/AS6zqPfjBzBErReEpsUkcGPg4RAyFFRoOXf6G59xoPi
fM8dsM7N6iGhLGbkz/DzD1AB8U3aApaXTzGG/JgCk/tgLptkeOwv9A43mwPyGkNn
tJXnT+n6I6rKpWZ+fqZ75lM1eFtj9NE/AgddS9HrXcSVxhNRxFRjOsQZiJgaXeRK
4sQ7rz2V5bdbR87LX7FescL1Y+vTqJQmppnE8Rl/NXxRyIQrDYHOe3SP61NVNkIy
LABOQEWs6Dice057YdiA2MqPzb0TbRZiEEzLoDWcmrZjd9cg3pvErz2FwLJ7mf8A
Cmgxpem84/pz9xjXKFXwNP0FptasvUsbAG6yO6UVIoH70Ge9mCbrjVuleJsVawiO
s1zYDQH/QvwQH5/eIrVl0916SPj7X9Owcl0UXK2j9qKuYwmo3IkDXbvVcbJLROMi
9zBdAe34Ion1BBmbbRqOA7RLihTmZzG+hAftKDfapFtZFJnr0SiWN+boWVW9KYHE
KsuRKylHc5FX58lgf1UkHDoeET/CkZoxfSXrzvvzwkeVx8Vj7kNI6LT5LaX8iQYw
sdQNoZLr8jFCfdcKidv2FCNijEX2P3z4+K4iwR2kU8t1ZeC8iuPMXMgLaMtYyQID
AQABo4IBODCCATQwJAYJYIZIAYb4QgENBBcWFUNlcnRpZmljYXQgQ2xpZW50IFNT
TDAdBgNVHQ4EFgQUxGzNuAgYY8PHd4E5LJD/zKCX0kkwgZ4GA1UdIwSBljCBk4AU
n0dKE4aG5s6xfbCpzaignX2mpfGhd6R1MHMxCzAJBgNVBAYTAmZyMQwwCgYDVQQI
DANpZGYxDjAMBgNVBAcMBXBhcmlzMQ4wDAYDVQQKDAV2aXRhbTEUMBIGA1UECwwL
YXV0aG9yaXRpZXMxIDAeBgNVBAMMF2NhX3Jvb3RfY2xpZW50LWV4dGVybmFsggIA
7DAJBgNVHRIEAjAAMAwGA1UdEwEB/wQCMAAwCwYDVR0PBAQDAgXgMBEGCWCGSAGG
+EIBAQQEAwIHgDATBgNVHSUEDDAKBggrBgEFBQcDAjANBgkqhkiG9w0BAQsFAAOC
AgEAZ7GXPmA/Tu6vHUq9Y+bgp9xWOagA1si0JkiS5Zf+Ijyswb4dGrG5R1NdOycn
ZTuRtalQoCXliksj7WZlODPmuQicgzQLUodAsYRWV7IprjmjK99v0/+sDuuFYexg
KfL29mTUzgCJNldvpoQBRAb5CVPskhP1/jvRgoyLprdcn1J+yi5v9X9oArnrb76j
CgNSUeZxL8aKsIAggCW5FnMKEILesUg7qcxwquRyo/+H78jFpzeqPK6RbAF+ur0K
AYy4XveUp+i7Wea0oRFFZzmJjJZxeWJxdOQsKFgdOkEmfIPYo7694DNBJfT8XFrd
n+Lg6AShqtjnkoClc/EXrKgOKEzwV4jp2QK0qyjyI8plK//WTiLAvwh4Q6ZPJFIP
oZfCs6QPbRKZJ124eXskuBTTPBr+KmNiBAB/ITR1CX3C+xpuvku8wUz0FUL/2OUS
0tZ33hj4Ze4h85nV00IReKXqRhnyWzbIbe+2SmpInR5jde/4dK5RYhD5TzC5eldl
ZIn0XSpVr5LGPYHEMYnFfDzGDa7XonDAcKGWS6mQsVQfNJO8UW4cWixPe2JvdOQD
qr1EQJBPORvZu+a1DvYhdCovEdZvt6qXZ1NXCcWCKKBTAODvIWe7WW0CaTBK7hiM
EaUXOAV+tQPksfhKci3Sa/KcsB/qkjg41e7ZFG3wbqTraUo=
-----END CERTIFICATE-----
