Certificate:
    Data:
        Version: 3 (0x2)
        Serial Number: 165 (0xa5)
    Signature Algorithm: sha256WithRSAEncryption
        Issuer: C=FR, ST=idf, L=paris, O=Vitam., CN=CA_server
        Validity
            Not Before: Nov 18 14:13:00 2016 GMT
            Not After : Nov 16 14:13:00 2026 GMT
        Subject: C=FR, ST=idf, L=paris, O=Vitam., CN=CA_server_intermediate
        Subject Public Key Info:
            Public Key Algorithm: rsaEncryption
                Public-Key: (4096 bit)
                Modulus:
                    00:bc:dd:f8:13:25:51:35:9a:4a:61:7f:97:5f:06:
                    3a:9a:de:82:b9:8d:9c:d3:8f:d1:1a:5b:18:d6:69:
                    50:d0:91:f4:d0:03:fd:6d:08:6b:a7:f5:0e:e3:67:
                    c3:df:08:80:f5:22:be:58:3a:6d:e8:0d:65:66:d4:
                    00:98:90:d2:6f:ee:a9:6f:72:b5:d2:f8:0b:40:a0:
                    d3:55:75:81:61:f8:e0:8d:a6:fb:d3:c3:81:79:26:
                    db:d1:aa:b3:da:cd:c9:84:d2:31:a6:41:50:25:df:
                    99:17:8c:1a:b8:02:0a:42:36:25:e8:6c:e8:83:e9:
                    bb:79:17:6d:4e:63:57:a2:a6:11:6e:02:f1:1c:a3:
                    6b:75:da:59:c9:35:38:31:88:8d:00:58:3f:e5:5f:
                    c1:cd:c9:97:10:5c:47:cc:f5:fe:69:6b:04:26:40:
                    7f:a6:dd:5a:f3:09:c6:65:28:8b:48:6f:7d:f0:1f:
                    23:26:f3:d1:89:de:d8:ae:02:30:7b:a0:18:7f:d8:
                    4f:3a:bf:5a:a3:70:d6:ee:17:51:af:88:f8:f7:f8:
                    b3:09:8b:15:0f:52:20:33:db:f7:5f:59:86:72:3d:
                    d7:5c:aa:c2:06:3f:29:5e:6c:cc:c3:4f:b6:f7:63:
                    f6:bd:a7:70:59:66:dd:45:e2:e1:bf:7a:4e:c4:a8:
                    dd:a5:eb:df:fd:53:8a:49:54:f6:75:75:69:44:7f:
                    f4:0b:dd:18:e4:f3:21:33:4f:29:3f:0a:ce:7f:fa:
                    82:64:b1:37:fe:68:72:9e:d4:13:d8:9a:5e:c8:5c:
                    3a:69:80:e0:7b:f1:de:a1:31:e8:5b:a0:80:7d:76:
                    fe:7a:b7:fe:0f:c2:49:aa:e0:ce:fa:d5:3e:14:6c:
                    56:19:41:90:d1:0f:44:d8:29:06:74:19:9b:9e:87:
                    6f:7e:f3:93:2a:9b:eb:37:22:ef:e9:22:85:5f:89:
                    07:73:f2:27:62:ca:98:66:6d:27:61:74:9b:3f:68:
                    3b:ee:e2:6a:18:99:78:c5:ba:1a:21:f0:6d:63:34:
                    92:17:85:ed:b8:ba:49:b0:e6:d3:20:39:fe:7a:e8:
                    7e:c5:87:0f:7e:4d:e0:19:05:50:0f:64:e3:cb:e9:
                    0b:3c:11:cc:36:ef:99:58:72:6b:35:df:0b:c9:10:
                    0f:53:d2:0d:05:20:af:ae:1f:44:95:8c:9c:21:ef:
                    00:33:55:42:ac:6e:03:04:b1:b8:7f:53:78:d0:64:
                    87:44:80:36:00:f2:3b:38:87:c3:5c:b8:5d:58:4f:
                    b4:fe:f5:da:c8:d3:ac:51:36:d9:a8:f0:6b:e4:36:
                    5d:5d:42:c9:1c:0a:29:55:54:4a:18:03:44:dc:d3:
                    3e:36:13
                Exponent: 65537 (0x10001)
        X509v3 extensions:
            Netscape Comment: 
                CA SSL
            X509v3 Basic Constraints: critical
                CA:TRUE, pathlen:0
            X509v3 Subject Key Identifier: 
                FD:BE:45:C2:E5:35:43:C6:F3:85:0B:93:8A:BE:0C:DC:A5:B8:E8:D3
            X509v3 Authority Key Identifier: 
                keyid:50:16:E4:77:0D:FE:7D:E7:5E:C4:18:CC:FA:1B:42:C3:16:43:60:FD
                DirName:/C=FR/ST=idf/L=paris/O=Vitam./CN=CA_server
                serial:A4

            X509v3 Issuer Alternative Name: 
                <EMPTY>

            X509v3 Key Usage: 
                Certificate Sign, CRL Sign
            Netscape Cert Type: 
                SSL CA
    Signature Algorithm: sha256WithRSAEncryption
         c8:b9:ab:c8:e7:95:62:b1:b4:ce:a4:4d:3a:09:82:7a:1e:ca:
         b0:5f:9c:ee:ec:22:13:85:f3:be:a5:ea:ef:43:ad:d6:bf:e9:
         e0:17:7f:34:2a:04:2c:da:d4:41:9b:47:fb:51:12:10:6b:47:
         87:ff:c6:7b:aa:42:9e:a6:f4:0f
-----BEGIN CERTIFICATE-----
MIIEWzCCBAWgAwIBAgICAKUwDQYJKoZIhvcNAQELBQAwUDELMAkGA1UEBhMCRlIx
DDAKBgNVBAgTA2lkZjEOMAwGA1UEBxMFcGFyaXMxDzANBgNVBAoTBlZpdGFtLjES
MBAGA1UEAxQJQ0Ffc2VydmVyMB4XDTE2MTExODE0MTMwMFoXDTI2MTExNjE0MTMw
MFowXTELMAkGA1UEBhMCRlIxDDAKBgNVBAgTA2lkZjEOMAwGA1UEBxMFcGFyaXMx
DzANBgNVBAoTBlZpdGFtLjEfMB0GA1UEAxQWQ0Ffc2VydmVyX2ludGVybWVkaWF0
ZTCCAiIwDQYJKoZIhvcNAQEBBQADggIPADCCAgoCggIBALzd+BMlUTWaSmF/l18G
OpregrmNnNOP0RpbGNZpUNCR9NAD/W0Ia6f1DuNnw98IgPUivlg6begNZWbUAJiQ
0m/uqW9ytdL4C0Cg01V1gWH44I2m+9PDgXkm29Gqs9rNyYTSMaZBUCXfmReMGrgC
CkI2Jehs6IPpu3kXbU5jV6KmEW4C8Ryja3XaWck1ODGIjQBYP+Vfwc3JlxBcR8z1
/mlrBCZAf6bdWvMJxmUoi0hvffAfIybz0Yne2K4CMHugGH/YTzq/WqNw1u4XUa+I
+Pf4swmLFQ9SIDPb919ZhnI911yqwgY/KV5szMNPtvdj9r2ncFlm3UXi4b96TsSo
3aXr3/1TiklU9nV1aUR/9AvdGOTzITNPKT8Kzn/6gmSxN/5ocp7UE9iaXshcOmmA
4Hvx3qEx6FuggH12/nq3/g/CSargzvrVPhRsVhlBkNEPRNgpBnQZm56Hb37zkyqb
6zci7+kihV+JB3PyJ2LKmGZtJ2F0mz9oO+7iahiZeMW6GiHwbWM0kheF7bi6SbDm
0yA5/nrofsWHD35N4BkFUA9k48vpCzwRzDbvmVhyazXfC8kQD1PSDQUgr64fRJWM
nCHvADNVQqxuAwSxuH9TeNBkh0SANgDyOziHw1y4XVhPtP712sjTrFE22ajwa+Q2
XV1CyRwKKVVUShgDRNzTPjYTAgMBAAGjgfMwgfAwFQYJYIZIAYb4QgENBAgWBkNB
IFNTTDASBgNVHRMBAf8ECDAGAQH/AgEAMB0GA1UdDgQWBBT9vkXC5TVDxvOFC5OK
vgzcpbjo0zB5BgNVHSMEcjBwgBRQFuR3Df59517EGMz6G0LDFkNg/aFUpFIwUDEL
MAkGA1UEBhMCRlIxDDAKBgNVBAgTA2lkZjEOMAwGA1UEBxMFcGFyaXMxDzANBgNV
BAoTBlZpdGFtLjESMBAGA1UEAxQJQ0Ffc2VydmVyggIApDAJBgNVHRIEAjAAMAsG
A1UdDwQEAwIBBjARBglghkgBhvhCAQEEBAMCAgQwDQYJKoZIhvcNAQELBQADQQDI
uavI55VisbTOpE06CYJ6HsqwX5zu7CIThfO+pervQ63Wv+ngF380KgQs2tRBm0f7
URIQa0eH/8Z7qkKepvQP
-----END CERTIFICATE-----
