Certificate:
    Data:
        Version: 3 (0x2)
        Serial Number: 2 (0x2)
        Signature Algorithm: sha256WithRSAEncryption
        Issuer: C=fr, ST=idf, L=paris, O=vitam, OU=authorities, CN=ca_intermediate_client-external
        Validity
            Not Before: Jul  8 09:07:08 1994 GMT
            Not After : Jul  5 09:07:08 2004 GMT
        Subject: C=fr, ST=idf, L=paris, O=vitam, CN=personal-client-external
        Subject Public Key Info:
            Public Key Algorithm: rsaEncryption
                RSA Public-Key: (4096 bit)
                Modulus:
                    00:c0:27:dc:08:73:95:18:23:3f:61:21:03:f1:d0:
                    4a:61:46:4a:af:c6:b1:2c:1c:93:cb:47:31:b1:f9:
                    46:ed:a2:ed:65:75:a3:d8:a4:cc:fe:5a:9a:26:2e:
                    b9:06:81:98:33:02:31:a8:48:7f:ab:56:19:dc:e7:
                    76:93:76:f0:28:55:63:d5:7d:c6:93:90:e7:40:b7:
                    96:72:18:88:89:57:90:17:da:fa:2d:8e:2b:5b:f8:
                    3d:91:0d:3f:68:cd:a4:f3:05:f3:32:ce:cc:1a:d1:
                    72:ea:7f:fd:b9:e5:68:65:ef:df:bb:c1:72:07:58:
                    9c:f2:f8:df:0e:17:6c:28:66:c1:0f:ec:9c:ee:9d:
                    d3:a3:2f:af:88:b7:b8:48:4d:70:7a:92:44:5a:62:
                    42:10:f2:38:ea:69:db:1f:77:92:67:9f:41:7a:88:
                    f1:d0:36:5c:db:f8:15:df:82:80:bc:a6:e9:7d:6c:
                    97:aa:1e:34:ff:60:ce:6b:b3:dd:16:07:85:6c:ed:
                    a6:31:a5:5b:ed:62:dd:f2:ab:36:30:a9:38:49:6d:
                    8b:1e:2d:52:4a:79:fe:7c:32:57:f8:a1:5b:9a:72:
                    f8:ec:5d:59:da:1d:3e:00:27:73:41:82:ed:6f:8e:
                    9b:64:1d:18:ba:8b:8e:3c:69:45:11:a2:6a:db:5f:
                    16:ba:2c:dd:f2:19:4d:33:a9:f7:d2:4f:d7:b1:aa:
                    7a:64:b0:9e:2b:5e:4e:ab:d2:2b:32:d4:1e:7a:5d:
                    ee:68:e6:66:85:04:5c:aa:60:ba:84:99:c5:09:c1:
                    70:f8:e1:6c:f2:7f:b7:be:48:09:5a:93:99:2e:2e:
                    e5:bd:96:83:3a:32:d8:55:f1:c4:7c:60:1a:09:c2:
                    0b:f1:9a:2e:5b:40:8e:58:28:b6:f8:06:34:8e:1b:
                    63:3c:e1:45:c5:f5:eb:1d:89:9f:2b:eb:e2:0b:fd:
                    16:80:0f:80:3b:8e:a5:70:da:3d:b4:0a:84:a4:72:
                    1b:a0:58:9e:c8:8e:74:2d:f7:35:44:12:69:7e:76:
                    33:f6:01:48:0d:e5:b4:1c:9c:5b:f9:b5:e9:fb:db:
                    78:ef:f5:94:12:6e:84:56:d1:f7:49:e6:52:4e:00:
                    50:fb:bf:c4:fb:64:9e:4e:8e:f3:40:90:a4:71:47:
                    4d:18:14:4b:59:15:e3:60:79:50:77:33:59:09:2f:
                    d8:b7:26:50:7d:dc:dd:ce:52:f7:37:54:67:26:f0:
                    8d:a4:f9:41:f2:16:74:98:63:ab:9b:32:72:76:14:
                    9c:0d:1a:2a:42:96:a6:6e:6d:6d:39:01:ac:aa:93:
                    c1:c6:a6:ea:e8:06:39:74:ca:e5:f5:05:f2:66:8f:
                    28:50:11
                Exponent: 65537 (0x10001)
        X509v3 extensions:
            Netscape Comment: 
                Certificat Client SSL
            X509v3 Subject Key Identifier: 
                86:DB:F8:9C:04:7D:D2:B3:BE:55:F5:59:55:E4:A1:EB:02:0E:B5:93
            X509v3 Authority Key Identifier: 
                keyid:86:DC:92:66:16:DB:9D:26:D9:0E:73:97:C8:0B:F0:5F:F3:49:45:EC
                DirName:/C=fr/ST=idf/L=paris/O=vitam/OU=authorities/CN=ca_root_client-external
                serial:02

            X509v3 Issuer Alternative Name: 
                <EMPTY>

            X509v3 Basic Constraints: critical
                CA:FALSE
            X509v3 Key Usage: 
                Digital Signature
            Netscape Cert Type: 
                SSL Client
            X509v3 Extended Key Usage: 
                TLS Web Client Authentication
    Signature Algorithm: sha256WithRSAEncryption
         7b:0b:39:8a:eb:30:96:9c:d2:f7:20:00:84:c1:ca:b6:d7:6c:
         0f:51:cf:63:35:10:3d:a3:c6:a9:d2:1b:3f:df:07:9b:5b:92:
         7b:66:8e:3f:92:c7:64:a0:3e:b1:c7:1d:57:f6:3f:ad:5d:1a:
         01:0b:a0:11:c8:64:be:cd:4a:f3:16:db:fe:25:e5:45:6b:60:
         3a:96:56:af:b9:0b:7d:1a:21:36:cb:52:38:ce:7f:e7:f5:09:
         3e:d0:fa:a1:75:70:cd:23:13:64:60:50:5d:8a:c3:c5:c4:18:
         3a:77:60:9e:6f:9f:56:2d:b7:55:aa:4e:58:22:19:86:41:9b:
         a4:f4:ce:ad:c4:64:ab:5d:2d:88:46:b0:91:82:c0:51:db:d8:
         1c:4e:59:9b:ff:60:72:49:e5:6d:58:f3:45:28:5f:f4:b6:7f:
         a7:c9:ea:03:d0:92:46:01:1f:62:da:08:af:26:ab:f5:67:aa:
         9b:cf:78:ff:84:0c:0c:81:3b:82:36:d7:ea:c2:c7:f7:34:fe:
         4c:a1:20:69:ea:0d:e8:19:b8:f1:89:b3:f0:c1:0c:d3:66:a2:
         53:e9:56:f5:27:f7:be:d3:f0:10:76:1e:6f:74:2c:5b:86:af:
         4c:e4:7d:d1:c0:50:6a:ad:e8:06:a9:90:8b:21:9d:0e:86:da:
         12:17:eb:b6:c8:41:d5:d8:af:bb:23:3e:54:5d:21:08:89:fc:
         8d:07:79:f2:d6:9e:e0:7b:8e:71:19:c7:04:a3:2b:ab:5d:e3:
         5b:f4:3b:a1:49:f7:a1:a0:93:3a:6a:ea:43:12:b7:7f:cd:55:
         d2:1e:3a:70:65:aa:e4:cb:2e:ae:2a:5e:10:67:50:9c:d7:1e:
         56:a5:9f:25:50:d9:e2:41:36:8d:36:d5:94:e5:90:04:48:21:
         c0:81:8e:d3:23:2e:e0:1b:d8:50:ea:99:8c:e1:a6:ea:f9:14:
         c3:a8:72:12:31:fe:44:8b:7b:09:c5:39:4c:3a:91:e6:5e:6a:
         ed:80:fb:13:05:68:ca:19:4f:c2:10:8a:6d:2b:91:7b:7a:d4:
         28:78:74:f8:6e:84:ce:d0:45:5e:15:6a:3b:be:e8:4c:47:80:
         1d:65:26:dc:ca:67:b4:46:2d:8f:50:a9:1c:68:20:e0:bb:33:
         3a:cc:74:1b:7a:59:3c:58:c3:83:a8:bb:88:d6:bf:94:40:5b:
         7f:76:62:43:7d:eb:5d:51:35:42:b6:65:d4:d4:62:a6:6e:ed:
         01:45:5d:5a:e9:f8:32:93:d6:74:63:1c:4f:e0:99:e8:49:d0:
         ba:6f:1f:bb:18:54:c1:a8:c5:54:70:10:72:66:47:ed:53:9b:
         46:db:9b:d7:51:36:30:bf
-----BEGIN CERTIFICATE-----
MIIGjTCCBHWgAwIBAgIBAjANBgkqhkiG9w0BAQsFADB7MQswCQYDVQQGEwJmcjEM
MAoGA1UECAwDaWRmMQ4wDAYDVQQHDAVwYXJpczEOMAwGA1UECgwFdml0YW0xFDAS
BgNVBAsMC2F1dGhvcml0aWVzMSgwJgYDVQQDDB9jYV9pbnRlcm1lZGlhdGVfY2xp
ZW50LWV4dGVybmFsMB4XDTk0MDcwODA5MDcwOFoXDTA0MDcwNTA5MDcwOFowXjEL
MAkGA1UEBhMCZnIxDDAKBgNVBAgMA2lkZjEOMAwGA1UEBwwFcGFyaXMxDjAMBgNV
BAoMBXZpdGFtMSEwHwYDVQQDDBhwZXJzb25hbC1jbGllbnQtZXh0ZXJuYWwwggIi
MA0GCSqGSIb3DQEBAQUAA4ICDwAwggIKAoICAQDAJ9wIc5UYIz9hIQPx0EphRkqv
xrEsHJPLRzGx+Ubtou1ldaPYpMz+WpomLrkGgZgzAjGoSH+rVhnc53aTdvAoVWPV
fcaTkOdAt5ZyGIiJV5AX2votjitb+D2RDT9ozaTzBfMyzswa0XLqf/255Whl79+7
wXIHWJzy+N8OF2woZsEP7JzundOjL6+It7hITXB6kkRaYkIQ8jjqadsfd5Jnn0F6
iPHQNlzb+BXfgoC8pul9bJeqHjT/YM5rs90WB4Vs7aYxpVvtYt3yqzYwqThJbYse
LVJKef58Mlf4oVuacvjsXVnaHT4AJ3NBgu1vjptkHRi6i448aUURomrbXxa6LN3y
GU0zqffST9exqnpksJ4rXk6r0isy1B56Xe5o5maFBFyqYLqEmcUJwXD44Wzyf7e+
SAlak5kuLuW9loM6MthV8cR8YBoJwgvxmi5bQI5YKLb4BjSOG2M84UXF9esdiZ8r
6+IL/RaAD4A7jqVw2j20CoSkchugWJ7IjnQt9zVEEml+djP2AUgN5bQcnFv5ten7
23jv9ZQSboRW0fdJ5lJOAFD7v8T7ZJ5OjvNAkKRxR00YFEtZFeNgeVB3M1kJL9i3
JlB93N3OUvc3VGcm8I2k+UHyFnSYY6ubMnJ2FJwNGipClqZubW05Aayqk8HGpuro
Bjl0yuX1BfJmjyhQEQIDAQABo4IBNzCCATMwJAYJYIZIAYb4QgENBBcWFUNlcnRp
ZmljYXQgQ2xpZW50IFNTTDAdBgNVHQ4EFgQUhtv4nAR90rO+VfVZVeSh6wIOtZMw
gZ0GA1UdIwSBlTCBkoAUhtySZhbbnSbZDnOXyAvwX/NJReyhd6R1MHMxCzAJBgNV
BAYTAmZyMQwwCgYDVQQIDANpZGYxDjAMBgNVBAcMBXBhcmlzMQ4wDAYDVQQKDAV2
aXRhbTEUMBIGA1UECwwLYXV0aG9yaXRpZXMxIDAeBgNVBAMMF2NhX3Jvb3RfY2xp
ZW50LWV4dGVybmFsggECMAkGA1UdEgQCMAAwDAYDVR0TAQH/BAIwADALBgNVHQ8E
BAMCB4AwEQYJYIZIAYb4QgEBBAQDAgeAMBMGA1UdJQQMMAoGCCsGAQUFBwMCMA0G
CSqGSIb3DQEBCwUAA4ICAQB7CzmK6zCWnNL3IACEwcq212wPUc9jNRA9o8ap0hs/
3webW5J7Zo4/ksdkoD6xxx1X9j+tXRoBC6ARyGS+zUrzFtv+JeVFa2A6llavuQt9
GiE2y1I4zn/n9Qk+0PqhdXDNIxNkYFBdisPFxBg6d2Ceb59WLbdVqk5YIhmGQZuk
9M6txGSrXS2IRrCRgsBR29gcTlmb/2BySeVtWPNFKF/0tn+nyeoD0JJGAR9i2giv
Jqv1Z6qbz3j/hAwMgTuCNtfqwsf3NP5MoSBp6g3oGbjxibPwwQzTZqJT6Vb1J/e+
0/AQdh5vdCxbhq9M5H3RwFBqregGqZCLIZ0OhtoSF+u2yEHV2K+7Iz5UXSEIifyN
B3ny1p7ge45xGccEoyurXeNb9DuhSfehoJM6aupDErd/zVXSHjpwZarkyy6uKl4Q
Z1Cc1x5WpZ8lUNniQTaNNtWU5ZAESCHAgY7TIy7gG9hQ6pmM4abq+RTDqHISMf5E
i3sJxTlMOpHmXmrtgPsTBWjKGU/CEIptK5F7etQoeHT4boTO0EVeFWo7vuhMR4Ad
ZSbcyme0Ri2PUKkcaCDguzM6zHQbelk8WMODqLuI1r+UQFt/dmJDfetdUTVCtmXU
1GKmbu0BRV1a6fgyk9Z0YxxP4JnoSdC6bx+7GFTBqMVUcBByZkftU5tG25vXUTYw
vw==
-----END CERTIFICATE-----
