Certificate:
    Data:
        Version: 3 (0x2)
        Serial Number: 1 (0x1)
        Signature Algorithm: sha256WithRSAEncryption
        Issuer: C=fr, ST=idf, L=paris, O=vitam, OU=authorities, CN=ca_intermediate_client-external
        Validity
            Not Before: Jul  8 09:06:54 1994 GMT
            Not After : Jul  5 09:06:54 2004 GMT
        Subject: C=fr, ST=idf, L=paris, O=vitam, CN=sia-client-external
        Subject Public Key Info:
            Public Key Algorithm: rsaEncryption
                RSA Public-Key: (4096 bit)
                Modulus:
                    00:d7:be:ca:70:da:f7:7f:e3:01:13:8d:9f:79:7c:
                    23:1b:cb:a0:22:36:ba:22:54:cc:97:5a:07:c4:d8:
                    2b:51:79:54:cd:67:ba:93:15:45:aa:e1:2e:8e:b5:
                    ed:0a:87:8e:73:95:7c:76:0d:9f:0e:55:dc:8b:9c:
                    65:16:70:86:d5:05:6f:2f:3e:4d:7e:5c:05:f1:02:
                    fa:88:76:2b:30:d8:6f:11:e4:b3:af:f4:02:af:ca:
                    87:77:8b:52:68:7a:13:23:f1:30:68:e5:fc:a0:a5:
                    ac:fc:76:7d:36:0a:ac:5a:a0:e8:8d:72:b2:16:8e:
                    89:d4:12:eb:df:c8:5a:b5:20:3d:52:32:1c:a1:11:
                    fa:7e:de:9f:6d:b5:55:93:88:b1:dd:88:7c:da:75:
                    c5:5a:9c:63:7e:80:c0:8c:08:e6:48:91:4e:65:7f:
                    7a:a2:8b:d7:2f:8d:f7:60:77:f8:16:de:32:0b:6d:
                    80:6a:e6:6f:4b:91:9e:a3:67:ca:8c:0d:d9:70:59:
                    22:77:0e:ba:27:f7:ae:86:cc:e7:f0:6a:5d:12:18:
                    0d:ce:b9:81:98:ab:ec:b0:b5:9c:ef:bb:57:10:61:
                    03:32:4c:cb:e6:5e:a8:6d:1c:8d:fa:7c:d5:c0:cb:
                    0e:eb:2d:b6:ab:75:4c:47:d4:78:32:53:c2:df:4b:
                    ea:f8:1d:3a:65:fc:ce:08:94:46:e5:0e:fe:d8:24:
                    ba:9d:68:8d:34:d9:53:ce:b6:f7:59:fb:18:4c:1a:
                    ef:92:95:7f:7c:ea:61:6b:8b:0c:bf:60:0d:84:36:
                    9d:81:63:5e:c7:15:d6:d8:4e:00:b8:ea:3f:dd:46:
                    64:8b:f0:88:fd:ef:68:47:bd:7a:e0:4f:80:de:f6:
                    9d:e9:fd:a7:e1:2c:54:b6:52:42:44:70:b9:db:41:
                    67:3e:fd:9f:55:f6:40:ad:ef:02:4a:f1:a6:c8:f2:
                    52:4a:0a:71:a3:43:0a:2a:72:c4:c7:73:9e:3e:c7:
                    d5:9f:1a:56:e0:ee:60:44:40:d8:41:55:aa:63:f5:
                    9d:8e:76:1c:f6:ba:7f:7a:4a:c2:1d:b3:a4:a5:9f:
                    84:d2:50:d3:37:08:45:d7:2c:3d:25:95:62:b0:81:
                    0b:76:43:e1:7e:74:1a:ed:11:54:71:bc:06:9c:3d:
                    3b:d0:ec:57:34:30:8c:5d:5e:14:36:bf:a0:70:b2:
                    7e:16:f5:52:ac:bc:85:a6:a6:05:14:a8:22:b0:9b:
                    b9:3f:64:c5:50:8f:68:c3:c2:bb:a6:8d:db:5d:fb:
                    b9:68:76:34:09:8b:a7:01:01:fd:a6:56:a1:b5:da:
                    ea:12:f5:ac:46:3e:31:f1:4c:df:a3:0d:b1:24:dd:
                    3c:89:5f
                Exponent: 65537 (0x10001)
        X509v3 extensions:
            Netscape Comment: 
                Certificat Client SSL
            X509v3 Subject Key Identifier: 
                A3:1F:C2:6F:08:E6:82:17:44:BB:85:8F:14:6F:3A:3A:E0:DB:AA:CF
            X509v3 Authority Key Identifier: 
                keyid:86:DC:92:66:16:DB:9D:26:D9:0E:73:97:C8:0B:F0:5F:F3:49:45:EC
                DirName:/C=fr/ST=idf/L=paris/O=vitam/OU=authorities/CN=ca_root_client-external
                serial:02

            X509v3 Issuer Alternative Name: 
                <EMPTY>

            X509v3 Basic Constraints: critical
                CA:FALSE
            X509v3 Key Usage: 
                Digital Signature
            Netscape Cert Type: 
                SSL Client
            X509v3 Extended Key Usage: 
                TLS Web Client Authentication
    Signature Algorithm: sha256WithRSAEncryption
         2e:a9:62:c3:19:9e:84:94:6d:77:dc:ec:a9:86:a1:27:36:e2:
         06:33:49:63:d7:10:ed:91:22:43:6e:4d:2b:7f:19:1a:9a:dd:
         ca:ac:03:11:12:9b:63:99:da:3a:22:cb:e5:48:7e:21:35:70:
         66:aa:cf:bc:d2:79:20:76:2b:c3:92:44:be:d5:e2:7e:d0:c4:
         1d:6e:26:1f:12:63:5c:0f:c3:a1:b9:6b:ba:ac:33:7a:b9:de:
         dc:b1:4e:c2:99:dc:7c:14:3a:c6:be:ed:db:36:91:26:69:0b:
         d3:82:91:09:5a:8f:98:5b:dc:6e:c8:e9:50:42:19:b3:5e:91:
         3a:54:8d:00:d6:77:4a:3c:08:f0:3d:db:02:6a:20:e9:90:f4:
         64:e3:39:17:bd:be:b9:68:db:e2:00:55:da:79:27:31:4a:c4:
         e1:a6:71:3f:0d:5a:d4:38:a4:40:c8:53:1b:42:57:74:a4:77:
         2c:f8:a4:3b:b4:16:a4:ba:4e:8d:72:ec:ab:a2:eb:06:aa:c4:
         84:c0:02:ad:b3:50:97:30:2a:10:a3:43:21:ac:07:7f:d8:29:
         90:71:8e:7b:9a:d4:da:4b:f6:95:50:36:f2:6c:8f:3d:1b:96:
         7d:6a:20:4c:48:8e:9c:cf:5e:cd:24:2a:8c:1f:44:22:35:03:
         bf:11:a8:c5:a3:2d:43:a9:47:6f:47:77:f0:da:01:e2:28:9a:
         23:83:26:e6:35:22:3c:b5:07:e5:21:30:2d:5d:1f:c3:e0:bd:
         5c:83:b4:21:ea:c3:8f:88:42:61:3a:fd:46:08:1e:1d:dd:f7:
         66:c5:53:df:1c:94:44:28:c9:74:8a:8b:79:5a:e5:e3:70:31:
         b3:34:4f:f8:10:ba:c8:36:c7:4c:1e:24:44:06:69:31:76:4c:
         e5:5d:ab:36:ed:9a:ce:94:9b:ce:15:0f:f1:ad:4a:a1:fb:e0:
         bd:b2:43:fe:ab:3c:9c:c1:d7:43:5d:f0:cc:47:03:15:5f:d2:
         4d:58:c8:52:60:02:f8:83:e7:6b:00:32:27:83:14:ae:d4:ec:
         46:9c:77:17:b5:56:f3:b9:b4:fe:84:4e:19:ec:93:94:b2:5d:
         50:dc:3c:ee:67:94:85:f0:80:44:90:48:7a:77:93:b8:f5:5e:
         10:a2:bc:54:9b:a8:18:6f:42:6a:7f:5f:9c:13:17:a4:4d:40:
         ca:5a:8b:88:57:b9:21:89:11:ec:e8:55:5c:94:90:81:88:52:
         fc:c5:f7:2f:29:77:22:35:f5:d7:39:90:05:cd:ae:03:15:0f:
         92:02:ce:99:33:58:ec:1c:af:fe:d0:75:ce:c0:c5:6a:cf:27:
         ef:c8:83:cd:b0:85:59:70
-----BEGIN CERTIFICATE-----
MIIGiDCCBHCgAwIBAgIBATANBgkqhkiG9w0BAQsFADB7MQswCQYDVQQGEwJmcjEM
MAoGA1UECAwDaWRmMQ4wDAYDVQQHDAVwYXJpczEOMAwGA1UECgwFdml0YW0xFDAS
BgNVBAsMC2F1dGhvcml0aWVzMSgwJgYDVQQDDB9jYV9pbnRlcm1lZGlhdGVfY2xp
ZW50LWV4dGVybmFsMB4XDTk0MDcwODA5MDY1NFoXDTA0MDcwNTA5MDY1NFowWTEL
MAkGA1UEBhMCZnIxDDAKBgNVBAgMA2lkZjEOMAwGA1UEBwwFcGFyaXMxDjAMBgNV
BAoMBXZpdGFtMRwwGgYDVQQDDBNzaWEtY2xpZW50LWV4dGVybmFsMIICIjANBgkq
hkiG9w0BAQEFAAOCAg8AMIICCgKCAgEA177KcNr3f+MBE42feXwjG8ugIja6IlTM
l1oHxNgrUXlUzWe6kxVFquEujrXtCoeOc5V8dg2fDlXci5xlFnCG1QVvLz5NflwF
8QL6iHYrMNhvEeSzr/QCr8qHd4tSaHoTI/EwaOX8oKWs/HZ9NgqsWqDojXKyFo6J
1BLr38hatSA9UjIcoRH6ft6fbbVVk4ix3Yh82nXFWpxjfoDAjAjmSJFOZX96oovX
L433YHf4Ft4yC22AauZvS5Geo2fKjA3ZcFkidw66J/euhszn8GpdEhgNzrmBmKvs
sLWc77tXEGEDMkzL5l6obRyN+nzVwMsO6y22q3VMR9R4MlPC30vq+B06ZfzOCJRG
5Q7+2CS6nWiNNNlTzrb3WfsYTBrvkpV/fOpha4sMv2ANhDadgWNexxXW2E4AuOo/
3UZki/CI/e9oR7164E+A3vad6f2n4SxUtlJCRHC520FnPv2fVfZAre8CSvGmyPJS
Sgpxo0MKKnLEx3OePsfVnxpW4O5gREDYQVWqY/WdjnYc9rp/ekrCHbOkpZ+E0lDT
NwhF1yw9JZVisIELdkPhfnQa7RFUcbwGnD070OxXNDCMXV4UNr+gcLJ+FvVSrLyF
pqYFFKgisJu5P2TFUI9ow8K7po3bXfu5aHY0CYunAQH9plahtdrqEvWsRj4x8Uzf
ow2xJN08iV8CAwEAAaOCATcwggEzMCQGCWCGSAGG+EIBDQQXFhVDZXJ0aWZpY2F0
IENsaWVudCBTU0wwHQYDVR0OBBYEFKMfwm8I5oIXRLuFjxRvOjrg26rPMIGdBgNV
HSMEgZUwgZKAFIbckmYW250m2Q5zl8gL8F/zSUXsoXekdTBzMQswCQYDVQQGEwJm
cjEMMAoGA1UECAwDaWRmMQ4wDAYDVQQHDAVwYXJpczEOMAwGA1UECgwFdml0YW0x
FDASBgNVBAsMC2F1dGhvcml0aWVzMSAwHgYDVQQDDBdjYV9yb290X2NsaWVudC1l
eHRlcm5hbIIBAjAJBgNVHRIEAjAAMAwGA1UdEwEB/wQCMAAwCwYDVR0PBAQDAgeA
MBEGCWCGSAGG+EIBAQQEAwIHgDATBgNVHSUEDDAKBggrBgEFBQcDAjANBgkqhkiG
9w0BAQsFAAOCAgEALqliwxmehJRtd9zsqYahJzbiBjNJY9cQ7ZEiQ25NK38ZGprd
yqwDERKbY5naOiLL5Uh+ITVwZqrPvNJ5IHYrw5JEvtXiftDEHW4mHxJjXA/Doblr
uqwzerne3LFOwpncfBQ6xr7t2zaRJmkL04KRCVqPmFvcbsjpUEIZs16ROlSNANZ3
SjwI8D3bAmog6ZD0ZOM5F72+uWjb4gBV2nknMUrE4aZxPw1a1DikQMhTG0JXdKR3
LPikO7QWpLpOjXLsq6LrBqrEhMACrbNQlzAqEKNDIawHf9gpkHGOe5rU2kv2lVA2
8myPPRuWfWogTEiOnM9ezSQqjB9EIjUDvxGoxaMtQ6lHb0d38NoB4iiaI4Mm5jUi
PLUH5SEwLV0fw+C9XIO0IerDj4hCYTr9RggeHd33ZsVT3xyURCjJdIqLeVrl43Ax
szRP+BC6yDbHTB4kRAZpMXZM5V2rNu2azpSbzhUP8a1KofvgvbJD/qs8nMHXQ13w
zEcDFV/STVjIUmAC+IPnawAyJ4MUrtTsRpx3F7VW87m0/oROGeyTlLJdUNw87meU
hfCARJBIeneTuPVeEKK8VJuoGG9Can9fnBMXpE1AylqLiFe5IYkR7OhVXJSQgYhS
/MX3Lyl3IjX11zmQBc2uAxUPkgLOmTNY7Byv/tB1zsDFas8n78iDzbCFWXA=
-----END CERTIFICATE-----
