Certificate:
    Data:
        Version: 3 (0x2)
        Serial Number: 229 (0xe5)
    Signature Algorithm: sha256WithRSAEncryption
        Issuer: C=FR, ST=idf, L=paris, O=Vitam., CN=CA_client-external
        Validity
            Not Before: Mar  6 18:04:20 2017 GMT
            Not After : Mar  5 18:04:20 2020 GMT
        Subject: C=FR, ST=idf, L=paris, O=Vitam., CN=reverse
        Subject Public Key Info:
            Public Key Algorithm: rsaEncryption
                Public-Key: (4096 bit)
                Modulus:
                    00:be:da:80:33:c0:4e:0d:ef:50:f2:f4:a4:59:6a:
                    aa:1a:25:c2:f1:9f:89:cf:27:bd:a0:4f:b0:e0:6f:
                    39:dd:b0:74:3d:90:9a:ca:27:f4:45:9c:93:00:e0:
                    1a:73:2f:80:bc:4e:00:65:c5:8b:b4:48:fa:9c:b5:
                    de:55:9b:da:9a:e5:e6:36:07:7c:cc:70:3e:cc:23:
                    db:cf:6c:2b:d7:18:24:8a:f8:f9:60:c7:c4:7a:2d:
                    b9:d7:3b:e2:18:2b:71:83:d4:09:8f:ff:ff:9c:6e:
                    0d:59:d1:e9:6d:1d:98:8d:17:2d:cd:fd:7f:7d:6f:
                    1c:9c:14:48:4f:ea:b3:9c:7f:bd:cf:b8:a9:1d:1c:
                    2b:be:7e:03:4e:0a:df:ce:ed:05:7f:8a:df:f9:70:
                    29:ae:29:02:05:97:ad:f0:62:16:54:49:fc:64:b9:
                    4f:1f:05:0c:5d:ba:ee:52:a8:db:72:bc:57:dc:20:
                    e9:2e:b1:1b:e6:98:04:ad:cc:93:24:d9:b8:cb:29:
                    22:b7:98:a9:f6:3b:c2:60:c2:f8:aa:c7:b5:15:32:
                    b9:8a:c4:be:e1:ad:25:d6:5d:66:57:40:90:57:89:
                    4a:68:e5:35:d3:ab:3c:39:01:13:ad:e3:81:cc:f3:
                    51:1f:ff:e7:b0:48:8f:d1:4b:d6:e8:ff:40:c2:2d:
                    e8:68:ac:f8:a7:ee:8d:75:58:03:7e:f6:a2:a7:62:
                    01:6a:8a:98:5a:fe:6b:b1:f3:73:c1:b6:08:9d:6e:
                    b9:d7:5e:1d:4f:53:c0:19:c1:96:4e:5e:3a:a0:11:
                    9e:42:98:d6:8a:ff:7a:5a:32:d6:69:95:b1:cc:bd:
                    2c:c1:58:4b:e9:b6:9b:66:41:30:3e:84:13:0a:28:
                    0f:38:6a:0c:2a:57:43:c7:18:45:40:b0:12:5b:36:
                    b0:c3:43:c8:78:3d:ee:43:bd:e0:47:5f:b0:5d:79:
                    93:7e:f4:dc:b8:97:cd:df:71:7e:f4:f7:45:4a:2f:
                    cc:e9:36:f2:f4:1d:cc:c3:32:49:91:81:bd:0a:7b:
                    be:cd:a5:66:d9:ba:89:4a:fe:83:c2:75:b5:6c:e7:
                    31:8a:2e:d2:ba:ac:a7:b4:13:19:53:17:4c:42:d7:
                    c7:08:9b:97:7d:f1:9b:7a:64:b2:7d:f0:ec:9a:f5:
                    54:b2:ab:b8:26:c0:fb:1b:a8:42:ad:59:cb:29:1b:
                    13:74:a6:6c:77:67:81:3d:ef:7c:72:dd:7a:80:6d:
                    7b:50:9f:9d:c0:d5:1a:0d:3f:11:68:9a:a8:89:c7:
                    c5:86:3b:b9:82:70:13:f4:b6:77:47:6e:0b:3c:20:
                    75:34:19:ca:60:e7:93:63:45:31:e3:0a:1b:33:73:
                    d3:82:a1
                Exponent: 65537 (0x10001)
        X509v3 extensions:
            Netscape Comment: 
                Certificat Client SSL
            X509v3 Subject Key Identifier: 
                66:99:14:E9:D0:B9:18:81:0E:D3:AA:34:BB:05:62:30:52:57:A0:22
            X509v3 Authority Key Identifier: 
                keyid:36:48:CC:91:59:E7:8F:3D:F0:2E:12:2E:1C:47:64:26:7B:CF:4D:54
                DirName:/C=FR/ST=idf/L=paris/O=Vitam./CN=CA_client-external
                serial:E2

            X509v3 Issuer Alternative Name: 
                <EMPTY>

            X509v3 Subject Alternative Name: 
                DNS:ingest-external.service.consul
            X509v3 Basic Constraints: critical
                CA:FALSE
            X509v3 Key Usage: 
                Digital Signature, Non Repudiation, Key Encipherment
            Netscape Cert Type: 
                SSL Client
            X509v3 Extended Key Usage: 
                TLS Web Client Authentication
    Signature Algorithm: sha256WithRSAEncryption
         9e:c7:ef:07:1d:26:72:09:f0:c0:da:5e:27:17:b2:aa:fc:9a:
         1e:b0:6c:a7:10:bc:91:dc:3d:82:4b:21:e9:a8:5b:17:0c:25:
         85:1d:28:44:f6:b1:7b:a5:c7:8e:a9:7f:b3:0e:73:9d:18:89:
         e1:5a:33:f7:65:54:de:3d:09:51:45:11:dd:aa:9f:a3:cd:45:
         02:a0:ed:b6:9c:b6:ad:b2:da:25:75:29:8b:8d:bf:28:c8:6a:
         0b:2f:41:d0:88:86:c1:be:ba:48:82:fa:34:63:2b:26:00:97:
         ec:68:8e:ad:9c:ab:ad:47:f1:09:b7:29:53:30:3c:94:ae:ce:
         fe:e3:f3:ca:9e:00:dc:a9:c5:f8:37:f5:1f:a1:71:ec:3b:fa:
         e1:ae:fb:2b:dc:50:26:fa:cd:2c:6b:ff:b8:74:a6:34:bb:3b:
         e0:9f:50:6b:36:9c:02:a0:14:ba:82:5d:77:76:f8:46:ae:97:
         54:69:a0:8b:61:eb:69:1b:94:3c:a6:fb:9e:86:5e:34:5d:47:
         e3:38:82:1a:90:78:ff:24:c0:05:4a:68:f6:4b:d0:5f:b3:5a:
         d0:7b:fc:46:4d:07:60:d0:82:75:79:24:77:25:68:be:aa:d3:
         b3:d2:02:4c:38:03:83:df:8f:de:ac:7d:30:ed:e4:cd:fd:1b:
         96:22:c2:f8:13:c1:40:be:c0:ae:af:a5:e2:9a:62:3e:18:df:
         ce:3c:3f:0b:6a:8c:d4:cc:70:0d:62:90:2c:36:af:45:e9:c9:
         cd:a5:12:48:83:63:7d:3e:f3:52:3f:2b:a5:51:d4:b0:ad:3b:
         ce:78:84:2d:43:0e:f4:bf:41:e5:c6:be:e3:fe:54:09:c1:1f:
         16:3a:16:1f:29:5c:a4:85:dd:99:54:80:07:ea:0b:66:35:a7:
         6e:b4:83:70:ee:ec:2c:c4:5e:3f:39:60:17:6f:c9:92:92:a9:
         43:b7:30:df:27:8c:49:f1:0e:7f:2c:0b:0e:72:9b:85:c2:67:
         d8:9a:64:93:1e:7e:b8:46:af:8f:43:b5:cc:39:7d:ff:b1:bc:
         0b:f2:69:78:31:ba:04:e9:68:c8:d7:4f:13:c7:51:87:82:50:
         b0:61:ae:58:1c:97:56:b3:a0:b1:df:a3:a8:b5:a0:b5:ba:ec:
         6d:b3:e1:c7:82:11:81:96:30:3b:4c:18:98:e8:d0:d4:37:d3:
         56:9e:b2:5e:f8:56:f2:5a:5c:e3:bd:5f:fb:37:df:63:f1:7b:
         d4:d3:68:28:18:31:a1:cd:e6:80:b2:59:a5:1f:43:bf:d0:ad:
         1a:9e:2a:d4:ad:a8:f7:cd:d1:2c:7d:1c:4e:88:7a:25:89:58:
         01:98:8a:af:fb:56:ce:ca
-----BEGIN CERTIFICATE-----
MIIGbDCCBFSgAwIBAgICAOUwDQYJKoZIhvcNAQELBQAwWTELMAkGA1UEBhMCRlIx
DDAKBgNVBAgMA2lkZjEOMAwGA1UEBwwFcGFyaXMxDzANBgNVBAoMBlZpdGFtLjEb
MBkGA1UEAwwSQ0FfY2xpZW50LWV4dGVybmFsMB4XDTE3MDMwNjE4MDQyMFoXDTIw
MDMwNTE4MDQyMFowTjELMAkGA1UEBhMCRlIxDDAKBgNVBAgMA2lkZjEOMAwGA1UE
BwwFcGFyaXMxDzANBgNVBAoMBlZpdGFtLjEQMA4GA1UEAwwHcmV2ZXJzZTCCAiIw
DQYJKoZIhvcNAQEBBQADggIPADCCAgoCggIBAL7agDPATg3vUPL0pFlqqholwvGf
ic8nvaBPsOBvOd2wdD2Qmson9EWckwDgGnMvgLxOAGXFi7RI+py13lWb2prl5jYH
fMxwPswj289sK9cYJIr4+WDHxHotudc74hgrcYPUCY///5xuDVnR6W0dmI0XLc39
f31vHJwUSE/qs5x/vc+4qR0cK75+A04K387tBX+K3/lwKa4pAgWXrfBiFlRJ/GS5
Tx8FDF267lKo23K8V9wg6S6xG+aYBK3MkyTZuMspIreYqfY7wmDC+KrHtRUyuYrE
vuGtJdZdZldAkFeJSmjlNdOrPDkBE63jgczzUR//57BIj9FL1uj/QMIt6Gis+Kfu
jXVYA372oqdiAWqKmFr+a7Hzc8G2CJ1uuddeHU9TwBnBlk5eOqARnkKY1or/eloy
1mmVscy9LMFYS+m2m2ZBMD6EEwooDzhqDCpXQ8cYRUCwEls2sMNDyHg97kO94Edf
sF15k3703LiXzd9xfvT3RUovzOk28vQdzMMySZGBvQp7vs2lZtm6iUr+g8J1tWzn
MYou0rqsp7QTGVMXTELXxwibl33xm3pksn3w7Jr1VLKruCbA+xuoQq1ZyykbE3Sm
bHdngT3vfHLdeoBte1CfncDVGg0/EWiaqInHxYY7uYJwE/S2d0duCzwgdTQZymDn
k2NFMeMKGzNz04KhAgMBAAGjggFHMIIBQzAkBglghkgBhvhCAQ0EFxYVQ2VydGlm
aWNhdCBDbGllbnQgU1NMMB0GA1UdDgQWBBRmmRTp0LkYgQ7TqjS7BWIwUlegIjCB
ggYDVR0jBHsweYAUNkjMkVnnjz3wLhIuHEdkJnvPTVShXaRbMFkxCzAJBgNVBAYT
AkZSMQwwCgYDVQQIDANpZGYxDjAMBgNVBAcMBXBhcmlzMQ8wDQYDVQQKDAZWaXRh
bS4xGzAZBgNVBAMMEkNBX2NsaWVudC1leHRlcm5hbIICAOIwCQYDVR0SBAIwADAp
BgNVHREEIjAggh5pbmdlc3QtZXh0ZXJuYWwuc2VydmljZS5jb25zdWwwDAYDVR0T
AQH/BAIwADALBgNVHQ8EBAMCBeAwEQYJYIZIAYb4QgEBBAQDAgeAMBMGA1UdJQQM
MAoGCCsGAQUFBwMCMA0GCSqGSIb3DQEBCwUAA4ICAQCex+8HHSZyCfDA2l4nF7Kq
/JoesGynELyR3D2CSyHpqFsXDCWFHShE9rF7pceOqX+zDnOdGInhWjP3ZVTePQlR
RRHdqp+jzUUCoO22nLatstoldSmLjb8oyGoLL0HQiIbBvrpIgvo0YysmAJfsaI6t
nKutR/EJtylTMDyUrs7+4/PKngDcqcX4N/UfoXHsO/rhrvsr3FAm+s0sa/+4dKY0
uzvgn1BrNpwCoBS6gl13dvhGrpdUaaCLYetpG5Q8pvuehl40XUfjOIIakHj/JMAF
Smj2S9Bfs1rQe/xGTQdg0IJ1eSR3JWi+qtOz0gJMOAOD34/erH0w7eTN/RuWIsL4
E8FAvsCur6XimmI+GN/OPD8LaozUzHANYpAsNq9F6cnNpRJIg2N9PvNSPyulUdSw
rTvOeIQtQw70v0Hlxr7j/lQJwR8WOhYfKVykhd2ZVIAH6gtmNadutINw7uwsxF4/
OWAXb8mSkqlDtzDfJ4xJ8Q5/LAsOcpuFwmfYmmSTHn64Rq+PQ7XMOX3/sbwL8ml4
MboE6WjI108Tx1GHglCwYa5YHJdWs6Cx36OotaC1uuxts+HHghGBljA7TBiY6NDU
N9NWnrJe+FbyWlzjvV/7N99j8XvU02goGDGhzeaAslmlH0O/0K0anirUraj3zdEs
fRxOiHoliVgBmIqv+1bOyg==
-----END CERTIFICATE-----
