Certificate:
    Data:
        Version: 3 (0x2)
        Serial Number: 207 (0xcf)
    Signature Algorithm: sha256WithRSAEncryption
        Issuer: C=fr, ST=idf, L=paris, O=vitam, OU=authorities, CN=ca_root_timestamping
        Validity
            Not Before: Oct 19 08:31:02 2018 GMT
            Not After : Oct 16 08:31:02 2028 GMT
        Subject: C=fr, ST=idf, L=paris, O=vitam, OU=authorities, CN=ca_intermediate_timestamping
        Subject Public Key Info:
            Public Key Algorithm: rsaEncryption
                Public-Key: (4096 bit)
                Modulus:
                    00:a4:03:b6:ef:3e:bb:39:5d:bb:46:19:20:36:06:
                    c0:3a:e4:d9:d8:fc:1f:f3:a5:6f:c1:30:9e:c9:02:
                    0f:5f:42:56:93:44:ab:70:d7:4d:78:da:76:01:78:
                    81:5f:14:a1:0c:c6:d9:26:84:85:5f:7a:4c:d2:3a:
                    69:9d:13:3b:f8:27:34:bc:1f:7c:8a:20:30:e6:2f:
                    2a:71:70:2f:68:33:61:a6:f5:5b:f5:6f:1b:ae:91:
                    ce:ff:67:88:ba:6e:17:4f:2f:4d:af:a6:db:99:01:
                    e6:61:81:83:17:b5:5b:fc:9e:03:e2:3f:8c:07:d6:
                    d8:fd:28:0f:5b:7e:5b:03:1b:0d:8a:d4:05:ca:f7:
                    0b:26:1e:78:dc:11:53:9f:2f:e0:75:23:83:f8:e9:
                    a8:53:9e:8c:49:3f:60:88:9f:92:c4:85:b3:f2:57:
                    13:bf:ad:12:48:5e:99:82:29:ff:2b:6f:cd:d9:b7:
                    74:dc:5c:5e:63:74:2d:60:0b:9e:3b:99:74:ec:f2:
                    3b:7c:81:45:ad:d0:fc:3a:b2:55:4c:5d:98:31:b6:
                    bf:fc:f4:12:9e:ed:11:f5:c6:ad:ae:7e:3b:cc:5e:
                    91:b2:8e:14:89:53:11:5c:a4:c7:35:a8:e9:1d:3e:
                    d5:43:53:d0:d9:25:60:6a:9b:38:2a:e1:f3:fc:ae:
                    1f:c9:7a:5e:f5:cd:f2:f5:e8:c9:f3:fd:23:35:f9:
                    73:6d:c2:e8:dc:ff:0a:3d:9d:8c:55:98:41:28:8d:
                    6e:0b:a7:08:77:b4:1e:a0:7d:00:7c:91:16:48:7e:
                    49:ab:34:de:e9:a3:2a:ab:c4:56:33:a5:c7:ce:33:
                    65:16:da:a9:1d:fe:9b:3c:51:c5:a3:9b:89:67:a1:
                    97:16:9b:7a:fa:6e:15:50:19:90:01:de:1e:93:c9:
                    06:16:03:f5:4f:e4:d9:f5:d2:75:4d:ad:fe:fa:cc:
                    ed:4e:21:07:40:44:94:a1:f0:9e:96:5f:f2:df:11:
                    49:00:ee:8a:46:1e:c0:a2:21:b3:10:bc:5b:f9:f4:
                    f1:8b:42:7c:ac:19:a0:9d:af:7f:46:b2:c4:62:86:
                    ef:68:84:7f:c0:bd:85:cd:37:78:13:e9:bc:c5:49:
                    49:d6:fb:c2:ae:f6:fb:23:f7:58:e3:0b:a6:df:ed:
                    4c:f6:ba:b3:1c:74:05:d6:d7:f5:1b:b4:c5:5e:3e:
                    e2:37:a9:c2:ca:e5:85:31:a4:55:b0:df:92:78:4b:
                    a4:45:93:3b:d1:aa:1d:ea:04:3f:16:01:57:89:ad:
                    cf:57:c9:75:d3:4a:33:89:b6:89:18:c0:8e:a7:13:
                    1d:b3:36:66:b7:bf:08:41:1c:78:4b:d6:68:39:22:
                    a2:d4:45
                Exponent: 65537 (0x10001)
        X509v3 extensions:
            Netscape Comment: 
                CA Intermediate
            X509v3 Subject Key Identifier: 
                AC:C1:D7:5A:8E:79:56:51:EC:00:1F:72:0B:C9:3F:D1:C5:5F:3D:01
            X509v3 Authority Key Identifier: 
                keyid:72:28:D6:EE:59:ED:CB:56:64:F4:15:DD:0A:32:A6:6D:C4:80:3F:08
                DirName:/C=fr/ST=idf/L=paris/O=vitam/OU=authorities/CN=ca_root_timestamping
                serial:CE

            X509v3 Basic Constraints: critical
                CA:TRUE, pathlen:0
            X509v3 Issuer Alternative Name: 
                <EMPTY>

            X509v3 Key Usage: 
                Certificate Sign, CRL Sign
            Netscape Cert Type: 
                SSL CA
    Signature Algorithm: sha256WithRSAEncryption
         0f:a8:c9:07:27:0e:e7:c0:ca:6d:5a:5e:eb:8c:49:f8:a5:66:
         29:fe:bf:cb:f0:65:c0:d8:3d:cb:24:24:90:44:20:cc:8f:0d:
         f7:41:51:97:2e:97:fa:c9:f5:06:4d:3f:85:92:e3:a0:4d:57:
         be:30:de:a2:fb:f8:d5:4c:de:7f:c9:f1:99:21:0e:26:c9:fb:
         9c:52:c0:57:d6:a8:9d:e8:b8:f5:6a:f1:3a:6b:fa:a3:dd:ec:
         16:0a:93:28:f4:a1:a5:ca:55:8d:4d:7c:80:9c:c9:fe:34:1f:
         70:60:1a:c1:9c:83:fc:55:3b:6b:9a:8e:ee:34:40:91:54:d3:
         30:fd:59:3c:a9:7e:82:0d:e8:c0:f2:04:0a:53:6e:db:dd:5f:
         5f:fd:db:f2:de:c8:90:ca:01:2c:7a:63:a4:48:0c:b3:21:7b:
         e7:fb:14:c2:d5:1a:66:43:66:d5:da:44:24:e9:5a:91:0d:3f:
         d8:96:1a:6f:f5:46:06:d3:7c:b2:f5:f6:cc:a4:bf:5b:e4:01:
         01:16:02:75:00:4e:5d:98:24:78:72:7d:fd:da:17:b9:32:10:
         68:ab:d4:a0:68:c1:c0:3a:63:6a:f5:ce:8c:b4:b1:f0:f2:4e:
         0e:fc:4a:5e:00:80:64:21:fd:75:58:35:f4:a3:24:3a:89:4b:
         1e:65:fb:8f:05:ea:ec:af:0e:b0:dc:05:c8:4f:38:61:35:01:
         e2:21:64:06:f0:09:f9:c3:47:67:33:a7:3b:a5:0b:1c:f8:35:
         96:48:16:dd:9a:c1:cf:bc:93:5e:7e:f9:48:1d:f7:b0:66:f9:
         27:bf:e7:cb:47:e0:c3:d4:4f:7d:17:be:e5:44:3c:1f:53:4e:
         9d:70:4b:a2:e2:ff:5b:a1:51:60:10:91:62:b9:8b:02:09:cf:
         07:c1:5d:d0:62:eb:43:a7:9a:bb:ef:a8:72:d9:79:82:8e:8e:
         33:fb:7b:c1:7d:9c:39:25:02:41:b7:6d:c3:0e:dd:28:71:93:
         bc:c7:a8:cb:6a:d9:2b:4c:9e:f3:fa:1d:fd:72:e4:d6:94:a0:
         e1:70:f1:26:2b:39:fe:cb:b6:76:28:5b:93:1b:13:1a:a3:d3:
         80:ad:1b:66:86:40:6f:72:ca:ca:ac:79:63:ae:98:f1:3b:fe:
         30:45:d2:5b:b7:0b:7d:a6:66:60:27:a3:c0:4d:fc:a7:71:eb:
         26:5c:77:a9:35:f5:bd:6d:e8:4d:cb:2a:59:91:8d:50:fa:38:
         e2:39:4b:a7:45:59:fb:35:0b:7c:bd:8e:d8:e9:be:94:ba:66:
         6f:5d:5c:eb:0d:bd:96:49:c4:eb:98:f4:fd:ec:e5:de:4d:4f:
         d5:cb:e7:05:e3:9d:ae:a5
-----BEGIN CERTIFICATE-----
MIIGhjCCBG6gAwIBAgICAM8wDQYJKoZIhvcNAQELBQAwcDELMAkGA1UEBhMCZnIx
DDAKBgNVBAgMA2lkZjEOMAwGA1UEBwwFcGFyaXMxDjAMBgNVBAoMBXZpdGFtMRQw
EgYDVQQLDAthdXRob3JpdGllczEdMBsGA1UEAwwUY2Ffcm9vdF90aW1lc3RhbXBp
bmcwHhcNMTgxMDE5MDgzMTAyWhcNMjgxMDE2MDgzMTAyWjB4MQswCQYDVQQGEwJm
cjEMMAoGA1UECAwDaWRmMQ4wDAYDVQQHDAVwYXJpczEOMAwGA1UECgwFdml0YW0x
FDASBgNVBAsMC2F1dGhvcml0aWVzMSUwIwYDVQQDDBxjYV9pbnRlcm1lZGlhdGVf
dGltZXN0YW1waW5nMIICIjANBgkqhkiG9w0BAQEFAAOCAg8AMIICCgKCAgEApAO2
7z67OV27RhkgNgbAOuTZ2Pwf86VvwTCeyQIPX0JWk0SrcNdNeNp2AXiBXxShDMbZ
JoSFX3pM0jppnRM7+Cc0vB98iiAw5i8qcXAvaDNhpvVb9W8brpHO/2eIum4XTy9N
r6bbmQHmYYGDF7Vb/J4D4j+MB9bY/SgPW35bAxsNitQFyvcLJh543BFTny/gdSOD
+OmoU56MST9giJ+SxIWz8lcTv60SSF6Zgin/K2/N2bd03FxeY3QtYAueO5l07PI7
fIFFrdD8OrJVTF2YMba//PQSnu0R9catrn47zF6Rso4UiVMRXKTHNajpHT7VQ1PQ
2SVgaps4KuHz/K4fyXpe9c3y9ejJ8/0jNflzbcLo3P8KPZ2MVZhBKI1uC6cId7Qe
oH0AfJEWSH5JqzTe6aMqq8RWM6XHzjNlFtqpHf6bPFHFo5uJZ6GXFpt6+m4VUBmQ
Ad4ek8kGFgP1T+TZ9dJ1Ta3++sztTiEHQESUofCell/y3xFJAO6KRh7AoiGzELxb
+fTxi0J8rBmgna9/RrLEYobvaIR/wL2FzTd4E+m8xUlJ1vvCrvb7I/dY4wum3+1M
9rqzHHQF1tf1G7TFXj7iN6nCyuWFMaRVsN+SeEukRZM70aod6gQ/FgFXia3PV8l1
00ozibaJGMCOpxMdszZmt78IQRx4S9ZoOSKi1EUCAwEAAaOCASAwggEcMB4GCWCG
SAGG+EIBDQQRFg9DQSBJbnRlcm1lZGlhdGUwHQYDVR0OBBYEFKzB11qOeVZR7AAf
cgvJP9HFXz0BMIGbBgNVHSMEgZMwgZCAFHIo1u5Z7ctWZPQV3Qoypm3EgD8IoXSk
cjBwMQswCQYDVQQGEwJmcjEMMAoGA1UECAwDaWRmMQ4wDAYDVQQHDAVwYXJpczEO
MAwGA1UECgwFdml0YW0xFDASBgNVBAsMC2F1dGhvcml0aWVzMR0wGwYDVQQDDBRj
YV9yb290X3RpbWVzdGFtcGluZ4ICAM4wEgYDVR0TAQH/BAgwBgEB/wIBADAJBgNV
HRIEAjAAMAsGA1UdDwQEAwIBBjARBglghkgBhvhCAQEEBAMCAgQwDQYJKoZIhvcN
AQELBQADggIBAA+oyQcnDufAym1aXuuMSfilZin+v8vwZcDYPcskJJBEIMyPDfdB
UZcul/rJ9QZNP4WS46BNV74w3qL7+NVM3n/J8ZkhDibJ+5xSwFfWqJ3ouPVq8Tpr
+qPd7BYKkyj0oaXKVY1NfICcyf40H3BgGsGcg/xVO2uaju40QJFU0zD9WTypfoIN
6MDyBApTbtvdX1/92/LeyJDKASx6Y6RIDLMhe+f7FMLVGmZDZtXaRCTpWpENP9iW
Gm/1RgbTfLL19sykv1vkAQEWAnUATl2YJHhyff3aF7kyEGir1KBowcA6Y2r1zoy0
sfDyTg78Sl4AgGQh/XVYNfSjJDqJSx5l+48F6uyvDrDcBchPOGE1AeIhZAbwCfnD
R2czpzulCxz4NZZIFt2awc+8k15++Ugd97Bm+Se/58tH4MPUT30XvuVEPB9TTp1w
S6Li/1uhUWAQkWK5iwIJzwfBXdBi60OnmrvvqHLZeYKOjjP7e8F9nDklAkG3bcMO
3Shxk7zHqMtq2StMnvP6Hf1y5NaUoOFw8SYrOf7LtnYoW5MbExqj04CtG2aGQG9y
ysqseWOumPE7/jBF0lu3C32mZmAno8BN/Kdx6yZcd6k19b1t6E3LKlmRjVD6OOI5
S6dFWfs1C3y9jtjpvpS6Zm9dXOsNvZZJxOuY9P3s5d5NT9XL5wXjna6l
-----END CERTIFICATE-----
