Certificate:
    Data:
        Version: 3 (0x2)
        Serial Number: 191 (0xbf)
    Signature Algorithm: sha256WithRSAEncryption
        Issuer: C=fr, ST=idf, L=paris, O=vitam, OU=authorities, CN=ca_root_timestamping
        Validity
            Not Before: Feb 21 16:35:00 2018 GMT
            Not After : Feb 19 16:35:00 2028 GMT
        Subject: C=fr, ST=idf, L=paris, O=vitam, OU=authorities, CN=ca_intermediate_timestamping
        Subject Public Key Info:
            Public Key Algorithm: rsaEncryption
                Public-Key: (4096 bit)
                Modulus:
                    00:a7:ee:7b:89:80:0a:35:8b:1e:54:c8:c7:be:66:
                    a2:c3:3f:24:d5:79:9c:e9:e6:e5:ca:7b:9b:86:0f:
                    fe:f2:14:9c:c2:a3:fc:44:24:db:b2:37:21:34:25:
                    70:14:37:31:bf:3e:42:77:f7:96:08:0f:47:11:55:
                    47:fc:ac:87:e7:00:4d:48:2c:b8:3c:22:7a:da:91:
                    e9:80:ad:47:1d:cf:40:59:7a:14:4d:a0:bf:96:d2:
                    06:a5:6d:ba:53:4c:0e:fd:f8:3c:a8:5d:39:29:6c:
                    2e:99:04:83:5d:01:73:41:3e:de:81:39:b4:54:fb:
                    c1:60:15:22:a6:4b:32:ec:25:f3:9b:e0:8a:63:e0:
                    7e:b1:37:ff:1a:60:8b:0d:fc:93:dd:83:7d:38:58:
                    9d:bd:dc:05:6e:60:d4:e9:fa:4a:05:a2:f7:54:5d:
                    8e:6f:fc:c3:67:ae:a7:ed:c1:ff:0e:29:00:25:3f:
                    57:39:e8:dc:16:e0:85:72:77:47:26:c0:c9:44:ef:
                    f8:6d:70:f8:35:fa:f2:0f:86:0a:77:52:3d:65:96:
                    74:92:b8:41:9a:98:38:5a:7e:4e:87:76:1f:9f:28:
                    1f:dd:69:3d:9b:1d:0f:45:42:15:9b:86:f0:7e:25:
                    9c:74:be:94:3f:94:be:1b:8d:1c:6f:52:85:26:85:
                    dc:a2:b4:df:6a:6e:1b:5e:2d:5b:5c:56:e7:fb:67:
                    0c:53:b6:78:ae:26:9c:f9:cd:85:af:53:63:fe:fd:
                    40:00:0d:e3:5d:39:bc:b2:04:78:a6:c7:08:a3:8f:
                    e5:60:f5:b2:26:87:48:50:f3:63:58:26:37:a4:09:
                    2c:18:9c:cb:bd:62:bf:ad:d3:26:a3:3b:69:ad:31:
                    be:9e:22:c4:dc:d4:f4:67:3c:8e:a8:d9:0b:bc:ce:
                    72:6e:6c:4a:4e:f2:3a:49:86:05:a4:c6:27:2b:da:
                    71:89:93:d4:69:01:60:6a:ba:75:d9:c9:23:05:a7:
                    41:12:83:40:92:24:ce:4d:9b:2a:b4:73:d9:73:69:
                    5e:18:01:ff:4f:77:d4:86:f5:55:9a:ca:56:e2:87:
                    2c:cd:14:18:fb:ee:55:80:4d:23:10:23:83:7d:a7:
                    69:50:03:25:9e:28:96:51:88:26:31:46:06:9c:be:
                    79:bb:6c:1e:28:f7:7f:38:f4:bb:0a:69:03:30:f2:
                    5c:20:f7:e7:1b:71:ad:1a:16:2a:00:f5:4c:bd:8d:
                    60:e0:4e:a5:e8:8c:3e:98:da:f2:06:6a:b8:d3:52:
                    1c:a4:9f:e1:d7:fb:18:83:15:73:46:6d:d8:d7:17:
                    53:be:0a:6f:dc:54:bf:cb:d1:28:1b:ac:57:3e:bf:
                    d1:2c:97
                Exponent: 65537 (0x10001)
        X509v3 extensions:
            Netscape Comment: 
                CA Intermediate
            X509v3 Subject Key Identifier: 
                07:35:29:89:FC:00:1B:67:2B:9F:B7:3A:46:B6:0F:6E:9E:B8:37:2B
            X509v3 Authority Key Identifier: 
                keyid:08:A7:58:C8:54:E1:AC:00:93:5F:79:2C:47:84:12:53:2B:BD:FD:C3
                DirName:/C=fr/ST=idf/L=paris/O=vitam/OU=authorities/CN=ca_root_timestamping
                serial:BE

            X509v3 Basic Constraints: critical
                CA:TRUE, pathlen:0
            X509v3 Issuer Alternative Name: 
                <EMPTY>

            X509v3 Key Usage: 
                Certificate Sign, CRL Sign
            Netscape Cert Type: 
                SSL CA
    Signature Algorithm: sha256WithRSAEncryption
         66:04:ad:22:a9:b3:5f:9c:c3:33:d9:a3:f7:6a:70:bf:8f:fc:
         f1:97:fc:97:07:ca:e0:02:f2:19:01:b7:bf:1d:6f:c3:6d:b1:
         41:7f:49:f6:44:2d:a6:43:5f:57:20:07:2c:99:f2:aa:cf:e9:
         08:77:7b:cc:e7:bd:3c:ee:17:6e:7e:a0:94:75:b0:63:a4:78:
         df:5a:c4:90:92:02:bf:bc:40:d1:00:1f:b5:8f:3d:eb:bc:3d:
         4d:60:04:f5:66:5a:2b:80:51:e5:1a:ab:b7:39:fd:37:5a:c9:
         45:62:54:51:eb:a5:4a:7b:b7:30:08:10:be:dd:88:73:d8:6b:
         12:2a:bb:5c:1d:69:b9:b4:1c:61:fd:96:c9:40:0d:4b:8c:69:
         33:68:b9:03:37:c3:3f:5b:e5:fb:bd:ff:9e:93:db:a5:1f:83:
         f9:e1:4a:66:62:58:9c:3f:c1:8a:6e:a6:3b:12:d6:1a:eb:2c:
         43:04:e7:5f:1e:2e:45:26:ab:80:44:f0:8b:40:d7:39:2d:8b:
         b1:8b:82:a5:83:b1:df:32:9f:ae:4e:89:b2:07:72:41:a0:4c:
         a6:6e:e0:97:cd:55:02:07:d4:81:ef:c9:eb:f7:e3:3c:22:16:
         c8:f9:cd:75:d4:bd:45:b1:fb:c3:3d:bf:3b:da:0c:25:20:e4:
         67:bf:b2:7f:03:35:1a:f6:9e:1f:26:63:8e:de:11:cb:d4:21:
         44:28:12:17:02:b0:c6:48:fd:85:e9:20:ab:46:51:09:f2:5c:
         be:3f:48:2f:34:64:13:0a:6b:7b:e1:83:cd:32:06:3f:9d:09:
         d8:fd:47:05:2e:fc:ec:bd:2e:6c:ca:6e:8e:34:62:f9:7f:d1:
         17:70:df:80:97:ef:f6:23:ad:0a:48:04:05:cf:95:8e:79:0e:
         60:71:ed:e7:b7:c8:3a:80:fe:be:27:e2:ed:d0:11:bc:f9:d0:
         3f:10:76:02:ba:4b:79:e6:16:50:af:bd:ea:2a:6d:d9:01:4f:
         61:08:5f:00:97:f3:31:1b:83:e1:00:59:f5:f5:3c:e0:6d:51:
         eb:6c:ba:7c:38:33:f9:ca:97:ea:4b:65:b8:72:94:3f:36:c8:
         fc:13:bb:7b:e6:68:3b:7e:b6:13:74:b0:27:05:92:8a:50:df:
         3d:ab:f4:fa:60:05:c4:c4:f8:07:5e:b5:f8:33:11:df:15:6d:
         5e:29:c0:b8:cb:eb:dc:e5:ca:f1:41:23:a3:0b:80:48:c5:62:
         83:38:12:a9:d3:06:de:b4:21:a5:5a:1d:f2:1d:1f:85:d3:89:
         09:d3:5a:09:29:fd:19:5a:8a:dd:cc:19:a9:79:6b:77:92:0a:
         b0:90:38:41:c9:9f:90:64
-----BEGIN CERTIFICATE-----
MIIGhjCCBG6gAwIBAgICAL8wDQYJKoZIhvcNAQELBQAwcDELMAkGA1UEBhMCZnIx
DDAKBgNVBAgMA2lkZjEOMAwGA1UEBwwFcGFyaXMxDjAMBgNVBAoMBXZpdGFtMRQw
EgYDVQQLDAthdXRob3JpdGllczEdMBsGA1UEAwwUY2Ffcm9vdF90aW1lc3RhbXBp
bmcwHhcNMTgwMjIxMTYzNTAwWhcNMjgwMjE5MTYzNTAwWjB4MQswCQYDVQQGEwJm
cjEMMAoGA1UECAwDaWRmMQ4wDAYDVQQHDAVwYXJpczEOMAwGA1UECgwFdml0YW0x
FDASBgNVBAsMC2F1dGhvcml0aWVzMSUwIwYDVQQDDBxjYV9pbnRlcm1lZGlhdGVf
dGltZXN0YW1waW5nMIICIjANBgkqhkiG9w0BAQEFAAOCAg8AMIICCgKCAgEAp+57
iYAKNYseVMjHvmaiwz8k1Xmc6eblynubhg/+8hScwqP8RCTbsjchNCVwFDcxvz5C
d/eWCA9HEVVH/KyH5wBNSCy4PCJ62pHpgK1HHc9AWXoUTaC/ltIGpW26U0wO/fg8
qF05KWwumQSDXQFzQT7egTm0VPvBYBUipksy7CXzm+CKY+B+sTf/GmCLDfyT3YN9
OFidvdwFbmDU6fpKBaL3VF2Ob/zDZ66n7cH/DikAJT9XOejcFuCFcndHJsDJRO/4
bXD4NfryD4YKd1I9ZZZ0krhBmpg4Wn5Oh3Yfnygf3Wk9mx0PRUIVm4bwfiWcdL6U
P5S+G40cb1KFJoXcorTfam4bXi1bXFbn+2cMU7Z4riac+c2Fr1Nj/v1AAA3jXTm8
sgR4pscIo4/lYPWyJodIUPNjWCY3pAksGJzLvWK/rdMmoztprTG+niLE3NT0ZzyO
qNkLvM5ybmxKTvI6SYYFpMYnK9pxiZPUaQFgarp12ckjBadBEoNAkiTOTZsqtHPZ
c2leGAH/T3fUhvVVmspW4ocszRQY++5VgE0jECODfadpUAMlniiWUYgmMUYGnL55
u2weKPd/OPS7CmkDMPJcIPfnG3GtGhYqAPVMvY1g4E6l6Iw+mNryBmq401IcpJ/h
1/sYgxVzRm3Y1xdTvgpv3FS/y9EoG6xXPr/RLJcCAwEAAaOCASAwggEcMB4GCWCG
SAGG+EIBDQQRFg9DQSBJbnRlcm1lZGlhdGUwHQYDVR0OBBYEFAc1KYn8ABtnK5+3
Oka2D26euDcrMIGbBgNVHSMEgZMwgZCAFAinWMhU4awAk195LEeEElMrvf3DoXSk
cjBwMQswCQYDVQQGEwJmcjEMMAoGA1UECAwDaWRmMQ4wDAYDVQQHDAVwYXJpczEO
MAwGA1UECgwFdml0YW0xFDASBgNVBAsMC2F1dGhvcml0aWVzMR0wGwYDVQQDDBRj
YV9yb290X3RpbWVzdGFtcGluZ4ICAL4wEgYDVR0TAQH/BAgwBgEB/wIBADAJBgNV
HRIEAjAAMAsGA1UdDwQEAwIBBjARBglghkgBhvhCAQEEBAMCAgQwDQYJKoZIhvcN
AQELBQADggIBAGYErSKps1+cwzPZo/dqcL+P/PGX/JcHyuAC8hkBt78db8NtsUF/
SfZELaZDX1cgByyZ8qrP6Qh3e8znvTzuF25+oJR1sGOkeN9axJCSAr+8QNEAH7WP
Peu8PU1gBPVmWiuAUeUaq7c5/TdayUViVFHrpUp7tzAIEL7diHPYaxIqu1wdabm0
HGH9lslADUuMaTNouQM3wz9b5fu9/56T26Ufg/nhSmZiWJw/wYpupjsS1hrrLEME
518eLkUmq4BE8ItA1zkti7GLgqWDsd8yn65OibIHckGgTKZu4JfNVQIH1IHvyev3
4zwiFsj5zXXUvUWx+8M9vzvaDCUg5Ge/sn8DNRr2nh8mY47eEcvUIUQoEhcCsMZI
/YXpIKtGUQnyXL4/SC80ZBMKa3vhg80yBj+dCdj9RwUu/Oy9LmzKbo40Yvl/0Rdw
34CX7/YjrQpIBAXPlY55DmBx7ee3yDqA/r4n4u3QEbz50D8QdgK6S3nmFlCvveoq
bdkBT2EIXwCX8zEbg+EAWfX1POBtUetsunw4M/nKl+pLZbhylD82yPwTu3vmaDt+
thN0sCcFkopQ3z2r9PpgBcTE+AdetfgzEd8VbV4pwLjL69zlyvFBI6MLgEjFYoM4
EqnTBt60IaVaHfIdH4XTiQnTWgkp/Rlait3MGal5a3eSCrCQOEHJn5Bk
-----END CERTIFICATE-----
