Certificate:
    Data:
        Version: 3 (0x2)
        Serial Number: 182 (0xb6)
    Signature Algorithm: sha256WithRSAEncryption
        Issuer: C=fr, ST=idf, L=paris, O=vitam, OU=authorities, CN=ca_root_timestamping
        Validity
            Not Before: Jul 12 14:29:07 2017 GMT
            Not After : Jul 10 14:29:07 2027 GMT
        Subject: C=fr, ST=idf, L=paris, O=vitam, OU=authorities, CN=ca_intermediate_timestamping
        Subject Public Key Info:
            Public Key Algorithm: rsaEncryption
                Public-Key: (4096 bit)
                Modulus:
                    00:a9:ed:5e:6b:1e:df:86:3c:44:12:d7:d0:d3:86:
                    b5:34:91:89:02:b0:cb:18:e1:78:60:96:44:96:ff:
                    aa:59:61:1f:37:81:28:d3:a7:a9:2b:8a:71:a0:81:
                    49:5d:87:09:a1:6d:31:07:6b:24:8d:e6:95:63:1d:
                    82:72:fc:f1:92:b6:72:34:ec:0b:48:0f:8c:bc:c8:
                    63:d4:93:dc:14:cc:d1:dc:c5:a4:1f:69:8a:7f:5a:
                    41:e2:5e:90:60:7d:05:51:7d:fb:9e:13:f3:70:d9:
                    a6:a5:76:c5:5e:72:ca:27:ff:46:16:1d:e5:6b:e9:
                    e5:c0:5a:a9:b3:02:83:2a:b5:bc:4a:cf:b2:84:02:
                    fa:e1:e6:5f:06:ec:d7:80:28:fb:fa:50:ee:78:54:
                    e0:39:7f:30:c9:a3:ce:b8:27:b1:98:ae:46:e7:bc:
                    44:24:63:0e:81:09:cf:c7:a1:2d:31:b8:36:f5:a4:
                    21:f2:b6:70:ef:c8:a8:ac:c2:97:10:e8:82:f0:f0:
                    9f:05:c8:f8:f5:52:38:6f:37:4c:07:1a:ce:78:9a:
                    c2:54:ae:75:c4:c9:4a:77:fb:31:1a:d1:09:4f:fe:
                    08:3d:b6:1f:3b:94:00:2b:4b:b4:ba:1d:01:96:f8:
                    dc:67:e0:70:2a:16:ed:a9:a3:fe:3e:41:51:8c:52:
                    a4:cc:e4:a4:58:e0:77:17:35:6a:24:a9:e9:9b:de:
                    31:e4:57:60:16:e1:06:29:46:fa:b5:49:bb:25:e4:
                    2b:14:d7:96:34:f5:7b:03:2a:a3:40:8e:d5:b5:30:
                    2b:74:f3:9c:b4:2c:27:74:07:61:3d:54:85:f1:db:
                    d3:49:19:ae:b9:b5:6f:c7:01:14:45:ea:79:54:20:
                    c3:ab:a0:01:60:bb:db:c3:63:be:c9:b7:e1:64:ac:
                    d2:28:6b:88:11:e0:0f:2c:1a:90:da:60:5b:99:3c:
                    9d:3c:db:18:06:00:68:ea:e5:fe:1d:2a:5d:94:33:
                    8e:9b:fe:c9:3f:df:48:2d:8b:21:f2:8a:0e:26:85:
                    e6:d6:16:e7:27:92:a0:78:31:8c:d0:8d:1b:7c:34:
                    4f:29:44:36:ba:91:9d:2b:e6:c2:9a:7d:8b:57:f1:
                    a4:69:e4:73:a8:61:e8:9f:b0:3c:a0:c7:86:77:59:
                    06:8d:76:29:65:fd:07:cd:09:b6:6b:c9:85:df:89:
                    44:ea:55:81:02:e5:83:76:41:25:e3:a8:d2:d8:93:
                    5e:d3:5a:13:a2:f0:a3:53:48:2f:31:e5:d2:38:b3:
                    18:7c:bd:6b:71:85:95:26:ba:1a:f9:af:53:f6:95:
                    0b:2d:a9:02:19:47:f9:56:8d:d2:63:0d:54:1c:57:
                    1d:ca:85
                Exponent: 65537 (0x10001)
        X509v3 extensions:
            Netscape Comment: 
                CA Intermediate
            X509v3 Subject Key Identifier: 
                1A:93:4A:62:72:BF:2D:30:60:A7:80:B7:D4:2A:E8:A4:B0:85:DC:C7
            X509v3 Authority Key Identifier: 
                keyid:9E:A0:63:21:51:E3:D7:E5:30:98:D3:C7:B3:36:29:96:DA:A1:F5:01
                DirName:/C=fr/ST=idf/L=paris/O=vitam/OU=authorities/CN=ca_root_timestamping
                serial:B5

            X509v3 Basic Constraints: critical
                CA:TRUE, pathlen:0
            X509v3 Issuer Alternative Name: 
                <EMPTY>

            X509v3 Key Usage: 
                Certificate Sign, CRL Sign
            Netscape Cert Type: 
                SSL CA
    Signature Algorithm: sha256WithRSAEncryption
         c7:f9:4a:e3:41:4d:69:50:d7:c6:a7:c2:cf:2c:93:cb:db:2c:
         87:07:44:f1:83:ce:8a:09:93:ee:03:6d:1c:19:73:4c:bd:02:
         d8:f4:d3:ce:ea:7f:9c:38:02:9b:18:3a:c7:21:e6:95:86:7d:
         3f:89:31:24:20:0f:3d:da:bf:d5:3b:66:12:95:5c:ad:ae:e7:
         6e:11:57:59:52:30:aa:c0:0c:7a:e1:fb:8d:6a:5d:63:36:93:
         b4:e8:61:a1:fb:80:0b:e2:da:43:0f:8f:e7:68:b2:a8:23:3e:
         d2:74:67:da:89:6a:32:37:06:b6:01:a1:ef:ca:17:51:b6:a2:
         7a:d6:de:84:59:94:7f:a0:29:f8:bf:ab:05:9d:8e:56:8b:dc:
         c9:0b:d0:68:87:54:77:a8:da:48:20:92:8b:4f:63:80:92:a3:
         72:b6:f0:91:af:7d:45:1f:ab:da:5f:11:9b:6b:35:f1:7e:71:
         c0:de:2f:d6:c2:85:6b:8f:cb:7b:31:be:e7:f5:e7:ac:f3:7d:
         d5:ab:83:0b:04:9e:e8:86:f3:e7:06:53:d6:0f:31:b9:d1:94:
         e7:ba:84:fe:a3:14:66:60:7e:0a:a7:74:e2:d4:b9:8e:d8:1b:
         f2:c4:61:ca:68:c4:53:18:bf:84:e3:bd:05:c2:11:f7:7b:52:
         9d:6d:8e:45:27:73:e2:90:c5:d9:0f:0a:65:a6:7f:13:5f:4a:
         d4:ed:d4:b9:70:b5:a6:ad:ba:36:f2:48:d8:66:f1:80:2c:88:
         b6:55:9d:c6:7d:c2:66:c0:aa:37:24:8e:c9:63:70:aa:95:e7:
         fb:27:ae:a4:68:65:6e:51:25:2c:32:69:98:02:a1:19:02:77:
         2a:c3:40:76:08:1a:15:4b:78:7a:e1:f1:89:4c:d8:8a:c6:d5:
         58:84:99:0f:19:cd:74:87:ae:ba:f7:48:73:4b:2d:af:62:e7:
         db:3b:56:08:38:85:5b:5f:8d:a7:ba:96:43:01:e1:fb:87:bd:
         e1:83:76:fd:14:f6:01:5a:d7:24:0c:90:fe:b9:00:07:04:76:
         4e:d9:53:53:e4:c4:28:41:30:78:c2:7e:89:37:b5:36:d3:28:
         07:1f:7d:a8:fa:f9:44:5d:d5:a1:0c:6b:83:72:fc:1d:2c:13:
         4f:2e:60:94:39:24:c1:23:89:70:09:09:cf:86:2d:cf:b9:9d:
         bd:f2:9d:69:c4:c5:08:76:52:35:87:b0:9f:f1:dc:27:49:ea:
         87:4a:f3:05:e2:ba:e2:f9:da:4a:bf:fe:57:74:d1:15:18:87:
         d8:4d:f3:99:86:ad:f8:4c:05:d5:b2:7d:e3:59:ce:f2:a9:be:
         0b:9c:6b:ec:30:36:4c:98
-----BEGIN CERTIFICATE-----
MIIGhjCCBG6gAwIBAgICALYwDQYJKoZIhvcNAQELBQAwcDELMAkGA1UEBhMCZnIx
DDAKBgNVBAgMA2lkZjEOMAwGA1UEBwwFcGFyaXMxDjAMBgNVBAoMBXZpdGFtMRQw
EgYDVQQLDAthdXRob3JpdGllczEdMBsGA1UEAwwUY2Ffcm9vdF90aW1lc3RhbXBp
bmcwHhcNMTcwNzEyMTQyOTA3WhcNMjcwNzEwMTQyOTA3WjB4MQswCQYDVQQGEwJm
cjEMMAoGA1UECAwDaWRmMQ4wDAYDVQQHDAVwYXJpczEOMAwGA1UECgwFdml0YW0x
FDASBgNVBAsMC2F1dGhvcml0aWVzMSUwIwYDVQQDDBxjYV9pbnRlcm1lZGlhdGVf
dGltZXN0YW1waW5nMIICIjANBgkqhkiG9w0BAQEFAAOCAg8AMIICCgKCAgEAqe1e
ax7fhjxEEtfQ04a1NJGJArDLGOF4YJZElv+qWWEfN4Eo06epK4pxoIFJXYcJoW0x
B2skjeaVYx2CcvzxkrZyNOwLSA+MvMhj1JPcFMzR3MWkH2mKf1pB4l6QYH0FUX37
nhPzcNmmpXbFXnLKJ/9GFh3la+nlwFqpswKDKrW8Ss+yhAL64eZfBuzXgCj7+lDu
eFTgOX8wyaPOuCexmK5G57xEJGMOgQnPx6EtMbg29aQh8rZw78iorMKXEOiC8PCf
Bcj49VI4bzdMBxrOeJrCVK51xMlKd/sxGtEJT/4IPbYfO5QAK0u0uh0BlvjcZ+Bw
KhbtqaP+PkFRjFKkzOSkWOB3FzVqJKnpm94x5FdgFuEGKUb6tUm7JeQrFNeWNPV7
AyqjQI7VtTArdPOctCwndAdhPVSF8dvTSRmuubVvxwEURep5VCDDq6ABYLvbw2O+
ybfhZKzSKGuIEeAPLBqQ2mBbmTydPNsYBgBo6uX+HSpdlDOOm/7JP99ILYsh8ooO
JoXm1hbnJ5KgeDGM0I0bfDRPKUQ2upGdK+bCmn2LV/GkaeRzqGHon7A8oMeGd1kG
jXYpZf0HzQm2a8mF34lE6lWBAuWDdkEl46jS2JNe01oTovCjU0gvMeXSOLMYfL1r
cYWVJroa+a9T9pULLakCGUf5Vo3SYw1UHFcdyoUCAwEAAaOCASAwggEcMB4GCWCG
SAGG+EIBDQQRFg9DQSBJbnRlcm1lZGlhdGUwHQYDVR0OBBYEFBqTSmJyvy0wYKeA
t9Qq6KSwhdzHMIGbBgNVHSMEgZMwgZCAFJ6gYyFR49flMJjTx7M2KZbaofUBoXSk
cjBwMQswCQYDVQQGEwJmcjEMMAoGA1UECAwDaWRmMQ4wDAYDVQQHDAVwYXJpczEO
MAwGA1UECgwFdml0YW0xFDASBgNVBAsMC2F1dGhvcml0aWVzMR0wGwYDVQQDDBRj
YV9yb290X3RpbWVzdGFtcGluZ4ICALUwEgYDVR0TAQH/BAgwBgEB/wIBADAJBgNV
HRIEAjAAMAsGA1UdDwQEAwIBBjARBglghkgBhvhCAQEEBAMCAgQwDQYJKoZIhvcN
AQELBQADggIBAMf5SuNBTWlQ18anws8sk8vbLIcHRPGDzooJk+4DbRwZc0y9Atj0
087qf5w4ApsYOsch5pWGfT+JMSQgDz3av9U7ZhKVXK2u524RV1lSMKrADHrh+41q
XWM2k7ToYaH7gAvi2kMPj+dosqgjPtJ0Z9qJajI3BrYBoe/KF1G2onrW3oRZlH+g
Kfi/qwWdjlaL3MkL0GiHVHeo2kggkotPY4CSo3K28JGvfUUfq9pfEZtrNfF+ccDe
L9bChWuPy3sxvuf156zzfdWrgwsEnuiG8+cGU9YPMbnRlOe6hP6jFGZgfgqndOLU
uY7YG/LEYcpoxFMYv4TjvQXCEfd7Up1tjkUnc+KQxdkPCmWmfxNfStTt1Llwtaat
ujbySNhm8YAsiLZVncZ9wmbAqjckjsljcKqV5/snrqRoZW5RJSwyaZgCoRkCdyrD
QHYIGhVLeHrh8YlM2IrG1ViEmQ8ZzXSHrrr3SHNLLa9i59s7Vgg4hVtfjae6lkMB
4fuHveGDdv0U9gFa1yQMkP65AAcEdk7ZU1PkxChBMHjCfok3tTbTKAcffaj6+URd
1aEMa4Ny/B0sE08uYJQ5JMEjiXAJCc+GLc+5nb3ynWnExQh2UjWHsJ/x3CdJ6odK
8wXiuuL52kq//ld00RUYh9hN85mGrfhMBdWyfeNZzvKpvguca+wwNkyY
-----END CERTIFICATE-----
