Certificate:
    Data:
        Version: 3 (0x2)
        Serial Number: 206 (0xce)
    Signature Algorithm: sha256WithRSAEncryption
        Issuer: C=fr, ST=idf, L=paris, O=vitam, OU=authorities, CN=ca_root_timestamping
        Validity
            Not Before: Oct 19 08:31:01 2018 GMT
            Not After : Oct 16 08:31:01 2028 GMT
        Subject: C=fr, ST=idf, L=paris, O=vitam, OU=authorities, CN=ca_root_timestamping
        Subject Public Key Info:
            Public Key Algorithm: rsaEncryption
                Public-Key: (4096 bit)
                Modulus:
                    00:9a:c2:18:bc:46:8e:33:ff:e3:12:da:09:3a:fe:
                    22:a1:5c:7c:af:91:36:b8:80:cd:1b:7e:69:4e:80:
                    f5:3c:a7:79:5d:a7:a7:08:0f:e4:8d:c5:06:71:4c:
                    76:2e:ac:22:27:ad:17:7b:3f:94:9c:37:dc:c4:b5:
                    1d:33:b8:30:73:e7:bb:35:c7:56:42:9c:44:f4:a7:
                    49:e5:3e:6f:0b:82:8b:39:6a:f5:77:41:ec:93:9d:
                    84:4f:b6:08:31:c8:20:d7:42:a6:f6:f5:d6:db:cf:
                    96:46:02:65:17:1f:60:f5:d8:6c:29:ae:6b:8b:fe:
                    2e:32:61:de:31:67:0e:4b:51:da:38:65:5d:bd:de:
                    0b:18:4f:16:74:16:cb:00:46:12:96:0c:12:01:72:
                    25:69:77:99:a9:06:98:1f:a4:8e:f8:a1:a8:06:d2:
                    0e:e7:dc:83:a0:7b:e7:99:31:4e:b5:2e:f0:2d:8b:
                    56:2a:bd:dc:3e:68:70:1c:3f:e8:6e:13:ed:56:c3:
                    4c:ce:72:c5:7c:c6:fa:39:54:bb:30:62:a3:8c:f9:
                    97:ae:46:cf:a1:59:cc:70:29:9b:11:cd:3f:75:0b:
                    30:04:68:29:ab:c2:cf:81:d0:68:e2:8f:a8:ba:13:
                    77:04:d1:f4:cb:10:52:76:2c:28:0b:ef:14:b7:84:
                    7f:be:27:8b:da:2c:d9:9c:2f:ca:3b:f8:df:c6:ae:
                    6d:04:35:5e:81:39:5f:e5:39:37:11:b0:74:82:88:
                    7d:ce:91:cf:d4:b5:72:a1:ce:7b:7c:cb:1e:6a:02:
                    02:07:45:44:4f:6c:76:ab:a5:3e:7a:0d:62:d6:02:
                    40:24:b4:27:9f:7e:cd:a5:b2:5c:82:ad:9c:84:13:
                    55:42:dc:3d:40:1f:02:2a:a0:83:a3:2b:97:8b:5c:
                    0d:cb:cc:61:f4:af:10:f2:29:4c:7b:09:cf:ac:01:
                    be:5f:19:0b:7f:41:bf:9a:69:02:53:6f:e1:ca:ea:
                    d3:46:ea:9b:be:9c:ed:d9:f9:b1:82:fa:c6:40:75:
                    91:c9:a3:19:99:e5:cb:80:66:3a:40:30:14:1a:d4:
                    f1:b0:b9:cc:cf:01:ba:89:fb:58:1f:49:76:7a:92:
                    96:e7:30:ba:fe:2c:f8:bc:d1:52:b1:b1:db:7f:47:
                    92:c8:46:bf:61:05:d1:65:49:ed:0c:f1:67:4c:e6:
                    0d:08:b7:df:58:77:46:4e:74:a4:20:41:cd:44:31:
                    e2:42:e2:da:75:58:39:37:33:ec:0c:52:23:49:9f:
                    a6:96:0f:78:cf:67:e2:1d:f5:58:89:fa:6e:75:84:
                    64:5a:c3:ae:2f:36:68:5c:5d:5c:57:c6:e5:9f:57:
                    41:38:2b
                Exponent: 65537 (0x10001)
        X509v3 extensions:
            Netscape Comment: 
                CA Root
            X509v3 Subject Key Identifier: 
                72:28:D6:EE:59:ED:CB:56:64:F4:15:DD:0A:32:A6:6D:C4:80:3F:08
            X509v3 Authority Key Identifier: 
                keyid:72:28:D6:EE:59:ED:CB:56:64:F4:15:DD:0A:32:A6:6D:C4:80:3F:08

            X509v3 Basic Constraints: critical
                CA:TRUE, pathlen:1
            X509v3 Key Usage: 
                Certificate Sign, CRL Sign
            Netscape Cert Type: 
                SSL CA
    Signature Algorithm: sha256WithRSAEncryption
         2b:68:19:0d:60:48:d4:dd:24:a0:54:ff:80:23:12:74:98:62:
         cf:4d:49:f8:d7:ef:45:24:d7:8e:08:da:cc:3e:b9:ab:c3:64:
         62:55:74:24:63:1d:28:3f:d0:65:7e:4b:e6:72:fc:3d:d2:77:
         43:e3:6a:62:9d:e3:38:8e:46:68:c7:c7:d8:82:c6:f6:fa:19:
         33:5e:09:49:ee:04:5b:e2:0a:72:a3:d7:f6:97:97:63:a2:0f:
         56:60:69:07:aa:d4:95:1b:d2:b1:37:a0:ab:b7:14:16:bc:fa:
         a9:f2:e8:64:24:4e:c4:f4:76:95:36:fa:48:bd:88:56:8b:5e:
         52:89:47:ab:9a:ec:e5:2c:19:82:1e:9a:9e:d5:6c:de:8f:1f:
         cd:b5:61:a5:d6:23:f0:28:2c:8d:b8:28:70:6e:ff:94:08:52:
         58:6a:45:07:d2:2e:f8:8d:6c:3d:ef:2e:21:87:cf:46:9a:36:
         4d:e3:cf:a3:25:2c:03:91:04:20:da:73:b2:ac:55:13:35:21:
         cb:be:ce:3d:4a:5a:4c:4b:6f:3e:e9:d4:2a:96:fa:33:cb:0e:
         41:72:46:dc:dd:23:21:d6:91:2a:71:4d:a2:d4:a1:34:f1:05:
         75:35:bc:6d:a0:74:f0:b6:16:fd:f6:3a:da:cd:dc:c9:89:c7:
         4e:bf:07:62:94:aa:0f:a3:49:1c:6b:5f:36:41:4f:84:6e:97:
         72:76:d6:bf:3d:3c:35:6f:20:ee:d2:ae:de:3f:e4:e5:b8:f6:
         21:91:69:92:fc:3e:ee:76:ff:ab:b9:ac:3f:0c:f0:66:41:7a:
         8d:1d:88:71:47:c5:97:a8:9d:23:69:1d:37:09:2f:04:da:1b:
         d1:10:65:84:57:9e:29:4a:67:94:ac:07:3c:78:1f:16:d7:e2:
         4a:e8:86:e2:8b:df:ec:4b:98:46:31:34:46:3c:29:7d:9c:45:
         47:81:23:98:11:c3:cd:45:1a:41:df:bb:d6:5c:69:73:9f:ce:
         8e:48:27:cd:22:ac:c7:10:cf:86:d7:f2:d8:cf:d0:8c:e4:a0:
         86:07:2c:53:26:2f:12:6e:b9:c8:50:e6:67:a9:b3:68:85:e0:
         44:f2:42:62:b4:13:32:8b:fb:15:ea:d3:a8:69:95:95:f6:01:
         30:66:f3:65:e3:98:e6:f9:11:e1:2b:8d:23:88:82:47:97:53:
         74:88:4e:9d:e4:29:0e:71:40:c8:40:d1:d2:47:0d:71:98:11:
         22:59:df:f2:b6:3c:fc:d5:88:7b:64:98:4f:e3:58:51:2a:54:
         42:f9:fc:19:99:8a:3d:8d:ec:35:78:70:8b:81:2b:57:2b:84:
         11:59:bc:1d:6d:b7:fd:0d
-----BEGIN CERTIFICATE-----
MIIF7DCCA9SgAwIBAgICAM4wDQYJKoZIhvcNAQELBQAwcDELMAkGA1UEBhMCZnIx
DDAKBgNVBAgMA2lkZjEOMAwGA1UEBwwFcGFyaXMxDjAMBgNVBAoMBXZpdGFtMRQw
EgYDVQQLDAthdXRob3JpdGllczEdMBsGA1UEAwwUY2Ffcm9vdF90aW1lc3RhbXBp
bmcwHhcNMTgxMDE5MDgzMTAxWhcNMjgxMDE2MDgzMTAxWjBwMQswCQYDVQQGEwJm
cjEMMAoGA1UECAwDaWRmMQ4wDAYDVQQHDAVwYXJpczEOMAwGA1UECgwFdml0YW0x
FDASBgNVBAsMC2F1dGhvcml0aWVzMR0wGwYDVQQDDBRjYV9yb290X3RpbWVzdGFt
cGluZzCCAiIwDQYJKoZIhvcNAQEBBQADggIPADCCAgoCggIBAJrCGLxGjjP/4xLa
CTr+IqFcfK+RNriAzRt+aU6A9TyneV2npwgP5I3FBnFMdi6sIietF3s/lJw33MS1
HTO4MHPnuzXHVkKcRPSnSeU+bwuCizlq9XdB7JOdhE+2CDHIINdCpvb11tvPlkYC
ZRcfYPXYbCmua4v+LjJh3jFnDktR2jhlXb3eCxhPFnQWywBGEpYMEgFyJWl3makG
mB+kjvihqAbSDufcg6B755kxTrUu8C2LViq93D5ocBw/6G4T7VbDTM5yxXzG+jlU
uzBio4z5l65Gz6FZzHApmxHNP3ULMARoKavCz4HQaOKPqLoTdwTR9MsQUnYsKAvv
FLeEf74ni9os2Zwvyjv438aubQQ1XoE5X+U5NxGwdIKIfc6Rz9S1cqHOe3zLHmoC
AgdFRE9sdqulPnoNYtYCQCS0J59+zaWyXIKtnIQTVULcPUAfAiqgg6Mrl4tcDcvM
YfSvEPIpTHsJz6wBvl8ZC39Bv5ppAlNv4crq00bqm76c7dn5sYL6xkB1kcmjGZnl
y4BmOkAwFBrU8bC5zM8Buon7WB9JdnqSlucwuv4s+LzRUrGx239HkshGv2EF0WVJ
7QzxZ0zmDQi331h3Rk50pCBBzUQx4kLi2nVYOTcz7AxSI0mfppYPeM9n4h31WIn6
bnWEZFrDri82aFxdXFfG5Z9XQTgrAgMBAAGjgY8wgYwwFgYJYIZIAYb4QgENBAkW
B0NBIFJvb3QwHQYDVR0OBBYEFHIo1u5Z7ctWZPQV3Qoypm3EgD8IMB8GA1UdIwQY
MBaAFHIo1u5Z7ctWZPQV3Qoypm3EgD8IMBIGA1UdEwEB/wQIMAYBAf8CAQEwCwYD
VR0PBAQDAgEGMBEGCWCGSAGG+EIBAQQEAwICBDANBgkqhkiG9w0BAQsFAAOCAgEA
K2gZDWBI1N0koFT/gCMSdJhiz01J+NfvRSTXjgjazD65q8NkYlV0JGMdKD/QZX5L
5nL8PdJ3Q+NqYp3jOI5GaMfH2ILG9voZM14JSe4EW+IKcqPX9peXY6IPVmBpB6rU
lRvSsTegq7cUFrz6qfLoZCROxPR2lTb6SL2IVoteUolHq5rs5SwZgh6antVs3o8f
zbVhpdYj8CgsjbgocG7/lAhSWGpFB9Iu+I1sPe8uIYfPRpo2TePPoyUsA5EEINpz
sqxVEzUhy77OPUpaTEtvPunUKpb6M8sOQXJG3N0jIdaRKnFNotShNPEFdTW8baB0
8LYW/fY62s3cyYnHTr8HYpSqD6NJHGtfNkFPhG6XcnbWvz08NW8g7tKu3j/k5bj2
IZFpkvw+7nb/q7msPwzwZkF6jR2IcUfFl6idI2kdNwkvBNob0RBlhFeeKUpnlKwH
PHgfFtfiSuiG4ovf7EuYRjE0RjwpfZxFR4EjmBHDzUUaQd+71lxpc5/OjkgnzSKs
xxDPhtfy2M/QjOSghgcsUyYvEm65yFDmZ6mzaIXgRPJCYrQTMov7FerTqGmVlfYB
MGbzZeOY5vkR4SuNI4iCR5dTdIhOneQpDnFAyEDR0kcNcZgRIlnf8rY8/NWIe2SY
T+NYUSpUQvn8GZmKPY3sNXhwi4ErVyuEEVm8HW23/Q0=
-----END CERTIFICATE-----
