Certificate:
    Data:
        Version: 3 (0x2)
        Serial Number: 210 (0xd2)
        Signature Algorithm: sha256WithRSAEncryption
        Issuer: C=fr, ST=idf, L=paris, O=vitam, OU=authorities, CN=ca_root_timestamping
        Validity
            Not Before: Sep 15 12:58:48 2020 GMT
            Not After : Dec 31 23:59:59 9999 GMT
        Subject: C=fr, ST=idf, L=paris, O=vitam, OU=authorities, CN=ca_root_timestamping
        Subject Public Key Info:
            Public Key Algorithm: rsaEncryption
                RSA Public-Key: (4096 bit)
                Modulus:
                    00:9f:81:ed:d5:a6:da:40:c3:3a:8f:4e:1d:aa:8f:
                    e6:de:d6:84:7a:16:c0:b7:4b:32:75:7f:d7:5d:70:
                    8d:ae:68:c7:cf:6a:84:57:43:aa:a3:e0:56:27:86:
                    1a:6b:4c:7a:4b:eb:1a:36:19:86:5e:76:5c:0a:7f:
                    a6:66:f6:b9:d0:4e:ee:cb:77:9c:94:23:d6:ea:8c:
                    53:3e:dd:b6:62:c8:18:8c:1d:5a:e0:88:63:e8:c2:
                    6c:40:ff:3e:54:d8:01:0f:f8:3b:2b:af:4d:ec:34:
                    ed:55:b6:3c:3d:fd:3e:2d:99:a1:15:c1:32:9c:c7:
                    c8:c9:bf:ac:fc:be:4f:4a:fa:0b:16:7e:81:8c:0e:
                    71:51:f2:e2:e7:8e:6b:10:30:56:ee:de:60:9c:f1:
                    3f:b7:34:36:e4:77:5c:34:d3:f4:96:5d:2c:99:bb:
                    9f:dd:cc:27:65:9b:ca:6a:70:bb:94:1b:ee:8f:69:
                    13:8c:61:85:01:e2:c6:a7:db:f8:78:44:e6:5e:d3:
                    b2:8d:a5:70:17:2d:f9:63:5b:6f:ca:b4:95:48:9c:
                    7a:40:a1:b2:88:cb:0b:67:3b:4a:bb:81:67:e0:d9:
                    0b:a8:c3:47:4b:6c:2a:43:28:2a:05:5a:95:5d:22:
                    d1:ee:cc:5b:d0:23:bc:63:c9:8c:a6:f4:43:2c:17:
                    60:8c:81:7d:44:ef:d5:5d:a6:33:ca:60:9e:f8:a0:
                    73:3f:85:6b:26:2c:5a:aa:45:8d:b7:b0:71:40:35:
                    87:80:73:8a:ec:7d:7a:f2:35:48:da:4a:62:a8:9b:
                    75:3f:2f:e5:4e:48:30:09:98:66:19:4d:9b:ca:4c:
                    a0:c9:dc:b4:42:68:ff:39:fa:4e:1f:de:48:af:f3:
                    44:a1:65:e6:59:c5:b0:cc:27:4c:81:94:ee:ff:69:
                    50:bb:ce:b2:ab:ab:36:0c:c4:46:18:d2:24:83:69:
                    c9:a7:2b:bb:b7:9f:2c:d4:f3:20:1f:cd:ee:8d:71:
                    b6:08:c4:a0:e0:c4:7b:11:fe:d8:c3:1b:f2:ae:bf:
                    b9:54:71:69:76:2d:a0:7e:9b:80:c9:48:f2:23:91:
                    16:1b:a2:c3:b6:e3:32:59:28:46:b7:a9:08:33:9e:
                    44:c6:77:a0:24:23:cf:fc:d4:db:1a:f8:e8:68:65:
                    aa:73:c7:37:b8:40:a3:4c:88:be:50:4f:80:e1:82:
                    09:1d:da:18:8c:23:7d:94:ea:20:be:fa:1c:b9:35:
                    68:7f:21:19:03:6c:fc:89:d2:45:ee:ff:b6:3f:30:
                    61:62:74:21:98:38:f1:29:71:96:bf:82:32:81:d4:
                    45:a3:ae:be:9a:07:29:7d:fd:10:14:f2:38:e3:00:
                    e3:6d:8f
                Exponent: 65537 (0x10001)
        X509v3 extensions:
            Netscape Comment: 
                CA Root
            X509v3 Subject Key Identifier: 
                B4:C3:C5:77:58:44:AD:C9:51:68:03:2A:1E:E2:E5:60:23:31:00:18
            X509v3 Authority Key Identifier: 
                keyid:B4:C3:C5:77:58:44:AD:C9:51:68:03:2A:1E:E2:E5:60:23:31:00:18

            X509v3 Basic Constraints: critical
                CA:TRUE, pathlen:1
            X509v3 Key Usage: 
                Certificate Sign, CRL Sign
            Netscape Cert Type: 
                SSL CA
    Signature Algorithm: sha256WithRSAEncryption
         21:81:4a:c2:30:c7:14:5a:af:06:69:cc:55:de:63:95:62:82:
         40:02:81:06:5f:fe:cb:f4:80:85:57:98:b1:37:8e:21:aa:e3:
         1b:d1:b0:1f:14:04:8f:71:61:e1:62:b0:d9:88:7b:71:30:1d:
         a8:8c:97:af:37:c8:4d:a0:5f:be:8f:13:ab:d5:a1:45:f2:66:
         08:2b:ee:9d:55:0f:06:5a:a0:2d:14:d5:9d:12:de:b2:a2:e9:
         66:d7:d9:be:89:b7:ca:07:7e:9c:58:b6:1b:10:fc:1d:51:9e:
         25:61:83:3f:e5:dc:d6:3a:24:24:44:5e:dd:d6:48:3e:61:bc:
         35:4f:f1:2a:97:a3:d3:9c:88:7c:cb:e9:9f:ef:87:e1:9a:86:
         10:18:f3:77:78:0c:15:d7:6e:76:ca:50:a4:bb:ec:31:71:2d:
         9b:97:47:81:74:10:c0:e9:04:41:70:fe:27:8a:c2:dc:57:59:
         f0:51:35:cb:84:0c:e8:66:bf:76:f7:22:4f:eb:54:b8:77:f9:
         77:f6:4f:67:25:af:ef:a0:6d:91:0e:ed:b9:9c:b5:ec:b8:eb:
         3a:99:ac:30:c3:96:be:6b:ae:59:de:b7:23:74:fc:04:de:40:
         d3:1b:f7:3c:00:e8:35:f7:65:55:a3:99:a7:91:48:e8:99:e5:
         27:24:6b:d7:76:d4:c6:1a:02:24:81:25:73:d2:37:b3:e8:fc:
         2f:66:fe:8f:d4:48:2b:d1:04:d2:b7:c0:bb:bc:f3:07:18:74:
         75:00:2d:37:6d:ba:a5:69:d9:9f:92:31:55:50:1f:55:7d:44:
         95:03:bc:9c:2d:26:23:17:91:af:61:c5:34:3b:9e:d8:42:ba:
         b7:5c:31:17:01:a0:f3:55:4e:32:27:07:85:3c:dd:4a:28:45:
         02:34:5e:68:20:d9:1a:6f:e9:58:7d:ad:df:e0:78:1c:d6:34:
         b3:83:32:01:2e:f2:26:47:1b:85:e9:39:28:2c:64:3c:52:69:
         78:79:4a:73:9e:90:2e:a1:50:d3:df:d0:1c:59:9e:06:86:79:
         dd:70:05:13:47:34:c7:12:f4:b5:57:22:00:c7:e1:ec:ab:c3:
         a3:01:00:03:e1:c4:cf:1b:f4:9f:db:0d:10:31:09:1b:49:67:
         9d:5e:49:70:31:93:4f:e7:63:0e:00:01:e9:e1:ac:c5:4a:8f:
         dd:f0:aa:90:ce:5d:36:aa:c9:07:bf:04:99:65:cc:09:39:e1:
         57:c0:bf:38:7a:fa:31:40:18:aa:55:9a:14:d6:90:c4:33:1c:
         8c:2c:37:be:36:dd:cc:61:79:d2:5f:3e:0a:da:0d:45:00:cf:
         b8:fa:6c:e6:20:b5:e1:0c
-----BEGIN CERTIFICATE-----
MIIF7jCCA9agAwIBAgICANIwDQYJKoZIhvcNAQELBQAwcDELMAkGA1UEBhMCZnIx
DDAKBgNVBAgMA2lkZjEOMAwGA1UEBwwFcGFyaXMxDjAMBgNVBAoMBXZpdGFtMRQw
EgYDVQQLDAthdXRob3JpdGllczEdMBsGA1UEAwwUY2Ffcm9vdF90aW1lc3RhbXBp
bmcwIBcNMjAwOTE1MTI1ODQ4WhgPOTk5OTEyMzEyMzU5NTlaMHAxCzAJBgNVBAYT
AmZyMQwwCgYDVQQIDANpZGYxDjAMBgNVBAcMBXBhcmlzMQ4wDAYDVQQKDAV2aXRh
bTEUMBIGA1UECwwLYXV0aG9yaXRpZXMxHTAbBgNVBAMMFGNhX3Jvb3RfdGltZXN0
YW1waW5nMIICIjANBgkqhkiG9w0BAQEFAAOCAg8AMIICCgKCAgEAn4Ht1abaQMM6
j04dqo/m3taEehbAt0sydX/XXXCNrmjHz2qEV0Oqo+BWJ4Yaa0x6S+saNhmGXnZc
Cn+mZva50E7uy3eclCPW6oxTPt22YsgYjB1a4Ihj6MJsQP8+VNgBD/g7K69N7DTt
VbY8Pf0+LZmhFcEynMfIyb+s/L5PSvoLFn6BjA5xUfLi545rEDBW7t5gnPE/tzQ2
5HdcNNP0ll0smbuf3cwnZZvKanC7lBvuj2kTjGGFAeLGp9v4eETmXtOyjaVwFy35
Y1tvyrSVSJx6QKGyiMsLZztKu4Fn4NkLqMNHS2wqQygqBVqVXSLR7sxb0CO8Y8mM
pvRDLBdgjIF9RO/VXaYzymCe+KBzP4VrJixaqkWNt7BxQDWHgHOK7H168jVI2kpi
qJt1Py/lTkgwCZhmGU2bykygydy0Qmj/OfpOH95Ir/NEoWXmWcWwzCdMgZTu/2lQ
u86yq6s2DMRGGNIkg2nJpyu7t58s1PMgH83ujXG2CMSg4MR7Ef7Ywxvyrr+5VHFp
di2gfpuAyUjyI5EWG6LDtuMyWShGt6kIM55ExnegJCPP/NTbGvjoaGWqc8c3uECj
TIi+UE+A4YIJHdoYjCN9lOogvvocuTVofyEZA2z8idJF7v+2PzBhYnQhmDjxKXGW
v4IygdRFo66+mgcpff0QFPI44wDjbY8CAwEAAaOBjzCBjDAWBglghkgBhvhCAQ0E
CRYHQ0EgUm9vdDAdBgNVHQ4EFgQUtMPFd1hErclRaAMqHuLlYCMxABgwHwYDVR0j
BBgwFoAUtMPFd1hErclRaAMqHuLlYCMxABgwEgYDVR0TAQH/BAgwBgEB/wIBATAL
BgNVHQ8EBAMCAQYwEQYJYIZIAYb4QgEBBAQDAgIEMA0GCSqGSIb3DQEBCwUAA4IC
AQAhgUrCMMcUWq8GacxV3mOVYoJAAoEGX/7L9ICFV5ixN44hquMb0bAfFASPcWHh
YrDZiHtxMB2ojJevN8hNoF++jxOr1aFF8mYIK+6dVQ8GWqAtFNWdEt6youlm19m+
ibfKB36cWLYbEPwdUZ4lYYM/5dzWOiQkRF7d1kg+Ybw1T/Eql6PTnIh8y+mf74fh
moYQGPN3eAwV1252ylCku+wxcS2bl0eBdBDA6QRBcP4nisLcV1nwUTXLhAzoZr92
9yJP61S4d/l39k9nJa/voG2RDu25nLXsuOs6mawww5a+a65Z3rcjdPwE3kDTG/c8
AOg192VVo5mnkUjomeUnJGvXdtTGGgIkgSVz0jez6PwvZv6P1Egr0QTSt8C7vPMH
GHR1AC03bbqladmfkjFVUB9VfUSVA7ycLSYjF5GvYcU0O57YQrq3XDEXAaDzVU4y
JweFPN1KKEUCNF5oINkab+lYfa3f4Hgc1jSzgzIBLvImRxuF6TkoLGQ8Uml4eUpz
npAuoVDT39AcWZ4GhnndcAUTRzTHEvS1VyIAx+Hsq8OjAQAD4cTPG/Sf2w0QMQkb
SWedXklwMZNP52MOAAHp4azFSo/d8KqQzl02qskHvwSZZcwJOeFXwL84evoxQBiq
VZoU1pDEMxyMLDe+Nt3MYXnSXz4K2g1FAM+4+mzmILXhDA==
-----END CERTIFICATE-----
