Certificate:
    Data:
        Version: 3 (0x2)
        Serial Number: 190 (0xbe)
    Signature Algorithm: sha256WithRSAEncryption
        Issuer: C=fr, ST=idf, L=paris, O=vitam, OU=authorities, CN=ca_root_timestamping
        Validity
            Not Before: Feb 21 16:34:59 2018 GMT
            Not After : Feb 19 16:34:59 2028 GMT
        Subject: C=fr, ST=idf, L=paris, O=vitam, OU=authorities, CN=ca_root_timestamping
        Subject Public Key Info:
            Public Key Algorithm: rsaEncryption
                Public-Key: (4096 bit)
                Modulus:
                    00:ea:b7:ef:9b:26:5a:6b:45:94:30:17:10:a0:c0:
                    f6:45:d2:3e:e5:26:c3:10:a9:03:2f:27:48:22:46:
                    3b:39:c6:c4:73:94:9d:d7:b5:f5:84:07:77:23:9f:
                    1b:cc:69:1d:bf:17:f4:b2:88:41:6d:02:e5:78:26:
                    c4:7e:1f:0a:23:39:69:9f:e8:47:eb:55:55:43:a9:
                    af:4f:e2:91:fa:9e:94:99:45:2f:c4:bd:07:aa:32:
                    7f:f7:0c:0d:f0:b1:b3:59:f5:66:7c:12:6c:3b:1d:
                    d5:45:bc:86:45:ea:fe:ac:ef:9c:e2:7f:46:9a:43:
                    aa:60:7d:1f:e2:f1:cb:bc:16:76:e8:6d:3d:1a:8b:
                    52:82:73:d0:31:18:60:83:72:c0:b5:c9:46:48:87:
                    a6:18:7b:b3:96:8d:d2:66:20:9a:ee:91:5c:25:d9:
                    ac:2a:b5:02:c0:99:3f:0f:7f:46:d2:1b:25:3c:5e:
                    d9:42:e4:71:db:39:47:95:2a:f0:00:43:51:5b:b4:
                    6a:e5:43:f7:7d:f6:21:75:30:20:d2:67:ad:b3:cc:
                    b6:be:84:1c:4c:f4:56:11:dc:a7:94:1c:89:5d:e3:
                    b3:d4:2a:ee:86:6f:4a:00:13:6b:bf:89:e3:43:4c:
                    00:61:80:2f:f5:c3:c5:8e:24:e3:16:7b:8b:6f:de:
                    a3:fb:6c:64:9f:e8:13:1e:9a:96:a1:ee:99:1e:e4:
                    f2:fb:66:c7:0f:f4:7e:ec:51:e8:95:8d:6a:37:bc:
                    73:11:4f:a6:1d:34:cc:7d:7c:ba:17:60:35:d3:ef:
                    ee:a4:a9:cc:16:84:f4:cd:6e:09:a9:06:7d:02:fd:
                    c5:af:fb:e0:29:68:54:a5:f9:d1:1b:c1:6a:cd:f4:
                    f2:a1:a0:5a:8e:0c:17:cc:9a:85:1d:07:e1:1a:af:
                    55:d8:ff:66:69:72:12:af:09:1a:81:b9:ba:35:b7:
                    74:be:36:68:89:78:3f:d8:80:75:8d:17:21:17:0d:
                    49:81:c8:da:e3:6d:c9:44:ed:52:32:92:77:05:86:
                    93:97:15:24:33:0b:2a:9b:ce:10:f5:9a:22:31:77:
                    80:6e:fb:9b:bc:e2:7b:bc:37:d6:47:97:3e:8b:65:
                    96:fb:3a:33:80:fe:b7:8e:5c:ac:f9:51:05:36:58:
                    1d:58:ec:b9:70:24:a2:bb:d1:c3:5a:e4:a6:30:36:
                    3b:28:d6:0f:82:17:e8:f5:cd:3a:86:83:06:7c:c7:
                    d1:4b:23:dc:d2:73:ab:67:98:99:8e:1f:40:42:2a:
                    42:f3:60:c6:ef:34:29:fe:82:49:d1:14:ba:d3:9e:
                    14:dc:2b:08:0d:00:ec:70:a5:76:68:e2:19:f8:7a:
                    f7:ab:0d
                Exponent: 65537 (0x10001)
        X509v3 extensions:
            Netscape Comment: 
                CA Root
            X509v3 Subject Key Identifier: 
                08:A7:58:C8:54:E1:AC:00:93:5F:79:2C:47:84:12:53:2B:BD:FD:C3
            X509v3 Authority Key Identifier: 
                keyid:08:A7:58:C8:54:E1:AC:00:93:5F:79:2C:47:84:12:53:2B:BD:FD:C3

            X509v3 Basic Constraints: critical
                CA:TRUE, pathlen:1
            X509v3 Key Usage: 
                Certificate Sign, CRL Sign
            Netscape Cert Type: 
                SSL CA
    Signature Algorithm: sha256WithRSAEncryption
         35:84:10:eb:7b:93:50:bc:23:d4:ba:2f:1b:e2:77:ca:09:9d:
         f4:dd:11:2a:7d:69:5d:49:24:10:e5:b7:19:ef:33:ed:12:e4:
         b9:6a:0b:46:b9:de:50:0c:b4:3a:6d:1a:11:d6:d8:3e:21:62:
         db:7e:cd:85:6a:14:b5:41:70:eb:b8:74:be:fc:70:b5:ad:d6:
         d8:3b:56:c7:6d:65:65:64:63:02:ce:80:3a:f4:fa:cc:0e:6b:
         24:80:5b:0e:14:ed:70:1e:e8:6d:76:66:05:92:3d:f5:e2:46:
         e0:8d:00:9f:5d:d8:b0:cb:2a:f6:7f:c2:7b:8f:05:6b:56:ab:
         75:d2:ac:a1:7c:72:59:08:e0:d1:c4:d7:26:ea:c0:ff:fc:de:
         a8:c0:ad:12:d8:5e:1d:25:47:96:40:b9:43:f9:bd:8a:67:2d:
         11:67:5d:12:21:a0:75:1f:50:7e:5f:19:55:2c:3f:59:d7:a8:
         95:ef:45:bb:f6:0f:c7:4e:73:2b:30:1c:4d:07:30:9c:9b:a8:
         96:0a:b8:92:f3:0d:f0:93:a6:04:89:d4:ff:86:4a:05:2c:9d:
         a9:57:99:53:63:a3:fc:bb:7a:76:2f:d6:9d:93:26:63:b4:41:
         34:79:2c:04:a5:ff:91:73:4b:bc:9b:47:9d:66:7e:ce:fd:97:
         a8:0e:34:0e:33:05:99:db:23:23:32:36:23:89:ff:d2:97:35:
         f9:aa:1c:eb:0d:6a:29:f8:b5:20:99:da:3d:cb:c6:51:54:7d:
         a3:be:ef:b5:95:d0:be:5a:f5:d5:75:62:47:ec:13:09:4f:cc:
         72:a2:bb:b7:8a:68:f7:04:87:41:05:3c:62:8f:37:96:76:97:
         f6:c8:cf:57:df:0c:20:9f:41:c7:fd:09:4e:9e:0e:30:7c:8d:
         25:03:0c:5a:76:f2:2f:4a:4b:72:ff:32:0d:b6:01:89:3d:65:
         30:b4:14:fa:87:1c:9e:2b:88:0b:bf:79:a9:9e:0f:42:e8:a0:
         f1:c4:a0:cb:dd:4b:74:48:59:45:17:78:c0:c0:ce:a7:9a:04:
         4e:2d:78:a0:da:16:d4:85:51:8d:77:05:cf:5c:f7:64:8c:da:
         f2:19:9d:5f:34:17:88:46:e3:85:a0:29:8c:c4:85:94:63:47:
         b4:e7:7a:99:c2:e4:21:5c:97:fd:50:49:8e:85:c6:3e:4f:74:
         a9:87:27:33:48:b1:72:b1:23:37:f0:81:e8:ee:f1:37:c8:23:
         5a:ed:42:de:f9:eb:59:14:55:86:e9:8c:68:41:45:f6:ab:6c:
         65:98:16:b6:bd:55:f0:5e:e4:51:8d:25:0d:52:48:0e:3c:f6:
         89:c6:87:7e:28:40:5d:be
-----BEGIN CERTIFICATE-----
MIIF7DCCA9SgAwIBAgICAL4wDQYJKoZIhvcNAQELBQAwcDELMAkGA1UEBhMCZnIx
DDAKBgNVBAgMA2lkZjEOMAwGA1UEBwwFcGFyaXMxDjAMBgNVBAoMBXZpdGFtMRQw
EgYDVQQLDAthdXRob3JpdGllczEdMBsGA1UEAwwUY2Ffcm9vdF90aW1lc3RhbXBp
bmcwHhcNMTgwMjIxMTYzNDU5WhcNMjgwMjE5MTYzNDU5WjBwMQswCQYDVQQGEwJm
cjEMMAoGA1UECAwDaWRmMQ4wDAYDVQQHDAVwYXJpczEOMAwGA1UECgwFdml0YW0x
FDASBgNVBAsMC2F1dGhvcml0aWVzMR0wGwYDVQQDDBRjYV9yb290X3RpbWVzdGFt
cGluZzCCAiIwDQYJKoZIhvcNAQEBBQADggIPADCCAgoCggIBAOq375smWmtFlDAX
EKDA9kXSPuUmwxCpAy8nSCJGOznGxHOUnde19YQHdyOfG8xpHb8X9LKIQW0C5Xgm
xH4fCiM5aZ/oR+tVVUOpr0/ikfqelJlFL8S9B6oyf/cMDfCxs1n1ZnwSbDsd1UW8
hkXq/qzvnOJ/RppDqmB9H+Lxy7wWduhtPRqLUoJz0DEYYINywLXJRkiHphh7s5aN
0mYgmu6RXCXZrCq1AsCZPw9/RtIbJTxe2ULkcds5R5Uq8ABDUVu0auVD9332IXUw
INJnrbPMtr6EHEz0VhHcp5QciV3js9Qq7oZvSgATa7+J40NMAGGAL/XDxY4k4xZ7
i2/eo/tsZJ/oEx6alqHumR7k8vtmxw/0fuxR6JWNaje8cxFPph00zH18uhdgNdPv
7qSpzBaE9M1uCakGfQL9xa/74CloVKX50RvBas308qGgWo4MF8yahR0H4RqvVdj/
ZmlyEq8JGoG5ujW3dL42aIl4P9iAdY0XIRcNSYHI2uNtyUTtUjKSdwWGk5cVJDML
KpvOEPWaIjF3gG77m7zie7w31keXPotllvs6M4D+t45crPlRBTZYHVjsuXAkorvR
w1rkpjA2OyjWD4IX6PXNOoaDBnzH0Usj3NJzq2eYmY4fQEIqQvNgxu80Kf6CSdEU
utOeFNwrCA0A7HCldmjiGfh696sNAgMBAAGjgY8wgYwwFgYJYIZIAYb4QgENBAkW
B0NBIFJvb3QwHQYDVR0OBBYEFAinWMhU4awAk195LEeEElMrvf3DMB8GA1UdIwQY
MBaAFAinWMhU4awAk195LEeEElMrvf3DMBIGA1UdEwEB/wQIMAYBAf8CAQEwCwYD
VR0PBAQDAgEGMBEGCWCGSAGG+EIBAQQEAwICBDANBgkqhkiG9w0BAQsFAAOCAgEA
NYQQ63uTULwj1LovG+J3ygmd9N0RKn1pXUkkEOW3Ge8z7RLkuWoLRrneUAy0Om0a
EdbYPiFi237NhWoUtUFw67h0vvxwta3W2DtWx21lZWRjAs6AOvT6zA5rJIBbDhTt
cB7obXZmBZI99eJG4I0An13YsMsq9n/Ce48Fa1arddKsoXxyWQjg0cTXJurA//ze
qMCtEtheHSVHlkC5Q/m9imctEWddEiGgdR9Qfl8ZVSw/Wdeole9Fu/YPx05zKzAc
TQcwnJuolgq4kvMN8JOmBInU/4ZKBSydqVeZU2Oj/Lt6di/WnZMmY7RBNHksBKX/
kXNLvJtHnWZ+zv2XqA40DjMFmdsjIzI2I4n/0pc1+aoc6w1qKfi1IJnaPcvGUVR9
o77vtZXQvlr11XViR+wTCU/McqK7t4po9wSHQQU8Yo83lnaX9sjPV98MIJ9Bx/0J
Tp4OMHyNJQMMWnbyL0pLcv8yDbYBiT1lMLQU+occniuIC795qZ4PQuig8cSgy91L
dEhZRRd4wMDOp5oETi14oNoW1IVRjXcFz1z3ZIza8hmdXzQXiEbjhaApjMSFlGNH
tOd6mcLkIVyX/VBJjoXGPk90qYcnM0ixcrEjN/CB6O7xN8gjWu1C3vnrWRRVhumM
aEFF9qtsZZgWtr1V8F7kUY0lDVJIDjz2icaHfihAXb4=
-----END CERTIFICATE-----
