Certificate:
    Data:
        Version: 3 (0x2)
        Serial Number: 301 (0x12d)
        Signature Algorithm: sha256WithRSAEncryption
        Issuer: C=fr, ST=idf, L=paris, O=vitam, OU=authorities, CN=ca_root_client-external
        Validity
            Not Before: Sep 15 12:58:45 2020 GMT
            Not After : Dec 31 23:59:59 9999 GMT
        Subject: C=fr, ST=idf, L=paris, O=vitam, OU=authorities, CN=ca_intermediate_client-external
        Subject Public Key Info:
            Public Key Algorithm: rsaEncryption
                RSA Public-Key: (4096 bit)
                Modulus:
                    00:b6:58:fd:5a:d3:fe:b8:3d:11:ae:a3:4d:df:5f:
                    44:08:52:98:7f:ec:25:c6:ff:4c:d8:3d:20:6e:1c:
                    bb:15:60:c7:1b:0a:13:63:72:7e:9c:c0:41:8f:bb:
                    05:87:bd:4a:f9:67:2a:e6:5c:f8:85:2e:fc:f2:03:
                    26:a6:70:43:f2:31:89:aa:10:16:c4:61:ba:0f:66:
                    a4:72:38:3e:76:ab:57:da:9e:57:06:9b:0d:20:67:
                    db:7e:c7:81:c8:44:e5:08:16:16:92:03:0f:f3:91:
                    62:99:28:76:66:e7:31:12:86:a5:13:52:7e:9c:d5:
                    45:86:6b:30:c8:20:19:54:9d:80:5c:2c:aa:a4:b0:
                    d8:22:aa:42:15:21:3a:f1:da:f7:82:d0:2a:3a:56:
                    e2:f8:3c:94:e9:73:45:26:63:f5:fe:3c:83:5b:95:
                    4e:ab:a0:59:75:72:d9:45:fc:84:5d:58:77:df:0a:
                    30:0e:6f:54:65:0d:78:b9:c8:6d:bb:03:0c:80:0b:
                    78:57:a1:a1:a4:50:a2:c0:3e:12:7c:a8:dc:a3:3a:
                    e9:10:7c:d6:5b:99:0d:8c:36:3a:c5:1b:41:f2:8d:
                    73:28:f6:d2:6a:48:96:48:27:21:18:99:83:93:8b:
                    50:31:35:79:26:c3:ff:72:37:5e:6d:e9:1f:45:d2:
                    b0:74:35:d8:e4:cf:ea:af:bc:9d:9e:15:74:f0:6b:
                    7c:b7:9a:fa:72:38:ff:f5:57:4f:04:f3:68:87:22:
                    4d:60:fe:fb:7d:83:12:50:ab:6f:53:9d:76:74:d1:
                    07:54:be:49:d0:3f:09:1e:9f:31:9a:71:a9:83:46:
                    f5:f9:79:ec:31:69:d0:cf:00:2f:c7:39:26:af:b1:
                    35:e0:94:95:08:48:7a:44:38:1b:6d:2c:7a:0c:2f:
                    4a:44:2f:5b:8b:da:27:60:fd:e9:c1:31:2f:55:f2:
                    8b:3c:39:d6:cc:8d:0a:02:19:ca:1f:07:cd:31:6a:
                    a0:d5:a6:86:56:30:2d:79:c6:39:fd:a7:38:d5:5c:
                    c2:0c:40:35:73:70:67:cf:4d:4a:4d:83:dd:95:9e:
                    2f:f3:cf:3a:c6:6f:b2:7f:77:1a:9f:8f:e3:52:e1:
                    14:93:38:97:c9:f7:56:66:18:ff:de:81:46:1b:84:
                    c6:1c:c2:c9:ca:b3:a1:71:55:e5:b9:cd:3f:ba:c3:
                    05:e9:ae:83:35:f6:74:6d:22:fa:4a:f0:64:a1:7d:
                    d9:c9:0d:74:c7:2b:98:7f:a3:f1:94:96:b7:8c:a6:
                    9b:18:a1:a5:58:71:b1:91:b3:b9:3d:9b:82:fe:29:
                    04:4f:61:d6:6f:f2:4f:1c:0a:af:66:83:0c:8f:c0:
                    17:d0:63
                Exponent: 65537 (0x10001)
        X509v3 extensions:
            Netscape Comment: 
                CA Intermediate
            X509v3 Subject Key Identifier: 
                D1:7F:00:C3:F0:94:D6:CB:E3:AE:F7:23:18:2E:1E:BA:53:66:F2:F8
            X509v3 Authority Key Identifier: 
                keyid:AF:BE:96:D3:D7:3D:62:CA:CF:0F:AA:B5:1C:2A:68:AE:73:37:EE:C0
                DirName:/C=fr/ST=idf/L=paris/O=vitam/OU=authorities/CN=ca_root_client-external
                serial:01:2C

            X509v3 Basic Constraints: critical
                CA:TRUE, pathlen:0
            X509v3 Issuer Alternative Name: 
                <EMPTY>

            X509v3 Key Usage: 
                Certificate Sign, CRL Sign
            Netscape Cert Type: 
                SSL CA
    Signature Algorithm: sha256WithRSAEncryption
         6e:66:26:58:63:6f:f9:53:64:93:6a:f4:95:6b:ad:7f:9b:ef:
         6a:67:cb:b8:f7:bd:f4:4c:29:3b:3b:e0:63:ba:23:4f:4f:64:
         42:2c:e7:bc:12:a7:47:53:d9:20:90:f3:84:26:68:08:3f:1e:
         0f:cd:6e:18:4a:71:10:c1:78:8b:b0:2c:17:bf:c2:26:ef:e7:
         97:53:a1:57:20:14:95:80:5b:b0:86:b8:9a:1f:bd:c4:d9:5b:
         f9:20:ef:62:21:32:ae:84:a8:48:fa:04:2e:6c:b8:9a:fd:3c:
         37:10:de:9e:23:1c:7f:a6:9e:03:16:4c:91:28:e2:00:bc:6a:
         f4:3f:26:1e:0d:85:9f:6f:de:77:a5:a2:9a:23:60:c2:b1:b5:
         ad:1c:a3:82:86:46:c1:a7:94:2c:f1:ca:ca:46:99:0c:a9:2b:
         57:78:53:a4:ee:b0:03:79:cd:1a:a4:03:d8:a7:33:9e:ba:04:
         04:6a:71:8a:77:a2:99:57:7b:42:95:07:83:85:78:3c:fc:da:
         cb:b0:f8:59:f9:03:99:76:6c:6c:81:a2:60:83:db:fa:a1:1f:
         51:16:4a:34:e5:1b:6e:5c:90:fb:61:3a:3a:d6:0c:75:3a:1c:
         fe:8a:d1:27:9a:15:df:3f:56:37:bf:e2:27:f6:f0:ae:88:33:
         27:14:68:33:c3:ac:59:5f:4c:20:39:73:38:90:d6:c8:4f:51:
         ab:3d:77:37:1b:4f:ef:25:34:e5:46:70:09:2b:6b:9f:d8:68:
         71:93:29:21:bd:31:47:a3:f6:35:e4:6e:54:40:bc:9b:82:56:
         9c:72:d1:59:3f:bf:5f:4a:49:cc:ab:a0:88:74:4d:e6:6e:11:
         1d:66:cd:a3:06:f6:df:96:d2:35:e4:a6:7a:04:e9:8a:54:92:
         34:91:d3:14:93:14:64:83:5f:bb:af:41:8c:b4:58:7a:58:d4:
         5f:cd:26:08:a6:45:8f:bd:f7:95:a6:8b:94:10:ea:0a:bc:4e:
         df:ff:16:b6:a0:05:1a:28:7e:99:48:15:c9:f1:42:58:d5:36:
         31:ef:3a:cf:62:9b:b0:2e:e3:5f:25:0d:d5:ee:1c:9c:da:96:
         16:53:8c:0c:10:ac:a4:a9:be:a1:ad:64:a3:90:a5:01:2d:54:
         a2:41:ee:eb:70:d9:c5:52:99:89:2e:7f:11:f8:48:dd:e1:81:
         0b:c8:6e:2c:21:42:2c:25:5a:aa:0d:80:aa:d1:d4:5f:cb:7b:
         25:00:2e:c8:31:9c:14:56:f0:15:ba:e3:01:95:37:36:c9:74:
         47:03:73:d8:a3:9a:ca:c5:91:ee:ec:f5:d2:8e:a2:4f:b5:44:
         9e:76:27:25:3e:16:af:62
-----BEGIN CERTIFICATE-----
MIIGkTCCBHmgAwIBAgICAS0wDQYJKoZIhvcNAQELBQAwczELMAkGA1UEBhMCZnIx
DDAKBgNVBAgMA2lkZjEOMAwGA1UEBwwFcGFyaXMxDjAMBgNVBAoMBXZpdGFtMRQw
EgYDVQQLDAthdXRob3JpdGllczEgMB4GA1UEAwwXY2Ffcm9vdF9jbGllbnQtZXh0
ZXJuYWwwIBcNMjAwOTE1MTI1ODQ1WhgPOTk5OTEyMzEyMzU5NTlaMHsxCzAJBgNV
BAYTAmZyMQwwCgYDVQQIDANpZGYxDjAMBgNVBAcMBXBhcmlzMQ4wDAYDVQQKDAV2
aXRhbTEUMBIGA1UECwwLYXV0aG9yaXRpZXMxKDAmBgNVBAMMH2NhX2ludGVybWVk
aWF0ZV9jbGllbnQtZXh0ZXJuYWwwggIiMA0GCSqGSIb3DQEBAQUAA4ICDwAwggIK
AoICAQC2WP1a0/64PRGuo03fX0QIUph/7CXG/0zYPSBuHLsVYMcbChNjcn6cwEGP
uwWHvUr5ZyrmXPiFLvzyAyamcEPyMYmqEBbEYboPZqRyOD52q1fanlcGmw0gZ9t+
x4HIROUIFhaSAw/zkWKZKHZm5zEShqUTUn6c1UWGazDIIBlUnYBcLKqksNgiqkIV
ITrx2veC0Co6VuL4PJTpc0UmY/X+PINblU6roFl1ctlF/IRdWHffCjAOb1RlDXi5
yG27AwyAC3hXoaGkUKLAPhJ8qNyjOukQfNZbmQ2MNjrFG0HyjXMo9tJqSJZIJyEY
mYOTi1AxNXkmw/9yN15t6R9F0rB0Ndjkz+qvvJ2eFXTwa3y3mvpyOP/1V08E82iH
Ik1g/vt9gxJQq29TnXZ00QdUvknQPwkenzGacamDRvX5eewxadDPAC/HOSavsTXg
lJUISHpEOBttLHoML0pEL1uL2idg/enBMS9V8os8OdbMjQoCGcofB80xaqDVpoZW
MC15xjn9pzjVXMIMQDVzcGfPTUpNg92Vni/zzzrGb7J/dxqfj+NS4RSTOJfJ91Zm
GP/egUYbhMYcwsnKs6FxVeW5zT+6wwXproM19nRtIvpK8GShfdnJDXTHK5h/o/GU
lreMppsYoaVYcbGRs7k9m4L+KQRPYdZv8k8cCq9mgwyPwBfQYwIDAQABo4IBIzCC
AR8wHgYJYIZIAYb4QgENBBEWD0NBIEludGVybWVkaWF0ZTAdBgNVHQ4EFgQU0X8A
w/CU1svjrvcjGC4eulNm8vgwgZ4GA1UdIwSBljCBk4AUr76W09c9YsrPD6q1HCpo
rnM37sChd6R1MHMxCzAJBgNVBAYTAmZyMQwwCgYDVQQIDANpZGYxDjAMBgNVBAcM
BXBhcmlzMQ4wDAYDVQQKDAV2aXRhbTEUMBIGA1UECwwLYXV0aG9yaXRpZXMxIDAe
BgNVBAMMF2NhX3Jvb3RfY2xpZW50LWV4dGVybmFsggIBLDASBgNVHRMBAf8ECDAG
AQH/AgEAMAkGA1UdEgQCMAAwCwYDVR0PBAQDAgEGMBEGCWCGSAGG+EIBAQQEAwIC
BDANBgkqhkiG9w0BAQsFAAOCAgEAbmYmWGNv+VNkk2r0lWutf5vvamfLuPe99Ewp
OzvgY7ojT09kQiznvBKnR1PZIJDzhCZoCD8eD81uGEpxEMF4i7AsF7/CJu/nl1Oh
VyAUlYBbsIa4mh+9xNlb+SDvYiEyroSoSPoELmy4mv08NxDeniMcf6aeAxZMkSji
ALxq9D8mHg2Fn2/ed6WimiNgwrG1rRyjgoZGwaeULPHKykaZDKkrV3hTpO6wA3nN
GqQD2KcznroEBGpxineimVd7QpUHg4V4PPzay7D4WfkDmXZsbIGiYIPb+qEfURZK
NOUbblyQ+2E6OtYMdToc/orRJ5oV3z9WN7/iJ/bwrogzJxRoM8OsWV9MIDlzOJDW
yE9Rqz13NxtP7yU05UZwCStrn9hocZMpIb0xR6P2NeRuVEC8m4JWnHLRWT+/X0pJ
zKugiHRN5m4RHWbNowb235bSNeSmegTpilSSNJHTFJMUZINfu69BjLRYeljUX80m
CKZFj733laaLlBDqCrxO3/8WtqAFGih+mUgVyfFCWNU2Me86z2KbsC7jXyUN1e4c
nNqWFlOMDBCspKm+oa1ko5ClAS1UokHu63DZxVKZiS5/EfhI3eGBC8huLCFCLCVa
qg2AqtHUX8t7JQAuyDGcFFbwFbrjAZU3Nsl0RwNz2KOaysWR7uz10o6iT7VEnnYn
JT4Wr2I=
-----END CERTIFICATE-----
