Certificate:
    Data:
        Version: 3 (0x2)
        Serial Number: 231 (0xe7)
    Signature Algorithm: sha256WithRSAEncryption
        Issuer: C=FR, ST=idf, L=paris, O=Vitam., CN=CA_client-external
        Validity
            Not Before: Mar 15 12:18:42 2017 GMT
            Not After : Mar 13 12:18:42 2027 GMT
        Subject: C=FR, ST=idf, L=paris, O=Vitam., CN=CA_client-external
        Subject Public Key Info:
            Public Key Algorithm: rsaEncryption
                Public-Key: (4096 bit)
                Modulus:
                    00:e4:90:11:9b:72:c3:f2:0f:dc:3e:a0:59:47:a4:
                    e3:90:a2:45:88:5c:30:0c:66:fb:7f:2e:63:4f:a4:
                    fc:e0:db:45:7d:f9:74:49:bd:73:1d:e6:97:fd:90:
                    60:3a:ff:22:5c:66:ab:67:8a:a9:23:75:8c:0d:44:
                    ba:e3:9f:bc:5f:64:3e:4c:d4:9c:26:df:15:f4:1a:
                    55:e4:27:52:32:b8:fe:2a:19:f2:25:c2:6b:1d:d0:
                    ea:fb:f9:7a:4d:1b:6b:fb:08:1c:90:a7:e5:96:9c:
                    ce:cc:f4:16:9a:70:e7:f1:c4:f7:c5:84:e2:ee:59:
                    44:0e:93:a1:b5:b2:9e:2c:39:f3:ee:4f:af:55:a3:
                    c9:4c:74:93:20:1e:c1:75:9c:14:62:36:69:16:29:
                    97:0d:72:bf:bb:3c:de:88:8e:de:d1:c0:c9:ef:39:
                    b3:09:eb:2a:7b:2d:17:26:8a:93:f9:45:4b:9a:f8:
                    55:8a:03:8e:ba:f4:e8:57:4e:46:93:5e:1b:3f:d0:
                    49:85:60:f8:2f:8c:5e:74:68:82:3d:03:44:0d:94:
                    1c:2f:9d:9f:31:71:cf:66:5e:77:20:21:6d:b3:c3:
                    75:42:ad:ed:63:00:60:40:aa:74:4c:19:af:92:ba:
                    98:c1:32:b4:4f:1d:f4:30:6c:7e:a6:65:97:35:61:
                    57:8e:d7:0d:dc:7d:fb:31:2a:f5:2c:1d:08:22:77:
                    58:26:50:be:4d:21:a2:49:7d:4d:ba:84:54:62:74:
                    96:35:af:c7:ec:82:07:a3:72:9d:07:7d:1a:de:70:
                    75:41:72:06:e6:c9:68:e1:49:51:dd:04:e6:96:48:
                    53:36:dc:43:b5:60:0f:c6:6f:36:8b:33:51:67:89:
                    b8:6a:1d:92:90:f3:bb:50:40:6e:09:67:eb:c1:08:
                    c1:05:50:72:2c:b1:78:3e:3c:e6:d6:f2:dc:4c:4a:
                    b7:43:13:33:c6:37:6f:dc:ea:ba:d8:7c:a8:c3:f3:
                    a3:d5:eb:49:c9:bf:e7:18:eb:52:2c:18:5b:65:9f:
                    27:a8:df:a7:8e:4a:9b:41:3c:e5:f2:e8:10:e6:c0:
                    9c:03:25:e0:8a:87:14:5d:ba:90:54:56:b7:e7:74:
                    56:78:b4:28:ef:ec:9f:d4:97:5e:b3:24:6a:85:60:
                    7e:a2:2e:7b:2e:c0:4e:f8:5f:47:31:f4:2b:ad:82:
                    4c:db:af:11:19:27:fb:ed:01:dc:7c:98:82:a3:45:
                    0f:27:ba:bc:05:8e:85:ca:79:91:f1:a0:b0:e7:fc:
                    02:6d:77:28:1a:c6:f0:a0:56:32:78:cb:02:f1:25:
                    8d:eb:e2:59:c6:3e:e6:2b:cd:80:b8:24:da:68:7c:
                    44:1e:d5
                Exponent: 65537 (0x10001)
        X509v3 extensions:
            Netscape Comment: 
                CA SSL
            X509v3 Basic Constraints: critical
                CA:TRUE, pathlen:0
            X509v3 Subject Key Identifier: 
                52:CF:41:75:A8:85:BC:E1:0D:F3:80:3E:7D:82:31:1A:78:CE:A0:A7
            X509v3 Authority Key Identifier: 
                keyid:17:7C:1C:12:06:A1:DC:B8:B8:67:66:2C:FD:E2:60:19:01:EA:4B:1D
                DirName:/C=FR/ST=idf/L=paris/O=Vitam./CN=CA_client-external
                serial:E6

            X509v3 Issuer Alternative Name: 
                <EMPTY>

            X509v3 Key Usage: 
                Certificate Sign, CRL Sign
            Netscape Cert Type: 
                SSL CA
    Signature Algorithm: sha256WithRSAEncryption
         25:76:72:d0:36:9d:d3:76:d7:1e:d9:1e:a9:ce:59:d2:b6:62:
         87:cb:13:e1:a0:da:80:e9:14:dd:35:99:a5:21:dc:e4:3c:85:
         1f:b1:d3:a7:2c:f2:47:e8:8f:98:23:21:df:51:8c:ed:29:fe:
         8f:96:2d:01:ef:8d:71:c2:ce:a9
-----BEGIN CERTIFICATE-----
MIIEajCCBBSgAwIBAgICAOcwDQYJKoZIhvcNAQELBQAwWTELMAkGA1UEBhMCRlIx
DDAKBgNVBAgTA2lkZjEOMAwGA1UEBxMFcGFyaXMxDzANBgNVBAoTBlZpdGFtLjEb
MBkGA1UEAxQSQ0FfY2xpZW50LWV4dGVybmFsMB4XDTE3MDMxNTEyMTg0MloXDTI3
MDMxMzEyMTg0MlowWTELMAkGA1UEBhMCRlIxDDAKBgNVBAgTA2lkZjEOMAwGA1UE
BxMFcGFyaXMxDzANBgNVBAoTBlZpdGFtLjEbMBkGA1UEAxQSQ0FfY2xpZW50LWV4
dGVybmFsMIICIjANBgkqhkiG9w0BAQEFAAOCAg8AMIICCgKCAgEA5JARm3LD8g/c
PqBZR6TjkKJFiFwwDGb7fy5jT6T84NtFffl0Sb1zHeaX/ZBgOv8iXGarZ4qpI3WM
DUS645+8X2Q+TNScJt8V9BpV5CdSMrj+KhnyJcJrHdDq+/l6TRtr+wgckKfllpzO
zPQWmnDn8cT3xYTi7llEDpOhtbKeLDnz7k+vVaPJTHSTIB7BdZwUYjZpFimXDXK/
uzzeiI7e0cDJ7zmzCesqey0XJoqT+UVLmvhVigOOuvToV05Gk14bP9BJhWD4L4xe
dGiCPQNEDZQcL52fMXHPZl53ICFts8N1Qq3tYwBgQKp0TBmvkrqYwTK0Tx30MGx+
pmWXNWFXjtcN3H37MSr1LB0IIndYJlC+TSGiSX1NuoRUYnSWNa/H7IIHo3KdB30a
3nB1QXIG5slo4UlR3QTmlkhTNtxDtWAPxm82izNRZ4m4ah2SkPO7UEBuCWfrwQjB
BVByLLF4Pjzm1vLcTEq3QxMzxjdv3Oq62Hyow/Oj1etJyb/nGOtSLBhbZZ8nqN+n
jkqbQTzl8ugQ5sCcAyXgiocUXbqQVFa353RWeLQo7+yf1JdesyRqhWB+oi57LsBO
+F9HMfQrrYJM268RGSf77QHcfJiCo0UPJ7q8BY6FynmR8aCw5/wCbXcoGsbwoFYy
eMsC8SWN6+JZxj7mK82AuCTaaHxEHtUCAwEAAaOB/TCB+jAVBglghkgBhvhCAQ0E
CBYGQ0EgU1NMMBIGA1UdEwEB/wQIMAYBAf8CAQAwHQYDVR0OBBYEFFLPQXWohbzh
DfOAPn2CMRp4zqCnMIGCBgNVHSMEezB5gBQXfBwSBqHcuLhnZiz94mAZAepLHaFd
pFswWTELMAkGA1UEBhMCRlIxDDAKBgNVBAgTA2lkZjEOMAwGA1UEBxMFcGFyaXMx
DzANBgNVBAoTBlZpdGFtLjEbMBkGA1UEAxQSQ0FfY2xpZW50LWV4dGVybmFsggIA
5jAJBgNVHRIEAjAAMAsGA1UdDwQEAwIBBjARBglghkgBhvhCAQEEBAMCAgQwDQYJ
KoZIhvcNAQELBQADQQAldnLQNp3Tdtce2R6pzlnStmKHyxPhoNqA6RTdNZmlIdzk
PIUfsdOnLPJH6I+YIyHfUYztKf6Pli0B741xws6p
-----END CERTIFICATE-----
