Certificate:
    Data:
        Version: 3 (0x2)
        Serial Number: 226 (0xe2)
    Signature Algorithm: sha256WithRSAEncryption
        Issuer: C=FR, ST=idf, L=paris, O=Vitam., CN=CA_client-external
        Validity
            Not Before: Mar  6 18:03:40 2017 GMT
            Not After : Mar  4 18:03:40 2027 GMT
        Subject: C=FR, ST=idf, L=paris, O=Vitam., CN=CA_client-external
        Subject Public Key Info:
            Public Key Algorithm: rsaEncryption
                Public-Key: (4096 bit)
                Modulus:
                    00:c2:ac:ae:e9:94:18:3d:8a:61:c1:b3:85:a5:50:
                    a5:87:96:e7:74:bc:58:39:36:22:c0:cf:7d:a8:73:
                    dc:cd:fd:ff:1a:ec:25:f1:47:2a:46:a5:f9:77:93:
                    74:9f:93:b6:8e:d9:09:6c:40:ff:8a:db:00:48:95:
                    a3:74:02:ab:2d:b8:da:56:ff:04:82:1a:42:b4:fc:
                    42:78:19:60:df:cf:e7:a6:28:e6:6f:68:26:5f:dd:
                    80:76:bb:83:f3:5d:63:11:ba:d6:d3:7d:e6:93:75:
                    ee:4e:1c:7c:fb:25:11:b3:75:bd:94:55:75:c9:93:
                    18:09:8e:fb:28:43:79:4e:8b:c3:d7:d9:c1:b3:7b:
                    0c:81:05:3f:8e:d7:85:aa:3a:eb:59:8b:c1:a9:20:
                    f6:29:37:ed:38:c4:0e:19:75:8e:93:82:7f:1e:a2:
                    3a:02:aa:aa:d8:cc:55:e3:e1:81:6e:30:0e:0c:49:
                    74:a8:54:7f:d9:00:21:cb:eb:bd:cb:c7:ef:98:ab:
                    bf:ab:2b:54:a7:de:3f:7f:cf:77:85:64:c0:de:df:
                    b8:35:ff:27:66:69:e9:cc:ec:83:fe:ef:38:cd:ac:
                    4f:c1:4e:e0:1b:0a:38:b9:ca:a0:51:ec:f8:24:67:
                    84:6b:cd:d5:e9:1f:db:16:1e:4c:19:8f:0c:86:d7:
                    03:0c:b4:1d:81:d9:5e:6a:a2:90:18:85:a1:49:b6:
                    e6:75:1d:5e:ea:9f:86:81:67:2d:e1:0b:51:0d:b2:
                    48:ab:0b:35:fc:4e:f5:09:ed:37:e9:9c:1a:cf:56:
                    ce:b7:0e:25:e9:58:9c:58:28:e2:04:ae:1f:8b:58:
                    7b:48:c3:19:7d:13:b4:96:34:72:01:07:de:08:07:
                    ec:1c:de:31:b3:8f:21:88:62:cc:00:81:da:30:03:
                    31:d6:15:6b:4c:40:37:af:72:da:b1:56:c0:33:98:
                    a3:34:ae:27:52:91:d7:d4:6e:ad:57:64:4b:bd:25:
                    e6:4f:43:0c:9b:76:df:ad:49:47:8b:e0:de:d5:2a:
                    f7:f4:2d:97:8a:05:da:e6:3e:6f:30:8b:e5:51:cb:
                    1a:1e:2d:b5:fb:d3:11:a2:0f:ce:c4:d0:de:e5:cb:
                    4b:de:71:53:cd:2b:fc:6a:8d:62:80:63:65:f8:44:
                    cd:12:af:0c:84:fe:34:5f:ab:66:3b:b8:b5:04:ed:
                    87:e4:34:68:06:e8:51:0a:b0:68:15:33:a5:54:84:
                    11:f3:3b:8d:ff:f1:b5:b7:eb:18:86:b7:cc:4f:4d:
                    56:4f:d7:ee:9f:48:a0:6b:ac:bb:84:38:9a:fa:ed:
                    45:66:67:20:04:f8:06:13:ab:2d:d6:13:a6:af:dd:
                    5b:17:97
                Exponent: 65537 (0x10001)
        X509v3 extensions:
            Netscape Comment: 
                CA SSL
            X509v3 Basic Constraints: critical
                CA:TRUE, pathlen:0
            X509v3 Subject Key Identifier: 
                36:48:CC:91:59:E7:8F:3D:F0:2E:12:2E:1C:47:64:26:7B:CF:4D:54
            X509v3 Authority Key Identifier: 
                keyid:34:77:51:1F:FD:FA:2D:80:A7:0D:F2:BA:56:DB:DF:65:5A:FB:EF:B5
                DirName:/C=FR/ST=idf/L=paris/O=Vitam./CN=CA_client-external
                serial:E1

            X509v3 Issuer Alternative Name: 
                <EMPTY>

            X509v3 Key Usage: 
                Certificate Sign, CRL Sign
            Netscape Cert Type: 
                SSL CA
    Signature Algorithm: sha256WithRSAEncryption
         50:13:72:ed:a4:a9:08:0c:62:52:20:e0:4c:3d:78:bb:f1:3b:
         1b:a1:01:91:bf:70:76:44:90:0d:ce:09:24:20:1c:94:87:c7:
         16:ff:b7:2f:ec:f5:e1:c9:65:de:8e:c7:51:2f:b9:69:3d:c0:
         59:8f:9f:81:11:f8:ff:0b:be:c8:44:50:15:38:26:0f:23:07:
         23:df:42:f2:d8:8f:19:48:e9:19:b9:e3:fb:78:4d:86:11:99:
         28:dd:98:f9:51:53:e5:e9:70:c3:58:fb:db:cc:2b:6b:ac:2a:
         d6:bd:07:37:86:70:81:7f:fa:36:de:49:c6:e9:d4:11:db:bd:
         48:01:92:26:b9:f9:ec:b0:df:b9:05:4a:c8:8f:93:44:8f:56:
         bc:bf:32:19:16:15:d8:2e:e1:cf:17:8d:a7:9e:bf:d7:c1:3d:
         c6:4a:fe:74:ea:60:75:8f:41:2b:a3:9d:4b:76:d2:83:5b:1a:
         ce:2e:7f:0e:5c:df:b6:2b:7d:ae:d7:fc:15:95:cb:48:b5:8f:
         bb:3c:5c:4a:0a:8a:22:e1:5a:54:0b:48:81:5b:dc:ae:51:d1:
         32:20:4a:71:00:64:13:08:cb:59:bc:c4:30:77:74:2c:35:21:
         a4:4f:1b:1a:c6:c4:21:9a:b1:54:2f:08:dc:3a:5c:d1:72:ee:
         7e:d8:2c:cb
-----BEGIN CERTIFICATE-----
MIIFLDCCBBSgAwIBAgICAOIwDQYJKoZIhvcNAQELBQAwWTELMAkGA1UEBhMCRlIx
DDAKBgNVBAgMA2lkZjEOMAwGA1UEBwwFcGFyaXMxDzANBgNVBAoMBlZpdGFtLjEb
MBkGA1UEAwwSQ0FfY2xpZW50LWV4dGVybmFsMB4XDTE3MDMwNjE4MDM0MFoXDTI3
MDMwNDE4MDM0MFowWTELMAkGA1UEBhMCRlIxDDAKBgNVBAgMA2lkZjEOMAwGA1UE
BwwFcGFyaXMxDzANBgNVBAoMBlZpdGFtLjEbMBkGA1UEAwwSQ0FfY2xpZW50LWV4
dGVybmFsMIICIjANBgkqhkiG9w0BAQEFAAOCAg8AMIICCgKCAgEAwqyu6ZQYPYph
wbOFpVClh5bndLxYOTYiwM99qHPczf3/Guwl8UcqRqX5d5N0n5O2jtkJbED/itsA
SJWjdAKrLbjaVv8EghpCtPxCeBlg38/npijmb2gmX92AdruD811jEbrW033mk3Xu
Thx8+yURs3W9lFV1yZMYCY77KEN5TovD19nBs3sMgQU/jteFqjrrWYvBqSD2KTft
OMQOGXWOk4J/HqI6Aqqq2MxV4+GBbjAODEl0qFR/2QAhy+u9y8fvmKu/qytUp94/
f893hWTA3t+4Nf8nZmnpzOyD/u84zaxPwU7gGwo4ucqgUez4JGeEa83V6R/bFh5M
GY8MhtcDDLQdgdleaqKQGIWhSbbmdR1e6p+GgWct4QtRDbJIqws1/E71Ce036Zwa
z1bOtw4l6VicWCjiBK4fi1h7SMMZfRO0ljRyAQfeCAfsHN4xs48hiGLMAIHaMAMx
1hVrTEA3r3LasVbAM5ijNK4nUpHX1G6tV2RLvSXmT0MMm3bfrUlHi+De1Sr39C2X
igXa5j5vMIvlUcsaHi21+9MRog/OxNDe5ctL3nFTzSv8ao1igGNl+ETNEq8MhP40
X6tmO7i1BO2H5DRoBuhRCrBoFTOlVIQR8zuN//G1t+sYhrfMT01WT9fun0iga6y7
hDia+u1FZmcgBPgGE6st1hOmr91bF5cCAwEAAaOB/TCB+jAVBglghkgBhvhCAQ0E
CBYGQ0EgU1NMMBIGA1UdEwEB/wQIMAYBAf8CAQAwHQYDVR0OBBYEFDZIzJFZ5489
8C4SLhxHZCZ7z01UMIGCBgNVHSMEezB5gBQ0d1Ef/fotgKcN8rpW299lWvvvtaFd
pFswWTELMAkGA1UEBhMCRlIxDDAKBgNVBAgMA2lkZjEOMAwGA1UEBwwFcGFyaXMx
DzANBgNVBAoMBlZpdGFtLjEbMBkGA1UEAwwSQ0FfY2xpZW50LWV4dGVybmFsggIA
4TAJBgNVHRIEAjAAMAsGA1UdDwQEAwIBBjARBglghkgBhvhCAQEEBAMCAgQwDQYJ
KoZIhvcNAQELBQADggEBAFATcu2kqQgMYlIg4Ew9eLvxOxuhAZG/cHZEkA3OCSQg
HJSHxxb/ty/s9eHJZd6Ox1EvuWk9wFmPn4ER+P8LvshEUBU4Jg8jByPfQvLYjxlI
6Rm54/t4TYYRmSjdmPlRU+XpcMNY+9vMK2usKta9BzeGcIF/+jbeScbp1BHbvUgB
kia5+eyw37kFSsiPk0SPVry/MhkWFdgu4c8Xjaeev9fBPcZK/nTqYHWPQSujnUt2
0oNbGs4ufw5c37Yrfa7X/BWVy0i1j7s8XEoKiiLhWlQLSIFb3K5R0TIgSnEAZBMI
y1m8xDB3dCw1IaRPGxrGxCGasVQvCNw6XNFy7n7YLMs=
-----END CERTIFICATE-----
