Certificate:
    Data:
        Version: 3 (0x2)
        Serial Number: 246 (0xf6)
    Signature Algorithm: sha256WithRSAEncryption
        Issuer: C=fr, ST=idf, L=paris, O=vitam, OU=authorities, CN=ca_root_client-external
        Validity
            Not Before: Aug  9 16:04:04 2017 GMT
            Not After : Aug  7 16:04:04 2027 GMT
        Subject: C=fr, ST=idf, L=paris, O=vitam, OU=authorities, CN=ca_intermediate_client-external
        Subject Public Key Info:
            Public Key Algorithm: rsaEncryption
                Public-Key: (4096 bit)
                Modulus:
                    00:be:20:75:90:2d:cd:b1:a0:09:89:22:68:74:4e:
                    de:22:93:9e:f1:a6:25:e7:35:a4:0d:ab:96:1c:04:
                    6b:2a:c9:38:dc:d5:0c:72:49:99:05:1f:96:44:45:
                    c8:55:06:fd:0e:39:38:16:fd:d5:84:77:bd:e4:0e:
                    20:62:47:af:86:21:09:cc:f9:12:6d:66:fc:b8:66:
                    2a:92:a6:7f:5e:ba:21:ea:d7:ff:e7:6f:b6:11:5b:
                    c3:b6:52:2a:79:f4:b1:cf:fc:ab:38:b2:ce:0a:0e:
                    09:37:04:16:51:18:15:01:7d:c8:b9:7e:70:7a:8d:
                    71:23:90:e4:4f:ed:19:49:e4:80:9e:02:61:47:80:
                    5d:dc:80:69:2e:99:e2:7f:41:c6:e2:38:d4:f7:1d:
                    d7:10:f5:35:64:13:ca:38:75:82:4d:9d:3f:2b:7f:
                    58:3e:8c:53:41:e2:ea:78:96:dd:76:05:3e:14:e2:
                    2b:fb:03:5b:3c:0d:4d:72:9a:d4:ff:8a:00:a0:a5:
                    ab:2e:8e:f8:36:cc:a8:69:94:85:8b:a2:8e:b9:8c:
                    eb:23:50:0c:94:b6:68:43:54:8a:47:6a:4a:ca:38:
                    6e:56:a8:d4:9a:3d:18:76:1a:29:08:21:fe:d2:9a:
                    27:fa:de:b9:f7:3e:fb:ee:19:62:b8:8a:84:4a:23:
                    37:7a:38:63:b0:53:e3:0d:fe:23:a1:39:d7:25:8f:
                    ed:12:08:37:c8:4d:e6:1d:03:ad:0d:c2:90:bf:27:
                    8a:ec:24:3c:b7:f0:da:79:72:eb:5f:6e:1f:99:ac:
                    0c:df:df:be:45:54:e3:b4:c4:3b:6f:35:30:c8:35:
                    a7:c1:9d:b6:a4:4b:f5:ba:15:3f:c4:ff:57:d7:9d:
                    a9:94:54:cd:90:49:66:7e:83:60:5f:a6:43:d4:4e:
                    05:10:51:61:15:e7:25:de:00:04:db:72:84:fc:85:
                    6d:43:f7:0f:bf:15:92:4f:ba:52:28:50:c3:40:f7:
                    0a:97:93:09:0a:83:93:07:ba:b2:cd:31:35:52:41:
                    61:cb:c3:bb:c2:c7:9d:fb:d2:03:41:fc:f9:e2:79:
                    40:b9:d0:43:e6:21:d8:5a:a4:02:74:55:1b:71:7f:
                    02:e1:24:51:db:c4:d2:78:16:44:de:e2:3f:7c:53:
                    c6:c3:ea:20:7b:13:11:a4:6b:5d:c4:f1:e7:92:e3:
                    02:3d:1f:c9:fe:e0:b2:a6:3a:0a:2e:a6:2b:6e:a0:
                    2b:a8:fa:10:6b:42:1b:07:7d:35:a6:13:ec:4c:a9:
                    56:de:17:96:cc:34:ff:de:35:4c:c6:03:06:4a:ed:
                    21:e9:a5:c4:5d:4c:24:03:44:61:60:b6:18:76:0a:
                    f4:67:8b
                Exponent: 65537 (0x10001)
        X509v3 extensions:
            Netscape Comment: 
                CA Intermediate
            X509v3 Subject Key Identifier: 
                96:3E:D4:77:D3:84:42:19:D3:62:5C:41:7C:64:76:26:5C:39:95:0D
            X509v3 Authority Key Identifier: 
                keyid:4A:3C:B9:4E:33:47:58:AE:B5:AE:4E:78:24:42:CB:94:4B:19:C6:AC
                DirName:/C=fr/ST=idf/L=paris/O=vitam/OU=authorities/CN=ca_root_client-external
                serial:F5

            X509v3 Basic Constraints: critical
                CA:TRUE, pathlen:0
            X509v3 Issuer Alternative Name: 
                <EMPTY>

            X509v3 Key Usage: 
                Certificate Sign, CRL Sign
            Netscape Cert Type: 
                SSL CA
    Signature Algorithm: sha256WithRSAEncryption
         a1:06:01:24:30:01:c7:89:ed:69:5d:4c:b3:c0:fc:8a:9d:45:
         43:8c:0c:fc:a4:b1:6b:c9:73:51:56:16:df:53:df:64:8e:7c:
         d6:22:30:3f:8d:60:2c:fe:4c:85:c7:93:78:99:4c:75:b5:4f:
         e7:c4:d1:ee:36:3f:5c:ac:d2:27:fd:59:47:82:4b:4c:8a:02:
         69:ef:fe:5f:ec:d9:c6:5e:1e:75:d2:71:71:a8:ae:86:0c:26:
         2f:6a:d5:71:1e:42:55:60:f4:e6:e4:bf:6b:59:ab:24:3a:f3:
         e6:f4:b8:93:5d:3c:f7:27:b2:26:64:7f:73:de:a0:86:01:19:
         d1:15:22:dd:ff:5b:73:50:46:bd:f4:b4:96:42:d7:c8:fa:86:
         64:9b:e6:e7:75:ab:20:2c:00:a3:b6:c8:23:8c:3e:a1:ad:d4:
         22:4e:f6:3e:11:22:db:ed:d7:0d:e4:36:6a:2a:87:d7:f9:f9:
         1a:89:de:03:68:9c:54:36:41:67:5e:04:86:87:fc:c7:51:46:
         a9:da:12:b8:09:fd:bc:43:36:62:4f:f9:ac:8c:d1:fc:db:7a:
         1d:53:35:7e:3e:9b:36:e4:78:49:20:5d:1f:70:55:b4:8d:2d:
         5e:b5:24:4b:38:83:50:ce:0a:15:ca:55:9b:49:ef:33:97:5c:
         1c:fb:7c:5b:46:79:f2:b9:9e:65:e1:51:d1:e2:d5:b6:dd:f8:
         75:71:43:b0:d8:06:5a:7a:84:2e:90:a6:bd:64:00:40:90:a1:
         d7:3a:c1:a2:1a:ae:9d:a8:4a:28:32:a5:64:c8:6f:3e:ab:2a:
         2c:e5:fa:ae:1a:89:f5:37:e6:e8:86:d8:fa:26:d7:36:38:60:
         83:8f:99:82:4c:40:4f:94:36:02:1c:e7:3b:99:e4:93:68:95:
         f0:39:db:0a:c3:c2:fb:13:f4:06:52:6e:28:f8:ba:3d:42:47:
         39:fe:ff:67:c0:41:ae:b8:e6:6f:8a:7e:8c:92:3b:02:4e:29:
         5d:6a:e2:67:d7:9f:71:81:9d:f3:00:7a:39:75:88:14:02:5d:
         df:d5:76:e5:08:a3:fc:d9:82:fc:87:d3:c3:ee:8c:44:24:92:
         ed:24:12:ce:6a:9f:f1:54:d9:47:29:82:a8:ff:91:ad:82:3a:
         32:19:ac:80:9e:3f:c5:93:af:f6:6a:ae:33:c2:e9:cc:61:e1:
         3a:2f:8f:04:7b:89:42:4c:f4:7d:ab:e7:84:94:b4:39:fc:48:
         33:cb:20:5a:c6:9a:1b:0c:34:4a:1f:e1:0e:a5:82:4c:95:ae:
         72:77:eb:5f:fc:5f:31:90:d1:64:4d:4f:32:f6:3b:e1:50:f3:
         08:ce:ae:66:69:d4:21:43
-----BEGIN CERTIFICATE-----
MIIGjzCCBHegAwIBAgICAPYwDQYJKoZIhvcNAQELBQAwczELMAkGA1UEBhMCZnIx
DDAKBgNVBAgMA2lkZjEOMAwGA1UEBwwFcGFyaXMxDjAMBgNVBAoMBXZpdGFtMRQw
EgYDVQQLDAthdXRob3JpdGllczEgMB4GA1UEAwwXY2Ffcm9vdF9jbGllbnQtZXh0
ZXJuYWwwHhcNMTcwODA5MTYwNDA0WhcNMjcwODA3MTYwNDA0WjB7MQswCQYDVQQG
EwJmcjEMMAoGA1UECAwDaWRmMQ4wDAYDVQQHDAVwYXJpczEOMAwGA1UECgwFdml0
YW0xFDASBgNVBAsMC2F1dGhvcml0aWVzMSgwJgYDVQQDDB9jYV9pbnRlcm1lZGlh
dGVfY2xpZW50LWV4dGVybmFsMIICIjANBgkqhkiG9w0BAQEFAAOCAg8AMIICCgKC
AgEAviB1kC3NsaAJiSJodE7eIpOe8aYl5zWkDauWHARrKsk43NUMckmZBR+WREXI
VQb9Djk4Fv3VhHe95A4gYkevhiEJzPkSbWb8uGYqkqZ/Xroh6tf/52+2EVvDtlIq
efSxz/yrOLLOCg4JNwQWURgVAX3IuX5weo1xI5DkT+0ZSeSAngJhR4Bd3IBpLpni
f0HG4jjU9x3XEPU1ZBPKOHWCTZ0/K39YPoxTQeLqeJbddgU+FOIr+wNbPA1NcprU
/4oAoKWrLo74NsyoaZSFi6KOuYzrI1AMlLZoQ1SKR2pKyjhuVqjUmj0YdhopCCH+
0pon+t659z777hliuIqESiM3ejhjsFPjDf4joTnXJY/tEgg3yE3mHQOtDcKQvyeK
7CQ8t/DaeXLrX24fmawM39++RVTjtMQ7bzUwyDWnwZ22pEv1uhU/xP9X152plFTN
kElmfoNgX6ZD1E4FEFFhFecl3gAE23KE/IVtQ/cPvxWST7pSKFDDQPcKl5MJCoOT
B7qyzTE1UkFhy8O7wsed+9IDQfz54nlAudBD5iHYWqQCdFUbcX8C4SRR28TSeBZE
3uI/fFPGw+ogexMRpGtdxPHnkuMCPR/J/uCypjoKLqYrbqArqPoQa0IbB301phPs
TKlW3heWzDT/3jVMxgMGSu0h6aXEXUwkA0RhYLYYdgr0Z4sCAwEAAaOCASMwggEf
MB4GCWCGSAGG+EIBDQQRFg9DQSBJbnRlcm1lZGlhdGUwHQYDVR0OBBYEFJY+1HfT
hEIZ02JcQXxkdiZcOZUNMIGeBgNVHSMEgZYwgZOAFEo8uU4zR1iuta5OeCRCy5RL
GcasoXekdTBzMQswCQYDVQQGEwJmcjEMMAoGA1UECAwDaWRmMQ4wDAYDVQQHDAVw
YXJpczEOMAwGA1UECgwFdml0YW0xFDASBgNVBAsMC2F1dGhvcml0aWVzMSAwHgYD
VQQDDBdjYV9yb290X2NsaWVudC1leHRlcm5hbIICAPUwEgYDVR0TAQH/BAgwBgEB
/wIBADAJBgNVHRIEAjAAMAsGA1UdDwQEAwIBBjARBglghkgBhvhCAQEEBAMCAgQw
DQYJKoZIhvcNAQELBQADggIBAKEGASQwAceJ7WldTLPA/IqdRUOMDPyksWvJc1FW
Ft9T32SOfNYiMD+NYCz+TIXHk3iZTHW1T+fE0e42P1ys0if9WUeCS0yKAmnv/l/s
2cZeHnXScXGoroYMJi9q1XEeQlVg9Obkv2tZqyQ68+b0uJNdPPcnsiZkf3PeoIYB
GdEVIt3/W3NQRr30tJZC18j6hmSb5ud1qyAsAKO2yCOMPqGt1CJO9j4RItvt1w3k
Nmoqh9f5+RqJ3gNonFQ2QWdeBIaH/MdRRqnaErgJ/bxDNmJP+ayM0fzbeh1TNX4+
mzbkeEkgXR9wVbSNLV61JEs4g1DOChXKVZtJ7zOXXBz7fFtGefK5nmXhUdHi1bbd
+HVxQ7DYBlp6hC6Qpr1kAECQodc6waIarp2oSigypWTIbz6rKizl+q4aifU35uiG
2Pom1zY4YIOPmYJMQE+UNgIc5zuZ5JNolfA52wrDwvsT9AZSbij4uj1CRzn+/2fA
Qa645m+KfoySOwJOKV1q4mfXn3GBnfMAejl1iBQCXd/VduUIo/zZgvyH08PujEQk
ku0kEs5qn/FU2Ucpgqj/ka2COjIZrICeP8WTr/ZqrjPC6cxh4TovjwR7iUJM9H2r
54SUtDn8SDPLIFrGmhsMNEof4Q6lgkyVrnJ361/8XzGQ0WRNTzL2O+FQ8wjOrmZp
1CFD
-----END CERTIFICATE-----
