Certificate:
    Data:
        Version: 3 (0x2)
        Serial Number: 252 (0xfc)
    Signature Algorithm: sha256WithRSAEncryption
        Issuer: C=fr, ST=idf, L=paris, O=vitam, OU=authorities, CN=ca_root_client-external
        Validity
            Not Before: Feb 21 16:34:55 2018 GMT
            Not After : Feb 19 16:34:55 2028 GMT
        Subject: C=fr, ST=idf, L=paris, O=vitam, OU=authorities, CN=ca_intermediate_client-external
        Subject Public Key Info:
            Public Key Algorithm: rsaEncryption
                Public-Key: (4096 bit)
                Modulus:
                    00:9c:a3:f1:d9:8b:92:f0:4b:2c:47:e7:4e:fc:eb:
                    21:b8:64:6c:aa:20:84:bb:23:ec:a8:04:ef:c7:a5:
                    37:9c:5b:84:29:10:86:fe:de:cf:57:f1:2a:63:05:
                    64:7e:f4:a2:0b:c5:da:bb:84:35:a7:9c:fb:d2:0e:
                    1e:df:81:fd:3d:c4:ee:50:af:ca:41:46:c1:79:6b:
                    e7:15:d1:90:16:80:8a:41:aa:43:71:25:80:5f:e4:
                    c9:0f:98:23:57:ef:78:88:98:3d:2c:11:7b:0e:92:
                    d7:5e:5f:48:1b:43:7a:72:c8:2d:e2:46:bc:ee:88:
                    bd:d9:eb:9c:da:91:65:26:92:b5:df:e7:bc:b6:ad:
                    05:6e:9f:d2:c0:0f:8c:15:b4:cb:be:df:51:4e:56:
                    05:79:3e:7a:6c:85:34:dc:ac:80:de:8b:fa:7b:2f:
                    4b:f4:59:25:45:57:41:bd:41:12:56:52:2c:01:a7:
                    2c:eb:f2:e8:e9:1c:21:ba:d8:b8:8e:b5:a8:53:9d:
                    b6:85:57:6b:e6:0b:d4:25:d3:db:03:17:3c:c7:a2:
                    24:bd:4b:39:77:1d:48:08:6b:47:df:9d:fe:b8:39:
                    40:4e:0f:3c:02:22:8f:e5:7e:e7:b5:1b:fa:80:49:
                    52:d6:25:39:a7:49:47:08:9c:ef:e9:43:ed:c1:1d:
                    65:b7:bc:69:2f:49:0d:26:b4:c6:1e:d7:e5:ed:da:
                    82:87:83:30:09:7d:e3:df:6d:f8:04:df:91:f8:2a:
                    ef:b8:8b:c9:e7:82:01:ae:e7:e8:7b:09:c7:a7:bb:
                    21:02:9b:47:e8:68:52:2e:de:18:d6:bd:2f:3a:8b:
                    81:09:69:b1:1e:eb:5a:d7:79:64:a0:7e:92:55:45:
                    9c:92:ff:ed:80:2a:ae:13:75:88:7b:d4:59:36:d0:
                    7f:cc:4e:4a:bf:ba:c7:ea:ba:3d:de:38:d0:4d:63:
                    29:04:bf:65:e4:a7:55:b8:38:1d:0c:f7:79:de:0c:
                    d5:ba:0a:c2:e5:54:7a:54:ae:b6:ac:4b:c8:45:cd:
                    09:53:bc:f3:b8:b5:9e:1a:d1:ba:ae:4c:ce:81:7d:
                    1c:80:6b:76:6e:db:6b:49:f6:dd:56:81:26:12:bf:
                    21:38:9d:df:c8:95:92:bc:ec:ba:31:f9:e1:a6:e5:
                    22:2b:a8:7e:51:56:eb:7c:d7:93:54:55:08:3c:78:
                    45:6d:05:fc:af:92:c7:75:12:7b:46:cc:eb:55:61:
                    d9:a9:c2:9a:9a:26:2b:4f:d7:8f:f7:b2:32:a5:36:
                    27:82:1e:de:55:88:9d:bc:cd:e8:93:1a:98:ae:3c:
                    19:ee:b3:d9:e8:81:c4:17:67:48:b0:ae:62:77:10:
                    68:f3:93
                Exponent: 65537 (0x10001)
        X509v3 extensions:
            Netscape Comment: 
                CA Intermediate
            X509v3 Subject Key Identifier: 
                9C:8B:2B:E0:30:68:BA:20:26:1D:BA:07:A0:48:19:6B:2C:DE:0E:26
            X509v3 Authority Key Identifier: 
                keyid:FD:FC:F0:84:43:7D:F4:4A:57:42:64:3E:B2:2E:B6:3A:79:1C:A4:F2
                DirName:/C=fr/ST=idf/L=paris/O=vitam/OU=authorities/CN=ca_root_client-external
                serial:FB

            X509v3 Basic Constraints: critical
                CA:TRUE, pathlen:0
            X509v3 Issuer Alternative Name: 
                <EMPTY>

            X509v3 Key Usage: 
                Certificate Sign, CRL Sign
            Netscape Cert Type: 
                SSL CA
    Signature Algorithm: sha256WithRSAEncryption
         8a:35:a7:6d:1a:84:e5:9f:17:49:9a:31:a0:c8:17:87:39:c8:
         00:8d:62:6e:63:e5:4f:b2:9b:09:bc:87:6a:f8:c6:82:19:51:
         95:5a:ba:95:23:1e:34:de:27:a5:64:45:e1:e1:f1:65:06:e9:
         a9:a4:32:41:00:f7:82:1b:a0:f4:6f:0a:09:ae:dc:e5:87:d2:
         4c:22:ae:79:e0:1f:4e:08:9a:d3:6d:0c:cb:27:94:66:31:7a:
         36:cd:30:f8:27:12:01:d6:e8:3d:7e:56:a5:50:47:6e:c5:39:
         f4:7b:b2:ff:bf:e9:9b:ef:fd:d6:7c:82:23:f3:ee:ae:48:72:
         61:a4:dc:47:2e:da:a7:79:a4:9f:a7:8d:d6:af:a8:2d:1d:5a:
         8d:1b:df:01:c4:af:be:ae:31:ef:07:b7:a7:23:52:2b:56:f1:
         79:d9:96:ad:2c:bb:82:01:2f:ed:33:5c:0c:33:2b:cc:a0:a1:
         fe:8a:53:36:c7:73:62:c5:86:1a:a2:2b:aa:10:38:0f:e9:8d:
         9f:79:36:aa:5c:ad:f4:13:5b:4a:87:eb:8f:83:56:77:5d:ff:
         29:3f:fb:2b:36:97:f4:73:b0:25:8b:e5:2a:fb:f0:94:d1:93:
         73:81:80:eb:39:03:52:dd:8d:b6:3e:8f:41:07:af:c4:f3:ee:
         6a:a1:0c:26:01:db:fd:a4:be:52:d9:e8:69:ba:19:aa:2c:7b:
         56:14:2e:de:39:1c:55:2e:e9:de:b4:82:bf:7d:e2:39:9e:48:
         39:ed:2e:d8:c0:37:9b:a5:e8:f8:98:87:61:83:46:21:03:66:
         6d:fc:5d:9f:43:52:d9:6e:71:05:02:55:58:79:82:c6:15:b7:
         65:ff:6f:d7:38:13:3c:16:9c:fd:d6:d6:9b:ef:a1:31:93:65:
         2c:a5:92:ac:dc:42:1a:36:4e:c3:c7:fb:0f:4b:01:0a:08:68:
         93:40:e2:d1:2b:0c:80:ac:46:f7:75:e0:d8:84:74:ae:5b:d5:
         b0:69:27:81:73:55:3c:42:6c:43:68:29:a3:d1:ff:bb:5d:e0:
         39:a9:ab:83:5f:b4:6b:af:57:5b:31:f0:a5:ef:7b:b2:22:ef:
         03:4c:7c:91:34:01:2c:8f:b3:17:21:9f:10:b8:7b:ea:3f:c5:
         51:9d:c2:8a:3d:19:6b:0a:9c:0c:c1:b7:03:15:a9:97:00:e1:
         ca:30:73:6d:3d:d5:8e:79:b9:ff:45:bd:47:7f:41:86:4a:b5:
         c1:0f:8f:cb:6a:b3:ea:a9:bf:9d:11:81:dc:2a:53:a6:69:41:
         70:8f:d3:18:33:99:3f:d4:57:74:11:8e:a4:5d:0b:08:bc:b8:
         ce:c7:f6:12:e7:dc:e2:52
-----BEGIN CERTIFICATE-----
MIIGjzCCBHegAwIBAgICAPwwDQYJKoZIhvcNAQELBQAwczELMAkGA1UEBhMCZnIx
DDAKBgNVBAgMA2lkZjEOMAwGA1UEBwwFcGFyaXMxDjAMBgNVBAoMBXZpdGFtMRQw
EgYDVQQLDAthdXRob3JpdGllczEgMB4GA1UEAwwXY2Ffcm9vdF9jbGllbnQtZXh0
ZXJuYWwwHhcNMTgwMjIxMTYzNDU1WhcNMjgwMjE5MTYzNDU1WjB7MQswCQYDVQQG
EwJmcjEMMAoGA1UECAwDaWRmMQ4wDAYDVQQHDAVwYXJpczEOMAwGA1UECgwFdml0
YW0xFDASBgNVBAsMC2F1dGhvcml0aWVzMSgwJgYDVQQDDB9jYV9pbnRlcm1lZGlh
dGVfY2xpZW50LWV4dGVybmFsMIICIjANBgkqhkiG9w0BAQEFAAOCAg8AMIICCgKC
AgEAnKPx2YuS8EssR+dO/OshuGRsqiCEuyPsqATvx6U3nFuEKRCG/t7PV/EqYwVk
fvSiC8Xau4Q1p5z70g4e34H9PcTuUK/KQUbBeWvnFdGQFoCKQapDcSWAX+TJD5gj
V+94iJg9LBF7DpLXXl9IG0N6csgt4ka87oi92euc2pFlJpK13+e8tq0Fbp/SwA+M
FbTLvt9RTlYFeT56bIU03KyA3ov6ey9L9FklRVdBvUESVlIsAacs6/Lo6Rwhuti4
jrWoU522hVdr5gvUJdPbAxc8x6IkvUs5dx1ICGtH353+uDlATg88AiKP5X7ntRv6
gElS1iU5p0lHCJzv6UPtwR1lt7xpL0kNJrTGHtfl7dqCh4MwCX3j3234BN+R+Crv
uIvJ54IBrufoewnHp7shAptH6GhSLt4Y1r0vOouBCWmxHuta13lkoH6SVUWckv/t
gCquE3WIe9RZNtB/zE5Kv7rH6ro93jjQTWMpBL9l5KdVuDgdDPd53gzVugrC5VR6
VK62rEvIRc0JU7zzuLWeGtG6rkzOgX0cgGt2bttrSfbdVoEmEr8hOJ3fyJWSvOy6
MfnhpuUiK6h+UVbrfNeTVFUIPHhFbQX8r5LHdRJ7RszrVWHZqcKamiYrT9eP97Iy
pTYngh7eVYidvM3okxqYrjwZ7rPZ6IHEF2dIsK5idxBo85MCAwEAAaOCASMwggEf
MB4GCWCGSAGG+EIBDQQRFg9DQSBJbnRlcm1lZGlhdGUwHQYDVR0OBBYEFJyLK+Aw
aLogJh26B6BIGWss3g4mMIGeBgNVHSMEgZYwgZOAFP388IRDffRKV0JkPrIutjp5
HKTyoXekdTBzMQswCQYDVQQGEwJmcjEMMAoGA1UECAwDaWRmMQ4wDAYDVQQHDAVw
YXJpczEOMAwGA1UECgwFdml0YW0xFDASBgNVBAsMC2F1dGhvcml0aWVzMSAwHgYD
VQQDDBdjYV9yb290X2NsaWVudC1leHRlcm5hbIICAPswEgYDVR0TAQH/BAgwBgEB
/wIBADAJBgNVHRIEAjAAMAsGA1UdDwQEAwIBBjARBglghkgBhvhCAQEEBAMCAgQw
DQYJKoZIhvcNAQELBQADggIBAIo1p20ahOWfF0maMaDIF4c5yACNYm5j5U+ymwm8
h2r4xoIZUZVaupUjHjTeJ6VkReHh8WUG6amkMkEA94IboPRvCgmu3OWH0kwirnng
H04ImtNtDMsnlGYxejbNMPgnEgHW6D1+VqVQR27FOfR7sv+/6Zvv/dZ8giPz7q5I
cmGk3Ecu2qd5pJ+njdavqC0dWo0b3wHEr76uMe8Ht6cjUitW8XnZlq0su4IBL+0z
XAwzK8ygof6KUzbHc2LFhhqiK6oQOA/pjZ95NqpcrfQTW0qH64+DVndd/yk/+ys2
l/RzsCWL5Sr78JTRk3OBgOs5A1LdjbY+j0EHr8Tz7mqhDCYB2/2kvlLZ6Gm6Gaos
e1YULt45HFUu6d60gr994jmeSDntLtjAN5ul6PiYh2GDRiEDZm38XZ9DUtlucQUC
VVh5gsYVt2X/b9c4EzwWnP3W1pvvoTGTZSylkqzcQho2TsPH+w9LAQoIaJNA4tEr
DICsRvd14NiEdK5b1bBpJ4FzVTxCbENoKaPR/7td4Dmpq4NftGuvV1sx8KXve7Ii
7wNMfJE0ASyPsxchnxC4e+o/xVGdwoo9GWsKnAzBtwMVqZcA4cowc2091Y55uf9F
vUd/QYZKtcEPj8tqs+qpv50RgdwqU6ZpQXCP0xgzmT/UV3QRjqRdCwi8uM7H9hLn
3OJS
-----END CERTIFICATE-----
