Certificate:
    Data:
        Version: 3 (0x2)
        Serial Number: 294 (0x126)
    Signature Algorithm: sha256WithRSAEncryption
        Issuer: C=fr, ST=idf, L=paris, O=vitam, OU=authorities, CN=ca_root_client-external
        Validity
            Not Before: Oct 19 08:30:59 2018 GMT
            Not After : Oct 16 08:30:59 2028 GMT
        Subject: C=fr, ST=idf, L=paris, O=vitam, OU=authorities, CN=ca_intermediate_client-external
        Subject Public Key Info:
            Public Key Algorithm: rsaEncryption
                Public-Key: (4096 bit)
                Modulus:
                    00:a0:0e:11:55:8a:f0:2a:f0:1d:b3:44:1a:cc:ff:
                    6d:9a:66:44:ce:a5:ad:8d:bb:24:64:81:0d:9f:8a:
                    0e:03:93:2b:32:84:62:12:d5:c0:b4:8a:22:e1:6e:
                    6d:69:05:75:14:f0:bc:cd:b6:3a:2b:10:89:5d:6a:
                    35:9d:78:f1:4b:60:b6:06:4f:44:4a:eb:77:59:1f:
                    b5:c5:b0:5f:75:23:93:e0:5b:78:76:5c:e8:e8:31:
                    d2:dc:92:64:c7:df:17:8c:0d:75:3b:40:5a:e7:d8:
                    7a:5d:aa:8e:0d:81:ff:c2:1e:80:0f:03:19:24:0e:
                    1f:45:c1:f0:9d:52:f2:fd:a6:e7:d5:af:31:a2:51:
                    4f:70:03:ab:96:b8:89:8c:84:5c:34:ef:a1:34:83:
                    06:f7:47:59:55:da:d5:54:52:cc:87:f2:31:70:76:
                    21:f3:79:cc:13:bb:0e:d4:ed:08:c2:1d:6f:7d:1d:
                    7d:0c:f3:da:3a:e7:c6:e2:4f:43:bc:fc:13:7e:9c:
                    18:65:62:d8:ed:e6:00:39:de:8d:6a:dd:41:53:b7:
                    8c:91:3b:11:c4:71:e6:be:8d:96:69:0c:69:dc:25:
                    df:f5:62:b3:9c:26:61:5f:6d:84:dc:4d:96:3b:c8:
                    13:e2:c2:c8:ca:1c:a0:af:92:a4:f6:44:a0:7c:37:
                    50:6d:78:4e:9f:9b:10:17:2a:c9:9d:bc:f3:b7:fb:
                    94:f1:73:65:0a:06:f1:73:48:82:93:91:09:2a:83:
                    9f:21:85:42:3f:3d:53:31:22:89:83:5b:d8:1c:91:
                    2f:0e:d3:0d:88:d9:4c:22:b2:5e:5a:f9:dd:0d:c8:
                    9f:9c:15:91:73:56:e9:65:2b:18:5f:a7:b1:ab:7f:
                    6d:c7:ca:23:1e:27:83:71:16:f9:7d:2b:81:1a:9a:
                    97:cd:8e:47:3b:4e:42:09:a4:09:e5:b9:a2:3e:d8:
                    f8:c5:d5:cb:5a:af:f3:cb:cc:53:42:98:24:87:b1:
                    47:aa:c0:97:43:3b:22:7e:e0:63:36:44:b7:fc:bf:
                    58:69:4f:b2:a3:7c:cf:ae:53:32:95:43:24:c0:e6:
                    83:04:8b:25:ba:03:73:3a:93:2f:24:30:fa:0e:80:
                    35:c7:42:2c:54:a0:f2:ca:d0:ce:1d:5b:f7:9c:85:
                    0b:29:84:9b:3b:7a:fc:b7:60:57:1e:ec:43:7d:a4:
                    74:2d:b0:43:1a:94:8b:37:cb:cb:c4:8f:43:87:9c:
                    c8:20:4f:9c:eb:b3:c1:6d:ac:fe:75:b6:14:b5:f4:
                    b0:96:9d:52:2d:8e:d2:3d:1b:d7:24:a7:4a:06:b6:
                    1e:6c:c9:52:4d:e9:90:bf:0b:3c:98:30:57:1e:9f:
                    63:53:45
                Exponent: 65537 (0x10001)
        X509v3 extensions:
            Netscape Comment: 
                CA Intermediate
            X509v3 Subject Key Identifier: 
                C9:3C:3C:C8:A5:F9:D0:93:F8:D5:E2:7E:36:7A:C6:91:ED:2A:7B:AC
            X509v3 Authority Key Identifier: 
                keyid:27:30:7A:7A:BA:AE:72:D6:41:4C:EA:11:45:A4:CA:71:32:56:59:77
                DirName:/C=fr/ST=idf/L=paris/O=vitam/OU=authorities/CN=ca_root_client-external
                serial:01:25

            X509v3 Basic Constraints: critical
                CA:TRUE, pathlen:0
            X509v3 Issuer Alternative Name: 
                <EMPTY>

            X509v3 Key Usage: 
                Certificate Sign, CRL Sign
            Netscape Cert Type: 
                SSL CA
    Signature Algorithm: sha256WithRSAEncryption
         63:a0:87:8c:9b:26:10:cd:db:a0:ca:10:2f:94:e2:46:dd:38:
         92:ee:87:6c:61:8a:f8:ff:a1:82:a8:cd:a8:a8:3c:47:04:d3:
         04:86:8a:8d:3b:dc:af:74:aa:da:22:44:15:b2:0d:12:65:67:
         79:5f:8f:c9:fd:3e:18:41:14:68:ed:f3:62:8d:89:e0:a0:19:
         bf:7f:ec:6d:e9:ec:91:af:4e:72:14:74:82:3f:0c:7b:3b:a2:
         4c:1b:89:69:1c:83:8e:cd:34:b7:57:ef:76:ce:82:98:33:a6:
         fa:17:26:83:29:0d:5d:d5:79:fc:75:4c:aa:9b:f3:1c:4f:f8:
         db:dd:7e:25:e5:ed:67:ba:d1:62:ef:43:d3:21:f3:82:f7:18:
         84:5e:34:12:af:96:12:db:53:77:55:81:2e:65:cf:b5:1f:30:
         57:f9:71:a9:83:c6:63:ca:c0:fc:4c:ec:67:af:bc:91:4d:fc:
         2f:a0:12:21:da:c1:ee:01:9e:15:d5:5a:f7:82:e4:ee:4f:a7:
         c8:ac:d2:3c:aa:41:69:4e:9b:c6:e8:21:2b:aa:a3:17:45:fc:
         81:e1:c7:1c:3d:3c:2e:a9:50:be:d9:e1:fa:48:ae:e5:30:4a:
         d9:e2:0c:f3:c6:6b:97:f6:a6:4f:58:7c:23:47:72:9f:d0:50:
         5f:35:39:77:e7:04:4f:05:08:bb:f9:24:b8:4f:23:e5:47:bf:
         e9:87:d6:1f:36:dc:41:2a:77:25:a6:19:01:c8:25:66:f8:ca:
         ca:44:ad:4f:00:32:09:53:ca:c5:5f:90:4d:77:04:08:e3:37:
         0e:26:4d:0a:0d:82:2b:ba:eb:4a:9c:cf:21:66:2a:99:19:97:
         3c:8e:4a:fe:04:df:38:dc:7f:ec:9c:c8:d5:d8:90:c1:19:b4:
         5b:06:a3:f8:d5:11:04:56:b2:8d:e7:96:22:89:30:06:1b:78:
         9b:fe:a4:0c:07:3a:b8:74:f9:fb:ea:9a:b4:21:2c:f8:e1:73:
         a4:cc:9f:59:93:7e:13:9a:bb:cc:07:04:95:76:71:b6:c2:7f:
         1d:13:eb:40:44:79:ae:69:ca:9e:2b:4b:53:1a:c9:c4:a8:ca:
         89:cf:03:20:1c:d1:18:4d:72:c5:18:2d:89:bd:1f:cf:f6:36:
         e0:ae:53:c9:28:5c:4b:5c:8a:fa:c4:31:2a:d4:b6:85:d4:0d:
         d4:34:54:63:53:85:79:92:c7:14:c9:c7:0e:06:0f:a6:cc:4f:
         91:19:81:2e:84:ed:7e:4a:9f:67:68:56:96:27:e9:67:f5:d5:
         80:91:37:e8:06:ed:7d:2e:76:68:86:cd:b7:0a:6d:54:9c:69:
         25:eb:c6:a1:5e:ee:69:a8
-----BEGIN CERTIFICATE-----
MIIGjzCCBHegAwIBAgICASYwDQYJKoZIhvcNAQELBQAwczELMAkGA1UEBhMCZnIx
DDAKBgNVBAgMA2lkZjEOMAwGA1UEBwwFcGFyaXMxDjAMBgNVBAoMBXZpdGFtMRQw
EgYDVQQLDAthdXRob3JpdGllczEgMB4GA1UEAwwXY2Ffcm9vdF9jbGllbnQtZXh0
ZXJuYWwwHhcNMTgxMDE5MDgzMDU5WhcNMjgxMDE2MDgzMDU5WjB7MQswCQYDVQQG
EwJmcjEMMAoGA1UECAwDaWRmMQ4wDAYDVQQHDAVwYXJpczEOMAwGA1UECgwFdml0
YW0xFDASBgNVBAsMC2F1dGhvcml0aWVzMSgwJgYDVQQDDB9jYV9pbnRlcm1lZGlh
dGVfY2xpZW50LWV4dGVybmFsMIICIjANBgkqhkiG9w0BAQEFAAOCAg8AMIICCgKC
AgEAoA4RVYrwKvAds0QazP9tmmZEzqWtjbskZIENn4oOA5MrMoRiEtXAtIoi4W5t
aQV1FPC8zbY6KxCJXWo1nXjxS2C2Bk9ESut3WR+1xbBfdSOT4Ft4dlzo6DHS3JJk
x98XjA11O0Ba59h6XaqODYH/wh6ADwMZJA4fRcHwnVLy/abn1a8xolFPcAOrlriJ
jIRcNO+hNIMG90dZVdrVVFLMh/IxcHYh83nME7sO1O0Iwh1vfR19DPPaOufG4k9D
vPwTfpwYZWLY7eYAOd6Nat1BU7eMkTsRxHHmvo2WaQxp3CXf9WKznCZhX22E3E2W
O8gT4sLIyhygr5Kk9kSgfDdQbXhOn5sQFyrJnbzzt/uU8XNlCgbxc0iCk5EJKoOf
IYVCPz1TMSKJg1vYHJEvDtMNiNlMIrJeWvndDcifnBWRc1bpZSsYX6exq39tx8oj
HieDcRb5fSuBGpqXzY5HO05CCaQJ5bmiPtj4xdXLWq/zy8xTQpgkh7FHqsCXQzsi
fuBjNkS3/L9YaU+yo3zPrlMylUMkwOaDBIslugNzOpMvJDD6DoA1x0IsVKDyytDO
HVv3nIULKYSbO3r8t2BXHuxDfaR0LbBDGpSLN8vLxI9Dh5zIIE+c67PBbaz+dbYU
tfSwlp1SLY7SPRvXJKdKBrYebMlSTemQvws8mDBXHp9jU0UCAwEAAaOCASMwggEf
MB4GCWCGSAGG+EIBDQQRFg9DQSBJbnRlcm1lZGlhdGUwHQYDVR0OBBYEFMk8PMil
+dCT+NXifjZ6xpHtKnusMIGeBgNVHSMEgZYwgZOAFCcwenq6rnLWQUzqEUWkynEy
Vll3oXekdTBzMQswCQYDVQQGEwJmcjEMMAoGA1UECAwDaWRmMQ4wDAYDVQQHDAVw
YXJpczEOMAwGA1UECgwFdml0YW0xFDASBgNVBAsMC2F1dGhvcml0aWVzMSAwHgYD
VQQDDBdjYV9yb290X2NsaWVudC1leHRlcm5hbIICASUwEgYDVR0TAQH/BAgwBgEB
/wIBADAJBgNVHRIEAjAAMAsGA1UdDwQEAwIBBjARBglghkgBhvhCAQEEBAMCAgQw
DQYJKoZIhvcNAQELBQADggIBAGOgh4ybJhDN26DKEC+U4kbdOJLuh2xhivj/oYKo
zaioPEcE0wSGio073K90qtoiRBWyDRJlZ3lfj8n9PhhBFGjt82KNieCgGb9/7G3p
7JGvTnIUdII/DHs7okwbiWkcg47NNLdX73bOgpgzpvoXJoMpDV3Vefx1TKqb8xxP
+NvdfiXl7We60WLvQ9Mh84L3GIReNBKvlhLbU3dVgS5lz7UfMFf5camDxmPKwPxM
7GevvJFN/C+gEiHawe4BnhXVWveC5O5Pp8is0jyqQWlOm8boISuqoxdF/IHhxxw9
PC6pUL7Z4fpIruUwStniDPPGa5f2pk9YfCNHcp/QUF81OXfnBE8FCLv5JLhPI+VH
v+mH1h823EEqdyWmGQHIJWb4yspErU8AMglTysVfkE13BAjjNw4mTQoNgiu660qc
zyFmKpkZlzyOSv4E3zjcf+ycyNXYkMEZtFsGo/jVEQRWso3nliKJMAYbeJv+pAwH
Orh0+fvqmrQhLPjhc6TMn1mTfhOau8wHBJV2cbbCfx0T60BEea5pyp4rS1MaycSo
yonPAyAc0RhNcsUYLYm9H8/2NuCuU8koXEtcivrEMSrUtoXUDdQ0VGNThXmSxxTJ
xw4GD6bMT5EZgS6E7X5Kn2doVpYn6Wf11YCRN+gG7X0udmiGzbcKbVScaSXrxqFe
7mmo
-----END CERTIFICATE-----
