Certificate:
    Data:
        Version: 3 (0x2)
        Serial Number: 293 (0x125)
    Signature Algorithm: sha256WithRSAEncryption
        Issuer: C=fr, ST=idf, L=paris, O=vitam, OU=authorities, CN=ca_root_client-external
        Validity
            Not Before: Oct 19 08:30:58 2018 GMT
            Not After : Oct 16 08:30:58 2028 GMT
        Subject: C=fr, ST=idf, L=paris, O=vitam, OU=authorities, CN=ca_root_client-external
        Subject Public Key Info:
            Public Key Algorithm: rsaEncryption
                Public-Key: (4096 bit)
                Modulus:
                    00:b9:42:d1:45:4a:30:77:cd:be:b1:f7:4f:ef:6b:
                    f6:c2:bc:bc:c6:74:1d:e8:2d:e7:df:f6:f9:49:47:
                    bb:ea:5d:1e:20:ae:07:07:82:a0:d0:bd:8e:1d:ff:
                    0f:39:a4:3c:93:d2:41:10:04:78:ac:0e:99:a6:5f:
                    82:4e:52:60:b6:02:ca:3d:cd:ab:02:0b:70:3d:23:
                    f3:a0:51:4f:15:8c:b2:e3:a9:58:1b:1b:6b:ac:e8:
                    32:73:78:21:fa:bf:7a:e2:7f:a8:88:6e:5e:cc:e1:
                    5c:e6:4b:ce:df:f7:41:cd:83:df:fe:67:c1:ad:9b:
                    00:c2:ff:9a:31:ff:dd:4b:d7:7e:48:bc:15:18:b1:
                    d0:76:86:e2:7d:90:7f:5e:2d:f5:a8:a2:b1:57:6d:
                    1e:43:33:d2:c6:28:45:de:64:d9:cf:c5:cf:0a:19:
                    bc:01:c3:c7:41:e6:a4:c5:02:bf:ba:40:e8:ab:6c:
                    f1:9c:c3:f3:d9:8b:ae:a9:3e:00:2a:ed:50:e6:bb:
                    bc:02:55:41:01:20:42:f4:71:e7:87:34:e7:c9:12:
                    07:cf:2c:be:ca:77:bf:88:43:d3:a3:90:eb:03:5f:
                    58:2f:70:3d:ca:9c:c9:46:46:6b:f0:4f:de:88:41:
                    0a:39:9a:3e:71:bb:7c:ac:7c:59:19:4e:13:40:16:
                    bf:46:fc:72:5a:b1:cf:97:fe:24:03:0a:11:36:67:
                    b6:c2:8f:9a:4d:de:af:83:f2:4f:17:cf:20:90:83:
                    63:ee:0a:eb:a0:28:24:97:1d:21:84:a1:a6:54:ef:
                    f7:9e:00:18:fb:9f:07:ea:bd:77:90:68:0b:9e:c8:
                    74:e4:34:09:82:9e:52:cd:e2:ff:a2:af:7b:5b:4a:
                    3b:14:9f:db:83:cb:f7:3d:6a:d9:7d:c5:da:ea:81:
                    5b:4a:67:ee:03:e6:87:42:9d:08:38:09:ff:a7:0c:
                    9e:56:5e:e2:ac:17:42:f8:95:30:85:3c:42:5e:c1:
                    1e:97:d1:0d:5c:a1:70:ed:2d:3c:ee:f2:93:a9:77:
                    b7:c5:5e:16:ca:97:c1:5d:10:18:13:19:a3:89:1f:
                    e7:23:62:96:fb:58:dc:31:da:a7:70:98:a7:26:a5:
                    27:bc:df:19:0d:b5:ec:48:b4:03:b9:6a:c1:f1:25:
                    73:7e:22:5d:ca:8e:44:20:b7:e3:5c:f5:07:8f:3a:
                    ea:58:6e:10:e9:ae:7a:e5:d0:25:c9:ef:2c:dd:71:
                    d1:5b:82:c9:c6:9a:fb:ad:1f:b0:53:27:f5:1d:6b:
                    7b:20:ee:79:b3:fe:08:13:67:94:ca:de:47:21:17:
                    80:6f:23:41:dc:bf:b3:de:2e:7a:c8:f0:fe:15:99:
                    f5:1e:dd
                Exponent: 65537 (0x10001)
        X509v3 extensions:
            Netscape Comment: 
                CA Root
            X509v3 Subject Key Identifier: 
                27:30:7A:7A:BA:AE:72:D6:41:4C:EA:11:45:A4:CA:71:32:56:59:77
            X509v3 Authority Key Identifier: 
                keyid:27:30:7A:7A:BA:AE:72:D6:41:4C:EA:11:45:A4:CA:71:32:56:59:77

            X509v3 Basic Constraints: critical
                CA:TRUE, pathlen:1
            X509v3 Key Usage: 
                Certificate Sign, CRL Sign
            Netscape Cert Type: 
                SSL CA
    Signature Algorithm: sha256WithRSAEncryption
         57:cf:3f:e9:69:b6:66:47:e7:95:48:3b:a7:6b:b8:d2:a0:3b:
         2a:d0:13:e0:83:d8:2d:31:bd:ce:ce:24:f1:49:a1:6f:8a:9a:
         fa:fe:b9:98:3d:af:6c:a8:d8:6f:ae:a9:89:98:d0:2d:69:00:
         59:e2:28:79:25:20:ce:92:8a:e9:9e:1d:53:f1:94:57:f5:bf:
         09:4a:a7:99:3c:ef:ab:43:13:32:ed:c9:25:8d:6f:52:e4:5e:
         04:97:35:8a:c9:bd:52:30:23:e5:00:28:fe:07:e3:1b:ec:92:
         0c:a4:2f:9e:67:6c:10:af:d2:e8:49:ce:6a:0b:85:88:96:e3:
         04:3f:e0:7d:60:49:b7:a1:0f:91:f7:bf:ca:66:77:47:33:ef:
         55:c1:36:13:ff:e7:62:90:7a:09:d7:7a:9d:3f:57:f1:31:08:
         59:fa:a8:fa:01:6b:74:35:52:0c:61:06:73:fb:a6:1e:b0:2f:
         bd:41:a1:f1:9c:6f:53:7d:4d:f1:ec:0b:7d:9b:dc:44:e2:0f:
         1a:6f:05:db:9b:81:4c:bb:f2:39:f5:6e:f7:6b:a1:d7:a1:a3:
         ea:f5:05:fe:b5:64:da:d3:4c:f5:cb:38:46:bc:0d:52:74:9b:
         c2:d6:b4:e6:25:99:95:d9:4e:5a:d0:0f:da:68:3e:98:9a:c6:
         c2:2a:d4:06:90:df:f1:ce:61:a8:48:a2:30:a6:4f:b4:2f:30:
         9e:8f:68:e1:03:9b:ee:b7:bb:eb:72:ae:d9:07:e8:b7:88:da:
         dc:f4:7c:13:8a:d8:2d:12:ef:79:52:3e:e3:cb:0e:a6:a3:53:
         c4:46:08:5e:4e:76:84:b7:98:93:8a:fd:47:a7:c6:3d:75:f1:
         9e:e2:f8:a5:36:b0:4b:20:92:8d:ee:b0:cc:ae:82:e1:7e:4b:
         54:67:d6:05:5f:ad:3a:da:65:db:58:02:61:c6:56:2f:f3:26:
         e8:f3:b7:8b:dc:06:f4:d3:05:a4:11:61:da:5c:00:4d:4d:b0:
         33:f9:23:6f:42:aa:f3:97:a4:3c:a7:1f:16:44:b7:82:14:d8:
         8a:8b:45:b4:13:fc:5e:b9:9e:30:46:41:6c:1c:b5:5e:a4:82:
         4f:91:9d:52:bc:27:dd:b8:8e:80:95:49:a9:41:13:e0:85:ba:
         f1:23:71:d7:fe:15:2f:af:4f:71:3f:0f:8e:12:03:39:f1:4f:
         7a:b4:0b:55:ae:ec:05:fa:1f:94:93:dc:32:f7:69:4f:80:d3:
         53:62:e0:74:29:f0:e4:47:00:31:40:41:57:fb:18:db:e4:d9:
         53:71:d4:e8:51:db:4c:58:4d:63:bb:62:c0:e0:b4:a3:3d:14:
         2f:8b:c5:b8:c7:83:dd:62
-----BEGIN CERTIFICATE-----
MIIF8jCCA9qgAwIBAgICASUwDQYJKoZIhvcNAQELBQAwczELMAkGA1UEBhMCZnIx
DDAKBgNVBAgMA2lkZjEOMAwGA1UEBwwFcGFyaXMxDjAMBgNVBAoMBXZpdGFtMRQw
EgYDVQQLDAthdXRob3JpdGllczEgMB4GA1UEAwwXY2Ffcm9vdF9jbGllbnQtZXh0
ZXJuYWwwHhcNMTgxMDE5MDgzMDU4WhcNMjgxMDE2MDgzMDU4WjBzMQswCQYDVQQG
EwJmcjEMMAoGA1UECAwDaWRmMQ4wDAYDVQQHDAVwYXJpczEOMAwGA1UECgwFdml0
YW0xFDASBgNVBAsMC2F1dGhvcml0aWVzMSAwHgYDVQQDDBdjYV9yb290X2NsaWVu
dC1leHRlcm5hbDCCAiIwDQYJKoZIhvcNAQEBBQADggIPADCCAgoCggIBALlC0UVK
MHfNvrH3T+9r9sK8vMZ0Hegt59/2+UlHu+pdHiCuBweCoNC9jh3/DzmkPJPSQRAE
eKwOmaZfgk5SYLYCyj3NqwILcD0j86BRTxWMsuOpWBsba6zoMnN4Ifq/euJ/qIhu
XszhXOZLzt/3Qc2D3/5nwa2bAML/mjH/3UvXfki8FRix0HaG4n2Qf14t9aiisVdt
HkMz0sYoRd5k2c/FzwoZvAHDx0HmpMUCv7pA6Kts8ZzD89mLrqk+ACrtUOa7vAJV
QQEgQvRx54c058kSB88svsp3v4hD06OQ6wNfWC9wPcqcyUZGa/BP3ohBCjmaPnG7
fKx8WRlOE0AWv0b8clqxz5f+JAMKETZntsKPmk3er4PyTxfPIJCDY+4K66AoJJcd
IYShplTv954AGPufB+q9d5BoC57IdOQ0CYKeUs3i/6Kve1tKOxSf24PL9z1q2X3F
2uqBW0pn7gPmh0KdCDgJ/6cMnlZe4qwXQviVMIU8Ql7BHpfRDVyhcO0tPO7yk6l3
t8VeFsqXwV0QGBMZo4kf5yNilvtY3DHap3CYpyalJ7zfGQ217Ei0A7lqwfElc34i
XcqORCC341z1B4866lhuEOmueuXQJcnvLN1x0VuCycaa+60fsFMn9R1reyDuebP+
CBNnlMreRyEXgG8jQdy/s94uesjw/hWZ9R7dAgMBAAGjgY8wgYwwFgYJYIZIAYb4
QgENBAkWB0NBIFJvb3QwHQYDVR0OBBYEFCcwenq6rnLWQUzqEUWkynEyVll3MB8G
A1UdIwQYMBaAFCcwenq6rnLWQUzqEUWkynEyVll3MBIGA1UdEwEB/wQIMAYBAf8C
AQEwCwYDVR0PBAQDAgEGMBEGCWCGSAGG+EIBAQQEAwICBDANBgkqhkiG9w0BAQsF
AAOCAgEAV88/6Wm2ZkfnlUg7p2u40qA7KtAT4IPYLTG9zs4k8Umhb4qa+v65mD2v
bKjYb66piZjQLWkAWeIoeSUgzpKK6Z4dU/GUV/W/CUqnmTzvq0MTMu3JJY1vUuRe
BJc1ism9UjAj5QAo/gfjG+ySDKQvnmdsEK/S6EnOaguFiJbjBD/gfWBJt6EPkfe/
ymZ3RzPvVcE2E//nYpB6Cdd6nT9X8TEIWfqo+gFrdDVSDGEGc/umHrAvvUGh8Zxv
U31N8ewLfZvcROIPGm8F25uBTLvyOfVu92uh16Gj6vUF/rVk2tNM9cs4RrwNUnSb
wta05iWZldlOWtAP2mg+mJrGwirUBpDf8c5hqEiiMKZPtC8wno9o4QOb7re763Ku
2Qfot4ja3PR8E4rYLRLveVI+48sOpqNTxEYIXk52hLeYk4r9R6fGPXXxnuL4pTaw
SyCSje6wzK6C4X5LVGfWBV+tOtpl21gCYcZWL/Mm6PO3i9wG9NMFpBFh2lwATU2w
M/kjb0Kq85ekPKcfFkS3ghTYiotFtBP8XrmeMEZBbBy1XqSCT5GdUrwn3biOgJVJ
qUET4IW68SNx1/4VL69PcT8PjhIDOfFPerQLVa7sBfoflJPcMvdpT4DTU2LgdCnw
5EcAMUBBV/sY2+TZU3HU6FHbTFhNY7tiwOC0oz0UL4vFuMeD3WI=
-----END CERTIFICATE-----
