Certificate:
    Data:
        Version: 3 (0x2)
        Serial Number: 300 (0x12c)
        Signature Algorithm: sha256WithRSAEncryption
        Issuer: C=fr, ST=idf, L=paris, O=vitam, OU=authorities, CN=ca_root_client-external
        Validity
            Not Before: Sep 15 12:58:44 2020 GMT
            Not After : Dec 31 23:59:59 9999 GMT
        Subject: C=fr, ST=idf, L=paris, O=vitam, OU=authorities, CN=ca_root_client-external
        Subject Public Key Info:
            Public Key Algorithm: rsaEncryption
                RSA Public-Key: (4096 bit)
                Modulus:
                    00:c5:3c:c4:18:e6:70:8d:09:42:0c:67:e4:7a:cb:
                    ec:04:ef:eb:b3:ac:9b:bc:c8:6a:d5:41:d6:46:59:
                    ab:78:cd:29:d8:a7:06:06:2b:4c:b8:c7:52:26:f8:
                    bb:08:c6:5c:0c:10:9a:c5:28:86:4e:9c:b7:0b:cf:
                    81:74:9d:c9:ed:be:6d:11:55:9e:01:6a:ed:78:27:
                    42:99:0c:26:97:d6:8c:ac:14:e9:18:e8:6c:f0:e1:
                    d9:56:b4:dc:13:2d:d0:b3:54:f0:24:3d:67:65:b7:
                    0b:26:d7:9e:08:33:9c:8f:d5:11:7f:b9:16:73:b3:
                    7d:d3:b6:68:8d:b5:f9:70:82:61:a3:f4:08:31:48:
                    c8:5b:86:7e:cf:87:2a:6b:4d:5e:df:08:12:1a:c6:
                    6e:bf:98:98:9c:6d:91:2c:7b:b9:01:95:f4:16:37:
                    1a:8a:ad:ef:7d:5a:ae:c5:7f:1b:c9:4c:d0:e9:f1:
                    f5:86:87:8a:d3:ab:78:79:8a:0c:b5:59:bc:52:fb:
                    27:b3:30:f4:50:82:4e:62:33:df:20:46:0a:15:6b:
                    50:f1:2c:56:e9:ec:65:ab:77:d0:ec:c0:42:c7:e1:
                    5a:81:41:71:e6:eb:f1:6e:4f:4f:19:06:f5:48:bf:
                    28:9f:29:48:03:d1:a7:c1:b4:3f:45:ea:1c:58:8d:
                    d0:ee:cb:06:c4:e3:44:14:89:88:ef:06:84:55:60:
                    fc:50:19:9b:b1:80:96:cd:c5:22:05:6a:68:91:08:
                    94:eb:27:c0:8e:33:99:90:ae:c7:25:dc:a8:f5:d6:
                    41:30:4e:bd:71:f2:46:7b:51:b5:34:2a:64:3a:03:
                    77:60:4b:e5:49:bc:ab:57:e9:c2:03:8b:6a:91:ed:
                    5e:14:6e:89:60:a8:72:49:71:2b:3b:f1:79:fd:46:
                    c4:69:8c:5e:0a:2b:39:39:68:49:a7:47:7d:2d:62:
                    a0:c0:6e:b7:df:0b:34:2f:40:4b:e6:74:cf:34:b1:
                    79:6c:38:d3:8e:1e:90:5b:89:ec:8c:9b:47:17:16:
                    c6:e5:20:bc:50:2c:ff:c0:c8:29:c7:da:50:c4:e4:
                    f3:74:e1:27:cd:73:89:bc:49:dd:74:89:17:6d:3a:
                    93:57:f5:c6:64:42:2d:7b:01:9e:23:d6:14:60:84:
                    27:50:26:91:ee:e1:b6:f4:4c:65:a1:b3:2f:5f:12:
                    5d:6e:9f:19:63:88:db:7b:1a:d2:53:cf:e8:10:79:
                    89:4b:8c:f7:c7:f5:3d:f2:44:62:7a:08:34:47:3c:
                    1e:63:b7:52:b6:11:32:6f:87:26:8b:85:7b:5a:8a:
                    9b:88:48:e4:b6:a2:8f:b6:2b:aa:f9:f2:0b:37:9f:
                    ba:e1:a1
                Exponent: 65537 (0x10001)
        X509v3 extensions:
            Netscape Comment: 
                CA Root
            X509v3 Subject Key Identifier: 
                AF:BE:96:D3:D7:3D:62:CA:CF:0F:AA:B5:1C:2A:68:AE:73:37:EE:C0
            X509v3 Authority Key Identifier: 
                keyid:AF:BE:96:D3:D7:3D:62:CA:CF:0F:AA:B5:1C:2A:68:AE:73:37:EE:C0

            X509v3 Basic Constraints: critical
                CA:TRUE, pathlen:1
            X509v3 Key Usage: 
                Certificate Sign, CRL Sign
            Netscape Cert Type: 
                SSL CA
    Signature Algorithm: sha256WithRSAEncryption
         52:fc:27:af:ae:a2:54:4d:fa:d4:1f:01:da:3d:ff:d4:92:b0:
         c4:ea:98:ff:84:75:d8:ec:b4:58:1b:87:6f:1a:2d:d1:95:be:
         1c:8e:e6:c4:96:a5:07:a9:09:38:28:ce:42:4f:cc:95:fb:7b:
         ef:9e:3f:5d:e4:25:1b:ad:54:05:2f:e3:a2:bb:52:76:92:d6:
         e7:65:71:7d:2f:7b:62:28:5f:66:8a:12:b2:23:62:71:ba:3c:
         7d:3a:fc:7c:48:d6:ed:71:e1:09:d4:ce:70:ea:0c:78:9d:6b:
         d8:9d:2a:f2:fc:ea:87:86:97:5e:86:fd:84:db:96:54:86:2a:
         4c:74:09:f2:80:2b:1e:1a:a8:b2:44:fe:32:0c:c6:41:03:b0:
         89:d1:1c:e8:d3:5e:29:db:6c:b0:02:0c:aa:39:06:69:65:2a:
         9e:9c:29:b2:55:b3:a7:db:d6:42:b7:a9:75:64:52:f8:e8:c8:
         61:c0:b4:53:7b:89:2f:09:7b:6a:6a:0b:f3:0d:64:df:75:f6:
         95:94:c5:01:01:8a:f8:f7:e2:98:f0:23:93:e8:a8:4e:42:7d:
         bb:c8:d3:97:be:c6:e2:35:41:b5:07:df:58:46:70:95:fc:79:
         d6:37:79:7f:53:7b:39:1f:56:04:43:dd:1c:91:9f:7b:c2:7c:
         cb:61:e1:57:75:9e:cf:69:d7:d8:0b:9f:44:c8:14:28:8e:b4:
         27:76:39:46:fb:59:35:0d:05:73:4f:8f:6d:31:6a:39:a2:63:
         8e:4d:30:42:42:53:75:cc:70:10:66:65:e5:9f:4a:2f:43:0a:
         08:f3:6a:e8:cc:1b:37:20:dc:ab:23:2e:23:a9:2b:df:95:2f:
         07:89:e8:40:6e:8c:9d:fe:9b:ef:5b:62:b6:54:97:75:5f:c4:
         61:5e:46:0f:8c:f8:4b:b0:af:0c:48:b9:73:e9:94:34:cb:1d:
         d4:26:bc:34:ac:ca:60:36:1c:4d:c8:02:a7:88:3a:4a:2f:b1:
         fa:d9:e4:b2:9f:8e:aa:71:c3:fd:fa:d7:f6:62:37:fa:64:f0:
         f6:f2:e1:5e:5d:75:81:e7:dc:73:11:99:68:9a:2c:b1:de:f0:
         d5:96:ad:49:e6:27:5a:3b:03:d7:fa:0a:5e:34:9b:b4:34:64:
         26:94:b2:36:9a:ff:20:ee:57:23:d8:73:98:ed:d8:bf:33:cb:
         d9:d7:02:8b:32:cc:ab:c4:7e:f1:9e:3a:60:b1:46:aa:9f:e5:
         e4:a6:98:f1:f6:2a:5c:b6:5e:17:c1:bb:6d:11:9f:f4:b1:b2:
         34:fa:05:fa:44:e1:b2:1c:75:a1:81:5d:5e:5f:7a:e7:e7:9e:
         14:5e:34:8e:3f:cb:28:ec
-----BEGIN CERTIFICATE-----
MIIF9DCCA9ygAwIBAgICASwwDQYJKoZIhvcNAQELBQAwczELMAkGA1UEBhMCZnIx
DDAKBgNVBAgMA2lkZjEOMAwGA1UEBwwFcGFyaXMxDjAMBgNVBAoMBXZpdGFtMRQw
EgYDVQQLDAthdXRob3JpdGllczEgMB4GA1UEAwwXY2Ffcm9vdF9jbGllbnQtZXh0
ZXJuYWwwIBcNMjAwOTE1MTI1ODQ0WhgPOTk5OTEyMzEyMzU5NTlaMHMxCzAJBgNV
BAYTAmZyMQwwCgYDVQQIDANpZGYxDjAMBgNVBAcMBXBhcmlzMQ4wDAYDVQQKDAV2
aXRhbTEUMBIGA1UECwwLYXV0aG9yaXRpZXMxIDAeBgNVBAMMF2NhX3Jvb3RfY2xp
ZW50LWV4dGVybmFsMIICIjANBgkqhkiG9w0BAQEFAAOCAg8AMIICCgKCAgEAxTzE
GOZwjQlCDGfkesvsBO/rs6ybvMhq1UHWRlmreM0p2KcGBitMuMdSJvi7CMZcDBCa
xSiGTpy3C8+BdJ3J7b5tEVWeAWrteCdCmQwml9aMrBTpGOhs8OHZVrTcEy3Qs1Tw
JD1nZbcLJteeCDOcj9URf7kWc7N907ZojbX5cIJho/QIMUjIW4Z+z4cqa01e3wgS
GsZuv5iYnG2RLHu5AZX0Fjcaiq3vfVquxX8byUzQ6fH1hoeK06t4eYoMtVm8Uvsn
szD0UIJOYjPfIEYKFWtQ8SxW6exlq3fQ7MBCx+FagUFx5uvxbk9PGQb1SL8onylI
A9GnwbQ/ReocWI3Q7ssGxONEFImI7waEVWD8UBmbsYCWzcUiBWpokQiU6yfAjjOZ
kK7HJdyo9dZBME69cfJGe1G1NCpkOgN3YEvlSbyrV+nCA4tqke1eFG6JYKhySXEr
O/F5/UbEaYxeCis5OWhJp0d9LWKgwG633ws0L0BL5nTPNLF5bDjTjh6QW4nsjJtH
FxbG5SC8UCz/wMgpx9pQxOTzdOEnzXOJvEnddIkXbTqTV/XGZEItewGeI9YUYIQn
UCaR7uG29ExlobMvXxJdbp8ZY4jbexrSU8/oEHmJS4z3x/U98kRiegg0RzweY7dS
thEyb4cmi4V7WoqbiEjktqKPtiuq+fILN5+64aECAwEAAaOBjzCBjDAWBglghkgB
hvhCAQ0ECRYHQ0EgUm9vdDAdBgNVHQ4EFgQUr76W09c9YsrPD6q1HCpornM37sAw
HwYDVR0jBBgwFoAUr76W09c9YsrPD6q1HCpornM37sAwEgYDVR0TAQH/BAgwBgEB
/wIBATALBgNVHQ8EBAMCAQYwEQYJYIZIAYb4QgEBBAQDAgIEMA0GCSqGSIb3DQEB
CwUAA4ICAQBS/CevrqJUTfrUHwHaPf/UkrDE6pj/hHXY7LRYG4dvGi3Rlb4cjubE
lqUHqQk4KM5CT8yV+3vvnj9d5CUbrVQFL+Oiu1J2ktbnZXF9L3tiKF9mihKyI2Jx
ujx9Ovx8SNbtceEJ1M5w6gx4nWvYnSry/OqHhpdehv2E25ZUhipMdAnygCseGqiy
RP4yDMZBA7CJ0Rzo014p22ywAgyqOQZpZSqenCmyVbOn29ZCt6l1ZFL46MhhwLRT
e4kvCXtqagvzDWTfdfaVlMUBAYr49+KY8COT6KhOQn27yNOXvsbiNUG1B99YRnCV
/HnWN3l/U3s5H1YEQ90ckZ97wnzLYeFXdZ7PadfYC59EyBQojrQndjlG+1k1DQVz
T49tMWo5omOOTTBCQlN1zHAQZmXln0ovQwoI82rozBs3INyrIy4jqSvflS8HiehA
boyd/pvvW2K2VJd1X8RhXkYPjPhLsK8MSLlz6ZQ0yx3UJrw0rMpgNhxNyAKniDpK
L7H62eSyn46qccP9+tf2Yjf6ZPD28uFeXXWB59xzEZlomiyx3vDVlq1J5idaOwPX
+gpeNJu0NGQmlLI2mv8g7lcj2HOY7di/M8vZ1wKLMsyrxH7xnjpgsUaqn+Xkppjx
9ipctl4XwbttEZ/0sbI0+gX6ROGyHHWhgV1eX3rn554UXjSOP8so7A==
-----END CERTIFICATE-----
