Certificate:
    Data:
        Version: 3 (0x2)
        Serial Number: 235 (0xeb)
    Signature Algorithm: sha256WithRSAEncryption
        Issuer: C=fr, ST=idf, L=paris, O=vitam, OU=authorities, CN=ca_root_client-external
        Validity
            Not Before: Jul 12 14:29:01 2017 GMT
            Not After : Jul 10 14:29:01 2027 GMT
        Subject: C=fr, ST=idf, L=paris, O=vitam, OU=authorities, CN=ca_root_client-external
        Subject Public Key Info:
            Public Key Algorithm: rsaEncryption
                Public-Key: (4096 bit)
                Modulus:
                    00:d3:66:45:17:da:75:92:86:59:b0:1c:45:1e:4b:
                    df:a2:e7:ea:15:99:f6:31:e7:4a:9f:d5:4b:0c:80:
                    b6:5c:2b:9a:05:73:73:a9:a0:45:fc:c3:09:fb:9c:
                    33:97:87:83:ec:2f:f8:46:25:9d:76:4d:f7:51:3b:
                    59:ad:38:3a:84:66:3d:70:c3:8b:f8:88:66:3f:d0:
                    b8:62:50:9c:ac:16:12:61:14:aa:33:64:49:b9:54:
                    8c:fa:30:72:3a:51:44:2b:03:07:e0:13:20:90:2a:
                    1b:31:99:d4:2b:21:93:30:4e:97:f1:a0:dd:e2:f7:
                    12:d7:ff:30:d0:7c:58:3d:9f:e4:18:d9:87:bc:fd:
                    90:1a:41:5f:40:2d:4e:0b:85:91:e6:b8:3a:b9:8f:
                    3e:2b:98:24:9c:ad:f9:e1:a3:97:f8:86:0c:96:89:
                    f3:a0:9b:7e:6f:54:50:ff:b8:37:96:4c:33:61:4a:
                    18:5c:67:cc:5c:c9:01:a5:0d:8d:37:b5:25:d4:78:
                    d4:68:08:f3:c5:e2:01:1e:07:e5:12:9a:52:28:b0:
                    8a:3a:c6:6c:d0:89:f6:b5:ba:3d:03:35:50:df:74:
                    e3:ee:70:16:ca:e6:c0:60:74:0e:a8:c5:e4:5e:fd:
                    ef:55:74:c7:ca:e9:e6:28:dc:33:ac:8e:d5:c1:f2:
                    6b:db:9d:5d:3f:c2:90:f9:eb:27:8b:d4:9a:66:e5:
                    8b:ba:20:ff:2a:ed:3f:5e:44:e1:b0:b2:46:56:20:
                    fe:e4:9b:5a:48:2e:0d:aa:fd:c7:98:c7:74:f9:3f:
                    0a:00:b8:89:b3:31:3a:35:2c:b3:12:ef:3f:49:b5:
                    df:b8:a4:06:c5:61:39:10:4c:b9:50:e9:a8:d5:54:
                    f1:a2:45:5a:82:e4:13:8b:5e:67:35:42:90:20:66:
                    27:ba:b9:f7:eb:d0:3c:cb:18:eb:50:c2:52:3b:86:
                    49:f1:76:7d:9a:0e:84:d8:c6:b9:e2:02:45:e7:7a:
                    8c:be:0b:63:75:16:1c:9c:f0:94:56:1a:e4:a7:26:
                    ef:d4:c4:72:3d:7a:a7:f3:ce:a7:91:ca:5d:5d:4b:
                    4a:f6:83:df:8a:0d:bc:b3:40:54:c3:47:a4:67:46:
                    94:8a:90:88:02:3a:81:70:eb:f0:61:d4:01:3d:ca:
                    83:5c:aa:c1:c8:9e:14:2e:c7:fd:49:d8:e0:35:1c:
                    ad:5b:d5:02:55:de:a6:f8:25:f0:79:e6:91:54:92:
                    67:0f:cb:ad:f5:be:69:47:00:bf:68:ba:f9:a9:1b:
                    7e:3a:1a:79:f6:b8:e0:3f:5c:70:b8:7f:a3:d2:a0:
                    a8:9d:67:c8:48:93:e0:69:0d:9e:08:97:1d:53:a1:
                    09:dd:5b
                Exponent: 65537 (0x10001)
        X509v3 extensions:
            Netscape Comment: 
                CA Root
            X509v3 Subject Key Identifier: 
                B7:78:0B:A8:74:C8:BB:D2:2B:8B:73:DB:5D:D6:3B:05:88:F3:16:6F
            X509v3 Authority Key Identifier: 
                keyid:B7:78:0B:A8:74:C8:BB:D2:2B:8B:73:DB:5D:D6:3B:05:88:F3:16:6F

            X509v3 Basic Constraints: critical
                CA:TRUE, pathlen:1
            X509v3 Key Usage: 
                Certificate Sign, CRL Sign
            Netscape Cert Type: 
                SSL CA
    Signature Algorithm: sha256WithRSAEncryption
         8f:22:c2:6e:22:5c:c9:b6:24:67:7d:bc:d3:29:98:37:2c:62:
         13:ba:10:8f:7c:42:11:c5:ab:bc:fa:c6:29:a9:4a:d2:32:e1:
         e6:20:ea:35:ed:3d:6a:cb:bc:d4:c2:f4:51:5b:76:43:c4:e2:
         9c:fa:79:ea:d2:88:0b:bb:5c:dc:dd:12:6c:87:e2:22:be:80:
         cd:e7:76:22:47:e3:f2:2d:d5:d1:7f:3b:d1:d3:55:af:e3:75:
         61:9c:e0:9b:b7:14:d9:e5:1b:9c:05:81:29:4f:fe:cd:39:24:
         c4:b8:1f:1e:bb:1d:c3:b5:c3:41:f2:05:ee:53:a1:93:fb:59:
         ee:a9:65:c5:61:5b:54:bf:b6:d2:06:57:43:d2:b2:af:8f:43:
         0e:49:d0:15:11:17:65:66:7c:d7:ca:e5:da:0e:fc:7b:9d:b9:
         11:ca:4c:35:d7:67:f8:18:d7:52:4d:2b:e2:10:6d:bb:54:9a:
         fe:13:0f:e2:05:e8:e9:4c:97:4f:3c:f2:72:a9:0a:31:1d:a6:
         bc:d9:d6:4f:e4:de:ae:e5:74:ed:e6:58:0a:1f:74:70:70:06:
         c6:a2:c4:b3:81:11:7d:5c:64:d0:86:a9:7a:6c:78:5f:db:6a:
         04:6e:83:1d:27:29:34:8f:0a:14:94:d1:70:26:32:72:c1:2f:
         41:9f:6a:bd:31:33:ec:aa:6b:41:f6:f9:18:11:ae:e4:e2:f6:
         f5:b4:99:43:95:34:7a:ad:97:d4:67:cd:d3:64:c3:c2:d7:e3:
         1b:46:5c:07:0a:ff:bb:f6:9b:02:ab:1a:79:0d:9d:e8:fb:ef:
         33:85:8b:7d:14:19:19:d7:8a:f2:b1:d8:81:30:20:e2:c9:8d:
         cc:01:2f:a7:6e:c8:6c:ee:8b:a1:ef:c7:53:05:5b:e3:80:d3:
         0a:a1:6b:ad:cb:b0:c1:dd:d4:21:0b:51:97:ea:72:ae:09:7f:
         c0:05:3a:34:7f:7e:4a:a8:28:1b:01:b0:bc:6f:24:39:ef:78:
         ae:59:65:08:a2:35:6a:99:8f:89:02:9f:ee:b4:af:47:cc:ac:
         ac:c7:f8:a5:d2:10:74:77:7d:b0:0b:76:21:f7:1e:0a:00:0b:
         f5:89:8a:4f:a7:89:38:7b:f4:61:5a:6c:51:86:a3:ef:64:87:
         65:8b:83:f2:66:78:0b:60:81:ad:d8:d5:dd:24:37:62:4e:c5:
         38:96:92:32:5d:ed:e9:ff:da:f3:d9:2c:4d:dc:59:dc:4d:a3:
         78:7b:75:b8:6e:58:f5:be:86:f8:99:8e:18:31:db:f8:3b:50:
         ef:98:2b:17:65:79:d8:2f:fa:fa:cb:9f:38:21:c5:a0:8f:96:
         9d:aa:87:a7:15:a1:ee:b4
-----BEGIN CERTIFICATE-----
MIIF8jCCA9qgAwIBAgICAOswDQYJKoZIhvcNAQELBQAwczELMAkGA1UEBhMCZnIx
DDAKBgNVBAgMA2lkZjEOMAwGA1UEBwwFcGFyaXMxDjAMBgNVBAoMBXZpdGFtMRQw
EgYDVQQLDAthdXRob3JpdGllczEgMB4GA1UEAwwXY2Ffcm9vdF9jbGllbnQtZXh0
ZXJuYWwwHhcNMTcwNzEyMTQyOTAxWhcNMjcwNzEwMTQyOTAxWjBzMQswCQYDVQQG
EwJmcjEMMAoGA1UECAwDaWRmMQ4wDAYDVQQHDAVwYXJpczEOMAwGA1UECgwFdml0
YW0xFDASBgNVBAsMC2F1dGhvcml0aWVzMSAwHgYDVQQDDBdjYV9yb290X2NsaWVu
dC1leHRlcm5hbDCCAiIwDQYJKoZIhvcNAQEBBQADggIPADCCAgoCggIBANNmRRfa
dZKGWbAcRR5L36Ln6hWZ9jHnSp/VSwyAtlwrmgVzc6mgRfzDCfucM5eHg+wv+EYl
nXZN91E7Wa04OoRmPXDDi/iIZj/QuGJQnKwWEmEUqjNkSblUjPowcjpRRCsDB+AT
IJAqGzGZ1CshkzBOl/Gg3eL3Etf/MNB8WD2f5BjZh7z9kBpBX0AtTguFkea4OrmP
PiuYJJyt+eGjl/iGDJaJ86Cbfm9UUP+4N5ZMM2FKGFxnzFzJAaUNjTe1JdR41GgI
88XiAR4H5RKaUiiwijrGbNCJ9rW6PQM1UN904+5wFsrmwGB0DqjF5F7971V0x8rp
5ijcM6yO1cHya9udXT/CkPnrJ4vUmmbli7og/yrtP15E4bCyRlYg/uSbWkguDar9
x5jHdPk/CgC4ibMxOjUssxLvP0m137ikBsVhORBMuVDpqNVU8aJFWoLkE4teZzVC
kCBmJ7q59+vQPMsY61DCUjuGSfF2fZoOhNjGueICRed6jL4LY3UWHJzwlFYa5Kcm
79TEcj16p/POp5HKXV1LSvaD34oNvLNAVMNHpGdGlIqQiAI6gXDr8GHUAT3Kg1yq
wcieFC7H/UnY4DUcrVvVAlXepvgl8HnmkVSSZw/LrfW+aUcAv2i6+akbfjoaefa4
4D9ccLh/o9KgqJ1nyEiT4GkNngiXHVOhCd1bAgMBAAGjgY8wgYwwFgYJYIZIAYb4
QgENBAkWB0NBIFJvb3QwHQYDVR0OBBYEFLd4C6h0yLvSK4tz213WOwWI8xZvMB8G
A1UdIwQYMBaAFLd4C6h0yLvSK4tz213WOwWI8xZvMBIGA1UdEwEB/wQIMAYBAf8C
AQEwCwYDVR0PBAQDAgEGMBEGCWCGSAGG+EIBAQQEAwICBDANBgkqhkiG9w0BAQsF
AAOCAgEAjyLCbiJcybYkZ3280ymYNyxiE7oQj3xCEcWrvPrGKalK0jLh5iDqNe09
asu81ML0UVt2Q8TinPp56tKIC7tc3N0SbIfiIr6Azed2Ikfj8i3V0X870dNVr+N1
YZzgm7cU2eUbnAWBKU/+zTkkxLgfHrsdw7XDQfIF7lOhk/tZ7qllxWFbVL+20gZX
Q9Kyr49DDknQFREXZWZ818rl2g78e525EcpMNddn+BjXUk0r4hBtu1Sa/hMP4gXo
6UyXTzzycqkKMR2mvNnWT+TeruV07eZYCh90cHAGxqLEs4ERfVxk0Iapemx4X9tq
BG6DHScpNI8KFJTRcCYycsEvQZ9qvTEz7KprQfb5GBGu5OL29bSZQ5U0eq2X1GfN
02TDwtfjG0ZcBwr/u/abAqsaeQ2d6PvvM4WLfRQZGdeK8rHYgTAg4smNzAEvp27I
bO6Loe/HUwVb44DTCqFrrcuwwd3UIQtRl+pyrgl/wAU6NH9+SqgoGwGwvG8kOe94
rlllCKI1apmPiQKf7rSvR8ysrMf4pdIQdHd9sAt2IfceCgAL9YmKT6eJOHv0YVps
UYaj72SHZYuD8mZ4C2CBrdjV3SQ3Yk7FOJaSMl3t6f/a89ksTdxZ3E2jeHt1uG5Y
9b6G+JmOGDHb+DtQ75grF2V52C/6+sufOCHFoI+WnaqHpxWh7rQ=
-----END CERTIFICATE-----
