Certificate:
    Data:
        Version: 3 (0x2)
        Serial Number: 2 (0x2)
        Signature Algorithm: sha256WithRSAEncryption
        Issuer: C=fr, ST=idf, L=paris, O=vitam, OU=authorities, CN=ca_intermediate_client-external
        Validity
            Not Before: Aug  9 16:08:01 2021 GMT
            Not After : Aug  7 16:08:01 2031 GMT
        Subject: C=fr, ST=idf, L=paris, O=vitam, CN=personal-client-external
        Subject Public Key Info:
            Public Key Algorithm: rsaEncryption
                RSA Public-Key: (4096 bit)
                Modulus:
                    00:aa:ca:39:4d:b2:3d:36:f2:a5:2a:d7:db:9b:d2:
                    91:66:c4:74:01:95:c6:17:fe:6f:42:9a:7f:c2:00:
                    00:97:a3:34:ac:37:6c:03:2a:db:4b:16:ae:48:17:
                    3c:b8:58:94:f2:99:c6:84:48:dc:c7:fd:06:c8:35:
                    a7:22:fb:81:d1:e4:da:39:53:e6:e8:8a:92:c6:d4:
                    e0:10:03:a3:25:e7:d7:b4:1e:f1:d2:d3:2c:6c:8e:
                    9e:3c:ac:d4:b7:53:c6:ec:24:16:04:3e:9f:4a:e9:
                    85:d6:a2:5b:84:43:82:72:cc:ed:5d:de:c5:cd:4d:
                    13:a7:7b:23:34:16:ae:21:48:39:b7:cc:c8:ab:e8:
                    f0:4b:53:f4:ea:48:68:31:79:96:85:06:cb:72:cc:
                    38:36:35:b5:57:b9:be:27:58:75:04:2a:7a:3e:af:
                    be:69:49:c2:87:29:ca:2f:b6:8f:af:62:b8:71:99:
                    60:b1:dc:61:26:3a:a2:63:a4:f7:29:ff:8d:9b:a1:
                    89:a1:5d:23:87:db:ca:22:bf:64:e4:af:b5:fc:79:
                    55:ef:09:7a:d1:2f:b6:a2:e3:6b:b2:c0:b1:fa:a0:
                    a4:75:80:4a:d1:98:dc:b7:3c:73:22:55:19:97:bc:
                    85:95:81:f4:82:95:c2:9e:53:bb:79:26:79:46:09:
                    03:a9:76:8c:bb:8f:8c:60:ea:22:20:ba:e4:67:21:
                    7e:39:cc:82:62:ef:41:7c:2d:59:e6:7a:6b:8b:10:
                    84:97:2b:c1:7d:a2:c1:3e:3a:f1:ae:b5:17:24:5b:
                    3f:99:a4:a8:cc:e3:ae:9a:32:0a:bd:5c:62:06:fd:
                    e2:31:f8:b0:58:a4:46:39:7f:76:d3:33:8b:7f:cb:
                    4f:13:ad:1e:c3:a5:1e:73:4a:7b:75:69:f8:eb:0c:
                    39:10:d7:fa:2c:dc:32:6a:aa:aa:e9:9c:85:66:d7:
                    74:b2:06:e2:34:0b:0c:71:59:35:1e:5a:ff:dd:10:
                    cd:8c:1c:51:60:35:4a:77:2b:16:25:77:6b:aa:a0:
                    fe:5f:b7:2e:d7:2d:25:e8:9b:1f:52:84:96:63:a8:
                    66:0e:85:51:8d:33:c0:14:8f:a2:8c:c6:2d:4e:ee:
                    4a:30:81:31:b4:00:4f:6f:1f:91:f2:30:93:3e:f7:
                    70:03:b5:fb:6e:4b:ca:2e:3d:ea:3f:02:9d:d1:00:
                    cb:4e:82:94:75:e0:a4:7d:b2:4b:4c:87:a9:03:17:
                    64:51:dc:46:4f:9b:9a:b8:70:b1:a8:94:ef:a1:6f:
                    50:10:5b:00:a5:7e:fc:3d:a6:07:08:ef:31:ac:de:
                    30:ec:76:c6:84:29:5f:6b:19:c9:76:52:29:bc:45:
                    df:5e:bd
                Exponent: 65537 (0x10001)
        X509v3 extensions:
            Netscape Comment: 
                Certificat Client SSL
            X509v3 Subject Key Identifier: 
                33:4B:D3:EF:81:47:D0:9B:66:A4:22:A7:8C:1A:B6:F4:F1:FD:00:18
            X509v3 Authority Key Identifier: 
                keyid:96:5A:E3:60:3D:A7:B5:36:66:90:18:B6:C5:59:BA:4A:1F:FB:35:97
                DirName:/C=fr/ST=idf/L=paris/O=vitam/OU=authorities/CN=ca_root_client-external
                serial:02

            X509v3 Issuer Alternative Name: 
                <EMPTY>

            X509v3 Basic Constraints: critical
                CA:FALSE
            X509v3 Key Usage: 
                Digital Signature
            Netscape Cert Type: 
                SSL Client
            X509v3 Extended Key Usage: 
                TLS Web Client Authentication
    Signature Algorithm: sha256WithRSAEncryption
         c4:45:d6:81:2a:8c:62:23:25:9c:50:3c:14:4d:54:d2:22:ae:
         c9:64:7e:01:b2:34:2d:f1:95:49:48:b3:84:74:98:4d:f9:63:
         a4:13:84:0f:bb:60:a8:7b:7b:d3:e9:25:39:91:78:00:50:ce:
         d1:10:2c:76:05:64:68:0c:e3:fc:28:aa:0b:5b:6a:fe:15:9d:
         a4:46:9a:bf:01:72:7d:9e:57:54:2f:b8:31:1c:a1:55:6f:42:
         2f:e6:8d:58:f8:c0:e6:d4:f0:53:1e:fe:0d:cb:3f:fb:b9:55:
         31:cb:b2:9c:37:5f:98:eb:37:8f:5e:2b:60:78:b4:6a:ab:20:
         e5:13:06:db:40:91:92:ff:28:e5:1f:0b:97:5b:52:04:69:6c:
         40:78:c7:32:0f:39:bf:dd:fe:87:04:d0:39:2f:28:56:5c:1b:
         d3:c6:5b:a6:3c:60:48:94:8f:4a:55:df:98:23:74:0d:f2:81:
         39:04:ac:4d:58:d3:82:aa:ec:fe:2d:0f:da:80:8e:fc:a4:5a:
         cb:53:4e:4d:fc:97:79:7a:d5:f1:2e:c9:a6:a9:9b:05:a2:a8:
         4b:e7:aa:3c:71:ac:a5:50:7f:dc:70:fb:03:86:79:d1:ed:b1:
         3c:ae:c6:ee:0e:2b:9b:65:4d:43:8a:b7:e1:1f:1f:81:3c:2b:
         44:ad:17:df:b2:e0:7c:00:18:b2:fb:b5:02:b5:54:b8:2d:80:
         71:19:c4:3c:fb:4c:a2:89:e4:ba:17:f2:a6:5e:30:ab:f0:fe:
         e5:a1:c6:6e:ad:71:3c:fb:5e:e7:22:84:a3:42:30:e4:0b:9e:
         c8:2b:bd:5a:70:5b:83:06:5b:7c:40:53:1f:b0:cd:02:69:99:
         00:46:5a:4b:ba:25:21:c0:b7:24:fa:41:05:4b:1c:0e:84:0a:
         e1:a1:eb:90:d9:3c:9c:3e:6f:5a:8c:c6:53:70:86:33:58:a9:
         80:ae:83:e6:5a:97:e4:69:6c:5a:cb:7f:34:e0:66:0c:50:38:
         39:e1:b2:e6:ee:dc:cd:b4:70:d1:21:b1:95:30:00:8e:d8:16:
         71:0d:35:3e:01:d8:c8:ee:6e:76:f2:b2:87:7b:39:78:1f:52:
         58:76:70:ab:2c:2d:d1:a1:5c:f6:3e:11:7b:5f:56:10:44:5e:
         95:89:8e:be:7e:bf:97:43:d4:f2:77:fb:78:a4:e5:26:70:fa:
         58:85:49:e0:c5:ca:ce:58:50:be:df:ba:a6:b7:fb:5b:0d:1d:
         f8:ab:44:b6:70:a3:00:56:3e:71:34:89:8f:2f:5e:31:c6:a6:
         53:02:b2:de:6d:45:9f:5b:5f:28:ab:b1:6b:d4:6d:52:0b:9c:
         f7:87:f9:f5:44:f3:5e:7d
-----BEGIN CERTIFICATE-----
MIIGjTCCBHWgAwIBAgIBAjANBgkqhkiG9w0BAQsFADB7MQswCQYDVQQGEwJmcjEM
MAoGA1UECAwDaWRmMQ4wDAYDVQQHDAVwYXJpczEOMAwGA1UECgwFdml0YW0xFDAS
BgNVBAsMC2F1dGhvcml0aWVzMSgwJgYDVQQDDB9jYV9pbnRlcm1lZGlhdGVfY2xp
ZW50LWV4dGVybmFsMB4XDTIxMDgwOTE2MDgwMVoXDTMxMDgwNzE2MDgwMVowXjEL
MAkGA1UEBhMCZnIxDDAKBgNVBAgMA2lkZjEOMAwGA1UEBwwFcGFyaXMxDjAMBgNV
BAoMBXZpdGFtMSEwHwYDVQQDDBhwZXJzb25hbC1jbGllbnQtZXh0ZXJuYWwwggIi
MA0GCSqGSIb3DQEBAQUAA4ICDwAwggIKAoICAQCqyjlNsj028qUq19ub0pFmxHQB
lcYX/m9Cmn/CAACXozSsN2wDKttLFq5IFzy4WJTymcaESNzH/QbINaci+4HR5No5
U+boipLG1OAQA6Ml59e0HvHS0yxsjp48rNS3U8bsJBYEPp9K6YXWoluEQ4JyzO1d
3sXNTROneyM0Fq4hSDm3zMir6PBLU/TqSGgxeZaFBstyzDg2NbVXub4nWHUEKno+
r75pScKHKcovto+vYrhxmWCx3GEmOqJjpPcp/42boYmhXSOH28oiv2Tkr7X8eVXv
CXrRL7ai42uywLH6oKR1gErRmNy3PHMiVRmXvIWVgfSClcKeU7t5JnlGCQOpdoy7
j4xg6iIguuRnIX45zIJi70F8LVnmemuLEISXK8F9osE+OvGutRckWz+ZpKjM466a
Mgq9XGIG/eIx+LBYpEY5f3bTM4t/y08TrR7DpR5zSnt1afjrDDkQ1/os3DJqqqrp
nIVm13SyBuI0CwxxWTUeWv/dEM2MHFFgNUp3KxYld2uqoP5fty7XLSXomx9ShJZj
qGYOhVGNM8AUj6KMxi1O7kowgTG0AE9vH5HyMJM+93ADtftuS8ouPeo/Ap3RAMtO
gpR14KR9sktMh6kDF2RR3EZPm5q4cLGolO+hb1AQWwClfvw9pgcI7zGs3jDsdsaE
KV9rGcl2Uim8Rd9evQIDAQABo4IBNzCCATMwJAYJYIZIAYb4QgENBBcWFUNlcnRp
ZmljYXQgQ2xpZW50IFNTTDAdBgNVHQ4EFgQUM0vT74FH0JtmpCKnjBq29PH9ABgw
gZ0GA1UdIwSBlTCBkoAUllrjYD2ntTZmkBi2xVm6Sh/7NZehd6R1MHMxCzAJBgNV
BAYTAmZyMQwwCgYDVQQIDANpZGYxDjAMBgNVBAcMBXBhcmlzMQ4wDAYDVQQKDAV2
aXRhbTEUMBIGA1UECwwLYXV0aG9yaXRpZXMxIDAeBgNVBAMMF2NhX3Jvb3RfY2xp
ZW50LWV4dGVybmFsggECMAkGA1UdEgQCMAAwDAYDVR0TAQH/BAIwADALBgNVHQ8E
BAMCB4AwEQYJYIZIAYb4QgEBBAQDAgeAMBMGA1UdJQQMMAoGCCsGAQUFBwMCMA0G
CSqGSIb3DQEBCwUAA4ICAQDERdaBKoxiIyWcUDwUTVTSIq7JZH4BsjQt8ZVJSLOE
dJhN+WOkE4QPu2Coe3vT6SU5kXgAUM7RECx2BWRoDOP8KKoLW2r+FZ2kRpq/AXJ9
nldUL7gxHKFVb0Iv5o1Y+MDm1PBTHv4Nyz/7uVUxy7KcN1+Y6zePXitgeLRqqyDl
EwbbQJGS/yjlHwuXW1IEaWxAeMcyDzm/3f6HBNA5LyhWXBvTxlumPGBIlI9KVd+Y
I3QN8oE5BKxNWNOCquz+LQ/agI78pFrLU05N/Jd5etXxLsmmqZsFoqhL56o8cayl
UH/ccPsDhnnR7bE8rsbuDiubZU1DirfhHx+BPCtErRffsuB8ABiy+7UCtVS4LYBx
GcQ8+0yiieS6F/KmXjCr8P7locZurXE8+17nIoSjQjDkC57IK71acFuDBlt8QFMf
sM0CaZkARlpLuiUhwLck+kEFSxwOhArhoeuQ2TycPm9ajMZTcIYzWKmAroPmWpfk
aWxay3804GYMUDg54bLm7tzNtHDRIbGVMACO2BZxDTU+AdjI7m528rKHezl4H1JY
dnCrLC3RoVz2PhF7X1YQRF6ViY6+fr+XQ9Tyd/t4pOUmcPpYhUngxcrOWFC+37qm
t/tbDR34q0S2cKMAVj5xNImPL14xxqZTArLebUWfW18oq7Fr1G1SC5z3h/n1RPNe
fQ==
-----END CERTIFICATE-----
