Certificate:
    Data:
        Version: 3 (0x2)
        Serial Number: 1 (0x1)
        Signature Algorithm: sha256WithRSAEncryption
        Issuer: C=fr, ST=idf, L=paris, O=vitam, OU=authorities, CN=ca_intermediate_client-external
        Validity
            Not Before: Aug  9 16:07:50 2021 GMT
            Not After : Aug  7 16:07:50 2031 GMT
        Subject: C=fr, ST=idf, L=paris, O=vitam, CN=sia-client-external
        Subject Public Key Info:
            Public Key Algorithm: rsaEncryption
                RSA Public-Key: (4096 bit)
                Modulus:
                    00:bb:21:13:23:38:be:a4:99:e7:c6:b2:45:88:18:
                    04:b6:ed:33:45:ca:99:f9:b1:e4:7f:31:e5:58:b4:
                    19:09:66:94:11:57:ea:0e:62:c2:6b:e4:43:e9:a2:
                    13:13:2d:5a:f8:33:17:e3:b4:f8:4c:a4:b6:53:7d:
                    07:e0:20:71:fc:c7:58:0e:91:ea:86:f6:76:4f:fc:
                    e7:cb:b5:03:f5:1c:9e:30:64:9c:ca:57:ef:0a:4d:
                    2a:73:9a:24:44:dd:c7:3b:d4:bb:cd:b3:8e:13:27:
                    96:62:70:3e:e9:1f:8a:0d:04:50:38:70:67:3d:08:
                    af:22:b3:6c:6b:f6:7a:52:fa:66:f2:df:ac:02:e3:
                    bc:3d:b7:e6:2f:94:55:6d:8e:57:4c:51:ea:be:a7:
                    18:4a:12:21:ab:22:07:1d:ca:04:50:15:54:fb:25:
                    16:f2:e6:b4:34:e8:e4:48:05:09:72:a3:3f:bc:16:
                    1a:01:5b:71:e0:72:01:f9:04:8a:33:30:db:62:9f:
                    94:fd:a8:05:72:8e:ed:6b:c8:5c:d4:fb:65:d4:0d:
                    b2:cb:f9:ba:75:df:e9:b2:b1:4e:d4:9c:4e:52:be:
                    2d:03:16:cd:ff:6c:2e:7f:f1:d0:a0:1c:19:f3:f8:
                    ba:83:75:9f:b4:29:d0:b6:a2:cc:d9:ff:79:09:93:
                    c8:31:91:59:08:47:53:7c:1c:c7:6c:49:86:15:61:
                    e8:da:b5:77:9a:91:61:38:83:5a:41:70:60:24:a2:
                    2e:33:e8:a6:f9:6d:34:d8:3d:bb:68:44:55:26:22:
                    6d:dc:e1:92:e1:f2:57:39:17:bc:0f:e9:48:6e:44:
                    24:58:6b:a0:64:0a:52:c0:66:9e:f3:ad:a3:05:1d:
                    72:37:21:ce:36:ca:3a:6c:1e:59:0a:98:7a:51:d3:
                    bf:3c:e0:94:a2:0a:d0:80:1f:11:da:63:8a:c4:7e:
                    02:7a:9c:43:5e:d4:54:2d:27:7a:93:40:44:99:e4:
                    f6:ab:10:09:b3:f1:71:49:58:f9:63:91:e1:57:e8:
                    4e:c1:da:18:6e:3b:01:82:17:7a:e8:40:25:7e:20:
                    28:fb:1d:8a:63:4e:66:7b:bf:86:ec:e2:2c:3a:42:
                    49:ef:a7:81:6c:81:27:06:e2:8c:8a:80:f4:a0:1c:
                    1e:01:7c:6f:ce:af:d6:06:60:37:bd:4f:ed:40:45:
                    5c:67:d6:68:0b:c8:c0:f8:01:e6:31:08:12:f4:de:
                    bc:c1:d6:54:ec:70:ac:7d:4d:cd:92:62:9d:d2:51:
                    3f:f4:cf:5e:ac:4f:2a:43:2e:7e:23:df:53:f1:73:
                    72:e0:97:63:c8:88:f5:e9:cb:0b:8a:c0:50:68:76:
                    34:20:9f
                Exponent: 65537 (0x10001)
        X509v3 extensions:
            Netscape Comment: 
                Certificat Client SSL
            X509v3 Subject Key Identifier: 
                C4:23:12:4F:3A:07:DC:1A:9C:B2:7D:E3:C8:E9:D1:AD:4B:17:58:B7
            X509v3 Authority Key Identifier: 
                keyid:96:5A:E3:60:3D:A7:B5:36:66:90:18:B6:C5:59:BA:4A:1F:FB:35:97
                DirName:/C=fr/ST=idf/L=paris/O=vitam/OU=authorities/CN=ca_root_client-external
                serial:02

            X509v3 Issuer Alternative Name: 
                <EMPTY>

            X509v3 Basic Constraints: critical
                CA:FALSE
            X509v3 Key Usage: 
                Digital Signature
            Netscape Cert Type: 
                SSL Client
            X509v3 Extended Key Usage: 
                TLS Web Client Authentication
    Signature Algorithm: sha256WithRSAEncryption
         35:1c:79:e3:b4:76:16:fb:be:9d:fc:b0:e1:5a:df:c3:9f:a2:
         34:54:27:3e:0b:75:3f:aa:19:29:3f:8e:d8:71:2b:11:89:8c:
         a2:81:8a:27:9c:e2:21:8c:33:d3:35:bd:7a:03:48:97:4f:61:
         77:ce:0b:4b:86:29:ed:1e:4c:5c:0a:7a:78:5a:98:c5:9e:b6:
         ad:cf:f8:c0:e4:97:70:62:e0:c4:86:30:2e:0b:5c:50:8c:ab:
         af:b3:02:bb:56:cf:50:7b:30:a1:ab:55:ef:93:1f:79:12:ad:
         d7:b4:c1:8c:c5:18:b9:13:57:a9:f5:1b:17:17:b4:46:36:e6:
         1e:4b:de:25:f7:c2:ac:d2:88:6c:8a:25:35:10:4c:20:6c:3b:
         ad:c7:58:4b:c1:5f:a4:30:66:51:78:7b:6d:bc:7b:ab:b3:35:
         0b:3e:3e:fb:5a:f4:09:75:08:4c:bf:50:59:e8:ee:c7:cc:af:
         02:cf:48:c7:76:b4:c5:0a:21:d5:7b:74:a3:71:4f:f8:cb:2e:
         03:8d:79:51:6c:23:a3:14:36:30:f3:fc:53:7b:80:cf:52:14:
         99:eb:ab:d0:4e:f5:8d:fe:95:c6:08:91:e3:3c:5c:32:6d:79:
         2e:85:99:fe:b9:85:ed:7b:f3:36:b9:bf:f4:4e:d1:58:0b:b2:
         4b:4f:a4:26:ab:b3:b2:ba:bd:55:88:01:3a:ea:d3:de:4a:29:
         85:36:b7:b1:22:2a:ec:21:d0:05:18:28:d2:99:bd:77:49:34:
         0a:71:6c:56:aa:d2:9f:51:b6:8e:90:44:ff:08:6a:b9:bd:8a:
         25:cd:84:65:73:d6:8a:cd:0d:0e:97:c1:a9:a3:2d:76:99:6f:
         a5:87:fc:31:76:a6:d1:78:b9:17:62:41:bd:1e:12:eb:21:7e:
         19:e9:0d:6e:a4:f4:3e:0d:28:85:e9:df:4e:38:d8:6e:ef:fa:
         5a:dc:47:1c:66:b9:9e:06:db:33:1d:2b:7f:33:c1:3d:03:ad:
         70:cd:b7:86:3a:7f:0a:81:ac:77:34:0f:47:52:c1:9a:53:5d:
         a9:e9:19:0d:6b:27:3d:69:f6:5f:96:7c:62:34:62:4c:c9:5a:
         23:cc:94:87:8f:d9:c9:08:db:57:6f:e0:22:f4:8a:ef:76:9f:
         e1:2d:1a:a7:45:08:dd:c8:26:e0:3f:30:ff:e6:21:83:2d:33:
         c5:f7:41:16:1e:c8:0f:21:b7:6e:50:ab:d1:bf:2c:2a:54:b0:
         6f:c3:06:46:b1:28:b5:29:68:b7:17:4b:f3:66:cb:c5:26:e9:
         fc:2b:e8:12:eb:f9:26:7c:58:1e:27:f4:fa:0b:9b:0f:88:93:
         69:57:6b:7d:cd:d7:26:7f
-----BEGIN CERTIFICATE-----
MIIGiDCCBHCgAwIBAgIBATANBgkqhkiG9w0BAQsFADB7MQswCQYDVQQGEwJmcjEM
MAoGA1UECAwDaWRmMQ4wDAYDVQQHDAVwYXJpczEOMAwGA1UECgwFdml0YW0xFDAS
BgNVBAsMC2F1dGhvcml0aWVzMSgwJgYDVQQDDB9jYV9pbnRlcm1lZGlhdGVfY2xp
ZW50LWV4dGVybmFsMB4XDTIxMDgwOTE2MDc1MFoXDTMxMDgwNzE2MDc1MFowWTEL
MAkGA1UEBhMCZnIxDDAKBgNVBAgMA2lkZjEOMAwGA1UEBwwFcGFyaXMxDjAMBgNV
BAoMBXZpdGFtMRwwGgYDVQQDDBNzaWEtY2xpZW50LWV4dGVybmFsMIICIjANBgkq
hkiG9w0BAQEFAAOCAg8AMIICCgKCAgEAuyETIzi+pJnnxrJFiBgEtu0zRcqZ+bHk
fzHlWLQZCWaUEVfqDmLCa+RD6aITEy1a+DMX47T4TKS2U30H4CBx/MdYDpHqhvZ2
T/zny7UD9RyeMGScylfvCk0qc5okRN3HO9S7zbOOEyeWYnA+6R+KDQRQOHBnPQiv
IrNsa/Z6Uvpm8t+sAuO8PbfmL5RVbY5XTFHqvqcYShIhqyIHHcoEUBVU+yUW8ua0
NOjkSAUJcqM/vBYaAVtx4HIB+QSKMzDbYp+U/agFco7ta8hc1Ptl1A2yy/m6dd/p
srFO1JxOUr4tAxbN/2wuf/HQoBwZ8/i6g3WftCnQtqLM2f95CZPIMZFZCEdTfBzH
bEmGFWHo2rV3mpFhOINaQXBgJKIuM+im+W002D27aERVJiJt3OGS4fJXORe8D+lI
bkQkWGugZApSwGae862jBR1yNyHONso6bB5ZCph6UdO/POCUogrQgB8R2mOKxH4C
epxDXtRULSd6k0BEmeT2qxAJs/FxSVj5Y5HhV+hOwdoYbjsBghd66EAlfiAo+x2K
Y05me7+G7OIsOkJJ76eBbIEnBuKMioD0oBweAXxvzq/WBmA3vU/tQEVcZ9ZoC8jA
+AHmMQgS9N68wdZU7HCsfU3NkmKd0lE/9M9erE8qQy5+I99T8XNy4JdjyIj16csL
isBQaHY0IJ8CAwEAAaOCATcwggEzMCQGCWCGSAGG+EIBDQQXFhVDZXJ0aWZpY2F0
IENsaWVudCBTU0wwHQYDVR0OBBYEFMQjEk86B9wanLJ948jp0a1LF1i3MIGdBgNV
HSMEgZUwgZKAFJZa42A9p7U2ZpAYtsVZukof+zWXoXekdTBzMQswCQYDVQQGEwJm
cjEMMAoGA1UECAwDaWRmMQ4wDAYDVQQHDAVwYXJpczEOMAwGA1UECgwFdml0YW0x
FDASBgNVBAsMC2F1dGhvcml0aWVzMSAwHgYDVQQDDBdjYV9yb290X2NsaWVudC1l
eHRlcm5hbIIBAjAJBgNVHRIEAjAAMAwGA1UdEwEB/wQCMAAwCwYDVR0PBAQDAgeA
MBEGCWCGSAGG+EIBAQQEAwIHgDATBgNVHSUEDDAKBggrBgEFBQcDAjANBgkqhkiG
9w0BAQsFAAOCAgEANRx547R2Fvu+nfyw4Vrfw5+iNFQnPgt1P6oZKT+O2HErEYmM
ooGKJ5ziIYwz0zW9egNIl09hd84LS4Yp7R5MXAp6eFqYxZ62rc/4wOSXcGLgxIYw
LgtcUIyrr7MCu1bPUHswoatV75MfeRKt17TBjMUYuRNXqfUbFxe0RjbmHkveJffC
rNKIbIolNRBMIGw7rcdYS8FfpDBmUXh7bbx7q7M1Cz4++1r0CXUITL9QWejux8yv
As9Ix3a0xQoh1Xt0o3FP+MsuA415UWwjoxQ2MPP8U3uAz1IUmeur0E71jf6VxgiR
4zxcMm15LoWZ/rmF7XvzNrm/9E7RWAuyS0+kJquzsrq9VYgBOurT3kophTa3sSIq
7CHQBRgo0pm9d0k0CnFsVqrSn1G2jpBE/whqub2KJc2EZXPWis0NDpfBqaMtdplv
pYf8MXam0Xi5F2JBvR4S6yF+GekNbqT0Pg0ohenfTjjYbu/6WtxHHGa5ngbbMx0r
fzPBPQOtcM23hjp/CoGsdzQPR1LBmlNdqekZDWsnPWn2X5Z8YjRiTMlaI8yUh4/Z
yQjbV2/gIvSK73af4S0ap0UI3cgm4D8w/+Yhgy0zxfdBFh7IDyG3blCr0b8sKlSw
b8MGRrEotSlotxdL82bLxSbp/CvoEuv5JnxYHif0+gubD4iTaVdrfc3XJn8=
-----END CERTIFICATE-----
