Certificate:
    Data:
        Version: 3 (0x2)
        Serial Number: 299 (0x12b)
    Signature Algorithm: sha256WithRSAEncryption
        Issuer: C=fr, ST=idf, L=paris, O=vitam, OU=authorities, CN=ca_intermediate_client-external
        Validity
            Not Before: Aug  6 15:29:17 2018 GMT
            Not After : Aug  5 15:29:17 2021 GMT
        Subject: C=fr, ST=idf, L=paris, O=vitam, CN=personal-client-external
        Subject Public Key Info:
            Public Key Algorithm: rsaEncryption
                Public-Key: (4096 bit)
                Modulus:
                    00:d9:82:ea:a8:e3:a9:17:56:da:13:e4:bd:1c:62:
                    44:a5:be:b0:c0:88:f0:31:28:68:4e:3e:4b:7a:47:
                    d9:8d:a0:bd:5c:63:6b:ae:f7:3c:c7:ac:f1:86:1e:
                    48:62:77:04:24:5a:7b:fc:71:d5:cf:ee:99:0f:7d:
                    9e:28:42:19:28:48:a3:4e:cd:3f:90:70:4c:b8:9e:
                    a1:65:80:38:20:a0:76:f6:61:16:ed:f5:d2:1b:fa:
                    34:f0:65:65:1b:e0:5b:0c:4c:99:d2:dd:b7:fc:1e:
                    e4:57:8d:01:66:c0:6f:4f:dc:0c:4a:40:4c:ae:50:
                    b6:0b:91:50:2a:68:dc:20:f5:eb:b4:e5:9a:76:3c:
                    c6:31:79:d5:b3:a4:82:ff:de:e9:59:22:c0:a8:13:
                    84:d9:bc:6c:58:56:3d:a6:c4:d9:93:3d:c2:4d:50:
                    de:14:83:cf:34:5f:cf:6b:08:29:1b:5a:a3:ff:72:
                    93:d4:d8:09:0f:7d:44:94:34:93:b3:e6:48:09:1f:
                    42:b8:8b:a0:6e:2b:7e:bc:1a:71:e1:d8:55:e3:80:
                    65:9f:58:b9:99:e2:b7:7e:89:e4:bb:90:0e:51:e9:
                    e1:8c:7e:47:50:98:69:30:06:16:0b:95:25:03:91:
                    07:3e:c8:fd:26:ab:37:ab:c6:19:36:3a:41:87:b1:
                    c7:5b:f3:86:f7:ef:31:50:a3:92:ee:ca:92:a3:85:
                    d8:1d:5d:d7:d9:d4:c2:3a:19:39:9d:14:09:01:c6:
                    a4:34:75:50:b3:26:b1:e4:be:0e:51:f1:6a:7a:7d:
                    14:16:c2:89:8e:3f:4f:f5:16:96:53:66:cd:cd:0c:
                    74:02:33:12:37:58:02:a1:b9:25:0e:37:c4:f4:03:
                    8f:ec:cf:db:1b:f9:83:9b:99:e6:4c:64:e5:ac:a5:
                    a1:da:0c:34:2b:5a:61:c3:5a:29:72:d2:6d:d7:ef:
                    58:e2:a5:df:cd:38:54:12:6d:d2:9f:43:95:91:fb:
                    ae:b3:b9:06:64:ae:b5:6c:1e:a3:01:55:29:a6:46:
                    ac:03:1d:7a:bd:7d:b7:dc:88:c6:7f:4b:6b:83:0e:
                    30:3d:2d:b3:e6:90:22:e1:da:b0:06:8e:80:32:e9:
                    26:13:6d:70:bb:8e:48:31:47:08:91:0b:7a:d0:4a:
                    d4:59:84:d9:59:df:aa:0e:22:b1:96:0e:25:11:f5:
                    95:48:1c:08:25:24:8b:d7:7b:94:f4:23:c6:38:8c:
                    29:fa:e2:34:e3:16:09:e1:c3:d2:3b:88:a7:5c:19:
                    fb:63:3e:b5:4b:cc:7d:d6:b1:cd:de:4f:de:ba:fe:
                    df:75:36:cf:b9:8e:a1:aa:cf:17:a2:65:68:c4:e4:
                    68:65:b9
                Exponent: 65537 (0x10001)
        X509v3 extensions:
            Netscape Comment: 
                Certificat Client SSL
            X509v3 Subject Key Identifier: 
                48:7E:EB:79:07:DD:5C:57:B4:40:B7:33:76:4E:12:F4:FD:72:41:B2
            X509v3 Authority Key Identifier: 
                keyid:39:D1:39:D2:71:30:78:FD:BF:39:5D:C1:81:AE:83:BB:C0:54:62:47
                DirName:/C=fr/ST=idf/L=paris/O=vitam/OU=authorities/CN=ca_root_client-external
                serial:01:28

            X509v3 Issuer Alternative Name: 
                <EMPTY>

            X509v3 Basic Constraints: critical
                CA:FALSE
            X509v3 Key Usage: 
                Digital Signature
            Netscape Cert Type: 
                SSL Client
            X509v3 Extended Key Usage: 
                TLS Web Client Authentication
    Signature Algorithm: sha256WithRSAEncryption
         09:12:a9:c7:63:c2:b8:32:53:4e:f0:c8:54:cd:3f:09:b1:88:
         88:8a:94:59:cb:33:28:61:1c:88:f8:73:69:bc:b7:f6:6e:e8:
         54:80:43:7e:d4:0e:a2:56:68:6a:49:ad:98:8e:12:03:d8:30:
         07:a0:13:e3:dc:66:1a:00:41:74:6f:b9:d0:55:49:03:49:12:
         bb:36:47:28:d0:d6:35:76:40:0a:3b:da:86:1a:81:a5:ca:bf:
         b4:2a:af:ff:6c:73:cd:c4:73:dd:17:85:9b:f6:4b:3c:d4:72:
         cd:75:92:9e:82:34:3e:09:68:b0:86:a7:ba:97:5c:69:21:e4:
         a3:41:70:31:9d:7d:9c:e5:02:fb:7d:f5:1b:ee:6d:93:bc:56:
         99:41:59:57:bc:e6:b3:e3:80:2a:2e:0a:d8:49:d8:a2:3d:82:
         39:c8:17:b6:cf:64:df:89:7c:4f:be:2b:0e:bc:b9:c9:07:f0:
         28:12:e4:40:ac:41:22:c5:96:86:d3:e1:4d:2e:2b:f4:e8:19:
         83:5c:fa:3c:55:b7:27:08:f7:93:b3:1a:1f:bf:7a:3b:27:f6:
         fe:fe:ad:48:ec:5b:82:54:ef:f7:c9:90:9d:51:94:fb:94:d4:
         2e:c9:8b:ab:4d:8d:bf:92:e6:3b:48:d7:a6:b1:91:83:39:a6:
         8e:0b:9d:1c:78:2e:30:60:a5:bd:24:94:65:f8:b7:42:ec:d4:
         d1:ef:8a:ce:76:50:c4:5c:cd:48:1f:02:e2:ae:97:55:1e:11:
         3f:b7:27:81:78:95:2b:aa:8f:00:b3:d9:2e:f3:c3:04:34:a4:
         a6:97:cb:b2:96:26:73:d8:8e:d0:08:de:af:11:69:d5:dd:0d:
         70:50:33:3e:75:d6:ba:c9:9f:e2:8f:c1:9c:40:6e:1e:16:ec:
         69:d0:38:7d:3d:74:3e:60:ef:98:70:a4:4a:f4:48:0e:9c:18:
         cf:cd:9f:e7:e8:c2:2c:3e:85:bd:32:84:62:9b:12:24:09:bf:
         f4:3a:28:53:44:3c:4f:d0:ac:84:86:00:e9:8f:87:21:7f:ad:
         13:b6:d3:3d:81:ac:8a:7c:12:b6:86:41:4f:87:6d:74:03:46:
         51:04:81:e4:e5:56:b3:fe:70:8a:45:61:33:fa:ce:8f:2a:62:
         ef:f7:5c:f2:3c:f8:24:6e:c5:7d:5c:3d:37:54:80:de:9a:2c:
         f7:ac:3a:33:d9:f3:04:7e:a3:1b:04:29:c6:9e:c0:b3:48:ba:
         f1:88:2d:43:e2:dc:e1:2b:a7:5d:29:42:7b:9a:4d:9c:de:3c:
         26:37:ce:5a:57:b5:e1:a9:c9:f7:0f:de:0f:ec:e9:55:66:d1:
         ff:19:8b:ef:6d:6f:37:3d
-----BEGIN CERTIFICATE-----
MIIGjzCCBHegAwIBAgICASswDQYJKoZIhvcNAQELBQAwezELMAkGA1UEBhMCZnIx
DDAKBgNVBAgMA2lkZjEOMAwGA1UEBwwFcGFyaXMxDjAMBgNVBAoMBXZpdGFtMRQw
EgYDVQQLDAthdXRob3JpdGllczEoMCYGA1UEAwwfY2FfaW50ZXJtZWRpYXRlX2Ns
aWVudC1leHRlcm5hbDAeFw0xODA4MDYxNTI5MTdaFw0yMTA4MDUxNTI5MTdaMF4x
CzAJBgNVBAYTAmZyMQwwCgYDVQQIDANpZGYxDjAMBgNVBAcMBXBhcmlzMQ4wDAYD
VQQKDAV2aXRhbTEhMB8GA1UEAwwYcGVyc29uYWwtY2xpZW50LWV4dGVybmFsMIIC
IjANBgkqhkiG9w0BAQEFAAOCAg8AMIICCgKCAgEA2YLqqOOpF1baE+S9HGJEpb6w
wIjwMShoTj5LekfZjaC9XGNrrvc8x6zxhh5IYncEJFp7/HHVz+6ZD32eKEIZKEij
Ts0/kHBMuJ6hZYA4IKB29mEW7fXSG/o08GVlG+BbDEyZ0t23/B7kV40BZsBvT9wM
SkBMrlC2C5FQKmjcIPXrtOWadjzGMXnVs6SC/97pWSLAqBOE2bxsWFY9psTZkz3C
TVDeFIPPNF/PawgpG1qj/3KT1NgJD31ElDSTs+ZICR9CuIugbit+vBpx4dhV44Bl
n1i5meK3fonku5AOUenhjH5HUJhpMAYWC5UlA5EHPsj9Jqs3q8YZNjpBh7HHW/OG
9+8xUKOS7sqSo4XYHV3X2dTCOhk5nRQJAcakNHVQsyax5L4OUfFqen0UFsKJjj9P
9RaWU2bNzQx0AjMSN1gCobklDjfE9AOP7M/bG/mDm5nmTGTlrKWh2gw0K1phw1op
ctJt1+9Y4qXfzThUEm3Sn0OVkfuus7kGZK61bB6jAVUppkasAx16vX233IjGf0tr
gw4wPS2z5pAi4dqwBo6AMukmE21wu45IMUcIkQt60ErUWYTZWd+qDiKxlg4lEfWV
SBwIJSSL13uU9CPGOIwp+uI04xYJ4cPSO4inXBn7Yz61S8x91rHN3k/euv7fdTbP
uY6hqs8XomVoxORoZbkCAwEAAaOCATgwggE0MCQGCWCGSAGG+EIBDQQXFhVDZXJ0
aWZpY2F0IENsaWVudCBTU0wwHQYDVR0OBBYEFEh+63kH3VxXtEC3M3ZOEvT9ckGy
MIGeBgNVHSMEgZYwgZOAFDnROdJxMHj9vzldwYGug7vAVGJHoXekdTBzMQswCQYD
VQQGEwJmcjEMMAoGA1UECAwDaWRmMQ4wDAYDVQQHDAVwYXJpczEOMAwGA1UECgwF
dml0YW0xFDASBgNVBAsMC2F1dGhvcml0aWVzMSAwHgYDVQQDDBdjYV9yb290X2Ns
aWVudC1leHRlcm5hbIICASgwCQYDVR0SBAIwADAMBgNVHRMBAf8EAjAAMAsGA1Ud
DwQEAwIHgDARBglghkgBhvhCAQEEBAMCB4AwEwYDVR0lBAwwCgYIKwYBBQUHAwIw
DQYJKoZIhvcNAQELBQADggIBAAkSqcdjwrgyU07wyFTNPwmxiIiKlFnLMyhhHIj4
c2m8t/Zu6FSAQ37UDqJWaGpJrZiOEgPYMAegE+PcZhoAQXRvudBVSQNJErs2RyjQ
1jV2QAo72oYagaXKv7Qqr/9sc83Ec90XhZv2SzzUcs11kp6CND4JaLCGp7qXXGkh
5KNBcDGdfZzlAvt99RvubZO8VplBWVe85rPjgCouCthJ2KI9gjnIF7bPZN+JfE++
Kw68uckH8CgS5ECsQSLFlobT4U0uK/ToGYNc+jxVtycI95OzGh+/ejsn9v7+rUjs
W4JU7/fJkJ1RlPuU1C7Ji6tNjb+S5jtI16axkYM5po4LnRx4LjBgpb0klGX4t0Ls
1NHvis52UMRczUgfAuKul1UeET+3J4F4lSuqjwCz2S7zwwQ0pKaXy7KWJnPYjtAI
3q8RadXdDXBQMz511rrJn+KPwZxAbh4W7GnQOH09dD5g75hwpEr0SA6cGM/Nn+fo
wiw+hb0yhGKbEiQJv/Q6KFNEPE/QrISGAOmPhyF/rRO20z2BrIp8EraGQU+HbXQD
RlEEgeTlVrP+cIpFYTP6zo8qYu/3XPI8+CRuxX1cPTdUgN6aLPesOjPZ8wR+oxsE
KcaewLNIuvGILUPi3OErp10pQnuaTZzePCY3zlpXteGpyfcP3g/s6VVm0f8Zi+9t
bzc9
-----END CERTIFICATE-----
