Certificate:
    Data:
        Version: 3 (0x2)
        Serial Number: 227 (0xe3)
    Signature Algorithm: sha256WithRSAEncryption
        Issuer: C=FR, ST=idf, L=paris, O=Vitam., CN=CA_client-external
        Validity
            Not Before: Mar  6 18:04:18 2017 GMT
            Not After : Mar  5 18:04:18 2020 GMT
        Subject: C=FR, ST=idf, L=paris, O=Vitam., CN=ihm-demo
        Subject Public Key Info:
            Public Key Algorithm: rsaEncryption
                Public-Key: (4096 bit)
                Modulus:
                    00:df:30:26:61:a7:61:64:c9:18:31:db:0b:29:dc:
                    48:7d:5e:2d:b9:ec:68:75:a0:81:8f:f3:f9:12:4d:
                    ae:7a:2f:ef:94:53:15:3a:78:cb:98:26:d4:ad:fa:
                    59:83:8b:5c:03:95:e7:d8:6f:8d:42:73:1b:2a:1a:
                    80:6f:63:d0:8e:06:1e:87:0f:be:ff:64:cf:2c:55:
                    3c:e6:34:32:5a:48:72:96:fd:56:d1:94:09:e8:2c:
                    09:2c:d5:de:31:6e:41:5a:b9:23:15:cb:ff:f6:86:
                    30:24:f0:ef:d7:d8:a0:9a:58:18:12:3a:7e:7a:6e:
                    14:29:5c:56:bf:e2:fd:de:51:53:c3:b2:d1:6c:b8:
                    87:49:0e:64:e2:4b:95:f0:eb:9a:85:b0:2f:f3:80:
                    f6:0e:ca:4d:2a:a6:14:cd:da:4c:cb:09:3d:2a:3e:
                    cb:7c:52:fb:c6:ff:b3:00:be:b5:43:8d:c7:2a:f7:
                    c9:60:43:ce:fb:41:f4:a8:30:ff:87:a6:9f:cc:57:
                    64:cf:af:31:5d:74:a5:92:b3:70:16:e1:b3:5a:d9:
                    14:08:52:8f:b4:6f:b9:25:fb:fc:35:00:d1:fb:a6:
                    47:f9:61:db:11:a0:54:b9:18:ee:19:d8:52:a5:a0:
                    b7:ab:21:81:40:72:47:a6:47:bc:ea:4e:06:1b:63:
                    af:a4:4b:e9:71:c3:34:18:ca:9c:e6:53:af:f6:48:
                    71:40:5a:b0:8c:d7:c5:e6:c8:2b:c8:54:13:1a:cc:
                    cb:44:85:66:24:f2:64:9b:d3:46:f9:27:b5:ba:ca:
                    e4:91:06:c3:da:8c:75:ae:e3:ae:2c:6b:89:4c:cf:
                    09:3a:58:e3:20:34:03:dc:93:37:95:b6:47:60:04:
                    3c:3c:a5:41:ec:bc:78:9f:20:3c:b5:c5:49:f3:98:
                    ac:59:41:83:7b:e2:7e:c9:35:9b:99:3d:55:66:94:
                    29:47:ed:c0:77:f3:f9:b7:72:18:a2:f8:0d:94:c4:
                    41:42:b1:5d:42:55:c3:84:6c:6a:2e:70:4f:91:5a:
                    6c:55:4b:cc:fd:3b:e7:d9:d7:af:37:dd:e9:2a:91:
                    ee:df:90:c7:93:84:68:8a:81:d9:5b:f2:30:50:ee:
                    5d:1a:ab:34:f8:92:42:46:a3:8f:58:c2:d3:97:50:
                    4c:0e:cd:0f:20:63:d7:b4:b4:d4:b9:45:f1:66:ef:
                    03:bc:b5:6f:c6:99:56:ab:05:32:03:85:cb:db:af:
                    90:d3:69:94:a0:32:95:7b:bb:34:c5:54:82:a4:8e:
                    50:ae:fb:c2:3b:05:e0:a0:9f:ec:55:79:3e:2b:da:
                    19:e1:7d:05:26:1c:d8:9f:a4:d8:b6:43:c4:8e:e7:
                    a2:4b:3b
                Exponent: 65537 (0x10001)
        X509v3 extensions:
            Netscape Comment: 
                Certificat Client SSL
            X509v3 Subject Key Identifier: 
                5A:57:02:2F:58:17:48:8B:7F:D1:0D:0D:6A:77:65:21:4D:71:17:C9
            X509v3 Authority Key Identifier: 
                keyid:36:48:CC:91:59:E7:8F:3D:F0:2E:12:2E:1C:47:64:26:7B:CF:4D:54
                DirName:/C=FR/ST=idf/L=paris/O=Vitam./CN=CA_client-external
                serial:E2

            X509v3 Issuer Alternative Name: 
                <EMPTY>

            X509v3 Subject Alternative Name: 
                DNS:ingest-external.service.consul
            X509v3 Basic Constraints: critical
                CA:FALSE
            X509v3 Key Usage: 
                Digital Signature, Non Repudiation, Key Encipherment
            Netscape Cert Type: 
                SSL Client
            X509v3 Extended Key Usage: 
                TLS Web Client Authentication
    Signature Algorithm: sha256WithRSAEncryption
         9b:d0:52:10:f3:53:13:25:28:3b:ad:89:47:53:99:ef:7a:4a:
         44:52:51:ea:de:ad:45:7d:66:48:32:7a:a5:c2:8a:32:8b:a1:
         74:55:d4:48:a9:4d:d0:7d:b5:33:3d:17:70:2a:12:43:5c:9f:
         b6:63:05:2b:e6:8c:c3:c9:e2:cd:52:5e:85:be:c8:7a:2e:a8:
         8a:82:68:e5:98:0b:da:89:2d:1a:bf:32:01:02:ad:c0:14:b4:
         eb:27:b0:53:68:a2:5b:5a:17:ea:c5:e3:00:7a:6e:9a:f1:0a:
         a6:b8:5d:ef:92:70:ab:c3:ee:c0:f8:b9:72:bf:82:fe:c5:c5:
         3b:d9:f1:03:81:9a:6d:d5:93:d1:85:d8:3c:0a:e2:17:42:65:
         f3:2d:b1:0c:43:68:d3:ec:9a:7b:bd:c8:5c:6c:7f:c8:63:a0:
         2b:ce:e4:d4:61:80:a1:d7:06:61:c5:20:fb:da:69:75:61:d0:
         ab:30:b9:95:aa:7b:80:26:c2:11:4e:bf:08:c5:13:30:c7:ff:
         a9:7a:04:a6:dd:3e:de:60:39:2a:0e:03:8a:4e:70:4d:0d:3e:
         a2:fe:f9:2c:72:09:6d:f3:36:a7:d0:00:ab:25:2f:5f:fc:75:
         15:8a:fe:a8:d0:6b:10:02:9c:17:53:35:f6:6f:49:34:dd:95:
         d6:97:8a:56:62:ad:10:1b:f1:92:9f:9c:68:23:0d:0b:10:75:
         3b:8d:04:0d:f3:7f:58:57:9f:00:74:73:d9:16:1c:05:d2:8c:
         72:bb:fc:cd:81:41:e1:3e:dc:30:1e:93:cb:7a:17:59:62:d5:
         fd:5f:9d:51:2a:23:a1:1c:e3:92:98:d7:ea:b7:1e:49:0e:6f:
         46:cc:df:2c:54:da:de:40:1a:7e:8f:3c:cc:56:b0:89:be:53:
         41:3f:26:24:92:f1:05:a4:aa:f4:6c:b2:07:f8:f6:73:a0:11:
         af:ca:88:8f:14:88:7a:66:e9:e7:4e:68:7d:c4:f6:11:8f:6f:
         05:16:49:6a:5e:7d:a9:d7:ca:76:4a:45:30:0b:aa:da:38:b4:
         ac:77:a1:69:40:ec:fc:b8:96:a1:6a:32:5d:d8:47:24:ba:c0:
         6f:b3:ed:a1:b2:63:be:42:ff:34:fa:0d:e8:7e:ad:09:f3:40:
         75:43:2b:b3:da:b9:87:6a:65:03:60:e9:87:28:08:9a:18:2f:
         b1:8e:1c:f1:62:c1:9c:b4:ac:7c:76:19:a3:cf:2a:c8:2f:14:
         1c:18:10:f2:88:15:46:6d:67:d4:c1:49:03:ce:f7:b1:44:d9:
         c9:76:d3:aa:a1:b6:f2:c3:68:ce:ac:ad:9e:61:19:50:f7:42:
         67:38:81:49:18:74:4c:5c
-----BEGIN CERTIFICATE-----
MIIGbTCCBFWgAwIBAgICAOMwDQYJKoZIhvcNAQELBQAwWTELMAkGA1UEBhMCRlIx
DDAKBgNVBAgMA2lkZjEOMAwGA1UEBwwFcGFyaXMxDzANBgNVBAoMBlZpdGFtLjEb
MBkGA1UEAwwSQ0FfY2xpZW50LWV4dGVybmFsMB4XDTE3MDMwNjE4MDQxOFoXDTIw
MDMwNTE4MDQxOFowTzELMAkGA1UEBhMCRlIxDDAKBgNVBAgMA2lkZjEOMAwGA1UE
BwwFcGFyaXMxDzANBgNVBAoMBlZpdGFtLjERMA8GA1UEAwwIaWhtLWRlbW8wggIi
MA0GCSqGSIb3DQEBAQUAA4ICDwAwggIKAoICAQDfMCZhp2FkyRgx2wsp3Eh9Xi25
7Gh1oIGP8/kSTa56L++UUxU6eMuYJtSt+lmDi1wDlefYb41CcxsqGoBvY9COBh6H
D77/ZM8sVTzmNDJaSHKW/VbRlAnoLAks1d4xbkFauSMVy//2hjAk8O/X2KCaWBgS
On56bhQpXFa/4v3eUVPDstFsuIdJDmTiS5Xw65qFsC/zgPYOyk0qphTN2kzLCT0q
Pst8UvvG/7MAvrVDjccq98lgQ877QfSoMP+Hpp/MV2TPrzFddKWSs3AW4bNa2RQI
Uo+0b7kl+/w1ANH7pkf5YdsRoFS5GO4Z2FKloLerIYFAckemR7zqTgYbY6+kS+lx
wzQYypzmU6/2SHFAWrCM18XmyCvIVBMazMtEhWYk8mSb00b5J7W6yuSRBsPajHWu
464sa4lMzwk6WOMgNAPckzeVtkdgBDw8pUHsvHifIDy1xUnzmKxZQYN74n7JNZuZ
PVVmlClH7cB38/m3chii+A2UxEFCsV1CVcOEbGoucE+RWmxVS8z9O+fZ16833ekq
ke7fkMeThGiKgdlb8jBQ7l0aqzT4kkJGo49YwtOXUEwOzQ8gY9e0tNS5RfFm7wO8
tW/GmVarBTIDhcvbr5DTaZSgMpV7uzTFVIKkjlCu+8I7BeCgn+xVeT4r2hnhfQUm
HNifpNi2Q8SO56JLOwIDAQABo4IBRzCCAUMwJAYJYIZIAYb4QgENBBcWFUNlcnRp
ZmljYXQgQ2xpZW50IFNTTDAdBgNVHQ4EFgQUWlcCL1gXSIt/0Q0NandlIU1xF8kw
gYIGA1UdIwR7MHmAFDZIzJFZ54898C4SLhxHZCZ7z01UoV2kWzBZMQswCQYDVQQG
EwJGUjEMMAoGA1UECAwDaWRmMQ4wDAYDVQQHDAVwYXJpczEPMA0GA1UECgwGVml0
YW0uMRswGQYDVQQDDBJDQV9jbGllbnQtZXh0ZXJuYWyCAgDiMAkGA1UdEgQCMAAw
KQYDVR0RBCIwIIIeaW5nZXN0LWV4dGVybmFsLnNlcnZpY2UuY29uc3VsMAwGA1Ud
EwEB/wQCMAAwCwYDVR0PBAQDAgXgMBEGCWCGSAGG+EIBAQQEAwIHgDATBgNVHSUE
DDAKBggrBgEFBQcDAjANBgkqhkiG9w0BAQsFAAOCAgEAm9BSEPNTEyUoO62JR1OZ
73pKRFJR6t6tRX1mSDJ6pcKKMouhdFXUSKlN0H21Mz0XcCoSQ1yftmMFK+aMw8ni
zVJehb7Iei6oioJo5ZgL2oktGr8yAQKtwBS06yewU2iiW1oX6sXjAHpumvEKprhd
75Jwq8PuwPi5cr+C/sXFO9nxA4GabdWT0YXYPAriF0Jl8y2xDENo0+yae73IXGx/
yGOgK87k1GGAodcGYcUg+9ppdWHQqzC5lap7gCbCEU6/CMUTMMf/qXoEpt0+3mA5
Kg4Dik5wTQ0+ov75LHIJbfM2p9AAqyUvX/x1FYr+qNBrEAKcF1M19m9JNN2V1peK
VmKtEBvxkp+caCMNCxB1O40EDfN/WFefAHRz2RYcBdKMcrv8zYFB4T7cMB6Ty3oX
WWLV/V+dUSojoRzjkpjX6rceSQ5vRszfLFTa3kAafo88zFawib5TQT8mJJLxBaSq
9GyyB/j2c6ARr8qIjxSIembp505ofcT2EY9vBRZJal59qdfKdkpFMAuq2ji0rHeh
aUDs/LiWoWoyXdhHJLrAb7PtobJjvkL/NPoN6H6tCfNAdUMrs9q5h2plA2DphygI
mhgvsY4c8WLBnLSsfHYZo88qyC8UHBgQ8ogVRm1n1MFJA873sUTZyXbTqqG28sNo
zqytnmEZUPdCZziBSRh0TFw=
-----END CERTIFICATE-----
