Certificate:
    Data:
        Version: 3 (0x2)
        Serial Number: 232 (0xe8)
    Signature Algorithm: sha256WithRSAEncryption
        Issuer: C=FR, ST=idf, L=paris, O=Vitam., CN=CA_client-external
        Validity
            Not Before: Mar 15 12:18:51 2017 GMT
            Not After : Mar 14 12:18:51 2020 GMT
        Subject: C=FR, ST=idf, L=paris, O=Vitam., CN=ihm-demo
        Subject Public Key Info:
            Public Key Algorithm: rsaEncryption
                Public-Key: (4096 bit)
                Modulus:
                    00:bd:5f:e4:1a:0f:9c:3d:ea:c4:4d:b5:5b:89:10:
                    1f:5d:4a:05:b7:19:33:15:d8:9d:f3:af:75:69:79:
                    c6:e7:a0:31:ea:bd:48:d6:d2:c5:81:9e:54:16:f0:
                    90:a0:d3:de:2a:1a:df:9e:76:ee:ac:df:7c:12:8f:
                    3c:64:14:99:c4:1a:a4:be:7d:b8:09:f1:14:e3:84:
                    b4:86:88:0b:8f:04:08:50:bd:22:82:e6:d3:5f:ca:
                    9d:d8:62:fb:64:51:31:26:0e:9b:de:9a:fa:1d:42:
                    22:f4:7d:5c:55:e1:d8:fb:3e:49:a9:01:76:cf:cc:
                    6b:8e:59:cb:16:37:66:c9:5d:a3:81:b4:de:c3:c8:
                    0d:e5:ea:27:f1:9a:c1:a3:a0:43:bb:fe:50:88:48:
                    74:2d:69:4b:c9:15:20:c9:cb:96:6c:0a:09:b9:f9:
                    3b:b7:1b:8c:55:27:f9:05:e6:44:78:d1:4c:da:cd:
                    bc:56:b6:a8:91:d1:c4:4f:a9:7b:91:6f:00:17:a6:
                    23:0f:08:35:b4:06:bf:ab:f5:df:98:db:bf:b0:c8:
                    7a:37:98:c7:02:2d:2e:85:b0:ca:0c:29:c2:c8:7c:
                    80:b2:85:11:5d:b9:b6:73:bb:1c:a7:e3:86:31:ce:
                    93:6d:07:d8:07:8f:b5:98:9d:05:b1:2c:73:3e:38:
                    ba:ce:bd:9e:15:2a:43:3d:a7:c5:57:71:b0:4c:6c:
                    44:70:c5:86:98:d4:91:98:c3:46:16:fe:77:79:7c:
                    05:79:6f:cd:e6:97:70:52:47:37:26:85:e3:a8:20:
                    5f:ee:d6:04:a6:61:07:db:72:40:69:86:16:70:32:
                    91:b1:0a:1f:5b:4b:05:e5:e0:f5:76:49:c6:2a:ba:
                    78:c5:86:d1:04:1f:fa:d0:64:b1:f2:6b:49:eb:8d:
                    d7:59:fe:a2:fc:72:8b:fe:f1:2c:09:82:6f:e0:f5:
                    c4:98:a5:bd:87:8b:ec:52:74:11:50:d8:1e:e9:cd:
                    ee:a1:bf:b3:a0:db:9b:63:77:df:8e:bf:c4:c1:38:
                    af:e5:2b:af:0e:93:82:c8:ba:f5:96:41:9e:f4:63:
                    e1:ed:4d:31:12:c0:50:28:54:34:d8:62:a3:77:4d:
                    22:60:74:22:78:cc:98:07:54:c4:ff:f0:dd:d3:ba:
                    50:13:1d:96:04:7f:33:c3:11:09:2f:fd:5b:d9:37:
                    72:02:9a:32:94:9d:c5:10:ad:bc:28:dd:a2:a4:9e:
                    d1:72:c9:27:b8:8b:d9:dc:e1:8d:69:9b:8f:f5:1e:
                    50:0a:ab:b4:e5:27:45:db:fe:37:f2:4c:90:67:9a:
                    a0:70:c4:bf:5b:b0:d5:5d:09:a6:d9:4f:ba:f0:45:
                    d8:7a:eb
                Exponent: 65537 (0x10001)
        X509v3 extensions:
            Netscape Comment: 
                Certificat Client SSL
            X509v3 Subject Key Identifier: 
                4D:39:5F:BE:67:FE:F3:A4:89:C4:D3:AB:1F:F1:A8:CD:08:81:58:F4
            X509v3 Authority Key Identifier: 
                keyid:52:CF:41:75:A8:85:BC:E1:0D:F3:80:3E:7D:82:31:1A:78:CE:A0:A7
                DirName:/C=FR/ST=idf/L=paris/O=Vitam./CN=CA_client-external
                serial:E7

            X509v3 Issuer Alternative Name: 
                <EMPTY>

            X509v3 Subject Alternative Name: 
                DNS:ingest-external.service.consul
            X509v3 Basic Constraints: critical
                CA:FALSE
            X509v3 Key Usage: 
                Digital Signature, Non Repudiation, Key Encipherment
            Netscape Cert Type: 
                SSL Client
            X509v3 Extended Key Usage: 
                TLS Web Client Authentication
    Signature Algorithm: sha256WithRSAEncryption
         d3:d8:7e:1f:b9:a5:6d:65:b0:ae:7b:38:46:7c:9b:10:30:75:
         42:9f:68:6e:63:fa:b8:de:b6:0a:ab:9f:0e:ab:99:65:d5:ee:
         3e:3a:81:2d:d3:54:1e:fc:40:5e:fc:fb:b7:d9:27:75:93:d5:
         4d:d8:fa:04:cf:29:61:82:17:eb:6c:11:0b:98:3e:53:5b:f2:
         f9:62:2e:11:02:98:dc:c1:f8:85:f3:9c:b6:d4:15:61:5f:da:
         d3:c5:e0:01:f1:58:2d:16:32:97:8f:05:1a:7a:56:8e:84:a4:
         03:7c:c4:e3:d9:ab:cc:87:a3:7f:57:d2:72:ae:0c:b8:eb:e1:
         3d:47:6f:4c:87:c5:77:c5:9c:4d:15:f8:ba:bf:86:66:f6:71:
         14:63:3b:20:3c:07:6d:dd:0c:c0:49:af:25:1a:54:08:8b:e8:
         f0:1b:b8:8e:6b:89:33:84:79:a5:cd:fd:9b:80:92:10:0a:68:
         7c:34:b5:6b:57:42:48:fc:79:c2:61:6c:e9:ff:aa:52:5f:ca:
         59:b7:83:e1:49:47:61:20:39:99:8b:f0:9f:3b:9c:6e:97:5c:
         af:cf:5a:5d:5f:21:11:5d:df:e2:57:c6:63:4f:2d:41:df:bf:
         61:fe:4a:bc:8d:b6:9f:2f:e1:05:e9:5b:c0:05:86:f3:d5:e2:
         30:1c:80:b0:d9:6f:30:72:98:ae:19:e8:d2:38:52:09:93:0c:
         d0:39:cf:e5:11:10:fb:2d:e5:4a:a4:6c:93:e5:57:3a:43:11:
         1d:2c:f5:fc:ba:f3:ca:dc:b6:e6:09:6a:c4:46:03:85:ed:d3:
         13:ab:9a:f9:33:80:d0:d6:72:30:d9:cb:4a:b1:70:6d:3c:cb:
         cf:68:a2:08:49:81:32:1d:83:93:e3:30:5d:ba:34:5e:cc:f9:
         07:01:37:ea:7f:8c:48:b6:dc:ed:76:21:a4:af:02:c9:31:b5:
         41:98:30:62:20:a8:3b:8f:58:24:67:1c:78:c1:b7:09:e7:a5:
         22:7b:34:36:7c:5e:97:da:c7:6c:81:c9:82:a3:df:ce:8c:6a:
         a9:d9:2b:fe:56:90:46:97:71:d8:7c:27:1a:68:61:ec:ba:36:
         8e:49:9c:1e:7e:27:25:eb:ce:c5:12:19:08:6a:8e:35:5c:e0:
         b1:d4:d9:72:85:84:da:a0:96:58:07:73:11:e6:a4:f7:d9:d9:
         44:4d:f0:be:7e:36:1f:f6:52:b7:b6:a2:eb:48:b5:78:19:40:
         c2:73:d6:cf:66:00:9e:fe:c3:22:c9:b0:4f:0b:83:ef:db:10:
         e6:3c:c1:6e:4c:3b:de:d9:ab:85:c9:ed:00:89:14:f2:21:b8:
         df:8f:9f:47:94:36:1c:18
-----BEGIN CERTIFICATE-----
MIIGbTCCBFWgAwIBAgICAOgwDQYJKoZIhvcNAQELBQAwWTELMAkGA1UEBhMCRlIx
DDAKBgNVBAgTA2lkZjEOMAwGA1UEBxMFcGFyaXMxDzANBgNVBAoTBlZpdGFtLjEb
MBkGA1UEAxQSQ0FfY2xpZW50LWV4dGVybmFsMB4XDTE3MDMxNTEyMTg1MVoXDTIw
MDMxNDEyMTg1MVowTzELMAkGA1UEBhMCRlIxDDAKBgNVBAgTA2lkZjEOMAwGA1UE
BxMFcGFyaXMxDzANBgNVBAoTBlZpdGFtLjERMA8GA1UEAxMIaWhtLWRlbW8wggIi
MA0GCSqGSIb3DQEBAQUAA4ICDwAwggIKAoICAQC9X+QaD5w96sRNtVuJEB9dSgW3
GTMV2J3zr3VpecbnoDHqvUjW0sWBnlQW8JCg094qGt+edu6s33wSjzxkFJnEGqS+
fbgJ8RTjhLSGiAuPBAhQvSKC5tNfyp3YYvtkUTEmDpvemvodQiL0fVxV4dj7Pkmp
AXbPzGuOWcsWN2bJXaOBtN7DyA3l6ifxmsGjoEO7/lCISHQtaUvJFSDJy5ZsCgm5
+Tu3G4xVJ/kF5kR40UzazbxWtqiR0cRPqXuRbwAXpiMPCDW0Br+r9d+Y27+wyHo3
mMcCLS6FsMoMKcLIfICyhRFdubZzuxyn44YxzpNtB9gHj7WYnQWxLHM+OLrOvZ4V
KkM9p8VXcbBMbERwxYaY1JGYw0YW/nd5fAV5b83ml3BSRzcmheOoIF/u1gSmYQfb
ckBphhZwMpGxCh9bSwXl4PV2ScYqunjFhtEEH/rQZLHya0nrjddZ/qL8cov+8SwJ
gm/g9cSYpb2Hi+xSdBFQ2B7pze6hv7Og25tjd9+Ov8TBOK/lK68Ok4LIuvWWQZ70
Y+HtTTESwFAoVDTYYqN3TSJgdCJ4zJgHVMT/8N3TulATHZYEfzPDEQkv/VvZN3IC
mjKUncUQrbwo3aKkntFyySe4i9nc4Y1pm4/1HlAKq7TlJ0Xb/jfyTJBnmqBwxL9b
sNVdCabZT7rwRdh66wIDAQABo4IBRzCCAUMwJAYJYIZIAYb4QgENBBcWFUNlcnRp
ZmljYXQgQ2xpZW50IFNTTDAdBgNVHQ4EFgQUTTlfvmf+86SJxNOrH/GozQiBWPQw
gYIGA1UdIwR7MHmAFFLPQXWohbzhDfOAPn2CMRp4zqCnoV2kWzBZMQswCQYDVQQG
EwJGUjEMMAoGA1UECBMDaWRmMQ4wDAYDVQQHEwVwYXJpczEPMA0GA1UEChMGVml0
YW0uMRswGQYDVQQDFBJDQV9jbGllbnQtZXh0ZXJuYWyCAgDnMAkGA1UdEgQCMAAw
KQYDVR0RBCIwIIIeaW5nZXN0LWV4dGVybmFsLnNlcnZpY2UuY29uc3VsMAwGA1Ud
EwEB/wQCMAAwCwYDVR0PBAQDAgXgMBEGCWCGSAGG+EIBAQQEAwIHgDATBgNVHSUE
DDAKBggrBgEFBQcDAjANBgkqhkiG9w0BAQsFAAOCAgEA09h+H7mlbWWwrns4Rnyb
EDB1Qp9obmP6uN62CqufDquZZdXuPjqBLdNUHvxAXvz7t9kndZPVTdj6BM8pYYIX
62wRC5g+U1vy+WIuEQKY3MH4hfOcttQVYV/a08XgAfFYLRYyl48FGnpWjoSkA3zE
49mrzIejf1fScq4MuOvhPUdvTIfFd8WcTRX4ur+GZvZxFGM7IDwHbd0MwEmvJRpU
CIvo8Bu4jmuJM4R5pc39m4CSEApofDS1a1dCSPx5wmFs6f+qUl/KWbeD4UlHYSA5
mYvwnzucbpdcr89aXV8hEV3f4lfGY08tQd+/Yf5KvI22ny/hBelbwAWG89XiMByA
sNlvMHKYrhno0jhSCZMM0DnP5REQ+y3lSqRsk+VXOkMRHSz1/Lrzyty25glqxEYD
he3TE6ua+TOA0NZyMNnLSrFwbTzLz2iiCEmBMh2Dk+MwXbo0Xsz5BwE36n+MSLbc
7XYhpK8CyTG1QZgwYiCoO49YJGcceMG3CeelIns0Nnxel9rHbIHJgqPfzoxqqdkr
/laQRpdx2HwnGmhh7Lo2jkmcHn4nJevOxRIZCGqONVzgsdTZcoWE2qCWWAdzEeak
99nZRE3wvn42H/ZSt7ai60i1eBlAwnPWz2YAnv7DIsmwTwuD79sQ5jzBbkw73tmr
hcntAIkU8iG434+fR5Q2HBg=
-----END CERTIFICATE-----
