Certificate:
    Data:
        Version: 3 (0x2)
        Serial Number: 195 (0xc3)
    Signature Algorithm: sha256WithRSAEncryption
        Issuer: C=FR, ST=idf, L=paris, O=Vitam., CN=CA_client
        Validity
            Not Before: Jan  3 16:41:45 2017 GMT
            Not After : Jan  1 16:41:45 2027 GMT
        Subject: C=FR, ST=idf, L=paris, O=Vitam., CN=CA_client
        Subject Public Key Info:
            Public Key Algorithm: rsaEncryption
                Public-Key: (512 bit)
                Modulus:
                    00:d8:97:ae:42:59:a3:35:db:e9:7d:b2:85:a5:a4:
                    d6:a5:c8:b1:46:ce:be:b8:fb:32:e4:87:b9:b9:05:
                    35:fe:6c:a3:07:42:6c:fd:bf:98:f6:45:88:92:05:
                    a6:d9:59:89:be:e9:9a:24:9c:16:52:bf:b3:b4:48:
                    5c:f9:d5:d4:8f
                Exponent: 65537 (0x10001)
        X509v3 extensions:
            X509v3 Subject Key Identifier: 
                95:11:3A:9A:9E:CA:6D:62:40:7C:1D:8A:B5:AF:19:D6:1A:78:BC:D0
            X509v3 Authority Key Identifier: 
                keyid:95:11:3A:9A:9E:CA:6D:62:40:7C:1D:8A:B5:AF:19:D6:1A:78:BC:D0

            X509v3 Basic Constraints: 
                CA:TRUE
    Signature Algorithm: sha256WithRSAEncryption
         49:58:a4:69:c1:b9:ae:d3:6e:5d:55:11:e8:6e:da:48:b7:17:
         13:c5:02:00:da:1c:c4:8d:8e:30:14:95:15:0a:28:8a:37:21:
         91:f7:d0:45:fd:55:4e:bc:69:6c:23:f1:9d:d1:18:2d:b0:1b:
         96:26:58:78:40:88:74:0a:61:b0
-----BEGIN CERTIFICATE-----
MIIB4jCCAYygAwIBAgICAMMwDQYJKoZIhvcNAQELBQAwUDELMAkGA1UEBhMCRlIx
DDAKBgNVBAgTA2lkZjEOMAwGA1UEBxMFcGFyaXMxDzANBgNVBAoTBlZpdGFtLjES
MBAGA1UEAxQJQ0FfY2xpZW50MB4XDTE3MDEwMzE2NDE0NVoXDTI3MDEwMTE2NDE0
NVowUDELMAkGA1UEBhMCRlIxDDAKBgNVBAgTA2lkZjEOMAwGA1UEBxMFcGFyaXMx
DzANBgNVBAoTBlZpdGFtLjESMBAGA1UEAxQJQ0FfY2xpZW50MFwwDQYJKoZIhvcN
AQEBBQADSwAwSAJBANiXrkJZozXb6X2yhaWk1qXIsUbOvrj7MuSHubkFNf5sowdC
bP2/mPZFiJIFptlZib7pmiScFlK/s7RIXPnV1I8CAwEAAaNQME4wHQYDVR0OBBYE
FJUROpqeym1iQHwdirWvGdYaeLzQMB8GA1UdIwQYMBaAFJUROpqeym1iQHwdirWv
GdYaeLzQMAwGA1UdEwQFMAMBAf8wDQYJKoZIhvcNAQELBQADQQBJWKRpwbmu025d
VRHobtpItxcTxQIA2hzEjY4wFJUVCiiKNyGR99BF/VVOvGlsI/Gd0RgtsBuWJlh4
QIh0CmGw
-----END CERTIFICATE-----
Certificate:
    Data:
        Version: 3 (0x2)
        Serial Number: 196 (0xc4)
    Signature Algorithm: sha256WithRSAEncryption
        Issuer: C=FR, ST=idf, L=paris, O=Vitam., CN=CA_client
        Validity
            Not Before: Jan  3 16:41:45 2017 GMT
            Not After : Jan  1 16:41:45 2027 GMT
        Subject: C=FR, ST=idf, L=paris, O=Vitam., CN=CA_client_intermediate
        Subject Public Key Info:
            Public Key Algorithm: rsaEncryption
                Public-Key: (4096 bit)
                Modulus:
                    00:c0:b7:0c:49:60:b8:07:49:74:9e:61:9e:10:57:
                    dd:4a:e6:36:5d:00:d8:c0:27:21:15:11:18:5f:e0:
                    7c:a0:3e:52:4f:9b:d6:9d:21:d3:bb:b2:32:65:93:
                    fd:ee:e2:74:17:20:12:9b:1d:53:11:42:4f:1f:0e:
                    10:34:f0:74:51:88:14:79:9b:ec:eb:40:55:d5:38:
                    fe:73:89:b3:ee:26:ea:a8:1e:9b:3c:c3:9c:76:ec:
                    19:95:ab:60:92:d5:85:6c:1b:e2:79:bf:72:4d:9e:
                    81:41:0f:7b:65:cd:5e:57:84:95:f4:f5:38:4f:6c:
                    ef:40:dd:1b:cd:73:8f:13:fb:70:ae:45:cb:9a:fa:
                    48:b7:44:b4:2e:20:82:18:b0:50:a5:f2:51:b1:be:
                    3b:12:e7:ad:9b:db:50:29:2c:99:88:e5:14:19:0e:
                    00:ad:9c:3e:58:fe:eb:c1:10:0e:1d:18:c8:7a:52:
                    7f:11:c2:61:37:b5:df:3d:9f:ac:ca:08:fd:a5:d9:
                    4f:43:f4:ff:66:04:9e:04:73:3c:b1:4a:25:31:fc:
                    e7:52:ce:7c:88:44:15:62:59:d9:d1:0b:bd:3e:8d:
                    4e:a3:ef:d6:31:7b:a2:14:cf:38:7e:f7:f0:ba:c6:
                    1f:39:d1:e1:e0:32:06:b5:e6:1f:65:f7:31:82:e8:
                    f8:30:6d:1d:db:21:db:fa:1e:4c:93:15:a5:0a:3c:
                    de:78:05:a5:0d:d5:e7:98:29:23:11:d1:9a:d8:39:
                    a9:d2:79:f5:94:62:08:eb:89:eb:3d:50:64:7b:83:
                    6e:66:27:98:7a:c0:dc:f2:97:fa:5f:cd:11:c4:b2:
                    ac:92:cb:70:1c:2d:57:e0:24:28:47:d0:12:13:c7:
                    2d:ff:b4:ca:a3:dc:6e:1f:c6:99:88:65:b5:d1:28:
                    90:09:f9:06:04:24:3c:93:95:a9:e1:05:e9:4e:7b:
                    aa:7c:31:e4:ea:0b:3e:2b:e5:67:97:fb:99:b7:9f:
                    ab:90:d9:3d:56:7f:3a:63:bf:a2:6c:f7:8d:66:cb:
                    32:47:6f:de:40:74:1b:c8:c1:d8:b9:ea:f1:21:69:
                    e1:cd:71:61:5e:5a:8b:88:db:c2:ac:09:d2:34:88:
                    0d:71:f0:2d:c6:ef:08:46:9a:c7:cc:c6:49:4c:08:
                    f3:ff:db:da:e1:57:45:b6:cb:36:41:81:60:db:ec:
                    1f:d4:29:0f:ae:96:58:04:3e:be:51:64:2f:73:a1:
                    5a:4c:50:02:58:62:f7:2d:04:bd:bf:f7:ee:82:06:
                    b4:9a:67:37:71:74:b4:a8:0b:91:de:99:56:08:ec:
                    54:bb:9b:c3:90:3a:7a:cd:3b:ed:4d:dd:e8:62:a1:
                    6b:be:d1
                Exponent: 65537 (0x10001)
        X509v3 extensions:
            Netscape Comment: 
                CA SSL
            X509v3 Basic Constraints: critical
                CA:TRUE, pathlen:0
            X509v3 Subject Key Identifier: 
                6B:A8:A2:0E:84:8C:2D:BE:45:22:20:68:C7:E1:8E:2D:CD:7B:8B:C2
            X509v3 Authority Key Identifier: 
                keyid:95:11:3A:9A:9E:CA:6D:62:40:7C:1D:8A:B5:AF:19:D6:1A:78:BC:D0
                DirName:/C=FR/ST=idf/L=paris/O=Vitam./CN=CA_client
                serial:C3

            X509v3 Issuer Alternative Name: 
                <EMPTY>

            X509v3 Key Usage: 
                Certificate Sign, CRL Sign
            Netscape Cert Type: 
                SSL CA
    Signature Algorithm: sha256WithRSAEncryption
         84:6a:16:bb:d7:75:15:71:38:22:c2:ed:0f:48:74:78:93:68:
         e7:54:da:02:16:56:5d:51:35:b5:36:d1:de:47:b1:6e:56:90:
         81:a2:b6:7e:9b:9d:7a:f7:dc:0f:9c:17:0e:0e:25:10:12:25:
         aa:55:f6:fe:8f:9e:25:b3:12:59
-----BEGIN CERTIFICATE-----
MIIEWzCCBAWgAwIBAgICAMQwDQYJKoZIhvcNAQELBQAwUDELMAkGA1UEBhMCRlIx
DDAKBgNVBAgTA2lkZjEOMAwGA1UEBxMFcGFyaXMxDzANBgNVBAoTBlZpdGFtLjES
MBAGA1UEAxQJQ0FfY2xpZW50MB4XDTE3MDEwMzE2NDE0NVoXDTI3MDEwMTE2NDE0
NVowXTELMAkGA1UEBhMCRlIxDDAKBgNVBAgTA2lkZjEOMAwGA1UEBxMFcGFyaXMx
DzANBgNVBAoTBlZpdGFtLjEfMB0GA1UEAxQWQ0FfY2xpZW50X2ludGVybWVkaWF0
ZTCCAiIwDQYJKoZIhvcNAQEBBQADggIPADCCAgoCggIBAMC3DElguAdJdJ5hnhBX
3UrmNl0A2MAnIRURGF/gfKA+Uk+b1p0h07uyMmWT/e7idBcgEpsdUxFCTx8OEDTw
dFGIFHmb7OtAVdU4/nOJs+4m6qgemzzDnHbsGZWrYJLVhWwb4nm/ck2egUEPe2XN
XleElfT1OE9s70DdG81zjxP7cK5Fy5r6SLdEtC4gghiwUKXyUbG+OxLnrZvbUCks
mYjlFBkOAK2cPlj+68EQDh0YyHpSfxHCYTe13z2frMoI/aXZT0P0/2YEngRzPLFK
JTH851LOfIhEFWJZ2dELvT6NTqPv1jF7ohTPOH738LrGHznR4eAyBrXmH2X3MYLo
+DBtHdsh2/oeTJMVpQo83ngFpQ3V55gpIxHRmtg5qdJ59ZRiCOuJ6z1QZHuDbmYn
mHrA3PKX+l/NEcSyrJLLcBwtV+AkKEfQEhPHLf+0yqPcbh/GmYhltdEokAn5BgQk
PJOVqeEF6U57qnwx5OoLPivlZ5f7mbefq5DZPVZ/OmO/omz3jWbLMkdv3kB0G8jB
2Lnq8SFp4c1xYV5ai4jbwqwJ0jSIDXHwLcbvCEaax8zGSUwI8//b2uFXRbbLNkGB
YNvsH9QpD66WWAQ+vlFkL3OhWkxQAlhi9y0Evb/37oIGtJpnN3F0tKgLkd6ZVgjs
VLubw5A6es077U3d6GKha77RAgMBAAGjgfMwgfAwFQYJYIZIAYb4QgENBAgWBkNB
IFNTTDASBgNVHRMBAf8ECDAGAQH/AgEAMB0GA1UdDgQWBBRrqKIOhIwtvkUiIGjH
4Y4tzXuLwjB5BgNVHSMEcjBwgBSVETqansptYkB8HYq1rxnWGni80KFUpFIwUDEL
MAkGA1UEBhMCRlIxDDAKBgNVBAgTA2lkZjEOMAwGA1UEBxMFcGFyaXMxDzANBgNV
BAoTBlZpdGFtLjESMBAGA1UEAxQJQ0FfY2xpZW50ggIAwzAJBgNVHRIEAjAAMAsG
A1UdDwQEAwIBBjARBglghkgBhvhCAQEEBAMCAgQwDQYJKoZIhvcNAQELBQADQQCE
aha713UVcTgiwu0PSHR4k2jnVNoCFlZdUTW1NtHeR7FuVpCBorZ+m51699wPnBcO
DiUQEiWqVfb+j54lsxJZ
-----END CERTIFICATE-----
