Certificate:
    Data:
        Version: 3 (0x2)
        Serial Number: 231 (0xe7)
    Signature Algorithm: sha256WithRSAEncryption
        Issuer: C=FR, ST=idf, L=paris, O=Vitam., CN=CA_client
        Validity
            Not Before: Mar  9 14:17:39 2017 GMT
            Not After : Mar  7 14:17:39 2027 GMT
        Subject: C=FR, ST=idf, L=paris, O=Vitam., CN=CA_client
        Subject Public Key Info:
            Public Key Algorithm: rsaEncryption
                Public-Key: (512 bit)
                Modulus:
                    00:c8:5f:07:9e:9e:bf:26:9b:cc:19:d0:3e:ed:c4:
                    e5:a3:b3:da:dd:6b:6f:bb:e9:90:a4:53:49:12:d1:
                    cb:54:fd:8d:01:e3:96:11:54:48:1d:6c:5f:ed:52:
                    2a:cb:8d:ac:d8:20:41:5c:93:c6:e3:5f:be:b8:73:
                    16:37:bd:5b:f1
                Exponent: 65537 (0x10001)
        X509v3 extensions:
            X509v3 Subject Key Identifier: 
                5A:02:B9:D4:F8:DB:DA:E4:49:4D:8E:74:3F:B6:BC:EB:9B:21:18:18
            X509v3 Authority Key Identifier: 
                keyid:5A:02:B9:D4:F8:DB:DA:E4:49:4D:8E:74:3F:B6:BC:EB:9B:21:18:18

            X509v3 Basic Constraints: 
                CA:TRUE
    Signature Algorithm: sha256WithRSAEncryption
         3e:2d:28:27:ee:87:0b:15:70:e8:fa:67:d8:f7:3b:8d:cc:57:
         ab:0b:5c:b7:08:f3:59:65:86:64:aa:cd:98:9f:fd:ab:2d:b7:
         6b:dc:c0:f4:a0:73:43:82:77:d5:54:7f:f6:62:a6:74:9a:81:
         05:bc:73:d1:8c:02:76:ae:65:cc
-----BEGIN CERTIFICATE-----
MIIB4jCCAYygAwIBAgICAOcwDQYJKoZIhvcNAQELBQAwUDELMAkGA1UEBhMCRlIx
DDAKBgNVBAgTA2lkZjEOMAwGA1UEBxMFcGFyaXMxDzANBgNVBAoTBlZpdGFtLjES
MBAGA1UEAxQJQ0FfY2xpZW50MB4XDTE3MDMwOTE0MTczOVoXDTI3MDMwNzE0MTcz
OVowUDELMAkGA1UEBhMCRlIxDDAKBgNVBAgTA2lkZjEOMAwGA1UEBxMFcGFyaXMx
DzANBgNVBAoTBlZpdGFtLjESMBAGA1UEAxQJQ0FfY2xpZW50MFwwDQYJKoZIhvcN
AQEBBQADSwAwSAJBAMhfB56evyabzBnQPu3E5aOz2t1rb7vpkKRTSRLRy1T9jQHj
lhFUSB1sX+1SKsuNrNggQVyTxuNfvrhzFje9W/ECAwEAAaNQME4wHQYDVR0OBBYE
FFoCudT429rkSU2OdD+2vOubIRgYMB8GA1UdIwQYMBaAFFoCudT429rkSU2OdD+2
vOubIRgYMAwGA1UdEwQFMAMBAf8wDQYJKoZIhvcNAQELBQADQQA+LSgn7ocLFXDo
+mfY9zuNzFerC1y3CPNZZYZkqs2Yn/2rLbdr3MD0oHNDgnfVVH/2YqZ0moEFvHPR
jAJ2rmXM
-----END CERTIFICATE-----
Certificate:
    Data:
        Version: 3 (0x2)
        Serial Number: 232 (0xe8)
    Signature Algorithm: sha256WithRSAEncryption
        Issuer: C=FR, ST=idf, L=paris, O=Vitam., CN=CA_client
        Validity
            Not Before: Mar  9 14:17:40 2017 GMT
            Not After : Mar  7 14:17:40 2027 GMT
        Subject: C=FR, ST=idf, L=paris, O=Vitam., CN=CA_client_intermediate
        Subject Public Key Info:
            Public Key Algorithm: rsaEncryption
                Public-Key: (4096 bit)
                Modulus:
                    00:bc:90:a9:1d:64:2a:67:02:ad:83:04:e8:a4:f0:
                    16:69:5d:b4:ff:78:7f:6c:d2:d8:6c:be:fc:78:7b:
                    b4:1b:a9:aa:36:48:10:70:4a:88:00:0d:6e:f0:41:
                    80:ce:00:ae:2a:de:93:b3:81:6a:4b:61:e3:4e:cd:
                    7c:d4:d8:32:43:e9:18:d8:34:d7:81:31:77:5b:01:
                    fe:1d:3e:4d:31:fc:97:84:07:13:f3:b3:99:4e:37:
                    f3:25:17:ab:a9:0a:6c:40:4e:df:3e:ed:1c:22:d9:
                    d7:fe:cc:50:e1:24:f1:a2:50:c0:4e:d5:45:20:d4:
                    e5:0b:66:45:ed:3a:6f:bf:e5:00:4b:30:14:b1:17:
                    db:77:46:92:c4:6a:b4:bd:cf:88:dc:a5:52:45:30:
                    7b:dc:29:d4:b7:c7:94:09:6f:b0:93:3f:2c:43:a5:
                    cf:ac:0e:89:7f:29:1d:00:a7:db:6f:ee:41:2b:58:
                    cc:02:90:fc:41:73:9c:3b:bb:e4:20:cd:f1:23:cb:
                    a8:5f:d5:d1:a0:3a:0d:db:9d:dd:88:ed:20:43:7b:
                    e0:51:62:c3:81:11:86:8c:01:e4:e7:6c:f1:15:2f:
                    96:75:8f:ad:4a:e8:a2:7f:21:95:d8:96:8e:89:d2:
                    ad:59:c9:04:67:3e:5e:b4:c5:82:ab:25:d0:42:f4:
                    c5:36:66:d6:6a:ef:8f:99:d0:7e:c8:6e:79:40:7b:
                    38:6b:f5:f9:42:b8:d6:8f:c6:68:65:6e:15:7a:81:
                    ce:cb:65:1d:6d:52:a6:38:31:b6:20:f3:fe:6e:83:
                    04:e9:97:9f:82:0b:81:50:8f:8c:b0:12:3e:d1:a8:
                    9c:65:f6:78:e0:6b:eb:99:7e:b2:a9:b7:a5:38:ac:
                    6e:00:f7:d2:c3:98:2b:5b:4a:8b:52:8e:1e:fe:2b:
                    b0:df:99:e0:f0:17:b0:1e:3a:90:53:1b:f1:28:01:
                    aa:41:a2:cd:f5:c5:cf:3b:e9:ae:2d:18:b4:de:38:
                    fa:35:c4:49:80:23:9d:e9:46:a3:3f:da:7d:74:b8:
                    55:00:2f:dd:90:fb:88:c9:a0:3c:63:ab:08:ad:82:
                    c7:89:64:b8:35:14:01:16:0d:55:7e:90:a6:a0:bd:
                    df:a9:49:7d:8e:d2:b2:b5:fb:22:43:e2:88:4a:04:
                    b7:ec:65:cf:4a:52:41:15:55:26:10:51:f4:28:fa:
                    75:46:49:ef:e0:e6:a1:f9:d1:77:6c:b7:d7:b9:e9:
                    22:9b:c6:3e:0a:e3:c2:04:8a:69:86:e9:02:b8:c3:
                    99:da:ff:e4:45:10:70:2f:47:05:d1:b6:0a:b9:bc:
                    a9:4e:7c:55:72:14:e8:e0:32:7b:4d:1a:0b:2f:b5:
                    8e:c0:53
                Exponent: 65537 (0x10001)
        X509v3 extensions:
            Netscape Comment: 
                CA SSL
            X509v3 Basic Constraints: critical
                CA:TRUE, pathlen:0
            X509v3 Subject Key Identifier: 
                98:A1:48:9D:C2:4C:FF:AE:3F:5C:AF:5D:EA:85:3A:4C:E8:63:B4:18
            X509v3 Authority Key Identifier: 
                keyid:5A:02:B9:D4:F8:DB:DA:E4:49:4D:8E:74:3F:B6:BC:EB:9B:21:18:18
                DirName:/C=FR/ST=idf/L=paris/O=Vitam./CN=CA_client
                serial:E7

            X509v3 Issuer Alternative Name: 
                <EMPTY>

            X509v3 Key Usage: 
                Certificate Sign, CRL Sign
            Netscape Cert Type: 
                SSL CA
    Signature Algorithm: sha256WithRSAEncryption
         68:86:7f:04:6d:b9:47:a8:d0:e4:70:1b:a6:d7:02:49:f8:78:
         7a:75:3b:ca:4e:c3:fc:be:84:ec:72:76:8e:4f:4b:48:9e:f0:
         ef:35:7a:3c:a5:26:56:e5:e4:2c:89:25:5e:f3:ea:7a:08:7d:
         2b:66:4d:74:2d:cb:a3:de:de:ea
-----BEGIN CERTIFICATE-----
MIIEWzCCBAWgAwIBAgICAOgwDQYJKoZIhvcNAQELBQAwUDELMAkGA1UEBhMCRlIx
DDAKBgNVBAgTA2lkZjEOMAwGA1UEBxMFcGFyaXMxDzANBgNVBAoTBlZpdGFtLjES
MBAGA1UEAxQJQ0FfY2xpZW50MB4XDTE3MDMwOTE0MTc0MFoXDTI3MDMwNzE0MTc0
MFowXTELMAkGA1UEBhMCRlIxDDAKBgNVBAgTA2lkZjEOMAwGA1UEBxMFcGFyaXMx
DzANBgNVBAoTBlZpdGFtLjEfMB0GA1UEAxQWQ0FfY2xpZW50X2ludGVybWVkaWF0
ZTCCAiIwDQYJKoZIhvcNAQEBBQADggIPADCCAgoCggIBALyQqR1kKmcCrYME6KTw
FmldtP94f2zS2Gy+/Hh7tBupqjZIEHBKiAANbvBBgM4Arirek7OBakth407NfNTY
MkPpGNg014Exd1sB/h0+TTH8l4QHE/OzmU438yUXq6kKbEBO3z7tHCLZ1/7MUOEk
8aJQwE7VRSDU5QtmRe06b7/lAEswFLEX23dGksRqtL3PiNylUkUwe9wp1LfHlAlv
sJM/LEOlz6wOiX8pHQCn22/uQStYzAKQ/EFznDu75CDN8SPLqF/V0aA6Ddud3Yjt
IEN74FFiw4ERhowB5Ods8RUvlnWPrUroon8hldiWjonSrVnJBGc+XrTFgqsl0EL0
xTZm1mrvj5nQfshueUB7OGv1+UK41o/GaGVuFXqBzstlHW1SpjgxtiDz/m6DBOmX
n4ILgVCPjLASPtGonGX2eOBr65l+sqm3pTisbgD30sOYK1tKi1KOHv4rsN+Z4PAX
sB46kFMb8SgBqkGizfXFzzvpri0YtN44+jXESYAjnelGoz/afXS4VQAv3ZD7iMmg
PGOrCK2Cx4lkuDUUARYNVX6QpqC936lJfY7SsrX7IkPiiEoEt+xlz0pSQRVVJhBR
9Cj6dUZJ7+DmofnRd2y317npIpvGPgrjwgSKaYbpArjDmdr/5EUQcC9HBdG2Crm8
qU58VXIU6OAye00aCy+1jsBTAgMBAAGjgfMwgfAwFQYJYIZIAYb4QgENBAgWBkNB
IFNTTDASBgNVHRMBAf8ECDAGAQH/AgEAMB0GA1UdDgQWBBSYoUidwkz/rj9cr13q
hTpM6GO0GDB5BgNVHSMEcjBwgBRaArnU+Nva5ElNjnQ/trzrmyEYGKFUpFIwUDEL
MAkGA1UEBhMCRlIxDDAKBgNVBAgTA2lkZjEOMAwGA1UEBxMFcGFyaXMxDzANBgNV
BAoTBlZpdGFtLjESMBAGA1UEAxQJQ0FfY2xpZW50ggIA5zAJBgNVHRIEAjAAMAsG
A1UdDwQEAwIBBjARBglghkgBhvhCAQEEBAMCAgQwDQYJKoZIhvcNAQELBQADQQBo
hn8EbblHqNDkcBum1wJJ+Hh6dTvKTsP8voTscnaOT0tInvDvNXo8pSZW5eQsiSVe
8+p6CH0rZk10Lcuj3t7q
-----END CERTIFICATE-----
