Certificate:
    Data:
        Version: 3 (0x2)
        Serial Number: 217 (0xd9)
    Signature Algorithm: sha256WithRSAEncryption
        Issuer: C=FR, ST=idf, L=paris, O=Vitam., CN=CA_client
        Validity
            Not Before: Feb 24 09:24:20 2017 GMT
            Not After : Feb 22 09:24:20 2027 GMT
        Subject: C=FR, ST=idf, L=paris, O=Vitam., CN=CA_client
        Subject Public Key Info:
            Public Key Algorithm: rsaEncryption
                Public-Key: (512 bit)
                Modulus:
                    00:ce:29:08:ce:c3:34:95:07:83:23:91:5a:73:23:
                    d3:30:15:2b:86:79:3f:71:82:e7:dc:41:65:90:61:
                    ff:11:0e:28:da:3b:43:9f:d6:f9:2d:40:2f:58:0f:
                    85:b3:ce:87:9b:02:a8:f2:f0:9d:5a:c3:e9:e7:60:
                    fb:9b:df:32:0f
                Exponent: 65537 (0x10001)
        X509v3 extensions:
            X509v3 Subject Key Identifier: 
                AD:EF:9E:9D:68:C3:38:D0:DC:05:17:F5:86:DA:58:20:E6:82:AE:F7
            X509v3 Authority Key Identifier: 
                keyid:AD:EF:9E:9D:68:C3:38:D0:DC:05:17:F5:86:DA:58:20:E6:82:AE:F7

            X509v3 Basic Constraints: 
                CA:TRUE
    Signature Algorithm: sha256WithRSAEncryption
         79:be:ad:c7:83:ae:d7:4a:7c:30:f2:40:34:9d:65:20:f6:03:
         e9:a4:e6:8a:04:57:67:be:9a:97:19:26:60:9f:e9:f8:c0:fe:
         bd:69:5b:bb:f6:69:12:5d:9d:8f:b4:e5:b4:9e:75:04:90:f0:
         c8:5b:12:2b:52:98:b9:34:5f:3c
-----BEGIN CERTIFICATE-----
MIIB4jCCAYygAwIBAgICANkwDQYJKoZIhvcNAQELBQAwUDELMAkGA1UEBhMCRlIx
DDAKBgNVBAgTA2lkZjEOMAwGA1UEBxMFcGFyaXMxDzANBgNVBAoTBlZpdGFtLjES
MBAGA1UEAxQJQ0FfY2xpZW50MB4XDTE3MDIyNDA5MjQyMFoXDTI3MDIyMjA5MjQy
MFowUDELMAkGA1UEBhMCRlIxDDAKBgNVBAgTA2lkZjEOMAwGA1UEBxMFcGFyaXMx
DzANBgNVBAoTBlZpdGFtLjESMBAGA1UEAxQJQ0FfY2xpZW50MFwwDQYJKoZIhvcN
AQEBBQADSwAwSAJBAM4pCM7DNJUHgyORWnMj0zAVK4Z5P3GC59xBZZBh/xEOKNo7
Q5/W+S1AL1gPhbPOh5sCqPLwnVrD6edg+5vfMg8CAwEAAaNQME4wHQYDVR0OBBYE
FK3vnp1owzjQ3AUX9YbaWCDmgq73MB8GA1UdIwQYMBaAFK3vnp1owzjQ3AUX9Yba
WCDmgq73MAwGA1UdEwQFMAMBAf8wDQYJKoZIhvcNAQELBQADQQB5vq3Hg67XSnww
8kA0nWUg9gPppOaKBFdnvpqXGSZgn+n4wP69aVu79mkSXZ2PtOW0nnUEkPDIWxIr
Upi5NF88
-----END CERTIFICATE-----
Certificate:
    Data:
        Version: 3 (0x2)
        Serial Number: 218 (0xda)
    Signature Algorithm: sha256WithRSAEncryption
        Issuer: C=FR, ST=idf, L=paris, O=Vitam., CN=CA_client
        Validity
            Not Before: Feb 24 09:24:20 2017 GMT
            Not After : Feb 22 09:24:20 2027 GMT
        Subject: C=FR, ST=idf, L=paris, O=Vitam., CN=CA_client_intermediate
        Subject Public Key Info:
            Public Key Algorithm: rsaEncryption
                Public-Key: (4096 bit)
                Modulus:
                    00:c2:0b:f5:07:18:ff:2e:85:55:f7:7f:2c:22:3a:
                    ac:37:8b:9b:e9:b5:ee:55:fa:13:d9:dc:02:f2:5c:
                    13:e0:d3:17:09:c6:fe:d7:85:7f:ac:6d:37:6f:e9:
                    fb:17:76:60:18:d7:fd:65:5a:88:8e:e1:d3:01:26:
                    95:3b:4b:b6:e8:fa:d7:4d:e6:9d:e5:fe:9c:79:d4:
                    c3:a6:5c:e2:4f:03:27:d3:02:dc:5c:cb:d1:74:11:
                    d0:11:0f:2e:ea:0d:b3:c1:34:6a:b2:26:da:20:64:
                    8d:07:9d:7a:b9:1f:02:a7:6d:f2:a3:4e:5d:c4:a3:
                    69:3a:25:29:51:2c:de:a9:05:b0:ef:02:cd:8c:cc:
                    1e:b5:89:98:f5:74:de:1d:fb:40:61:23:93:c0:d7:
                    8c:45:16:76:12:f8:73:e1:15:7f:bc:39:8a:8d:0c:
                    d6:56:75:dc:0b:1f:36:d5:73:ab:56:1c:a6:33:7a:
                    4a:c0:04:cf:88:4a:c7:ea:88:4e:f2:83:f9:7e:f2:
                    4d:b7:ae:25:00:0e:ef:0e:37:f8:de:d1:f2:6b:ba:
                    a4:4e:00:e3:d6:5a:59:a5:2a:81:87:c5:c0:ac:06:
                    96:4d:62:57:bb:4b:fb:52:f2:48:66:46:47:e6:d0:
                    45:1f:4a:fa:cb:f5:e4:75:0f:4d:ff:2b:e4:bc:03:
                    cc:29:fc:4b:a3:42:e6:47:43:41:18:10:b1:6b:b9:
                    d7:24:86:b2:49:39:51:1f:fc:1e:fe:b3:8b:41:48:
                    e5:53:32:8a:e0:0f:16:57:1d:0b:72:a0:6d:04:0f:
                    1d:8d:8b:06:83:23:61:37:2e:66:7e:60:a0:3b:57:
                    5d:d9:b7:13:5a:d9:2a:c5:69:bf:c9:60:09:0a:2a:
                    e1:b4:4d:21:3a:f3:d6:a6:a9:dd:96:8c:68:b0:d6:
                    4b:f3:58:b3:49:c2:c3:7b:09:d8:8b:71:da:d1:4e:
                    10:0d:83:03:d1:85:bd:bc:20:68:65:cf:1d:6f:f2:
                    93:40:4c:40:5d:e1:f6:7a:9e:06:19:21:1b:a8:bb:
                    cd:c3:81:b8:87:15:e7:b6:77:68:7c:a6:e8:6e:d1:
                    54:b7:28:d6:52:16:6f:62:bd:45:5d:ad:12:c6:0c:
                    b0:b1:77:98:8d:9d:8d:4e:5b:c6:55:77:66:e7:c3:
                    ac:81:6b:f9:0e:47:98:fc:42:a2:0b:aa:19:0e:46:
                    1b:34:6d:25:34:15:02:13:14:b9:3e:7a:25:c8:92:
                    51:4a:8e:d3:c2:20:22:d0:5f:f7:50:14:e7:ca:94:
                    79:d7:9a:b6:f2:1c:24:76:11:3c:76:d0:bd:06:c8:
                    f0:c7:f0:49:2d:ea:0a:91:74:fe:d6:e2:bf:8c:40:
                    20:48:ab
                Exponent: 65537 (0x10001)
        X509v3 extensions:
            Netscape Comment: 
                CA SSL
            X509v3 Basic Constraints: critical
                CA:TRUE, pathlen:0
            X509v3 Subject Key Identifier: 
                4F:DE:06:42:CF:B8:1A:F2:E8:0C:3B:60:5F:62:CF:A4:B5:9B:85:22
            X509v3 Authority Key Identifier: 
                keyid:AD:EF:9E:9D:68:C3:38:D0:DC:05:17:F5:86:DA:58:20:E6:82:AE:F7
                DirName:/C=FR/ST=idf/L=paris/O=Vitam./CN=CA_client
                serial:D9

            X509v3 Issuer Alternative Name: 
                <EMPTY>

            X509v3 Key Usage: 
                Certificate Sign, CRL Sign
            Netscape Cert Type: 
                SSL CA
    Signature Algorithm: sha256WithRSAEncryption
         19:3c:48:da:31:e3:07:30:cd:3d:23:14:71:78:d0:ae:8a:b0:
         6f:61:89:8f:8a:cb:1b:07:cf:e2:af:66:e3:dc:74:34:55:2e:
         ed:0a:3a:1d:6b:8d:e4:41:11:69:b8:5a:ff:e5:71:99:d6:6c:
         4e:10:82:18:77:56:61:b7:62:19
-----BEGIN CERTIFICATE-----
MIIEWzCCBAWgAwIBAgICANowDQYJKoZIhvcNAQELBQAwUDELMAkGA1UEBhMCRlIx
DDAKBgNVBAgTA2lkZjEOMAwGA1UEBxMFcGFyaXMxDzANBgNVBAoTBlZpdGFtLjES
MBAGA1UEAxQJQ0FfY2xpZW50MB4XDTE3MDIyNDA5MjQyMFoXDTI3MDIyMjA5MjQy
MFowXTELMAkGA1UEBhMCRlIxDDAKBgNVBAgTA2lkZjEOMAwGA1UEBxMFcGFyaXMx
DzANBgNVBAoTBlZpdGFtLjEfMB0GA1UEAxQWQ0FfY2xpZW50X2ludGVybWVkaWF0
ZTCCAiIwDQYJKoZIhvcNAQEBBQADggIPADCCAgoCggIBAMIL9QcY/y6FVfd/LCI6
rDeLm+m17lX6E9ncAvJcE+DTFwnG/teFf6xtN2/p+xd2YBjX/WVaiI7h0wEmlTtL
tuj6103mneX+nHnUw6Zc4k8DJ9MC3FzL0XQR0BEPLuoNs8E0arIm2iBkjQederkf
Aqdt8qNOXcSjaTolKVEs3qkFsO8CzYzMHrWJmPV03h37QGEjk8DXjEUWdhL4c+EV
f7w5io0M1lZ13AsfNtVzq1YcpjN6SsAEz4hKx+qITvKD+X7yTbeuJQAO7w43+N7R
8mu6pE4A49ZaWaUqgYfFwKwGlk1iV7tL+1LySGZGR+bQRR9K+sv15HUPTf8r5LwD
zCn8S6NC5kdDQRgQsWu51ySGskk5UR/8Hv6zi0FI5VMyiuAPFlcdC3KgbQQPHY2L
BoMjYTcuZn5goDtXXdm3E1rZKsVpv8lgCQoq4bRNITrz1qap3ZaMaLDWS/NYs0nC
w3sJ2Itx2tFOEA2DA9GFvbwgaGXPHW/yk0BMQF3h9nqeBhkhG6i7zcOBuIcV57Z3
aHym6G7RVLco1lIWb2K9RV2tEsYMsLF3mI2djU5bxlV3ZufDrIFr+Q5HmPxCoguq
GQ5GGzRtJTQVAhMUuT56JciSUUqO08IgItBf91AU58qUedeatvIcJHYRPHbQvQbI
8MfwSS3qCpF0/tbiv4xAIEirAgMBAAGjgfMwgfAwFQYJYIZIAYb4QgENBAgWBkNB
IFNTTDASBgNVHRMBAf8ECDAGAQH/AgEAMB0GA1UdDgQWBBRP3gZCz7ga8ugMO2Bf
Ys+ktZuFIjB5BgNVHSMEcjBwgBSt756daMM40NwFF/WG2lgg5oKu96FUpFIwUDEL
MAkGA1UEBhMCRlIxDDAKBgNVBAgTA2lkZjEOMAwGA1UEBxMFcGFyaXMxDzANBgNV
BAoTBlZpdGFtLjESMBAGA1UEAxQJQ0FfY2xpZW50ggIA2TAJBgNVHRIEAjAAMAsG
A1UdDwQEAwIBBjARBglghkgBhvhCAQEEBAMCAgQwDQYJKoZIhvcNAQELBQADQQAZ
PEjaMeMHMM09IxRxeNCuirBvYYmPissbB8/ir2bj3HQ0VS7tCjoda43kQRFpuFr/
5XGZ1mxOEIIYd1Zht2IZ
-----END CERTIFICATE-----
