Certificate:
    Data:
        Version: 3 (0x2)
        Serial Number: 1 (0x1)
        Signature Algorithm: sha256WithRSAEncryption
        Issuer: C=FR, L=Paris, O=VITAM
        Validity
            Not Before: Sep 17 13:12:12 2020 GMT
            Not After : Dec 31 23:59:59 9999 GMT
        Subject: C=FR, L=Paris, O=VITAM
        Subject Public Key Info:
            Public Key Algorithm: rsaEncryption
                RSA Public-Key: (4096 bit)
                Modulus:
                    00:b5:92:e9:bb:f2:8b:28:7c:45:ba:38:c5:99:0d:
                    ee:2d:41:e5:1f:2f:09:75:e2:97:1a:6d:da:b5:b6:
                    57:d7:89:d6:1c:6b:b9:5f:d8:67:bb:3f:9a:58:f0:
                    55:1b:1b:97:b2:2d:53:34:a6:03:c1:11:49:bb:58:
                    bd:79:20:ad:f4:c7:de:d6:10:ee:0d:9b:22:07:70:
                    27:02:35:4b:2f:b3:59:09:1f:71:06:59:0b:78:38:
                    30:ff:3b:5f:a0:ab:19:e0:6c:a7:d3:42:ce:94:e5:
                    e0:d1:b2:aa:05:89:ef:43:76:94:ce:b1:97:7a:90:
                    bb:f4:6b:79:ce:15:c5:d2:c5:73:dc:5b:fa:1a:73:
                    bd:6e:37:c1:b5:98:96:e0:13:12:05:c7:b4:93:01:
                    87:d7:5e:0e:85:22:a3:31:16:c9:aa:8b:1c:2b:60:
                    2c:fd:c6:69:b4:04:87:86:94:3d:a0:4b:da:09:96:
                    58:e9:9c:4e:e4:a4:64:1d:de:00:dc:4e:bc:5d:2b:
                    39:0e:61:5c:33:ef:81:97:79:d5:37:89:ae:72:51:
                    54:ea:50:df:dd:e2:0d:c4:a7:d7:31:f0:b6:c3:e5:
                    92:65:8c:4b:ff:07:9d:8e:20:5f:9a:50:74:f7:c1:
                    cb:f5:ff:c1:3f:56:71:49:7c:61:31:3f:35:63:2c:
                    ad:23:84:7b:0c:fa:a3:ac:93:53:f6:e6:c3:77:6a:
                    8a:74:3b:82:bb:4e:7c:ab:aa:aa:60:06:e7:f4:e5:
                    6f:52:f8:82:49:eb:4a:ab:6c:57:c1:e9:92:53:67:
                    36:7a:2c:4c:2d:f9:c0:e4:70:98:aa:e3:6e:31:29:
                    0d:f4:b1:bf:94:9c:52:fc:a9:0d:3e:58:3e:06:9f:
                    c0:af:1d:fc:7e:49:29:46:0c:f4:0b:c7:75:59:b2:
                    e2:46:73:d2:3b:e5:08:aa:27:6a:78:a3:63:31:68:
                    d0:36:5a:75:1a:54:4d:ed:ef:f0:2c:a5:10:61:c3:
                    3b:fc:65:45:84:15:32:62:aa:9e:cc:3f:07:4b:0b:
                    e6:87:a4:d2:9f:73:fc:ed:93:9b:a6:5a:84:c5:d2:
                    db:a7:9d:be:c1:ba:4e:13:cb:48:4c:e4:8d:02:a8:
                    86:bb:c5:d2:fe:77:cb:f6:63:8a:fb:98:fa:cc:f0:
                    3b:36:24:25:d2:fe:57:d2:04:6f:d9:dd:c4:d5:f6:
                    eb:0a:61:a7:76:3b:a7:eb:cb:d1:9c:cb:99:c2:81:
                    17:f7:75:22:6a:27:c7:d8:e2:2c:66:02:39:cb:b0:
                    6e:0d:bd:b1:92:7e:0d:6d:6f:8d:b2:a5:48:54:83:
                    58:39:c2:81:95:7c:fb:72:eb:3c:86:d2:91:f8:70:
                    a5:6d:bd
                Exponent: 65537 (0x10001)
        X509v3 extensions:
            Netscape Comment: 
                CA Root
            X509v3 Subject Key Identifier: 
                10:A2:55:31:FC:33:46:F6:01:DB:E5:EF:31:6A:4F:F3:30:72:7E:F9
            X509v3 Authority Key Identifier: 
                keyid:10:A2:55:31:FC:33:46:F6:01:DB:E5:EF:31:6A:4F:F3:30:72:7E:F9

            X509v3 Basic Constraints: critical
                CA:TRUE, pathlen:1
            X509v3 Key Usage: 
                Certificate Sign, CRL Sign
            Netscape Cert Type: 
                SSL CA
    Signature Algorithm: sha256WithRSAEncryption
         2e:e4:1d:6b:b4:5d:02:d2:fe:74:88:49:20:0a:bf:47:05:a8:
         1d:71:5e:4d:d5:d1:fa:b9:30:25:19:d4:75:0a:bb:c4:ad:9e:
         84:df:96:b4:63:3e:2a:a9:1d:e4:05:85:c7:6f:9c:80:4d:3e:
         e0:15:b0:71:80:25:bc:47:71:ce:0d:b3:70:91:38:10:ce:7a:
         b2:57:63:06:4c:83:f1:08:bc:00:db:a3:71:7b:50:42:44:a6:
         bc:67:d3:55:b0:15:11:a3:92:48:b0:cf:9b:16:cd:7a:59:c3:
         be:b3:fa:0f:1b:f8:b4:7b:8a:4f:05:67:f6:c6:9e:64:dd:e9:
         95:d4:38:ae:bc:84:35:e0:e4:9b:e8:97:a7:a5:c9:a3:1e:d6:
         d6:99:c0:ed:63:27:c7:39:c3:c0:d1:3f:c1:fd:80:6f:a9:7b:
         17:3f:47:a9:19:b1:e4:25:09:e3:70:28:b3:fd:06:0a:7f:e7:
         3d:99:b6:93:d5:d4:ad:92:6e:39:0f:13:f2:d7:4a:02:f4:85:
         6d:a8:53:14:ec:b1:36:8b:e2:f1:93:f6:83:3f:6a:8e:bb:0c:
         df:8c:35:5c:dd:61:51:b9:55:73:70:83:91:51:58:d4:bb:db:
         17:c6:36:65:da:9e:b3:e1:62:53:47:d6:a6:25:6c:34:20:ba:
         9e:5d:77:fd:79:c3:a3:52:9e:f6:38:ed:75:ba:a7:0c:a9:cc:
         f6:8b:b5:d7:ef:8c:ce:b7:ea:80:c9:cb:7b:2d:dd:92:9c:57:
         d8:ef:67:62:1c:86:48:2a:1b:28:e1:53:ad:7f:97:b9:1d:09:
         5d:e4:f6:a9:02:92:a8:6a:35:17:ba:da:63:12:1a:b4:9e:26:
         ed:72:27:60:b2:40:78:3f:a3:2f:59:8f:36:2a:ea:5f:08:96:
         45:4d:81:5d:9d:06:69:00:e1:05:24:8b:30:c6:93:79:ec:08:
         b5:07:13:b2:77:3a:a4:47:8c:1d:13:e9:ad:7b:b5:fc:21:68:
         e3:61:59:23:a0:3c:9a:61:12:4a:42:f8:d8:44:5f:b9:5f:b4:
         e9:c0:0e:3c:48:68:d1:64:e0:98:ee:d1:22:86:33:4d:20:eb:
         0b:71:56:8f:55:9c:9b:b2:93:55:ce:1e:41:33:84:8a:02:a1:
         6a:1f:c4:01:89:e3:ff:86:5a:d4:5f:a0:d6:9f:84:ea:3f:80:
         ca:bc:22:14:6e:f5:df:56:50:0b:79:bd:40:51:66:00:47:fb:
         09:b5:37:0e:72:46:2d:ef:99:c9:c6:89:54:5d:c9:36:6b:39:
         15:45:53:71:ec:bf:ab:d8:08:53:69:e2:0d:c1:7c:8a:64:81:
         23:b9:fa:04:ba:cf:fe:68
-----BEGIN CERTIFICATE-----
MIIFZzCCA0+gAwIBAgIBATANBgkqhkiG9w0BAQsFADAtMQswCQYDVQQGEwJGUjEO
MAwGA1UEBwwFUGFyaXMxDjAMBgNVBAoMBVZJVEFNMCAXDTIwMDkxNzEzMTIxMloY
Dzk5OTkxMjMxMjM1OTU5WjAtMQswCQYDVQQGEwJGUjEOMAwGA1UEBwwFUGFyaXMx
DjAMBgNVBAoMBVZJVEFNMIICIjANBgkqhkiG9w0BAQEFAAOCAg8AMIICCgKCAgEA
tZLpu/KLKHxFujjFmQ3uLUHlHy8JdeKXGm3atbZX14nWHGu5X9hnuz+aWPBVGxuX
si1TNKYDwRFJu1i9eSCt9Mfe1hDuDZsiB3AnAjVLL7NZCR9xBlkLeDgw/ztfoKsZ
4Gyn00LOlOXg0bKqBYnvQ3aUzrGXepC79Gt5zhXF0sVz3Fv6GnO9bjfBtZiW4BMS
Bce0kwGH114OhSKjMRbJqoscK2As/cZptASHhpQ9oEvaCZZY6ZxO5KRkHd4A3E68
XSs5DmFcM++Bl3nVN4muclFU6lDf3eINxKfXMfC2w+WSZYxL/wedjiBfmlB098HL
9f/BP1ZxSXxhMT81YyytI4R7DPqjrJNT9ubDd2qKdDuCu058q6qqYAbn9OVvUviC
SetKq2xXwemSU2c2eixMLfnA5HCYquNuMSkN9LG/lJxS/KkNPlg+Bp/Arx38fkkp
Rgz0C8d1WbLiRnPSO+UIqidqeKNjMWjQNlp1GlRN7e/wLKUQYcM7/GVFhBUyYqqe
zD8HSwvmh6TSn3P87ZObplqExdLbp52+wbpOE8tITOSNAqiGu8XS/nfL9mOK+5j6
zPA7NiQl0v5X0gRv2d3E1fbrCmGndjun68vRnMuZwoEX93UiaifH2OIsZgI5y7Bu
Db2xkn4NbW+NsqVIVINYOcKBlXz7cus8htKR+HClbb0CAwEAAaOBjzCBjDAWBglg
hkgBhvhCAQ0ECRYHQ0EgUm9vdDAdBgNVHQ4EFgQUEKJVMfwzRvYB2+XvMWpP8zBy
fvkwHwYDVR0jBBgwFoAUEKJVMfwzRvYB2+XvMWpP8zByfvkwEgYDVR0TAQH/BAgw
BgEB/wIBATALBgNVHQ8EBAMCAQYwEQYJYIZIAYb4QgEBBAQDAgIEMA0GCSqGSIb3
DQEBCwUAA4ICAQAu5B1rtF0C0v50iEkgCr9HBagdcV5N1dH6uTAlGdR1CrvErZ6E
35a0Yz4qqR3kBYXHb5yATT7gFbBxgCW8R3HODbNwkTgQznqyV2MGTIPxCLwA26Nx
e1BCRKa8Z9NVsBURo5JIsM+bFs16WcO+s/oPG/i0e4pPBWf2xp5k3emV1DiuvIQ1
4OSb6JenpcmjHtbWmcDtYyfHOcPA0T/B/YBvqXsXP0epGbHkJQnjcCiz/QYKf+c9
mbaT1dStkm45DxPy10oC9IVtqFMU7LE2i+Lxk/aDP2qOuwzfjDVc3WFRuVVzcIOR
UVjUu9sXxjZl2p6z4WJTR9amJWw0ILqeXXf9ecOjUp72OO11uqcMqcz2i7XX74zO
t+qAyct7Ld2SnFfY72diHIZIKhso4VOtf5e5HQld5PapApKoajUXutpjEhq0nibt
cidgskB4P6MvWY82KupfCJZFTYFdnQZpAOEFJIswxpN57Ai1BxOydzqkR4wdE+mt
e7X8IWjjYVkjoDyaYRJKQvjYRF+5X7TpwA48SGjRZOCY7tEihjNNIOsLcVaPVZyb
spNVzh5BM4SKAqFqH8QBieP/hlrUX6DWn4TqP4DKvCIUbvXfVlALeb1AUWYAR/sJ
tTcOckYt75nJxolUXck2azkVRVNx7L+r2AhTaeINwXyKZIEjufoEus/+aA==
-----END CERTIFICATE-----
