Certificate:
    Data:
        Version: 3 (0x2)
        Serial Number: 324 (0x144)
        Signature Algorithm: sha256WithRSAEncryption
        Issuer: C=fr, ST=idf, L=paris, O=vitam, OU=authorities, CN=ca_intermediate_client-external
        Validity
            Not Before: Mar  4 11:30:11 2022 GMT
            Not After : Dec 31 23:59:59 9999 GMT
        Subject: C=fr, ST=idf, L=paris, O=vitam, CN=collect
        Subject Public Key Info:
            Public Key Algorithm: rsaEncryption
                RSA Public-Key: (4096 bit)
                Modulus:
                    00:b4:3a:81:1a:50:a2:7e:28:96:48:e7:f8:40:37:
                    34:6c:4a:c0:78:ed:ab:13:0c:1a:c4:9c:62:d2:5f:
                    9e:10:17:3a:9c:33:7e:c3:1f:06:e9:f0:c3:9e:b9:
                    52:48:3e:b4:25:53:6a:7e:87:da:99:67:8f:31:23:
                    78:70:41:54:dd:d4:5e:8f:af:2d:95:5f:5b:28:05:
                    61:85:b3:9a:81:a0:74:c6:cf:a4:75:ec:f7:99:74:
                    bb:df:14:5e:69:62:d2:0b:81:a0:83:1b:72:06:93:
                    09:6a:02:65:ce:a8:41:c4:84:22:40:e8:59:6b:2d:
                    5c:8e:5a:9f:86:03:20:78:71:b5:c4:4b:c6:7a:56:
                    23:f7:ab:71:5e:29:76:02:bd:34:c3:c5:6e:51:55:
                    a8:66:87:e6:34:b0:0b:40:c4:38:17:d9:23:b2:a4:
                    6d:f2:84:fc:49:e3:48:b6:91:95:3f:0c:c5:1c:6c:
                    94:bc:8b:88:74:6d:0a:91:c1:1a:1a:55:40:c1:17:
                    d8:9d:33:70:50:7d:2f:db:81:04:00:fc:9a:c5:c9:
                    47:e2:33:3c:50:91:f3:45:ba:74:90:2d:e7:63:1c:
                    af:75:cd:30:6e:16:64:7f:ec:2c:1a:17:13:63:41:
                    c0:9e:b6:3d:c6:07:ae:d7:2c:65:00:e2:63:b5:1b:
                    6f:b5:61:54:32:13:2a:68:c2:ca:e4:39:cc:70:fc:
                    4f:d2:28:d3:ed:7c:6c:52:a5:dc:94:1d:d9:1c:4e:
                    42:a8:26:07:7d:07:39:e0:cb:4d:c2:d8:0e:c9:78:
                    1d:9f:c5:8b:12:a1:0b:4d:5f:a9:f6:05:78:b7:7c:
                    a7:02:63:1a:bc:8f:35:27:b3:7b:74:24:6b:e9:12:
                    fb:d4:73:2e:44:a1:90:4c:7e:a0:17:ba:8b:d7:09:
                    58:a3:92:6e:b2:05:5d:c4:a2:ab:a6:3d:b7:3e:a1:
                    f3:94:65:7c:f8:b0:24:40:3d:e9:f0:b9:89:78:ad:
                    ad:e6:a8:b1:ed:ef:00:a9:3c:da:10:e6:05:2d:27:
                    26:e5:c8:a0:80:64:ff:33:61:4b:32:ea:62:d3:22:
                    55:74:9c:63:63:2a:ab:6f:7d:7e:d9:e2:d5:16:46:
                    fc:7e:b6:41:20:50:b5:bc:4b:a5:ee:f5:ee:f0:b0:
                    e1:58:54:42:c3:8e:c8:2c:67:70:38:48:8f:9e:9b:
                    5d:a4:fe:d5:7a:a2:df:0b:a8:80:7f:71:4f:ad:55:
                    f1:3d:3c:f5:54:8a:c5:6f:66:65:4d:fc:55:48:be:
                    3d:52:15:26:ce:4d:c3:30:7c:0a:a5:a2:94:17:dc:
                    bf:1b:cc:ff:b4:fc:40:88:b4:ea:05:23:24:23:05:
                    17:2e:2f
                Exponent: 65537 (0x10001)
        X509v3 extensions:
            Netscape Comment: 
                Certificat Client SSL
            X509v3 Subject Key Identifier: 
                E4:86:80:3E:B3:0E:84:05:08:35:0D:2D:00:47:44:FD:C6:EC:D0:7B
            X509v3 Authority Key Identifier: 
                keyid:D1:7F:00:C3:F0:94:D6:CB:E3:AE:F7:23:18:2E:1E:BA:53:66:F2:F8
                DirName:/C=fr/ST=idf/L=paris/O=vitam/OU=authorities/CN=ca_root_client-external
                serial:01:2D

            X509v3 Issuer Alternative Name: 
                <EMPTY>

            X509v3 Basic Constraints: critical
                CA:FALSE
            X509v3 Key Usage: 
                Digital Signature
            Netscape Cert Type: 
                SSL Client
            X509v3 Extended Key Usage: 
                TLS Web Client Authentication
    Signature Algorithm: sha256WithRSAEncryption
         a3:b0:ac:96:fb:58:61:98:30:e5:c6:95:94:f1:91:05:91:10:
         c3:37:31:b4:ae:c4:a6:1c:f8:24:a6:72:af:1e:61:d0:59:c2:
         92:5f:01:73:9c:5b:e4:4f:cd:35:8c:07:d9:88:ab:04:6d:9b:
         14:5d:a7:6a:b0:94:c3:5e:96:ec:f8:13:8b:1e:31:43:64:3a:
         63:78:40:8c:0d:08:01:9b:4c:dc:36:7a:b5:27:fb:e4:04:d3:
         31:0c:29:01:1a:c5:2f:d1:c9:90:59:28:21:a2:b7:c3:03:07:
         a4:78:55:0c:9e:78:ce:0a:46:56:16:b7:f5:0e:c6:1a:f7:fe:
         07:56:c6:0e:0a:63:e4:de:ea:0b:f8:fe:ae:ab:c5:ef:0f:12:
         0a:e6:33:40:df:4c:aa:68:43:8d:0a:97:aa:7f:db:88:a7:0e:
         67:b9:e9:22:fc:f0:0e:96:22:ec:cf:21:74:94:e9:13:4b:73:
         39:b8:07:9d:e0:8e:54:02:ca:03:cc:63:3b:cd:c1:fe:d8:c1:
         9b:34:b1:49:b9:33:4e:28:3b:f0:f3:39:ef:e2:b8:01:5d:e8:
         a5:ec:ca:88:d7:7a:81:76:aa:15:8f:e4:12:e8:b9:b5:67:a0:
         22:0f:da:29:c4:4f:88:ab:f4:82:29:22:31:88:b2:e1:58:80:
         4c:d5:89:fd:94:b5:84:53:89:66:a2:61:0a:23:f0:ee:59:bd:
         69:b7:a4:2d:e6:db:6b:05:d8:c4:6d:e0:cf:5e:ae:8a:ea:f5:
         ab:8f:f7:89:05:44:9c:51:9a:bc:dd:92:05:76:93:7d:11:1b:
         5d:7a:16:9f:00:93:de:1c:57:7d:82:4b:2f:6d:ad:6c:99:f7:
         2f:ea:71:e2:0a:c7:fe:db:13:7d:50:bf:4a:c1:21:1c:55:c0:
         c0:4e:e0:f2:88:27:e9:5c:c4:71:0b:89:3d:18:eb:33:db:64:
         e6:4c:33:e4:a8:0f:48:13:9e:a6:49:02:de:19:6c:9a:7a:28:
         99:f2:4b:5d:5c:9d:92:ed:4a:78:35:29:dd:18:23:84:93:14:
         44:61:09:ca:5d:55:97:f0:8d:42:33:20:ff:49:20:a4:ca:cd:
         9c:dd:ab:41:bb:ca:b4:04:0b:c8:a2:0d:42:77:39:eb:e7:50:
         e7:55:75:14:f3:bc:64:41:28:bb:aa:17:23:7d:06:95:85:96:
         37:b3:75:f2:b3:85:c0:57:bf:1f:5f:36:55:10:ce:76:c6:57:
         b8:56:6b:36:da:a8:8a:96:50:3d:8f:41:50:2c:5c:6c:7c:0e:
         d9:98:c5:29:43:f6:cf:eb:2c:90:2e:8b:7c:25:f0:bc:fb:c1:
         2b:a1:86:d2:6a:ec:87:ad
-----BEGIN CERTIFICATE-----
MIIGgDCCBGigAwIBAgICAUQwDQYJKoZIhvcNAQELBQAwezELMAkGA1UEBhMCZnIx
DDAKBgNVBAgMA2lkZjEOMAwGA1UEBwwFcGFyaXMxDjAMBgNVBAoMBXZpdGFtMRQw
EgYDVQQLDAthdXRob3JpdGllczEoMCYGA1UEAwwfY2FfaW50ZXJtZWRpYXRlX2Ns
aWVudC1leHRlcm5hbDAgFw0yMjAzMDQxMTMwMTFaGA85OTk5MTIzMTIzNTk1OVow
TTELMAkGA1UEBhMCZnIxDDAKBgNVBAgMA2lkZjEOMAwGA1UEBwwFcGFyaXMxDjAM
BgNVBAoMBXZpdGFtMRAwDgYDVQQDDAdjb2xsZWN0MIICIjANBgkqhkiG9w0BAQEF
AAOCAg8AMIICCgKCAgEAtDqBGlCifiiWSOf4QDc0bErAeO2rEwwaxJxi0l+eEBc6
nDN+wx8G6fDDnrlSSD60JVNqfofamWePMSN4cEFU3dRej68tlV9bKAVhhbOagaB0
xs+kdez3mXS73xReaWLSC4GggxtyBpMJagJlzqhBxIQiQOhZay1cjlqfhgMgeHG1
xEvGelYj96txXil2Ar00w8VuUVWoZofmNLALQMQ4F9kjsqRt8oT8SeNItpGVPwzF
HGyUvIuIdG0KkcEaGlVAwRfYnTNwUH0v24EEAPyaxclH4jM8UJHzRbp0kC3nYxyv
dc0wbhZkf+wsGhcTY0HAnrY9xgeu1yxlAOJjtRtvtWFUMhMqaMLK5DnMcPxP0ijT
7XxsUqXclB3ZHE5CqCYHfQc54MtNwtgOyXgdn8WLEqELTV+p9gV4t3ynAmMavI81
J7N7dCRr6RL71HMuRKGQTH6gF7qL1wlYo5JusgVdxKKrpj23PqHzlGV8+LAkQD3p
8LmJeK2t5qix7e8AqTzaEOYFLScm5ciggGT/M2FLMupi0yJVdJxjYyqrb31+2eLV
Fkb8frZBIFC1vEul7vXu8LDhWFRCw47ILGdwOEiPnptdpP7VeqLfC6iAf3FPrVXx
PTz1VIrFb2ZlTfxVSL49UhUmzk3DMHwKpaKUF9y/G8z/tPxAiLTqBSMkIwUXLi8C
AwEAAaOCATgwggE0MCQGCWCGSAGG+EIBDQQXFhVDZXJ0aWZpY2F0IENsaWVudCBT
U0wwHQYDVR0OBBYEFOSGgD6zDoQFCDUNLQBHRP3G7NB7MIGeBgNVHSMEgZYwgZOA
FNF/AMPwlNbL4673IxguHrpTZvL4oXekdTBzMQswCQYDVQQGEwJmcjEMMAoGA1UE
CAwDaWRmMQ4wDAYDVQQHDAVwYXJpczEOMAwGA1UECgwFdml0YW0xFDASBgNVBAsM
C2F1dGhvcml0aWVzMSAwHgYDVQQDDBdjYV9yb290X2NsaWVudC1leHRlcm5hbIIC
AS0wCQYDVR0SBAIwADAMBgNVHRMBAf8EAjAAMAsGA1UdDwQEAwIHgDARBglghkgB
hvhCAQEEBAMCB4AwEwYDVR0lBAwwCgYIKwYBBQUHAwIwDQYJKoZIhvcNAQELBQAD
ggIBAKOwrJb7WGGYMOXGlZTxkQWREMM3MbSuxKYc+CSmcq8eYdBZwpJfAXOcW+RP
zTWMB9mIqwRtmxRdp2qwlMNeluz4E4seMUNkOmN4QIwNCAGbTNw2erUn++QE0zEM
KQEaxS/RyZBZKCGit8MDB6R4VQyeeM4KRlYWt/UOxhr3/gdWxg4KY+Te6gv4/q6r
xe8PEgrmM0DfTKpoQ40Kl6p/24inDme56SL88A6WIuzPIXSU6RNLczm4B53gjlQC
ygPMYzvNwf7YwZs0sUm5M04oO/DzOe/iuAFd6KXsyojXeoF2qhWP5BLoubVnoCIP
2inET4ir9IIpIjGIsuFYgEzVif2UtYRTiWaiYQoj8O5ZvWm3pC3m22sF2MRt4M9e
rorq9auP94kFRJxRmrzdkgV2k30RG116Fp8Ak94cV32CSy9trWyZ9y/qceIKx/7b
E31Qv0rBIRxVwMBO4PKIJ+lcxHELiT0Y6zPbZOZMM+SoD0gTnqZJAt4ZbJp6KJny
S11cnZLtSng1Kd0YI4STFERhCcpdVZfwjUIzIP9JIKTKzZzdq0G7yrQEC8iiDUJ3
OevnUOdVdRTzvGRBKLuqFyN9BpWFljezdfKzhcBXvx9fNlUQznbGV7hWazbaqIqW
UD2PQVAsXGx8DtmYxSlD9s/rLJAui3wl8Lz7wSuhhtJq7Iet
-----END CERTIFICATE-----
