Certificate:
    Data:
        Version: 3 (0x2)
        Serial Number: 219 (0xdb)
    Signature Algorithm: sha256WithRSAEncryption
        Issuer: C=fr, ST=idf, L=paris, O=vitam, OU=authorities, CN=ca_root_server
        Validity
            Not Before: Feb  5 12:46:55 2018 GMT
            Not After : Feb  3 12:46:55 2028 GMT
        Subject: C=fr, ST=idf, L=paris, O=vitam, OU=authorities, CN=ca_intermediate_server
        Subject Public Key Info:
            Public Key Algorithm: rsaEncryption
                Public-Key: (4096 bit)
                Modulus:
                    00:bf:23:d8:f4:74:1a:5f:75:75:e3:5a:36:39:6d:
                    ca:27:e0:33:0e:f7:ad:f0:d3:f8:56:bb:56:dd:e2:
                    10:13:83:32:70:33:89:c0:2d:9e:4e:e2:c0:ba:27:
                    d1:42:49:0c:19:5c:d8:77:96:00:18:0d:46:1f:20:
                    55:c0:04:9c:38:00:41:07:7f:31:7f:c8:d8:c5:dd:
                    4b:0f:63:e4:57:df:49:7e:2c:f8:4d:15:20:51:77:
                    b3:17:62:80:c1:de:cd:ab:18:b1:b9:5f:38:2e:0c:
                    1c:6c:07:9b:13:71:dc:69:d0:dd:0b:03:27:15:5c:
                    3b:0f:2c:5c:d2:49:45:d9:09:4d:5d:71:66:f1:6f:
                    b4:19:5d:1f:d6:cf:dc:a5:0a:12:78:83:26:8c:32:
                    f0:ab:8b:7f:8c:9b:1d:f1:81:23:11:4d:6e:85:eb:
                    31:5d:44:bd:ab:cf:9a:1c:28:f5:c2:0e:44:3e:20:
                    41:9a:1c:3d:4d:d9:eb:87:e0:f5:15:c6:b8:9c:65:
                    64:ad:27:07:d7:54:ed:65:17:61:ba:0a:ec:3f:1a:
                    77:1b:c8:44:e7:e9:b4:46:fd:e7:a7:54:e5:fc:0a:
                    b4:ec:6e:d0:5a:a3:0f:15:32:55:94:72:08:29:e2:
                    1b:2d:72:72:57:e9:62:c5:19:e6:1d:d3:31:dc:ef:
                    6a:90:77:ce:35:38:f2:47:21:78:26:9e:45:0d:e2:
                    62:62:f7:d1:76:5d:7c:72:5c:1a:c9:c4:66:00:6f:
                    05:53:d1:6d:61:f8:20:cd:a0:8e:02:ba:e1:14:71:
                    e4:79:ff:f9:a6:06:57:00:80:d9:f5:6d:a5:27:b8:
                    ab:8f:b9:32:de:a4:44:6b:7c:5c:ba:a4:94:28:fc:
                    9d:c8:a7:bc:41:84:8a:09:35:ad:54:e7:d1:7c:9b:
                    db:00:26:c5:d5:e0:d5:47:07:0a:69:dd:69:8b:7f:
                    7b:ea:de:dd:0c:13:d8:5d:cf:72:bb:6e:53:78:8a:
                    b1:6f:77:53:40:e2:89:6a:cb:41:dd:a7:d1:7f:69:
                    75:b3:70:66:34:b7:f6:0f:cc:1b:2d:a8:2a:95:30:
                    74:c0:c6:c3:c3:88:33:22:e2:c9:54:fc:e6:2f:92:
                    ca:95:93:fb:bc:2e:ca:80:19:23:7b:fe:47:fc:aa:
                    06:b5:22:34:6e:a5:2a:34:a3:b0:a9:6a:77:82:26:
                    fb:b2:01:c2:0a:42:8e:2d:76:f9:99:f6:88:88:ca:
                    50:6f:75:4e:5e:6b:f5:86:47:1f:7a:81:57:7e:72:
                    64:1a:f3:52:38:07:86:46:6b:33:79:5c:7c:3d:65:
                    64:c2:5c:ae:cd:a2:52:3c:70:f9:a3:78:61:0b:06:
                    25:0e:3d
                Exponent: 65537 (0x10001)
        X509v3 extensions:
            Netscape Comment: 
                CA Intermediate
            X509v3 Subject Key Identifier: 
                5A:C7:76:2D:0B:CA:D2:5D:01:B1:16:A7:F9:F2:91:A2:20:E5:56:42
            X509v3 Authority Key Identifier: 
                keyid:74:E1:62:1A:ED:20:44:B3:EE:46:72:0D:92:AB:CC:56:11:35:09:5B
                DirName:/C=fr/ST=idf/L=paris/O=vitam/OU=authorities/CN=ca_root_server
                serial:DA

            X509v3 Basic Constraints: critical
                CA:TRUE, pathlen:0
            X509v3 Issuer Alternative Name: 
                <EMPTY>

            X509v3 Key Usage: 
                Certificate Sign, CRL Sign
            Netscape Cert Type: 
                SSL CA
    Signature Algorithm: sha256WithRSAEncryption
         46:77:fa:06:b9:e0:41:ad:08:ec:54:cf:42:4e:35:2c:6d:70:
         78:9d:83:e3:f0:a5:90:06:05:38:78:1f:3a:a9:b6:14:50:95:
         6a:ad:da:cd:39:9b:2a:5e:88:09:3f:0b:c7:26:3c:b3:c7:3f:
         7d:cd:7a:e3:98:84:4a:4a:77:5e:c3:b8:41:f4:03:a7:36:4f:
         37:99:32:1b:f3:19:ae:57:45:ac:cb:67:71:02:29:1b:00:65:
         b5:44:ba:48:38:0d:9c:64:8f:50:32:d6:4e:93:3a:09:30:ec:
         4c:50:58:d6:bb:58:ba:d3:5f:73:50:7a:1c:56:65:e0:51:d2:
         e5:0d:cd:88:50:9e:f2:22:66:29:02:f3:93:a4:8e:39:7a:8b:
         36:ae:43:01:8c:c3:5a:bf:df:31:01:a2:a5:be:5b:09:e7:1c:
         6d:c8:8a:b6:81:6e:8b:89:f6:9a:7d:fb:44:9d:aa:21:c1:e7:
         cb:d6:e9:01:3c:e8:bc:9b:a0:2b:19:4b:bc:ea:38:65:26:32:
         73:84:1f:be:b1:91:f4:6e:68:eb:70:7d:7f:1e:b9:8b:ca:6f:
         7d:46:ac:28:e3:f9:c4:8f:b9:0c:c3:9f:6c:6e:7f:a4:c0:ed:
         9a:3e:74:de:5a:5d:c1:ea:99:8e:3d:97:88:bf:c2:6d:8a:eb:
         37:42:90:32:b6:db:0f:50:09:72:b7:52:24:36:af:e1:26:69:
         88:db:73:4f:95:3b:70:67:bd:18:a7:af:79:b7:19:49:34:f7:
         f4:32:3c:3f:f0:6c:3a:c3:d7:d5:18:f3:c1:79:2d:48:d3:3c:
         8e:42:c8:e2:1a:cf:d6:34:48:a7:ad:58:24:1a:7f:af:1d:b1:
         6a:4e:da:7c:84:c4:b4:6a:fc:50:87:9c:10:dc:fb:f5:dd:5c:
         41:29:7a:ca:88:76:27:73:f4:cf:6e:df:e1:c0:f5:b1:68:f0:
         20:5c:b8:cf:a4:8c:b9:fc:7f:7d:91:7b:6e:1a:74:61:47:4c:
         0f:77:a6:bd:bb:0e:47:d8:0a:d4:6b:22:51:e0:f1:37:56:da:
         1e:55:b8:29:39:f7:b9:60:c4:40:c0:fe:a4:5e:19:39:9a:f5:
         6c:57:7c:64:3c:2a:6e:85:57:24:23:0f:00:05:61:f0:69:10:
         38:0f:09:3c:bb:f9:f5:81:e6:55:31:d3:1d:7b:aa:6a:03:d9:
         a1:a7:04:52:fb:c6:54:7c:3f:b7:b7:4b:4b:d1:c4:0e:0a:1a:
         64:f9:58:d2:b1:8c:07:cc:6e:84:af:b6:52:13:86:09:59:83:
         a1:45:5e:9a:04:fa:da:f5:37:e9:5f:a7:3c:ef:ad:30:a4:2a:
         32:72:0d:98:3d:99:d9:4d
-----BEGIN CERTIFICATE-----
MIIGdDCCBFygAwIBAgICANswDQYJKoZIhvcNAQELBQAwajELMAkGA1UEBhMCZnIx
DDAKBgNVBAgMA2lkZjEOMAwGA1UEBwwFcGFyaXMxDjAMBgNVBAoMBXZpdGFtMRQw
EgYDVQQLDAthdXRob3JpdGllczEXMBUGA1UEAwwOY2Ffcm9vdF9zZXJ2ZXIwHhcN
MTgwMjA1MTI0NjU1WhcNMjgwMjAzMTI0NjU1WjByMQswCQYDVQQGEwJmcjEMMAoG
A1UECAwDaWRmMQ4wDAYDVQQHDAVwYXJpczEOMAwGA1UECgwFdml0YW0xFDASBgNV
BAsMC2F1dGhvcml0aWVzMR8wHQYDVQQDDBZjYV9pbnRlcm1lZGlhdGVfc2VydmVy
MIICIjANBgkqhkiG9w0BAQEFAAOCAg8AMIICCgKCAgEAvyPY9HQaX3V141o2OW3K
J+AzDvet8NP4VrtW3eIQE4MycDOJwC2eTuLAuifRQkkMGVzYd5YAGA1GHyBVwASc
OABBB38xf8jYxd1LD2PkV99Jfiz4TRUgUXezF2KAwd7NqxixuV84LgwcbAebE3Hc
adDdCwMnFVw7Dyxc0klF2QlNXXFm8W+0GV0f1s/cpQoSeIMmjDLwq4t/jJsd8YEj
EU1uhesxXUS9q8+aHCj1wg5EPiBBmhw9Tdnrh+D1Fca4nGVkrScH11TtZRdhugrs
Pxp3G8hE5+m0Rv3np1Tl/Aq07G7QWqMPFTJVlHIIKeIbLXJyV+lixRnmHdMx3O9q
kHfONTjyRyF4Jp5FDeJiYvfRdl18clwaycRmAG8FU9FtYfggzaCOArrhFHHkef/5
pgZXAIDZ9W2lJ7irj7ky3qREa3xcuqSUKPydyKe8QYSKCTWtVOfRfJvbACbF1eDV
RwcKad1pi3976t7dDBPYXc9yu25TeIqxb3dTQOKJastB3afRf2l1s3BmNLf2D8wb
LagqlTB0wMbDw4gzIuLJVPzmL5LKlZP7vC7KgBkje/5H/KoGtSI0bqUqNKOwqWp3
gib7sgHCCkKOLXb5mfaIiMpQb3VOXmv1hkcfeoFXfnJkGvNSOAeGRmszeVx8PWVk
wlyuzaJSPHD5o3hhCwYlDj0CAwEAAaOCARowggEWMB4GCWCGSAGG+EIBDQQRFg9D
QSBJbnRlcm1lZGlhdGUwHQYDVR0OBBYEFFrHdi0LytJdAbEWp/nykaIg5VZCMIGV
BgNVHSMEgY0wgYqAFHThYhrtIESz7kZyDZKrzFYRNQlboW6kbDBqMQswCQYDVQQG
EwJmcjEMMAoGA1UECAwDaWRmMQ4wDAYDVQQHDAVwYXJpczEOMAwGA1UECgwFdml0
YW0xFDASBgNVBAsMC2F1dGhvcml0aWVzMRcwFQYDVQQDDA5jYV9yb290X3NlcnZl
coICANowEgYDVR0TAQH/BAgwBgEB/wIBADAJBgNVHRIEAjAAMAsGA1UdDwQEAwIB
BjARBglghkgBhvhCAQEEBAMCAgQwDQYJKoZIhvcNAQELBQADggIBAEZ3+ga54EGt
COxUz0JONSxtcHidg+PwpZAGBTh4HzqpthRQlWqt2s05mypeiAk/C8cmPLPHP33N
euOYhEpKd17DuEH0A6c2TzeZMhvzGa5XRazLZ3ECKRsAZbVEukg4DZxkj1Ay1k6T
Ogkw7ExQWNa7WLrTX3NQehxWZeBR0uUNzYhQnvIiZikC85Okjjl6izauQwGMw1q/
3zEBoqW+WwnnHG3IiraBbouJ9pp9+0SdqiHB58vW6QE86LyboCsZS7zqOGUmMnOE
H76xkfRuaOtwfX8euYvKb31GrCjj+cSPuQzDn2xuf6TA7Zo+dN5aXcHqmY49l4i/
wm2K6zdCkDK22w9QCXK3UiQ2r+EmaYjbc0+VO3BnvRinr3m3GUk09/QyPD/wbDrD
19UY88F5LUjTPI5CyOIaz9Y0SKetWCQaf68dsWpO2nyExLRq/FCHnBDc+/XdXEEp
esqIdidz9M9u3+HA9bFo8CBcuM+kjLn8f32Re24adGFHTA93pr27DkfYCtRrIlHg
8TdW2h5VuCk597lgxEDA/qReGTma9WxXfGQ8Km6FVyQjDwAFYfBpEDgPCTy7+fWB
5lUx0x17qmoD2aGnBFL7xlR8P7e3S0vRxA4KGmT5WNKxjAfMboSvtlIThglZg6FF
XpoE+tr1N+lfpzzvrTCkKjJyDZg9mdlN
-----END CERTIFICATE-----
