Certificate:
    Data:
        Version: 3 (0x2)
        Serial Number: 195 (0xc3)
    Signature Algorithm: sha256WithRSAEncryption
        Issuer: C=FR, ST=idf, L=paris, O=Vitam., CN=CA_server
        Validity
            Not Before: Mar 15 12:18:40 2017 GMT
            Not After : Mar 13 12:18:40 2027 GMT
        Subject: C=FR, ST=idf, L=paris, O=Vitam., CN=CA_server
        Subject Public Key Info:
            Public Key Algorithm: rsaEncryption
                Public-Key: (4096 bit)
                Modulus:
                    00:af:41:55:d6:f1:f3:d4:ba:02:40:cf:22:9a:3e:
                    e8:c7:54:61:cf:55:48:e3:0c:c0:de:97:af:a5:2b:
                    30:40:b5:8a:f7:5c:0f:5c:e6:43:2f:38:d2:7a:7c:
                    c1:8e:c8:70:f9:f3:9a:b1:40:c5:7a:48:ce:dc:47:
                    4c:50:96:f0:9c:99:65:22:ee:e2:08:24:5d:7e:84:
                    af:8b:fd:72:c5:2a:84:56:0b:1f:f4:50:fd:ff:df:
                    a7:1d:44:f7:07:6a:9d:ff:55:83:30:55:5e:46:c5:
                    12:23:e2:cf:19:b8:4a:dc:b7:01:15:29:29:c9:56:
                    9b:20:53:aa:6b:28:13:f9:81:4c:fa:5a:ed:2b:85:
                    c3:bc:af:97:fd:38:00:33:56:ca:ff:2c:b5:85:c7:
                    72:0a:6e:f9:7f:17:1d:c5:7b:93:4f:54:29:1f:6f:
                    df:b1:99:b7:55:d4:1d:b5:90:f2:2f:f1:61:1e:d7:
                    bb:60:3e:02:6c:35:31:c8:f3:21:4c:ef:11:95:7e:
                    0d:8d:59:4b:7e:a1:53:e5:03:82:98:4f:f8:5f:14:
                    26:c9:4c:a8:36:67:6a:5a:fc:2a:37:12:c6:03:5e:
                    53:90:86:50:2c:ea:c0:fa:01:7d:c3:8b:ef:43:c9:
                    97:80:cc:d8:42:ca:bf:5c:6d:2f:ce:65:e5:d3:28:
                    28:d6:c7:a2:f4:b1:b9:50:a1:c5:86:d9:c5:c5:8d:
                    2c:f4:11:89:c9:5b:de:1a:81:c4:f6:c6:6c:4a:41:
                    b8:7e:12:72:44:76:3d:35:95:69:33:53:68:44:23:
                    fa:1a:7a:64:14:f2:33:be:8a:ac:a2:8c:bc:88:33:
                    49:66:d9:04:96:ba:af:cb:4e:0d:b6:5f:d8:dd:19:
                    f7:01:7e:3f:b2:de:09:35:9b:ec:da:70:33:66:f0:
                    fb:39:63:d4:1d:06:22:18:0e:57:28:e7:6b:35:7d:
                    50:2f:56:cb:ba:85:14:80:5b:a1:ed:31:5b:ff:9c:
                    25:6f:ac:79:03:f4:68:7d:78:20:6d:07:c5:27:2f:
                    ba:46:77:ca:70:3e:2b:35:ac:df:b6:a3:53:de:e5:
                    73:6e:df:5a:bd:fc:4f:ba:48:bf:6c:b9:a1:b1:de:
                    77:15:d7:1e:86:62:89:d5:04:fb:70:d9:75:3f:e3:
                    ab:77:36:5f:e7:d6:13:3b:a8:1e:ea:15:13:2b:79:
                    6d:c2:93:75:40:10:41:f3:f1:64:1e:d6:a4:30:0e:
                    ee:ae:f2:28:bb:a8:34:87:0d:0b:69:52:a8:5f:b1:
                    fa:5e:39:71:3b:78:f5:88:ec:48:82:40:28:38:d6:
                    03:58:7d:17:5d:f5:e5:39:d9:78:ba:02:7c:30:a8:
                    45:90:f1
                Exponent: 65537 (0x10001)
        X509v3 extensions:
            Netscape Comment: 
                CA SSL
            X509v3 Basic Constraints: critical
                CA:TRUE, pathlen:0
            X509v3 Subject Key Identifier: 
                0F:DF:43:C3:C4:C2:8F:E7:DB:7B:5F:A7:FF:B7:ED:6D:B7:B0:0D:4B
            X509v3 Authority Key Identifier: 
                keyid:F7:F1:47:13:0E:32:0D:1C:61:85:95:CA:B1:E3:37:EE:C5:24:70:EA
                DirName:/C=FR/ST=idf/L=paris/O=Vitam./CN=CA_server
                serial:C2

            X509v3 Issuer Alternative Name: 
                <EMPTY>

            X509v3 Key Usage: 
                Certificate Sign, CRL Sign
            Netscape Cert Type: 
                SSL CA
    Signature Algorithm: sha256WithRSAEncryption
         18:6e:2d:73:2e:fb:d7:51:b6:a5:c6:e8:53:59:ff:93:f2:22:
         5a:37:88:3f:14:f6:c5:a6:60:e5:2b:0e:49:ca:f9:03:1e:4f:
         87:df:2d:e0:c0:d2:df:e2:d7:48:ed:ce:59:95:ef:96:8b:05:
         bb:b1:4f:f7:26:18:82:e3:01:c2
-----BEGIN CERTIFICATE-----
MIIETjCCA/igAwIBAgICAMMwDQYJKoZIhvcNAQELBQAwUDELMAkGA1UEBhMCRlIx
DDAKBgNVBAgTA2lkZjEOMAwGA1UEBxMFcGFyaXMxDzANBgNVBAoTBlZpdGFtLjES
MBAGA1UEAxQJQ0Ffc2VydmVyMB4XDTE3MDMxNTEyMTg0MFoXDTI3MDMxMzEyMTg0
MFowUDELMAkGA1UEBhMCRlIxDDAKBgNVBAgTA2lkZjEOMAwGA1UEBxMFcGFyaXMx
DzANBgNVBAoTBlZpdGFtLjESMBAGA1UEAxQJQ0Ffc2VydmVyMIICIjANBgkqhkiG
9w0BAQEFAAOCAg8AMIICCgKCAgEAr0FV1vHz1LoCQM8imj7ox1Rhz1VI4wzA3pev
pSswQLWK91wPXOZDLzjSenzBjshw+fOasUDFekjO3EdMUJbwnJllIu7iCCRdfoSv
i/1yxSqEVgsf9FD9/9+nHUT3B2qd/1WDMFVeRsUSI+LPGbhK3LcBFSkpyVabIFOq
aygT+YFM+lrtK4XDvK+X/TgAM1bK/yy1hcdyCm75fxcdxXuTT1QpH2/fsZm3VdQd
tZDyL/FhHte7YD4CbDUxyPMhTO8RlX4NjVlLfqFT5QOCmE/4XxQmyUyoNmdqWvwq
NxLGA15TkIZQLOrA+gF9w4vvQ8mXgMzYQsq/XG0vzmXl0ygo1sei9LG5UKHFhtnF
xY0s9BGJyVveGoHE9sZsSkG4fhJyRHY9NZVpM1NoRCP6GnpkFPIzvoqsooy8iDNJ
ZtkElrqvy04Ntl/Y3Rn3AX4/st4JNZvs2nAzZvD7OWPUHQYiGA5XKOdrNX1QL1bL
uoUUgFuh7TFb/5wlb6x5A/RofXggbQfFJy+6RnfKcD4rNazftqNT3uVzbt9avfxP
uki/bLmhsd53FdcehmKJ1QT7cNl1P+OrdzZf59YTO6ge6hUTK3ltwpN1QBBB8/Fk
HtakMA7urvIou6g0hw0LaVKoX7H6XjlxO3j1iOxIgkAoONYDWH0XXfXlOdl4ugJ8
MKhFkPECAwEAAaOB8zCB8DAVBglghkgBhvhCAQ0ECBYGQ0EgU1NMMBIGA1UdEwEB
/wQIMAYBAf8CAQAwHQYDVR0OBBYEFA/fQ8PEwo/n23tfp/+37W23sA1LMHkGA1Ud
IwRyMHCAFPfxRxMOMg0cYYWVyrHjN+7FJHDqoVSkUjBQMQswCQYDVQQGEwJGUjEM
MAoGA1UECBMDaWRmMQ4wDAYDVQQHEwVwYXJpczEPMA0GA1UEChMGVml0YW0uMRIw
EAYDVQQDFAlDQV9zZXJ2ZXKCAgDCMAkGA1UdEgQCMAAwCwYDVR0PBAQDAgEGMBEG
CWCGSAGG+EIBAQQEAwICBDANBgkqhkiG9w0BAQsFAANBABhuLXMu+9dRtqXG6FNZ
/5PyIlo3iD8U9sWmYOUrDknK+QMeT4ffLeDA0t/i10jtzlmV75aLBbuxT/cmGILj
AcI=
-----END CERTIFICATE-----
