Certificate:
    Data:
        Version: 3 (0x2)
        Serial Number: 268 (0x10c)
        Signature Algorithm: sha256WithRSAEncryption
        Issuer: C=fr, ST=idf, L=paris, O=vitam, OU=authorities, CN=ca_root_server
        Validity
            Not Before: Sep 15 12:58:43 2020 GMT
            Not After : Dec 31 23:59:59 9999 GMT
        Subject: C=fr, ST=idf, L=paris, O=vitam, OU=authorities, CN=ca_intermediate_server
        Subject Public Key Info:
            Public Key Algorithm: rsaEncryption
                RSA Public-Key: (4096 bit)
                Modulus:
                    00:ce:c1:e8:6a:49:f7:9d:46:ec:fc:bd:27:ed:64:
                    ed:1a:6b:25:0b:e9:79:75:b9:7f:6e:c1:0b:5b:9e:
                    98:b4:73:02:85:f7:dc:7c:a5:a9:4a:2c:e1:c3:c0:
                    08:44:da:ec:bc:54:71:da:3e:30:96:cb:f4:7d:aa:
                    79:79:1c:dc:df:1e:f3:0b:45:4f:a1:46:fd:15:d5:
                    2b:b0:a7:ec:b1:49:21:74:bc:f0:69:91:9f:89:ed:
                    6d:2b:ae:8d:96:34:f8:e2:0b:d3:f2:8c:ed:b1:fc:
                    0a:a5:bb:e2:7b:af:e0:57:66:12:a1:18:f9:b0:72:
                    8a:ec:3f:58:c2:19:a3:ca:46:3c:52:e5:a2:3c:cd:
                    f1:8b:0d:c1:9f:ed:c6:8b:5f:66:63:aa:cc:91:e2:
                    93:69:c5:3e:d7:1c:0b:27:36:e6:b3:7c:21:5b:b6:
                    73:87:39:df:bf:f0:98:8d:17:32:70:18:56:fc:16:
                    b5:62:52:2d:bc:c0:44:fa:c5:91:ee:11:26:10:12:
                    36:d7:9f:ab:33:e4:70:53:ee:3a:68:7e:45:01:89:
                    2a:21:04:a8:00:20:e1:60:93:07:eb:04:76:fe:1f:
                    07:b3:14:3a:c5:de:a3:87:22:36:72:46:5f:92:bf:
                    ca:0d:07:3e:d5:f1:f1:7f:c4:2a:37:2a:44:68:82:
                    0e:d2:5a:8b:7c:91:b3:c7:d9:94:bc:33:64:9d:7f:
                    eb:96:a8:7b:94:54:aa:77:72:89:77:d0:73:2b:ca:
                    df:e9:03:4f:9b:ae:0a:22:03:ee:c8:4a:83:90:f6:
                    e5:f9:e1:12:10:05:dc:97:5e:49:fb:6e:3e:b4:ac:
                    41:01:6f:d6:7d:d8:40:a4:dd:1e:2f:95:5f:be:c3:
                    86:14:ae:e0:06:05:c6:2f:80:b0:ae:9a:cd:83:1d:
                    e1:58:a5:12:ce:82:85:ee:c1:1e:de:fd:73:ad:b4:
                    61:1a:8e:82:8e:cb:70:37:b4:9a:c0:05:c3:6b:04:
                    e9:51:ee:9c:60:f6:7c:18:1e:f8:1f:aa:06:a8:32:
                    8d:b0:5e:f7:5f:92:8c:aa:94:78:9a:cc:29:07:5b:
                    a9:c1:bf:e0:96:23:80:eb:f0:12:4e:53:70:03:55:
                    7d:81:b4:77:18:74:bd:6a:12:10:9f:87:52:51:c5:
                    cb:3d:b2:63:2e:f1:ff:f6:c6:dd:d5:24:6d:f8:92:
                    e5:05:12:0b:9e:88:e5:38:84:9b:82:94:21:da:98:
                    48:ec:2f:0a:04:e4:a8:09:e6:7d:fc:12:17:af:c3:
                    d8:d1:35:78:a1:c7:f7:6b:18:c6:d8:66:51:f4:4f:
                    0b:04:3f:fe:e7:53:dd:eb:1e:22:ca:8f:99:35:c6:
                    99:59:f9
                Exponent: 65537 (0x10001)
        X509v3 extensions:
            Netscape Comment: 
                CA Intermediate
            X509v3 Subject Key Identifier: 
                1F:AF:74:D4:61:D2:39:20:7E:C2:D6:67:C2:59:66:BB:EA:26:0E:9F
            X509v3 Authority Key Identifier: 
                keyid:ED:4D:09:6E:B4:3D:04:C0:20:C1:61:96:39:CF:79:69:B6:B4:FD:04
                DirName:/C=fr/ST=idf/L=paris/O=vitam/OU=authorities/CN=ca_root_server
                serial:01:0B

            X509v3 Basic Constraints: critical
                CA:TRUE, pathlen:0
            X509v3 Issuer Alternative Name: 
                <EMPTY>

            X509v3 Key Usage: 
                Certificate Sign, CRL Sign
            Netscape Cert Type: 
                SSL CA
    Signature Algorithm: sha256WithRSAEncryption
         65:e6:07:be:41:a4:a5:02:2d:d6:d1:3f:3b:0f:1c:d6:a8:a2:
         ee:0b:e5:fc:9f:60:5d:a1:48:e5:29:e2:73:56:fc:62:82:7c:
         72:61:a7:05:24:11:22:11:b2:d8:b9:65:52:9b:33:68:e2:ad:
         44:6c:ad:1a:31:b4:fe:df:bb:3f:46:a7:9e:45:54:64:22:45:
         26:d5:48:6b:16:4e:af:f7:65:b5:28:5a:57:44:d7:f4:1e:47:
         c0:18:16:20:99:8f:94:81:d0:29:4d:fa:5f:0f:21:cd:10:c2:
         5a:4d:12:e9:4a:b5:91:99:f7:71:0c:6a:fb:ac:77:b7:28:09:
         50:e4:36:46:a7:c9:bc:c0:25:15:a4:78:2c:fd:56:ac:77:c8:
         35:d9:d4:24:21:ed:8a:f7:bd:37:15:9c:8e:61:b6:a9:b3:26:
         7d:03:01:f3:17:6c:59:9c:88:8c:8b:08:9c:a2:df:20:56:11:
         80:04:f5:c0:79:92:cc:3d:a5:f7:d6:84:aa:fa:fd:d9:ce:80:
         af:c8:22:ab:25:ef:76:77:c2:f1:cf:41:49:4e:7a:be:7e:fc:
         d4:97:1b:8c:43:b6:ee:6a:87:8a:fc:0f:e2:fa:d6:40:53:47:
         05:6f:3d:82:7e:ab:df:3c:9b:d5:0e:06:02:18:b4:fa:f0:9f:
         06:d9:2f:3b:d8:b0:b0:b9:4a:48:b1:73:02:a7:4c:ed:8d:7b:
         74:a7:46:84:32:df:f9:d8:c4:06:ca:f5:db:b2:96:26:7a:da:
         b6:f3:ae:03:cb:8e:2c:21:7f:7b:0b:57:92:f4:60:47:ea:1a:
         91:b8:83:3f:2b:59:35:7c:a3:97:f1:ac:6b:fb:de:4d:33:fe:
         11:24:42:82:a5:57:12:52:ab:f4:f7:ff:7e:81:86:a6:35:40:
         0f:34:77:72:cf:be:73:38:85:13:ad:50:38:fd:9d:3b:4c:c9:
         30:2b:95:26:c2:16:74:67:bd:e7:bc:c9:f3:c0:61:9b:f2:34:
         f3:75:87:47:d7:af:27:69:ce:12:ec:de:12:75:bb:f2:bc:91:
         db:8a:14:ed:23:bd:c0:62:95:9b:55:1f:a5:f7:cd:42:a1:2b:
         f6:58:cc:fd:c8:b8:01:6a:44:31:73:8a:11:78:65:39:80:5f:
         a0:dd:50:e9:d7:80:c6:be:5a:95:0d:ab:e8:a6:79:95:70:89:
         17:f4:65:7e:71:11:9b:c7:c3:58:53:c8:9d:9a:92:c4:77:23:
         36:30:4b:51:20:90:9e:3d:6a:19:f7:59:85:c0:1c:d6:d5:59:
         3a:77:3f:fb:ae:4f:d6:ba:e0:57:d5:16:71:dc:48:fc:1f:9c:
         24:d9:38:93:b2:dc:af:84
-----BEGIN CERTIFICATE-----
MIIGdjCCBF6gAwIBAgICAQwwDQYJKoZIhvcNAQELBQAwajELMAkGA1UEBhMCZnIx
DDAKBgNVBAgMA2lkZjEOMAwGA1UEBwwFcGFyaXMxDjAMBgNVBAoMBXZpdGFtMRQw
EgYDVQQLDAthdXRob3JpdGllczEXMBUGA1UEAwwOY2Ffcm9vdF9zZXJ2ZXIwIBcN
MjAwOTE1MTI1ODQzWhgPOTk5OTEyMzEyMzU5NTlaMHIxCzAJBgNVBAYTAmZyMQww
CgYDVQQIDANpZGYxDjAMBgNVBAcMBXBhcmlzMQ4wDAYDVQQKDAV2aXRhbTEUMBIG
A1UECwwLYXV0aG9yaXRpZXMxHzAdBgNVBAMMFmNhX2ludGVybWVkaWF0ZV9zZXJ2
ZXIwggIiMA0GCSqGSIb3DQEBAQUAA4ICDwAwggIKAoICAQDOwehqSfedRuz8vSft
ZO0aayUL6Xl1uX9uwQtbnpi0cwKF99x8palKLOHDwAhE2uy8VHHaPjCWy/R9qnl5
HNzfHvMLRU+hRv0V1Suwp+yxSSF0vPBpkZ+J7W0rro2WNPjiC9PyjO2x/Aqlu+J7
r+BXZhKhGPmwcorsP1jCGaPKRjxS5aI8zfGLDcGf7caLX2ZjqsyR4pNpxT7XHAsn
NuazfCFbtnOHOd+/8JiNFzJwGFb8FrViUi28wET6xZHuESYQEjbXn6sz5HBT7jpo
fkUBiSohBKgAIOFgkwfrBHb+HwezFDrF3qOHIjZyRl+Sv8oNBz7V8fF/xCo3KkRo
gg7SWot8kbPH2ZS8M2Sdf+uWqHuUVKp3col30HMryt/pA0+brgoiA+7ISoOQ9uX5
4RIQBdyXXkn7bj60rEEBb9Z92ECk3R4vlV++w4YUruAGBcYvgLCums2DHeFYpRLO
goXuwR7e/XOttGEajoKOy3A3tJrABcNrBOlR7pxg9nwYHvgfqgaoMo2wXvdfkoyq
lHiazCkHW6nBv+CWI4Dr8BJOU3ADVX2BtHcYdL1qEhCfh1JRxcs9smMu8f/2xt3V
JG34kuUFEgueiOU4hJuClCHamEjsLwoE5KgJ5n38Ehevw9jRNXihx/drGMbYZlH0
TwsEP/7nU93rHiLKj5k1xplZ+QIDAQABo4IBGjCCARYwHgYJYIZIAYb4QgENBBEW
D0NBIEludGVybWVkaWF0ZTAdBgNVHQ4EFgQUH6901GHSOSB+wtZnwllmu+omDp8w
gZUGA1UdIwSBjTCBioAU7U0JbrQ9BMAgwWGWOc95aba0/QShbqRsMGoxCzAJBgNV
BAYTAmZyMQwwCgYDVQQIDANpZGYxDjAMBgNVBAcMBXBhcmlzMQ4wDAYDVQQKDAV2
aXRhbTEUMBIGA1UECwwLYXV0aG9yaXRpZXMxFzAVBgNVBAMMDmNhX3Jvb3Rfc2Vy
dmVyggIBCzASBgNVHRMBAf8ECDAGAQH/AgEAMAkGA1UdEgQCMAAwCwYDVR0PBAQD
AgEGMBEGCWCGSAGG+EIBAQQEAwICBDANBgkqhkiG9w0BAQsFAAOCAgEAZeYHvkGk
pQIt1tE/Ow8c1qii7gvl/J9gXaFI5Snic1b8YoJ8cmGnBSQRIhGy2LllUpszaOKt
RGytGjG0/t+7P0annkVUZCJFJtVIaxZOr/dltShaV0TX9B5HwBgWIJmPlIHQKU36
Xw8hzRDCWk0S6Uq1kZn3cQxq+6x3tygJUOQ2RqfJvMAlFaR4LP1WrHfINdnUJCHt
ive9NxWcjmG2qbMmfQMB8xdsWZyIjIsInKLfIFYRgAT1wHmSzD2l99aEqvr92c6A
r8giqyXvdnfC8c9BSU56vn781JcbjEO27mqHivwP4vrWQFNHBW89gn6r3zyb1Q4G
Ahi0+vCfBtkvO9iwsLlKSLFzAqdM7Y17dKdGhDLf+djEBsr127KWJnratvOuA8uO
LCF/ewtXkvRgR+oakbiDPytZNXyjl/Gsa/veTTP+ESRCgqVXElKr9Pf/foGGpjVA
DzR3cs++cziFE61QOP2dO0zJMCuVJsIWdGe957zJ88Bhm/I083WHR9evJ2nOEuze
EnW78ryR24oU7SO9wGKVm1UfpffNQqEr9ljM/ci4AWpEMXOKEXhlOYBfoN1Q6deA
xr5alQ2r6KZ5lXCJF/RlfnERm8fDWFPInZqSxHcjNjBLUSCQnj1qGfdZhcAc1tVZ
Onc/+65P1rrgV9UWcdxI/B+cJNk4k7Lcr4Q=
-----END CERTIFICATE-----
