Certificate:
    Data:
        Version: 3 (0x2)
        Serial Number: 219 (0xdb)
    Signature Algorithm: sha256WithRSAEncryption
        Issuer: C=fr, ST=idf, L=paris, O=vitam, OU=authorities, CN=ca_root_server
        Validity
            Not Before: Feb 21 16:34:50 2018 GMT
            Not After : Feb 19 16:34:50 2028 GMT
        Subject: C=fr, ST=idf, L=paris, O=vitam, OU=authorities, CN=ca_intermediate_server
        Subject Public Key Info:
            Public Key Algorithm: rsaEncryption
                Public-Key: (4096 bit)
                Modulus:
                    00:ea:da:a5:4e:f4:08:0c:e3:da:40:f2:5e:6d:3f:
                    0e:d8:d5:67:1c:07:f8:39:84:67:8d:6f:5f:a6:31:
                    8a:0d:a1:88:fc:d1:a7:e1:45:5d:d7:5a:14:a8:5b:
                    ff:ca:95:b0:9d:9a:51:bf:17:5d:2c:8d:47:f1:03:
                    97:0a:ec:28:2d:cb:39:39:b1:e2:37:5c:71:0e:17:
                    a1:c1:7b:fd:c5:ab:1e:7e:76:8a:00:13:b8:eb:39:
                    1b:bb:29:41:22:a5:f9:02:ca:f5:47:5a:d9:2e:a0:
                    0c:65:18:db:8a:12:33:3c:73:72:d8:80:66:c0:fb:
                    14:18:14:bd:87:b1:7a:e5:2a:7f:df:54:41:b2:fb:
                    cd:23:26:85:e7:7c:1b:17:cb:0e:8a:0a:3e:3c:3b:
                    58:69:21:a3:46:23:b8:8e:7c:b1:d7:bc:70:25:c7:
                    77:3f:22:d9:69:5c:11:5b:be:9e:fc:0b:49:ff:2e:
                    c0:35:0a:70:d2:2c:11:84:ce:c7:4d:19:7c:2d:2c:
                    0b:94:91:fb:c6:6e:3a:ad:9b:71:4e:0c:da:9a:d3:
                    25:fe:9e:17:18:5c:ab:d8:91:59:9a:14:cb:c7:76:
                    e4:0d:30:da:a1:67:d4:a1:25:4a:6e:69:6f:30:b0:
                    bc:37:63:93:6c:b2:a8:59:42:3d:a3:10:dd:89:4a:
                    d6:05:d3:c0:1b:d9:76:7e:75:3a:87:8c:ca:ec:8f:
                    39:7c:9b:63:3f:de:e1:aa:88:33:fc:2f:15:45:1a:
                    d3:6b:be:60:07:c4:8e:ba:7b:05:b1:6c:8f:bb:9a:
                    eb:87:06:21:46:10:df:d3:57:73:f7:b5:69:a7:79:
                    22:14:96:22:8c:21:9f:9d:c8:36:8b:3c:ca:27:4f:
                    b1:e4:fb:3c:43:08:78:26:49:ab:94:9b:72:a3:70:
                    5a:c0:ef:21:23:33:90:9f:fa:80:ca:38:54:37:d7:
                    73:0a:20:ff:41:3c:95:cc:0b:79:40:17:4a:16:ba:
                    b5:fc:bb:22:3e:41:16:08:85:ef:d0:a8:e4:b4:7a:
                    d2:f0:e6:a0:7e:7a:09:2b:67:b6:30:d1:8b:8f:0f:
                    f5:d1:12:71:b8:61:2f:92:c2:df:6d:36:a1:75:71:
                    ef:76:68:6d:50:6a:c3:21:3a:4b:3e:70:38:47:68:
                    84:09:c0:5d:f9:30:62:21:87:59:3d:16:25:40:e5:
                    85:64:67:c0:7e:f2:be:ba:b4:8f:1c:92:f6:e0:ac:
                    01:12:b3:54:54:07:9a:c7:c6:80:8d:70:9d:e5:92:
                    8f:ca:02:86:c3:50:17:64:bf:1c:a2:42:64:c8:c1:
                    81:ea:95:ff:05:aa:b3:19:76:d0:7a:28:8c:b7:c6:
                    4f:17:6d
                Exponent: 65537 (0x10001)
        X509v3 extensions:
            Netscape Comment: 
                CA Intermediate
            X509v3 Subject Key Identifier: 
                6D:B1:F2:D5:CE:0E:93:60:CE:FD:D3:91:D2:23:ED:95:21:BB:D5:0C
            X509v3 Authority Key Identifier: 
                keyid:5A:ED:43:97:F7:9B:09:EA:35:3B:3D:72:B0:01:41:D6:30:9F:7C:1B
                DirName:/C=fr/ST=idf/L=paris/O=vitam/OU=authorities/CN=ca_root_server
                serial:DA

            X509v3 Basic Constraints: critical
                CA:TRUE, pathlen:0
            X509v3 Issuer Alternative Name: 
                <EMPTY>

            X509v3 Key Usage: 
                Certificate Sign, CRL Sign
            Netscape Cert Type: 
                SSL CA
    Signature Algorithm: sha256WithRSAEncryption
         92:a3:39:bb:77:7c:9e:cd:b4:51:b4:d5:83:f9:33:d4:00:65:
         09:ca:b3:42:b8:93:d2:0a:b8:73:2d:4f:a1:5f:81:10:98:2c:
         40:b4:0c:e0:58:0a:79:db:7a:7b:62:f2:60:42:58:89:e1:0d:
         98:f6:43:40:ce:16:f9:10:56:58:29:3d:cb:f1:8f:6a:ce:f8:
         fa:d0:6e:89:5e:9d:4a:30:7c:6f:be:c1:9c:a5:59:a0:6f:aa:
         3a:af:92:a1:87:84:93:7f:a2:78:70:f8:a3:23:c1:66:0a:6d:
         d5:b2:e2:61:32:72:92:d2:99:ba:9a:45:e4:23:b8:28:50:be:
         50:68:9f:85:73:0c:bc:62:bf:4f:7e:17:5a:e3:b1:fa:d9:08:
         be:92:44:64:a2:b1:19:d3:49:57:ed:7b:7e:20:81:20:9b:86:
         6f:ad:d7:e0:e7:8f:37:53:80:13:f7:0e:64:71:8b:0e:e0:a0:
         ca:33:2d:80:dd:3e:b1:68:cb:21:48:61:03:78:54:94:3f:86:
         53:c1:2a:be:04:2e:26:88:e6:ea:a6:dd:13:79:4e:8f:15:65:
         df:38:35:02:5a:2b:1c:7a:34:75:19:f4:9f:8d:02:c6:b9:d5:
         a4:a9:27:db:8f:7c:bd:14:ba:7f:07:91:0a:42:89:24:d1:5f:
         98:71:11:06:45:28:81:90:c0:9c:87:46:c2:0a:86:21:c6:11:
         62:cd:b5:02:a1:46:1c:5a:a5:35:fe:5c:a4:8f:79:e9:08:eb:
         df:39:7b:a8:bd:0f:73:17:14:ea:03:17:32:26:84:b6:da:e8:
         1c:5c:09:87:89:fd:9e:d1:a0:2b:c8:67:c5:ac:f3:1f:16:7c:
         be:1f:25:55:a9:31:e0:15:ab:c5:d9:79:2a:31:74:c9:66:41:
         30:94:fe:10:48:0f:0e:3f:64:68:74:4a:3e:46:66:36:14:76:
         af:34:be:40:c7:4e:de:4f:b1:cc:6c:62:ac:d3:f4:ba:1f:9f:
         56:bb:c4:b9:43:48:b1:f0:92:0f:c2:96:44:b7:cf:a7:ab:df:
         29:af:af:57:9f:4c:ed:66:19:f5:ed:92:37:6b:9d:40:b8:46:
         ed:68:a5:73:fb:9d:4d:ae:ae:d8:71:eb:16:30:63:84:a7:e8:
         d8:0f:25:ae:5e:21:c3:ed:a6:33:86:7e:8a:f7:72:8c:03:18:
         93:02:20:f3:f3:f6:a9:83:1f:0e:fa:2b:45:2d:4b:65:a5:e4:
         11:18:6e:2f:31:f8:69:35:41:c9:91:a9:1b:e1:0b:ff:7f:59:
         50:de:c6:2c:b6:73:38:b2:3f:9c:0a:af:60:04:91:fe:2c:e4:
         4d:ee:55:fa:b8:69:93:ff
-----BEGIN CERTIFICATE-----
MIIGdDCCBFygAwIBAgICANswDQYJKoZIhvcNAQELBQAwajELMAkGA1UEBhMCZnIx
DDAKBgNVBAgMA2lkZjEOMAwGA1UEBwwFcGFyaXMxDjAMBgNVBAoMBXZpdGFtMRQw
EgYDVQQLDAthdXRob3JpdGllczEXMBUGA1UEAwwOY2Ffcm9vdF9zZXJ2ZXIwHhcN
MTgwMjIxMTYzNDUwWhcNMjgwMjE5MTYzNDUwWjByMQswCQYDVQQGEwJmcjEMMAoG
A1UECAwDaWRmMQ4wDAYDVQQHDAVwYXJpczEOMAwGA1UECgwFdml0YW0xFDASBgNV
BAsMC2F1dGhvcml0aWVzMR8wHQYDVQQDDBZjYV9pbnRlcm1lZGlhdGVfc2VydmVy
MIICIjANBgkqhkiG9w0BAQEFAAOCAg8AMIICCgKCAgEA6tqlTvQIDOPaQPJebT8O
2NVnHAf4OYRnjW9fpjGKDaGI/NGn4UVd11oUqFv/ypWwnZpRvxddLI1H8QOXCuwo
Lcs5ObHiN1xxDhehwXv9xasefnaKABO46zkbuylBIqX5Asr1R1rZLqAMZRjbihIz
PHNy2IBmwPsUGBS9h7F65Sp/31RBsvvNIyaF53wbF8sOigo+PDtYaSGjRiO4jnyx
17xwJcd3PyLZaVwRW76e/AtJ/y7ANQpw0iwRhM7HTRl8LSwLlJH7xm46rZtxTgza
mtMl/p4XGFyr2JFZmhTLx3bkDTDaoWfUoSVKbmlvMLC8N2OTbLKoWUI9oxDdiUrW
BdPAG9l2fnU6h4zK7I85fJtjP97hqogz/C8VRRrTa75gB8SOunsFsWyPu5rrhwYh
RhDf01dz97Vpp3kiFJYijCGfncg2izzKJ0+x5Ps8Qwh4JkmrlJtyo3BawO8hIzOQ
n/qAyjhUN9dzCiD/QTyVzAt5QBdKFrq1/LsiPkEWCIXv0KjktHrS8OagfnoJK2e2
MNGLjw/10RJxuGEvksLfbTahdXHvdmhtUGrDITpLPnA4R2iECcBd+TBiIYdZPRYl
QOWFZGfAfvK+urSPHJL24KwBErNUVAeax8aAjXCd5ZKPygKGw1AXZL8cokJkyMGB
6pX/BaqzGXbQeiiMt8ZPF20CAwEAAaOCARowggEWMB4GCWCGSAGG+EIBDQQRFg9D
QSBJbnRlcm1lZGlhdGUwHQYDVR0OBBYEFG2x8tXODpNgzv3TkdIj7ZUhu9UMMIGV
BgNVHSMEgY0wgYqAFFrtQ5f3mwnqNTs9crABQdYwn3wboW6kbDBqMQswCQYDVQQG
EwJmcjEMMAoGA1UECAwDaWRmMQ4wDAYDVQQHDAVwYXJpczEOMAwGA1UECgwFdml0
YW0xFDASBgNVBAsMC2F1dGhvcml0aWVzMRcwFQYDVQQDDA5jYV9yb290X3NlcnZl
coICANowEgYDVR0TAQH/BAgwBgEB/wIBADAJBgNVHRIEAjAAMAsGA1UdDwQEAwIB
BjARBglghkgBhvhCAQEEBAMCAgQwDQYJKoZIhvcNAQELBQADggIBAJKjObt3fJ7N
tFG01YP5M9QAZQnKs0K4k9IKuHMtT6FfgRCYLEC0DOBYCnnbenti8mBCWInhDZj2
Q0DOFvkQVlgpPcvxj2rO+PrQbolenUowfG++wZylWaBvqjqvkqGHhJN/onhw+KMj
wWYKbdWy4mEycpLSmbqaReQjuChQvlBon4VzDLxiv09+F1rjsfrZCL6SRGSisRnT
SVfte34ggSCbhm+t1+DnjzdTgBP3DmRxiw7goMozLYDdPrFoyyFIYQN4VJQ/hlPB
Kr4ELiaI5uqm3RN5To8VZd84NQJaKxx6NHUZ9J+NAsa51aSpJ9uPfL0Uun8HkQpC
iSTRX5hxEQZFKIGQwJyHRsIKhiHGEWLNtQKhRhxapTX+XKSPeekI6985e6i9D3MX
FOoDFzImhLba6BxcCYeJ/Z7RoCvIZ8Ws8x8WfL4fJVWpMeAVq8XZeSoxdMlmQTCU
/hBIDw4/ZGh0Sj5GZjYUdq80vkDHTt5PscxsYqzT9Lofn1a7xLlDSLHwkg/ClkS3
z6er3ymvr1efTO1mGfXtkjdrnUC4Ru1opXP7nU2urthx6xYwY4Sn6NgPJa5eIcPt
pjOGfor3cowDGJMCIPPz9qmDHw76K0UtS2Wl5BEYbi8x+Gk1QcmRqRvhC/9/WVDe
xiy2cziyP5wKr2AEkf4s5E3uVfq4aZP/
-----END CERTIFICATE-----
