Certificate:
    Data:
        Version: 3 (0x2)
        Serial Number: 211 (0xd3)
    Signature Algorithm: sha256WithRSAEncryption
        Issuer: C=fr, ST=idf, L=paris, O=vitam, OU=authorities, CN=ca_root_server
        Validity
            Not Before: Aug  9 16:04:03 2017 GMT
            Not After : Aug  7 16:04:03 2027 GMT
        Subject: C=fr, ST=idf, L=paris, O=vitam, OU=authorities, CN=ca_intermediate_server
        Subject Public Key Info:
            Public Key Algorithm: rsaEncryption
                Public-Key: (4096 bit)
                Modulus:
                    00:96:76:f2:f2:02:b4:36:9b:1e:ea:d3:92:93:13:
                    0b:ce:25:c8:0a:12:de:1e:48:1c:f9:32:a9:13:43:
                    16:df:e4:2e:8a:6d:38:0e:23:f7:6d:2d:32:b9:bf:
                    fc:8b:f7:5a:7c:64:63:a5:ee:4f:be:e7:69:e9:48:
                    ed:9a:54:16:36:3a:85:ff:d4:b8:38:ab:84:36:85:
                    20:1a:9c:9b:79:ea:be:4b:1c:c5:cd:ba:62:51:c0:
                    16:99:83:1c:e6:19:92:bc:4e:5c:99:ea:d9:f8:bf:
                    65:8a:71:48:5f:41:0e:9d:41:28:72:ab:12:d9:bb:
                    c8:e8:58:c3:cc:fc:ea:dc:e8:8b:6d:ae:a3:23:ea:
                    a2:70:6f:1f:ad:b3:b6:e5:5d:ec:e8:a7:19:07:82:
                    91:d9:e8:9a:d6:59:9d:c4:69:dd:73:96:04:41:c7:
                    48:96:5c:b1:c2:93:d6:47:a7:7b:06:92:cd:c2:4b:
                    27:b9:a9:dc:a9:e9:62:a1:c8:99:9f:6a:f8:e5:2b:
                    95:2c:cb:fb:da:79:90:6d:29:bb:b1:3c:d7:d6:f3:
                    c6:e0:38:6e:58:e7:48:8b:45:cc:39:4b:96:75:e8:
                    45:88:e2:aa:4d:e5:f4:01:22:7d:de:04:b2:03:c7:
                    ea:65:89:f6:7c:2d:5e:2d:09:4a:7b:64:7a:4f:0e:
                    a4:bc:26:1e:b7:b9:35:2d:3a:5b:a3:a5:df:73:a1:
                    d5:94:9a:be:41:28:86:74:90:dd:4d:47:1d:7b:8f:
                    6d:7c:27:ce:f3:b1:a7:8a:6f:fd:d4:3b:46:25:10:
                    fe:b9:e4:0e:64:86:98:04:66:7c:d1:9b:20:15:5e:
                    68:42:18:5b:38:4c:c4:59:8e:4d:c5:00:d5:29:ab:
                    7c:c9:ca:0d:c1:ff:7b:99:90:b1:b8:dd:be:5c:55:
                    01:5f:fe:34:84:55:86:85:c8:77:6a:74:00:cb:74:
                    70:f1:5e:9b:25:c0:18:c0:19:88:0e:fb:03:d8:0f:
                    13:41:7c:29:b4:55:03:dd:d6:34:80:44:03:d5:56:
                    64:ab:cf:92:ca:af:76:ce:fa:d0:07:a8:49:b2:18:
                    61:a1:cf:dd:d7:6b:5d:b2:40:35:bb:a2:2c:a4:39:
                    b6:d9:ef:07:74:2b:b2:88:bf:23:6e:97:fa:03:d8:
                    6d:de:c5:45:c7:5c:4f:5e:ed:c3:cb:f8:c3:a6:6a:
                    7a:e9:a5:96:96:12:eb:d4:93:cd:b6:ba:4c:a6:3c:
                    63:ae:18:fc:8e:88:f2:47:f5:37:65:88:7a:4c:91:
                    28:ac:9c:45:d6:6a:c8:e0:17:d7:ac:26:06:8f:d8:
                    04:c9:df:4c:d7:3a:ae:8f:fe:b6:c5:89:d9:e9:1f:
                    b6:db:bd
                Exponent: 65537 (0x10001)
        X509v3 extensions:
            Netscape Comment: 
                CA Intermediate
            X509v3 Subject Key Identifier: 
                FD:29:CE:50:34:CD:B5:E2:30:E7:12:67:BA:2C:7D:5B:E0:D5:F2:2C
            X509v3 Authority Key Identifier: 
                keyid:B0:F6:0D:61:13:C2:9D:EA:57:FB:32:BA:2C:01:33:40:64:A8:0E:64
                DirName:/C=fr/ST=idf/L=paris/O=vitam/OU=authorities/CN=ca_root_server
                serial:D2

            X509v3 Basic Constraints: critical
                CA:TRUE, pathlen:0
            X509v3 Issuer Alternative Name: 
                <EMPTY>

            X509v3 Key Usage: 
                Certificate Sign, CRL Sign
            Netscape Cert Type: 
                SSL CA
    Signature Algorithm: sha256WithRSAEncryption
         91:3a:e9:5e:a5:f6:d8:87:c0:74:76:3a:70:9c:0e:29:29:3c:
         3e:b5:5c:09:bb:c3:9b:76:0a:9d:3d:f7:4a:3c:d5:6f:b5:bd:
         c9:7f:f5:ce:c9:22:49:ca:c5:2e:af:f0:03:c0:81:bc:86:80:
         f7:28:01:c4:57:01:fc:dd:bc:f8:c6:b1:82:44:94:95:97:b4:
         e3:6a:0d:fc:9f:aa:f1:1f:63:9d:f7:40:13:f7:01:f1:f6:a0:
         70:2e:a0:47:3e:98:68:1a:84:c6:ee:1b:70:61:aa:32:46:23:
         be:64:ec:01:1d:cc:35:8e:c2:45:a8:7d:41:ea:78:0b:5d:94:
         02:86:0d:ba:1a:1a:7e:8a:2d:ac:a4:3d:ef:4e:40:9a:7b:d8:
         c3:a3:d0:a0:86:27:fc:ec:5b:be:66:3b:69:bf:16:20:ce:bd:
         cd:69:70:44:10:45:36:37:c2:0f:82:63:ea:05:da:56:53:d8:
         68:16:e3:55:b5:9e:ae:71:83:a3:b1:17:9e:6e:59:c2:b0:b5:
         a2:35:ee:c0:f2:66:39:9a:48:ac:82:43:15:6f:20:a7:b3:a4:
         c3:e0:2f:74:45:45:27:d4:68:0d:33:c4:17:1c:bd:d3:78:75:
         54:b0:ed:f9:cd:98:f2:9b:37:f2:5e:19:4d:5d:72:b0:88:2b:
         1c:ca:fb:22:88:97:8c:c1:6c:71:58:eb:2c:b2:9b:2d:cb:24:
         69:1f:03:06:2f:e5:24:2a:e0:5a:19:3c:04:5e:d1:b6:81:85:
         0e:1f:d1:1a:33:2c:39:bb:bf:6b:3a:cf:bb:4f:6b:80:b1:15:
         44:00:29:7e:2e:7f:d6:21:1d:3a:1b:da:77:e5:37:f3:02:41:
         d5:1f:3c:e8:9a:b3:9f:32:dd:e3:d9:5d:27:13:13:24:02:b5:
         84:b5:09:fc:41:b6:14:87:8d:3f:5e:52:2a:ff:84:37:50:b6:
         7d:fb:82:af:1e:b8:43:6c:49:56:ba:6a:66:9e:25:3b:0d:fa:
         72:9c:80:c1:cb:d5:d0:4c:a4:56:ea:8d:5c:73:d1:87:fc:2f:
         04:e5:80:87:e5:44:36:c3:f4:0c:d6:3c:58:33:6f:01:5d:75:
         b2:2c:eb:07:ea:eb:6e:3a:a5:8b:77:bd:4a:ce:42:63:95:00:
         ac:aa:3a:fd:a4:25:80:e3:2c:4b:25:08:be:82:68:36:19:2c:
         b8:f7:f2:6d:39:51:5b:a1:84:5f:be:a7:f5:35:69:ad:fd:42:
         b5:4d:4e:20:38:df:e9:e5:0a:11:9d:6a:4c:f5:32:69:5f:e0:
         5f:85:1b:bd:a8:a2:ba:91:8b:2a:93:43:52:5d:ea:b2:be:5a:
         97:46:dd:6c:86:17:cf:50
-----BEGIN CERTIFICATE-----
MIIGdDCCBFygAwIBAgICANMwDQYJKoZIhvcNAQELBQAwajELMAkGA1UEBhMCZnIx
DDAKBgNVBAgMA2lkZjEOMAwGA1UEBwwFcGFyaXMxDjAMBgNVBAoMBXZpdGFtMRQw
EgYDVQQLDAthdXRob3JpdGllczEXMBUGA1UEAwwOY2Ffcm9vdF9zZXJ2ZXIwHhcN
MTcwODA5MTYwNDAzWhcNMjcwODA3MTYwNDAzWjByMQswCQYDVQQGEwJmcjEMMAoG
A1UECAwDaWRmMQ4wDAYDVQQHDAVwYXJpczEOMAwGA1UECgwFdml0YW0xFDASBgNV
BAsMC2F1dGhvcml0aWVzMR8wHQYDVQQDDBZjYV9pbnRlcm1lZGlhdGVfc2VydmVy
MIICIjANBgkqhkiG9w0BAQEFAAOCAg8AMIICCgKCAgEAlnby8gK0Npse6tOSkxML
ziXIChLeHkgc+TKpE0MW3+Quim04DiP3bS0yub/8i/dafGRjpe5Pvudp6UjtmlQW
NjqF/9S4OKuENoUgGpybeeq+SxzFzbpiUcAWmYMc5hmSvE5cmerZ+L9linFIX0EO
nUEocqsS2bvI6FjDzPzq3OiLba6jI+qicG8frbO25V3s6KcZB4KR2eia1lmdxGnd
c5YEQcdIllyxwpPWR6d7BpLNwksnuancqeliociZn2r45SuVLMv72nmQbSm7sTzX
1vPG4DhuWOdIi0XMOUuWdehFiOKqTeX0ASJ93gSyA8fqZYn2fC1eLQlKe2R6Tw6k
vCYet7k1LTpbo6Xfc6HVlJq+QSiGdJDdTUcde49tfCfO87Gnim/91DtGJRD+ueQO
ZIaYBGZ80ZsgFV5oQhhbOEzEWY5NxQDVKat8ycoNwf97mZCxuN2+XFUBX/40hFWG
hch3anQAy3Rw8V6bJcAYwBmIDvsD2A8TQXwptFUD3dY0gEQD1VZkq8+Syq92zvrQ
B6hJshhhoc/d12tdskA1u6IspDm22e8HdCuyiL8jbpf6A9ht3sVFx1xPXu3Dy/jD
pmp66aWWlhLr1JPNtrpMpjxjrhj8jojyR/U3ZYh6TJEorJxF1mrI4BfXrCYGj9gE
yd9M1zquj/62xYnZ6R+2270CAwEAAaOCARowggEWMB4GCWCGSAGG+EIBDQQRFg9D
QSBJbnRlcm1lZGlhdGUwHQYDVR0OBBYEFP0pzlA0zbXiMOcSZ7osfVvg1fIsMIGV
BgNVHSMEgY0wgYqAFLD2DWETwp3qV/syuiwBM0BkqA5koW6kbDBqMQswCQYDVQQG
EwJmcjEMMAoGA1UECAwDaWRmMQ4wDAYDVQQHDAVwYXJpczEOMAwGA1UECgwFdml0
YW0xFDASBgNVBAsMC2F1dGhvcml0aWVzMRcwFQYDVQQDDA5jYV9yb290X3NlcnZl
coICANIwEgYDVR0TAQH/BAgwBgEB/wIBADAJBgNVHRIEAjAAMAsGA1UdDwQEAwIB
BjARBglghkgBhvhCAQEEBAMCAgQwDQYJKoZIhvcNAQELBQADggIBAJE66V6l9tiH
wHR2OnCcDikpPD61XAm7w5t2Cp0990o81W+1vcl/9c7JIknKxS6v8APAgbyGgPco
AcRXAfzdvPjGsYJElJWXtONqDfyfqvEfY533QBP3AfH2oHAuoEc+mGgahMbuG3Bh
qjJGI75k7AEdzDWOwkWofUHqeAtdlAKGDboaGn6KLaykPe9OQJp72MOj0KCGJ/zs
W75mO2m/FiDOvc1pcEQQRTY3wg+CY+oF2lZT2GgW41W1nq5xg6OxF55uWcKwtaI1
7sDyZjmaSKyCQxVvIKezpMPgL3RFRSfUaA0zxBccvdN4dVSw7fnNmPKbN/JeGU1d
crCIKxzK+yKIl4zBbHFY6yyymy3LJGkfAwYv5SQq4FoZPARe0baBhQ4f0RozLDm7
v2s6z7tPa4CxFUQAKX4uf9YhHTob2nflN/MCQdUfPOias58y3ePZXScTEyQCtYS1
CfxBthSHjT9eUir/hDdQtn37gq8euENsSVa6amaeJTsN+nKcgMHL1dBMpFbqjVxz
0Yf8LwTlgIflRDbD9AzWPFgzbwFddbIs6wfq6246pYt3vUrOQmOVAKyqOv2kJYDj
LEslCL6CaDYZLLj38m05UVuhhF++p/U1aa39QrVNTiA43+nlChGdakz1Mmlf4F+F
G72oorqRiyqTQ1Jd6rK+WpdG3WyGF89Q
-----END CERTIFICATE-----
