Certificate:
    Data:
        Version: 3 (0x2)
        Serial Number: 218 (0xda)
    Signature Algorithm: sha256WithRSAEncryption
        Issuer: C=fr, ST=idf, L=paris, O=vitam, OU=authorities, CN=ca_root_server
        Validity
            Not Before: Feb  5 12:46:53 2018 GMT
            Not After : Feb  3 12:46:53 2028 GMT
        Subject: C=fr, ST=idf, L=paris, O=vitam, OU=authorities, CN=ca_root_server
        Subject Public Key Info:
            Public Key Algorithm: rsaEncryption
                Public-Key: (4096 bit)
                Modulus:
                    00:cb:c7:b9:75:56:28:fd:b8:a8:96:62:7a:09:51:
                    3e:01:a9:02:58:b9:ce:83:99:8a:37:66:b7:c3:a9:
                    a8:55:7a:5d:27:d3:dc:d2:66:ef:db:22:ff:30:ff:
                    66:f0:a0:e2:67:01:7b:c2:a2:5c:23:1d:63:7b:a1:
                    e7:96:81:70:ea:a2:2e:94:f1:44:b1:ce:50:92:f6:
                    19:93:fa:70:e3:9e:72:35:c6:c9:6d:16:c2:ae:02:
                    54:8e:89:02:52:8a:e9:88:f2:56:59:4c:43:dc:9e:
                    15:bf:f3:05:5c:8b:1b:9b:f7:1a:9d:cc:bc:e1:7f:
                    40:ae:ae:46:99:93:bd:85:91:b0:05:f9:45:06:41:
                    e3:03:cf:3c:d0:81:9a:99:1d:a7:4d:4e:a6:83:ad:
                    4b:af:5f:f5:b4:8b:4c:a8:e1:6c:2c:b3:18:0c:d6:
                    4e:9c:ce:44:49:52:e0:ce:ba:6f:77:88:17:11:eb:
                    99:4d:b7:14:e1:06:44:f9:a7:1d:81:32:5e:84:20:
                    4b:56:c2:bd:9e:81:f7:b8:80:8a:2d:4e:bf:16:3f:
                    e3:ba:24:44:f6:32:fd:33:2a:82:55:b3:55:15:06:
                    2a:e9:48:8f:82:7f:63:7d:20:94:09:c2:06:36:78:
                    77:41:41:69:e7:89:c4:0c:c6:a1:5f:e6:a7:df:6d:
                    98:2a:32:69:f1:fb:8f:3f:23:51:c5:5d:c6:aa:67:
                    6c:cd:60:9d:84:f6:49:02:f7:e0:c6:b1:0f:e7:26:
                    38:fa:be:e8:fe:5e:00:0c:6b:15:96:06:7c:63:66:
                    d8:6d:a5:4f:39:89:9f:2e:b9:91:61:d2:8a:5b:d9:
                    a4:61:9a:ef:91:6a:e3:e5:73:e1:07:a7:0a:3d:b7:
                    d8:2b:d4:6f:01:62:4e:cb:12:f2:1d:51:02:e1:e8:
                    db:3f:a5:d6:24:d1:b4:a6:d9:d4:8f:67:be:14:87:
                    86:db:a4:5a:29:24:b0:bc:a2:c4:f1:e7:27:0c:32:
                    1e:60:60:b4:37:fd:15:13:4b:71:c3:b9:5f:fe:aa:
                    66:f4:1b:77:e9:85:ba:55:6a:72:5c:bc:4f:b4:2a:
                    9c:6f:41:8e:16:fd:84:c9:b1:ad:04:5f:5d:c5:07:
                    ed:7f:22:c3:ee:52:be:e0:06:09:27:1f:48:f3:d4:
                    4e:30:0b:37:60:0e:1d:b4:12:6e:bf:d9:27:4e:37:
                    28:87:0a:ef:bf:16:23:db:db:51:a1:c8:e2:7c:03:
                    f3:dc:92:a2:c9:f2:f6:3e:fe:ca:39:bc:7b:89:e1:
                    c6:d4:95:e7:20:ce:86:db:16:24:50:c8:54:05:42:
                    79:71:76:d8:21:c5:e0:7e:a4:a5:db:25:47:1d:c5:
                    69:5a:0b
                Exponent: 65537 (0x10001)
        X509v3 extensions:
            Netscape Comment: 
                CA Root
            X509v3 Subject Key Identifier: 
                74:E1:62:1A:ED:20:44:B3:EE:46:72:0D:92:AB:CC:56:11:35:09:5B
            X509v3 Authority Key Identifier: 
                keyid:74:E1:62:1A:ED:20:44:B3:EE:46:72:0D:92:AB:CC:56:11:35:09:5B

            X509v3 Basic Constraints: critical
                CA:TRUE, pathlen:1
            X509v3 Key Usage: 
                Certificate Sign, CRL Sign
            Netscape Cert Type: 
                SSL CA
    Signature Algorithm: sha256WithRSAEncryption
         b7:21:6f:b0:b0:fa:68:24:de:90:94:2c:b4:f9:67:ba:51:21:
         6b:75:cb:19:83:7a:7c:ea:3c:39:d1:4f:2a:ad:41:88:d5:2f:
         ea:32:79:59:8b:f3:f2:c8:95:ac:9c:ba:85:57:0a:f3:26:aa:
         8e:05:f4:33:f8:40:38:83:e1:32:f4:fd:64:b8:2c:ee:6f:79:
         81:d6:13:11:42:41:a3:59:30:ea:0a:9d:cb:81:f1:13:22:6d:
         c3:f8:a6:5c:7a:94:1f:36:bc:e0:62:f2:e2:f4:77:ef:55:b9:
         0e:51:b9:57:b9:25:f8:fc:90:42:8b:90:81:04:ee:e9:98:40:
         fb:8d:63:30:4d:0f:01:20:f5:f7:d6:4f:26:e1:da:1d:22:63:
         9b:7d:e5:65:86:0b:66:8d:50:ab:f0:50:36:18:4e:fe:f0:29:
         0c:42:64:35:92:a8:75:9f:48:53:0a:23:b1:5d:3e:5b:fe:a5:
         b1:95:bb:76:a2:92:68:38:e3:24:3a:93:74:67:c6:50:46:81:
         4b:97:3f:30:ec:00:c9:e5:53:15:f7:d5:24:34:dd:17:db:42:
         64:ab:d6:4c:18:d8:07:93:c8:4f:d4:1c:fd:31:ba:86:8f:19:
         8d:51:1e:22:10:2b:6d:ea:01:79:2c:7f:81:2e:77:8c:56:ea:
         a6:36:24:01:5b:a8:23:e6:c6:f7:a9:4b:03:55:69:b1:38:a9:
         1f:3d:f8:8c:64:7e:48:e5:64:f6:10:b5:c8:c7:fc:c3:81:ce:
         46:b1:f4:99:98:ad:81:91:3b:c1:65:20:a1:a4:96:f4:95:b9:
         64:f0:51:db:ea:ce:67:b4:b1:fe:a1:fb:cf:0c:1f:80:59:ce:
         de:34:3f:6e:33:ca:fb:5b:5b:2c:51:78:fe:0a:d2:78:4a:aa:
         6b:ef:63:78:12:fd:a6:82:5d:33:22:49:d7:d0:19:0c:96:d7:
         fd:82:32:9b:58:28:2f:a4:33:c5:8a:a2:76:ec:6f:92:ab:ea:
         59:e7:bf:92:5e:9d:22:c6:57:c3:5a:13:3e:23:7d:02:dc:b1:
         8b:26:81:18:7a:85:0e:91:73:cc:df:72:0b:ce:c2:36:62:5d:
         77:eb:93:f2:43:17:87:94:c5:c9:73:08:ba:ac:f7:ac:26:f8:
         f5:6d:e0:3f:7a:ff:6d:21:9a:5f:08:3d:3f:a1:b4:cd:8e:23:
         f3:aa:8d:18:a3:f1:7a:ec:bd:80:9a:c0:25:af:f1:b1:94:89:
         35:2b:8e:b9:44:f3:92:1f:e6:a1:65:7c:dd:c8:ea:a9:ab:20:
         04:94:a5:f2:72:cf:2f:8d:04:05:d1:c6:e7:fa:71:e4:2a:a3:
         b9:9f:a4:ac:57:09:95:06
-----BEGIN CERTIFICATE-----
MIIF4DCCA8igAwIBAgICANowDQYJKoZIhvcNAQELBQAwajELMAkGA1UEBhMCZnIx
DDAKBgNVBAgMA2lkZjEOMAwGA1UEBwwFcGFyaXMxDjAMBgNVBAoMBXZpdGFtMRQw
EgYDVQQLDAthdXRob3JpdGllczEXMBUGA1UEAwwOY2Ffcm9vdF9zZXJ2ZXIwHhcN
MTgwMjA1MTI0NjUzWhcNMjgwMjAzMTI0NjUzWjBqMQswCQYDVQQGEwJmcjEMMAoG
A1UECAwDaWRmMQ4wDAYDVQQHDAVwYXJpczEOMAwGA1UECgwFdml0YW0xFDASBgNV
BAsMC2F1dGhvcml0aWVzMRcwFQYDVQQDDA5jYV9yb290X3NlcnZlcjCCAiIwDQYJ
KoZIhvcNAQEBBQADggIPADCCAgoCggIBAMvHuXVWKP24qJZieglRPgGpAli5zoOZ
ijdmt8OpqFV6XSfT3NJm79si/zD/ZvCg4mcBe8KiXCMdY3uh55aBcOqiLpTxRLHO
UJL2GZP6cOOecjXGyW0Wwq4CVI6JAlKK6YjyVllMQ9yeFb/zBVyLG5v3Gp3MvOF/
QK6uRpmTvYWRsAX5RQZB4wPPPNCBmpkdp01OpoOtS69f9bSLTKjhbCyzGAzWTpzO
RElS4M66b3eIFxHrmU23FOEGRPmnHYEyXoQgS1bCvZ6B97iAii1OvxY/47okRPYy
/TMqglWzVRUGKulIj4J/Y30glAnCBjZ4d0FBaeeJxAzGoV/mp99tmCoyafH7jz8j
UcVdxqpnbM1gnYT2SQL34MaxD+cmOPq+6P5eAAxrFZYGfGNm2G2lTzmJny65kWHS
ilvZpGGa75Fq4+Vz4QenCj232CvUbwFiTssS8h1RAuHo2z+l1iTRtKbZ1I9nvhSH
htukWikksLyixPHnJwwyHmBgtDf9FRNLccO5X/6qZvQbd+mFulVqcly8T7QqnG9B
jhb9hMmxrQRfXcUH7X8iw+5SvuAGCScfSPPUTjALN2AOHbQSbr/ZJ043KIcK778W
I9vbUaHI4nwD89ySosny9j7+yjm8e4nhxtSV5yDOhtsWJFDIVAVCeXF22CHF4H6k
pdslRx3FaVoLAgMBAAGjgY8wgYwwFgYJYIZIAYb4QgENBAkWB0NBIFJvb3QwHQYD
VR0OBBYEFHThYhrtIESz7kZyDZKrzFYRNQlbMB8GA1UdIwQYMBaAFHThYhrtIESz
7kZyDZKrzFYRNQlbMBIGA1UdEwEB/wQIMAYBAf8CAQEwCwYDVR0PBAQDAgEGMBEG
CWCGSAGG+EIBAQQEAwICBDANBgkqhkiG9w0BAQsFAAOCAgEAtyFvsLD6aCTekJQs
tPlnulEha3XLGYN6fOo8OdFPKq1BiNUv6jJ5WYvz8siVrJy6hVcK8yaqjgX0M/hA
OIPhMvT9ZLgs7m95gdYTEUJBo1kw6gqdy4HxEyJtw/imXHqUHza84GLy4vR371W5
DlG5V7kl+PyQQouQgQTu6ZhA+41jME0PASD199ZPJuHaHSJjm33lZYYLZo1Qq/BQ
NhhO/vApDEJkNZKodZ9IUwojsV0+W/6lsZW7dqKSaDjjJDqTdGfGUEaBS5c/MOwA
yeVTFffVJDTdF9tCZKvWTBjYB5PIT9Qc/TG6ho8ZjVEeIhArbeoBeSx/gS53jFbq
pjYkAVuoI+bG96lLA1VpsTipHz34jGR+SOVk9hC1yMf8w4HORrH0mZitgZE7wWUg
oaSW9JW5ZPBR2+rOZ7Sx/qH7zwwfgFnO3jQ/bjPK+1tbLFF4/grSeEqqa+9jeBL9
poJdMyJJ19AZDJbX/YIym1goL6QzxYqiduxvkqvqWee/kl6dIsZXw1oTPiN9Atyx
iyaBGHqFDpFzzN9yC87CNmJdd+uT8kMXh5TFyXMIuqz3rCb49W3gP3r/bSGaXwg9
P6G0zY4j86qNGKPxeuy9gJrAJa/xsZSJNSuOuUTzkh/moWV83cjqqasgBJSl8nLP
L40EBdHG5/px5CqjuZ+krFcJlQY=
-----END CERTIFICATE-----
