Certificate:
    Data:
        Version: 3 (0x2)
        Serial Number: 199 (0xc7)
    Signature Algorithm: sha256WithRSAEncryption
        Issuer: C=fr, ST=idf, L=paris, O=vitam, OU=authorities, CN=ca_root_server
        Validity
            Not Before: Jul 12 14:29:00 2017 GMT
            Not After : Jul 10 14:29:00 2027 GMT
        Subject: C=fr, ST=idf, L=paris, O=vitam, OU=authorities, CN=ca_root_server
        Subject Public Key Info:
            Public Key Algorithm: rsaEncryption
                Public-Key: (4096 bit)
                Modulus:
                    00:99:45:df:c6:64:30:fb:d6:ef:1c:3d:d4:f2:d8:
                    88:dc:91:bb:a9:76:92:bf:d2:4a:a3:6b:54:52:2c:
                    cf:cd:65:5f:ad:0d:8b:fe:3b:b6:d7:73:c6:d3:04:
                    93:b3:97:3f:2c:84:7a:e4:d3:c3:c1:5c:64:ff:f0:
                    55:c9:2c:ed:85:f5:67:0b:f3:eb:2a:34:4c:0a:83:
                    11:0d:4c:6e:fa:81:58:26:8a:8a:56:fe:a4:08:72:
                    e3:d1:bf:d9:e5:bc:ed:2c:d7:60:a0:b1:ce:1d:61:
                    1e:b6:dc:72:09:d4:de:70:c9:0f:01:11:0d:c1:e4:
                    0a:84:a0:93:5a:1c:4a:04:59:96:4e:e4:b5:3f:cc:
                    db:c8:76:32:30:6b:3d:f5:8f:89:12:f9:3d:5e:9a:
                    00:a9:92:00:1f:24:87:a4:3d:29:63:a0:f5:73:d0:
                    4d:0d:e7:e1:1f:6c:6f:07:8f:01:2e:86:6e:db:a7:
                    36:fe:19:b5:66:0f:24:6b:98:88:27:56:09:79:04:
                    42:54:4b:63:e5:33:fe:77:35:dc:8e:db:a4:6b:08:
                    82:f8:07:9c:66:e7:1b:91:b6:f1:8e:ff:af:f5:c9:
                    ef:e5:fb:50:4f:27:88:49:15:c5:01:b1:a5:3a:43:
                    c1:f8:54:fd:52:a9:cd:39:24:d7:23:fe:4e:ea:50:
                    6f:57:db:83:c5:60:0e:06:f1:75:fa:26:82:88:49:
                    42:3d:f5:5c:06:c1:9f:fc:cf:b6:1e:a0:e6:56:17:
                    72:5a:1e:92:0e:bf:9e:a7:16:ff:b3:88:54:12:9b:
                    59:8e:49:3d:f4:8b:de:c3:4e:e5:f0:29:63:52:bf:
                    da:ad:c7:30:97:b5:2b:f5:1d:95:06:b4:67:cc:9a:
                    f4:23:47:23:a5:57:5f:2b:fb:bd:58:5c:6e:80:34:
                    8e:b3:de:2f:ce:e5:23:2d:af:31:7e:fe:50:fb:04:
                    d6:36:75:51:61:b8:2a:21:7a:4b:bf:a9:a7:41:42:
                    45:42:a8:bd:54:86:3d:1c:78:2f:d2:60:af:d1:f8:
                    53:e0:ba:7a:c8:e0:e6:23:36:20:7f:5a:57:19:e4:
                    dd:4c:1b:e7:b5:77:b7:ac:d3:5a:2a:b0:55:99:9a:
                    37:c0:22:cc:8f:bb:4a:6a:da:45:cd:0e:8f:f5:66:
                    63:b4:6d:38:8d:a3:bc:e6:36:df:44:6e:75:82:a0:
                    fa:ca:05:74:46:d1:f0:1c:0c:87:c3:79:ac:0c:55:
                    98:43:71:6c:20:5c:1c:e3:fb:53:19:90:63:86:1e:
                    46:ac:e1:01:69:ef:b3:1a:ab:d3:2f:d7:7e:be:be:
                    eb:d9:1e:d5:42:b4:ac:d9:b5:bb:87:9f:38:e9:a5:
                    03:4e:af
                Exponent: 65537 (0x10001)
        X509v3 extensions:
            Netscape Comment: 
                CA Root
            X509v3 Subject Key Identifier: 
                BF:9A:3A:FF:34:48:10:6A:20:F1:63:0F:DF:2C:14:45:B9:54:13:CC
            X509v3 Authority Key Identifier: 
                keyid:BF:9A:3A:FF:34:48:10:6A:20:F1:63:0F:DF:2C:14:45:B9:54:13:CC

            X509v3 Basic Constraints: critical
                CA:TRUE, pathlen:1
            X509v3 Key Usage: 
                Certificate Sign, CRL Sign
            Netscape Cert Type: 
                SSL CA
    Signature Algorithm: sha256WithRSAEncryption
         10:56:2e:12:23:84:94:5b:99:51:ae:a2:a3:16:1d:d7:a8:43:
         f9:5a:33:c5:85:2e:bc:27:f5:c9:11:5f:ca:27:b2:1a:36:a7:
         73:5b:18:c6:ac:7f:02:63:c5:16:ac:8c:14:7e:9a:c2:0c:dd:
         5b:d2:88:aa:06:5f:43:e0:6f:f7:19:a9:4a:87:f6:43:4f:56:
         bf:47:cb:99:fb:23:1a:20:29:23:fa:16:3b:82:a4:96:5f:1c:
         67:8f:87:df:21:f2:5a:dc:f3:f6:6e:e4:5e:fa:23:79:bc:04:
         c6:5e:36:a5:2a:e8:65:20:01:ce:02:52:d4:0a:15:f5:e2:c4:
         b1:11:a6:76:fa:6a:60:c3:6b:fb:b2:5c:84:d1:a1:1d:5c:18:
         41:04:58:58:b3:92:85:5a:f3:9a:df:6f:fe:09:e8:7d:24:3a:
         27:d7:73:ee:c8:f3:f6:09:ad:bc:05:71:f2:3e:71:d3:e0:bc:
         95:c7:14:7c:a3:4b:85:00:3d:17:05:4b:17:69:05:33:e5:e7:
         a0:c5:9c:b2:51:ab:bb:f3:c5:99:e0:31:78:9d:cf:d2:3f:b5:
         3d:ae:03:89:9d:ad:5e:8f:11:d1:81:33:05:2c:44:1f:c0:10:
         11:4a:84:99:3b:36:e0:a7:b7:b8:c1:d0:d5:a6:04:cf:62:ac:
         74:f3:52:4f:ec:35:da:e7:12:60:73:07:20:3f:e4:53:fb:fe:
         fb:c9:32:f4:c1:ac:2d:0f:ba:54:5f:34:e9:cc:97:fe:0b:00:
         11:2a:f2:51:3d:90:5a:96:5a:5e:5a:e0:4e:79:f0:46:3f:9a:
         20:66:97:59:6d:6b:be:80:b5:fd:e6:f3:10:1d:52:5f:33:91:
         9a:ed:72:97:56:2f:4b:10:4f:3f:c4:1c:79:06:a5:eb:3c:a0:
         34:ae:ef:de:fa:4f:6b:cc:7e:98:89:44:d9:d9:3f:42:16:ee:
         2a:e4:64:aa:cb:68:c2:c1:7f:35:d4:f1:cb:0e:fd:b3:0d:c3:
         94:51:45:ba:f2:5d:dd:7e:06:71:e5:bd:47:e7:4f:51:6f:55:
         04:36:4f:7a:d0:14:d7:dc:59:d0:43:a4:1d:ed:a8:92:54:83:
         19:25:03:fb:23:fc:90:93:25:39:a1:dc:fe:b9:a1:30:8a:10:
         07:34:d5:13:f9:ca:bf:dc:f9:9d:2a:61:67:92:d5:f1:55:78:
         a7:4b:19:d0:6d:f2:95:16:45:43:3b:0b:5e:0a:d6:52:4c:f0:
         98:17:8a:37:38:65:96:eb:61:c4:45:a2:a9:0a:e3:78:e0:58:
         80:58:50:88:53:26:d7:0a:ac:6b:ba:62:11:75:7d:4d:14:b3:
         b2:ca:a1:6f:10:ba:ff:2e
-----BEGIN CERTIFICATE-----
MIIF4DCCA8igAwIBAgICAMcwDQYJKoZIhvcNAQELBQAwajELMAkGA1UEBhMCZnIx
DDAKBgNVBAgMA2lkZjEOMAwGA1UEBwwFcGFyaXMxDjAMBgNVBAoMBXZpdGFtMRQw
EgYDVQQLDAthdXRob3JpdGllczEXMBUGA1UEAwwOY2Ffcm9vdF9zZXJ2ZXIwHhcN
MTcwNzEyMTQyOTAwWhcNMjcwNzEwMTQyOTAwWjBqMQswCQYDVQQGEwJmcjEMMAoG
A1UECAwDaWRmMQ4wDAYDVQQHDAVwYXJpczEOMAwGA1UECgwFdml0YW0xFDASBgNV
BAsMC2F1dGhvcml0aWVzMRcwFQYDVQQDDA5jYV9yb290X3NlcnZlcjCCAiIwDQYJ
KoZIhvcNAQEBBQADggIPADCCAgoCggIBAJlF38ZkMPvW7xw91PLYiNyRu6l2kr/S
SqNrVFIsz81lX60Ni/47ttdzxtMEk7OXPyyEeuTTw8FcZP/wVcks7YX1Zwvz6yo0
TAqDEQ1MbvqBWCaKilb+pAhy49G/2eW87SzXYKCxzh1hHrbccgnU3nDJDwERDcHk
CoSgk1ocSgRZlk7ktT/M28h2MjBrPfWPiRL5PV6aAKmSAB8kh6Q9KWOg9XPQTQ3n
4R9sbwePAS6GbtunNv4ZtWYPJGuYiCdWCXkEQlRLY+Uz/nc13I7bpGsIgvgHnGbn
G5G28Y7/r/XJ7+X7UE8niEkVxQGxpTpDwfhU/VKpzTkk1yP+TupQb1fbg8VgDgbx
dfomgohJQj31XAbBn/zPth6g5lYXcloekg6/nqcW/7OIVBKbWY5JPfSL3sNO5fAp
Y1K/2q3HMJe1K/UdlQa0Z8ya9CNHI6VXXyv7vVhcboA0jrPeL87lIy2vMX7+UPsE
1jZ1UWG4KiF6S7+pp0FCRUKovVSGPRx4L9Jgr9H4U+C6esjg5iM2IH9aVxnk3Uwb
57V3t6zTWiqwVZmaN8AizI+7SmraRc0Oj/VmY7RtOI2jvOY230RudYKg+soFdEbR
8BwMh8N5rAxVmENxbCBcHOP7UxmQY4YeRqzhAWnvsxqr0y/Xfr6+69ke1UK0rNm1
u4efOOmlA06vAgMBAAGjgY8wgYwwFgYJYIZIAYb4QgENBAkWB0NBIFJvb3QwHQYD
VR0OBBYEFL+aOv80SBBqIPFjD98sFEW5VBPMMB8GA1UdIwQYMBaAFL+aOv80SBBq
IPFjD98sFEW5VBPMMBIGA1UdEwEB/wQIMAYBAf8CAQEwCwYDVR0PBAQDAgEGMBEG
CWCGSAGG+EIBAQQEAwICBDANBgkqhkiG9w0BAQsFAAOCAgEAEFYuEiOElFuZUa6i
oxYd16hD+VozxYUuvCf1yRFfyieyGjanc1sYxqx/AmPFFqyMFH6awgzdW9KIqgZf
Q+Bv9xmpSof2Q09Wv0fLmfsjGiApI/oWO4Kkll8cZ4+H3yHyWtzz9m7kXvojebwE
xl42pSroZSABzgJS1AoV9eLEsRGmdvpqYMNr+7JchNGhHVwYQQRYWLOShVrzmt9v
/gnofSQ6J9dz7sjz9gmtvAVx8j5x0+C8lccUfKNLhQA9FwVLF2kFM+XnoMWcslGr
u/PFmeAxeJ3P0j+1Pa4DiZ2tXo8R0YEzBSxEH8AQEUqEmTs24Ke3uMHQ1aYEz2Ks
dPNST+w12ucSYHMHID/kU/v++8ky9MGsLQ+6VF806cyX/gsAESryUT2QWpZaXlrg
TnnwRj+aIGaXWW1rvoC1/ebzEB1SXzORmu1yl1YvSxBPP8QceQal6zygNK7v3vpP
a8x+mIlE2dk/QhbuKuRkqstowsF/NdTxyw79sw3DlFFFuvJd3X4GceW9R+dPUW9V
BDZPetAU19xZ0EOkHe2oklSDGSUD+yP8kJMlOaHc/rmhMIoQBzTVE/nKv9z5nSph
Z5LV8VV4p0sZ0G3ylRZFQzsLXgrWUkzwmBeKNzhlluthxEWiqQrjeOBYgFhQiFMm
1wqsa7piEXV9TRSzssqhbxC6/y4=
-----END CERTIFICATE-----
