Certificate:
    Data:
        Version: 3 (0x2)
        Serial Number: 218 (0xda)
    Signature Algorithm: sha256WithRSAEncryption
        Issuer: C=fr, ST=idf, L=paris, O=vitam, OU=authorities, CN=ca_root_server
        Validity
            Not Before: Feb 21 16:34:49 2018 GMT
            Not After : Feb 19 16:34:49 2028 GMT
        Subject: C=fr, ST=idf, L=paris, O=vitam, OU=authorities, CN=ca_root_server
        Subject Public Key Info:
            Public Key Algorithm: rsaEncryption
                Public-Key: (4096 bit)
                Modulus:
                    00:b7:01:85:4f:58:9c:47:12:84:77:0b:7c:dc:ae:
                    6f:ea:86:98:46:f0:37:53:7e:34:5b:71:1e:3f:d6:
                    11:0b:48:1d:4a:e5:e8:a3:64:4f:17:b6:c5:f0:0c:
                    b7:2f:09:d8:7c:e1:c6:8c:4f:70:0d:e0:41:66:34:
                    34:f3:d8:4c:e9:26:fa:34:17:28:13:05:cf:41:1c:
                    89:a8:f5:51:72:25:b5:17:59:08:44:91:1e:1b:92:
                    7b:b8:29:a3:c9:8a:8b:46:57:c9:8c:81:1e:34:f8:
                    9e:ad:a8:93:8c:51:73:b2:35:b9:e8:2a:88:7d:87:
                    02:fb:23:c4:43:60:bb:e4:7e:cb:f3:d2:90:57:78:
                    27:01:83:74:b1:8c:d5:5f:01:23:5b:9b:11:2b:c4:
                    80:8b:00:6b:e1:73:8d:91:e9:53:6c:6d:4e:3b:92:
                    bd:1c:ee:93:de:27:0e:a8:cc:91:84:fb:fb:a8:58:
                    71:5a:96:60:db:91:63:fd:f6:71:0b:0b:02:ef:0f:
                    b9:91:41:ef:2e:cf:c5:92:d0:a4:d3:9f:b6:58:bc:
                    6a:c5:26:ae:ea:55:d8:43:f2:c4:33:83:0b:cc:47:
                    99:12:a8:71:3e:32:b0:5e:99:12:57:69:77:15:23:
                    5e:b7:b8:17:10:88:22:7e:60:09:f7:87:c4:de:0f:
                    81:28:29:05:99:68:7e:33:be:f0:32:35:12:33:f6:
                    81:d9:23:95:fb:91:65:80:61:d1:eb:0b:11:40:74:
                    c8:16:4b:15:66:bb:97:f2:7c:c3:4c:0c:20:eb:a9:
                    83:f9:c6:60:89:5e:43:ad:b2:98:e4:4f:96:4f:72:
                    44:ac:69:8b:54:ec:72:0d:a7:e2:06:eb:a5:32:75:
                    0c:d8:45:42:73:80:4f:6b:a6:3d:7b:05:9d:60:56:
                    02:b4:51:e1:73:d6:c0:41:30:3e:bd:08:b9:b0:a6:
                    35:ec:fd:b4:c6:5e:b0:4b:61:e4:9a:eb:d9:d4:ec:
                    e3:a5:cf:c6:53:bb:6f:e7:9a:8d:8b:fc:dc:ba:ed:
                    fa:64:db:16:9b:33:7a:5f:28:50:dd:47:fa:8e:5e:
                    e0:de:a0:a4:ed:a9:9a:49:05:9c:22:de:63:07:d7:
                    b6:d0:09:33:91:bf:38:26:0a:a1:17:d6:73:4d:c4:
                    c3:ca:e9:2a:fc:a3:e3:92:b8:34:7f:c0:e2:fd:b3:
                    e8:2b:e5:ba:43:fd:fc:b4:25:23:d9:2e:84:31:0f:
                    aa:74:50:11:9c:30:df:17:c5:fa:99:94:0e:2e:ea:
                    48:a7:ef:7e:b3:f6:45:93:78:af:b7:95:ed:01:80:
                    7f:aa:07:ea:05:9e:57:04:42:6d:91:eb:3c:ec:37:
                    50:2e:47
                Exponent: 65537 (0x10001)
        X509v3 extensions:
            Netscape Comment: 
                CA Root
            X509v3 Subject Key Identifier: 
                5A:ED:43:97:F7:9B:09:EA:35:3B:3D:72:B0:01:41:D6:30:9F:7C:1B
            X509v3 Authority Key Identifier: 
                keyid:5A:ED:43:97:F7:9B:09:EA:35:3B:3D:72:B0:01:41:D6:30:9F:7C:1B

            X509v3 Basic Constraints: critical
                CA:TRUE, pathlen:1
            X509v3 Key Usage: 
                Certificate Sign, CRL Sign
            Netscape Cert Type: 
                SSL CA
    Signature Algorithm: sha256WithRSAEncryption
         82:6d:5f:2e:d9:bf:9b:06:86:6a:d7:f6:74:13:84:f5:00:f7:
         6f:8f:f6:c6:1f:8e:0c:54:fe:20:bc:87:27:55:97:2a:bc:ed:
         b5:9a:09:ec:15:a0:bd:c3:c3:66:4c:15:05:a7:f6:d9:d3:02:
         dc:d3:84:54:16:fe:76:34:db:2f:f8:ee:cc:44:d7:0b:66:5a:
         82:e9:f3:36:fa:9d:bc:f9:8e:7b:d8:aa:c1:87:30:94:15:81:
         86:95:52:c3:2f:69:a5:5f:7c:ef:6c:56:d6:5c:5a:5f:14:98:
         aa:70:04:32:6b:dd:47:bf:8d:85:c8:47:56:d1:f7:f6:54:1f:
         70:d8:1f:6a:d2:8d:87:8b:96:8f:1d:1b:05:47:17:e7:7f:28:
         3d:1e:88:61:e1:fd:f1:a3:c9:3f:62:9d:28:dd:ee:14:02:a1:
         ab:b8:7d:b2:3f:1b:79:2c:41:28:85:0a:cc:78:df:71:27:c8:
         f1:28:94:98:8a:77:35:70:04:56:fa:cd:23:fe:c4:41:77:a5:
         ed:5b:b9:70:9b:44:1f:4b:a7:b4:3e:fa:ed:c1:7d:7d:ea:83:
         1b:7c:2c:35:e2:c4:ef:2c:33:0a:d7:c8:20:aa:be:9c:c1:13:
         51:f2:4a:f3:3e:4e:32:26:0f:4f:b1:29:90:95:cf:01:af:0f:
         fd:45:d5:1d:99:95:59:29:0a:8f:6f:7a:d6:17:23:e7:0f:49:
         92:e1:ea:75:2f:ae:ec:b7:94:3e:95:07:4c:0d:df:0b:9d:11:
         ff:2f:72:75:04:eb:aa:79:98:37:5d:8e:19:be:da:3f:6a:84:
         69:40:2b:b1:d8:c3:b5:c5:04:65:f1:36:e8:43:13:de:4a:05:
         d9:7b:4f:f8:a3:08:7e:ee:f2:a0:27:23:29:0b:a8:7c:9b:73:
         a6:68:b1:e7:a5:5c:7a:31:93:d0:9f:28:a1:32:11:fd:d6:b0:
         53:73:eb:6d:0e:de:23:ff:5c:33:a7:40:63:3e:3a:56:a5:7d:
         6f:c6:f6:f3:47:2c:c8:df:12:10:37:4e:81:76:d9:02:be:2e:
         29:01:19:ca:70:15:8b:a9:2e:e1:71:d6:a6:a3:af:46:93:b2:
         0b:2a:55:19:c8:ac:3f:22:2e:b7:cf:ba:2f:fb:47:9a:c6:22:
         53:81:d9:da:0d:4f:8d:7f:16:f6:52:6f:31:14:63:bc:cb:34:
         a9:be:da:7e:ae:29:37:aa:81:12:be:0c:83:de:27:ec:ba:53:
         8d:de:d2:27:f7:76:c5:9c:6f:66:e0:9f:e2:7b:1d:79:5c:bb:
         94:4d:47:d0:d5:ee:58:e4:58:9e:77:be:65:79:08:af:bb:50:
         a1:64:76:d7:e4:96:54:7e
-----BEGIN CERTIFICATE-----
MIIF4DCCA8igAwIBAgICANowDQYJKoZIhvcNAQELBQAwajELMAkGA1UEBhMCZnIx
DDAKBgNVBAgMA2lkZjEOMAwGA1UEBwwFcGFyaXMxDjAMBgNVBAoMBXZpdGFtMRQw
EgYDVQQLDAthdXRob3JpdGllczEXMBUGA1UEAwwOY2Ffcm9vdF9zZXJ2ZXIwHhcN
MTgwMjIxMTYzNDQ5WhcNMjgwMjE5MTYzNDQ5WjBqMQswCQYDVQQGEwJmcjEMMAoG
A1UECAwDaWRmMQ4wDAYDVQQHDAVwYXJpczEOMAwGA1UECgwFdml0YW0xFDASBgNV
BAsMC2F1dGhvcml0aWVzMRcwFQYDVQQDDA5jYV9yb290X3NlcnZlcjCCAiIwDQYJ
KoZIhvcNAQEBBQADggIPADCCAgoCggIBALcBhU9YnEcShHcLfNyub+qGmEbwN1N+
NFtxHj/WEQtIHUrl6KNkTxe2xfAMty8J2HzhxoxPcA3gQWY0NPPYTOkm+jQXKBMF
z0Eciaj1UXIltRdZCESRHhuSe7gpo8mKi0ZXyYyBHjT4nq2ok4xRc7I1uegqiH2H
AvsjxENgu+R+y/PSkFd4JwGDdLGM1V8BI1ubESvEgIsAa+FzjZHpU2xtTjuSvRzu
k94nDqjMkYT7+6hYcVqWYNuRY/32cQsLAu8PuZFB7y7PxZLQpNOftli8asUmrupV
2EPyxDODC8xHmRKocT4ysF6ZEldpdxUjXre4FxCIIn5gCfeHxN4PgSgpBZlofjO+
8DI1EjP2gdkjlfuRZYBh0esLEUB0yBZLFWa7l/J8w0wMIOupg/nGYIleQ62ymORP
lk9yRKxpi1Tscg2n4gbrpTJ1DNhFQnOAT2umPXsFnWBWArRR4XPWwEEwPr0IubCm
Nez9tMZesEth5Jrr2dTs46XPxlO7b+eajYv83Lrt+mTbFpszel8oUN1H+o5e4N6g
pO2pmkkFnCLeYwfXttAJM5G/OCYKoRfWc03Ew8rpKvyj45K4NH/A4v2z6CvlukP9
/LQlI9kuhDEPqnRQEZww3xfF+pmUDi7qSKfvfrP2RZN4r7eV7QGAf6oH6gWeVwRC
bZHrPOw3UC5HAgMBAAGjgY8wgYwwFgYJYIZIAYb4QgENBAkWB0NBIFJvb3QwHQYD
VR0OBBYEFFrtQ5f3mwnqNTs9crABQdYwn3wbMB8GA1UdIwQYMBaAFFrtQ5f3mwnq
NTs9crABQdYwn3wbMBIGA1UdEwEB/wQIMAYBAf8CAQEwCwYDVR0PBAQDAgEGMBEG
CWCGSAGG+EIBAQQEAwICBDANBgkqhkiG9w0BAQsFAAOCAgEAgm1fLtm/mwaGatf2
dBOE9QD3b4/2xh+ODFT+ILyHJ1WXKrzttZoJ7BWgvcPDZkwVBaf22dMC3NOEVBb+
djTbL/juzETXC2ZagunzNvqdvPmOe9iqwYcwlBWBhpVSwy9ppV9872xW1lxaXxSY
qnAEMmvdR7+NhchHVtH39lQfcNgfatKNh4uWjx0bBUcX538oPR6IYeH98aPJP2Kd
KN3uFAKhq7h9sj8beSxBKIUKzHjfcSfI8SiUmIp3NXAEVvrNI/7EQXel7Vu5cJtE
H0untD767cF9feqDG3wsNeLE7ywzCtfIIKq+nMETUfJK8z5OMiYPT7EpkJXPAa8P
/UXVHZmVWSkKj2961hcj5w9JkuHqdS+u7LeUPpUHTA3fC50R/y9ydQTrqnmYN12O
Gb7aP2qEaUArsdjDtcUEZfE26EMT3koF2XtP+KMIfu7yoCcjKQuofJtzpmix56Vc
ejGT0J8ooTIR/dawU3PrbQ7eI/9cM6dAYz46VqV9b8b280csyN8SEDdOgXbZAr4u
KQEZynAVi6ku4XHWpqOvRpOyCypVGcisPyIut8+6L/tHmsYiU4HZ2g1PjX8W9lJv
MRRjvMs0qb7afq4pN6qBEr4Mg94n7LpTjd7SJ/d2xZxvZuCf4nsdeVy7lE1H0NXu
WORYnne+ZXkIr7tQoWR21+SWVH4=
-----END CERTIFICATE-----
