Certificate:
    Data:
        Version: 3 (0x2)
        Serial Number: 210 (0xd2)
    Signature Algorithm: sha256WithRSAEncryption
        Issuer: C=fr, ST=idf, L=paris, O=vitam, OU=authorities, CN=ca_root_server
        Validity
            Not Before: Aug  9 16:04:02 2017 GMT
            Not After : Aug  7 16:04:02 2027 GMT
        Subject: C=fr, ST=idf, L=paris, O=vitam, OU=authorities, CN=ca_root_server
        Subject Public Key Info:
            Public Key Algorithm: rsaEncryption
                Public-Key: (4096 bit)
                Modulus:
                    00:c2:60:e9:4a:7c:1e:50:ab:bd:9a:46:c1:2c:85:
                    93:b8:fd:e3:82:6a:9a:51:5a:cd:88:8b:ce:fc:f1:
                    df:5e:80:34:27:ab:bf:b8:57:4a:2d:3d:8c:2e:a3:
                    12:16:b5:0f:02:bb:a2:77:13:97:e6:53:e0:cf:9d:
                    f0:1b:02:89:da:99:0b:33:89:94:1d:8b:25:23:5e:
                    2c:71:4c:9a:1e:fd:39:20:e8:fb:45:1c:06:2c:67:
                    86:c4:79:aa:46:05:7d:c4:82:00:75:ee:42:4f:ea:
                    b7:f8:ec:9e:2d:af:a3:bb:e2:71:e7:ea:6f:c8:e2:
                    6d:61:ae:d8:af:4d:3e:4c:24:fc:36:dc:e8:6c:e3:
                    0e:12:f1:66:27:30:3b:95:6f:87:b8:53:62:ed:e0:
                    7e:9b:3d:cd:ed:4d:5e:ec:2a:c9:64:b0:2f:2c:17:
                    8d:0e:7e:f5:70:ef:86:22:f8:ae:5c:35:c6:67:9d:
                    b9:7b:4d:37:e1:88:5a:6f:7d:6c:99:85:b9:52:7e:
                    2c:62:f7:9d:91:83:b2:1c:59:c2:ad:74:b1:9f:5a:
                    fb:2e:91:a6:66:9d:3d:4a:01:e4:6a:d8:f1:9a:05:
                    fc:4b:ab:70:68:0c:06:b6:6e:37:8e:b1:b2:f3:14:
                    86:04:12:42:d1:5e:44:9f:d7:ea:5f:4e:08:15:3c:
                    0a:43:ac:c0:e2:7f:81:c6:04:ef:d3:eb:fd:8c:cb:
                    81:67:c7:63:a7:1f:3a:cc:85:62:ad:1b:03:d7:c2:
                    95:fc:58:7c:8c:f7:ae:ae:0e:4c:0f:d5:19:bc:67:
                    fe:53:24:6b:99:f2:b3:46:b9:ce:88:18:89:11:ab:
                    27:91:94:cf:6a:87:cc:4c:d5:cc:28:26:6e:2d:b1:
                    75:d5:3d:7a:be:35:c5:cf:96:ab:34:71:3c:14:a4:
                    26:ee:e9:8e:fc:9b:f6:68:d7:4a:fc:85:3d:02:22:
                    9b:aa:3a:96:58:22:cc:f8:ed:9d:c6:92:4b:f6:d7:
                    7c:5b:fb:5f:0e:1b:f2:88:3b:5f:c8:a8:61:cc:0c:
                    70:b0:5b:6d:c7:5a:45:27:73:91:14:7d:5e:19:d1:
                    b4:a4:72:33:89:b8:89:ad:37:ed:02:25:96:aa:97:
                    88:5a:7d:45:35:f1:cd:2c:65:46:1f:75:35:04:b3:
                    ae:e7:a8:80:c0:66:fe:a2:31:2f:24:27:4b:7d:bc:
                    24:45:bc:64:da:39:ff:03:eb:e6:d3:c0:97:bc:e3:
                    66:38:c9:71:fa:55:de:31:ff:fd:ca:fa:fb:5e:a8:
                    b8:30:cf:d1:0d:99:82:3d:40:ce:eb:e1:5d:cb:74:
                    00:b5:15:96:6e:1d:80:9a:c7:45:94:6a:a5:55:cb:
                    66:6a:0d
                Exponent: 65537 (0x10001)
        X509v3 extensions:
            Netscape Comment: 
                CA Root
            X509v3 Subject Key Identifier: 
                B0:F6:0D:61:13:C2:9D:EA:57:FB:32:BA:2C:01:33:40:64:A8:0E:64
            X509v3 Authority Key Identifier: 
                keyid:B0:F6:0D:61:13:C2:9D:EA:57:FB:32:BA:2C:01:33:40:64:A8:0E:64

            X509v3 Basic Constraints: critical
                CA:TRUE, pathlen:1
            X509v3 Key Usage: 
                Certificate Sign, CRL Sign
            Netscape Cert Type: 
                SSL CA
    Signature Algorithm: sha256WithRSAEncryption
         87:46:2b:3a:1f:2a:cd:9a:ae:0c:ab:58:50:6b:bf:94:ac:8d:
         a0:35:c5:16:cc:dc:b6:3a:d7:8e:0d:ec:12:62:83:93:e1:69:
         33:4d:0b:fb:1e:45:23:ff:7d:48:2a:16:23:ba:97:c7:38:84:
         3c:fb:67:73:3d:be:fa:55:60:55:9d:37:4b:a2:1d:f6:cc:04:
         a5:e1:df:de:b9:1a:ef:99:4e:e4:c1:35:55:39:fa:26:b8:c8:
         cf:46:69:43:32:51:ab:b3:f0:bb:81:aa:7a:b4:43:c7:42:56:
         be:de:b4:e8:a1:24:e5:d3:8a:a7:c0:4f:7a:07:0f:69:21:d6:
         6b:ef:29:02:50:5c:f7:e2:41:be:0a:0b:c3:9e:e7:a5:6d:94:
         e3:25:bb:a8:aa:4b:88:d0:1d:3d:b3:ac:27:03:ad:13:b7:13:
         bd:80:3d:ac:e5:e1:8e:29:31:17:46:1d:e2:4c:0b:ae:94:f1:
         27:8a:51:a7:1d:a6:f6:4e:8b:af:c7:03:da:a7:3c:80:69:ba:
         06:d3:a9:ca:36:e1:89:52:6c:c6:78:84:94:53:d1:45:df:2c:
         2a:b3:59:a2:d5:0d:81:d4:21:2a:2c:62:e3:37:e4:58:94:f4:
         ec:bd:72:27:fe:ef:c4:7b:5c:e4:ec:68:2a:18:f5:8d:60:9b:
         fc:32:2f:6a:36:66:08:35:90:4d:e5:81:6a:59:e6:50:d7:d0:
         70:4f:89:8d:94:e9:49:18:f7:3e:fe:98:e8:ca:fb:52:d4:6d:
         89:4f:4d:05:b6:db:be:8d:a1:2f:12:ae:6f:0b:9c:0d:4c:2f:
         36:e9:14:c1:91:f6:a7:56:21:d2:1e:af:1c:62:b5:58:ac:b0:
         40:9d:f5:8c:11:46:0b:e3:15:86:be:56:4b:29:92:f7:40:56:
         8a:25:9d:c1:f9:49:d5:35:8c:09:f3:3b:d2:d8:d4:13:b2:e8:
         96:d8:c3:fe:e6:51:f6:34:3b:30:8a:b2:1b:0e:2d:c1:43:69:
         c0:6f:06:9a:8c:c3:9b:89:0e:dc:b6:73:15:54:fc:e4:28:a2:
         fa:4e:23:1d:6f:5c:8d:07:3c:42:53:ce:79:3f:2a:43:61:f6:
         a8:58:bf:fd:97:56:4b:ed:32:f8:7d:82:32:8f:92:40:7c:63:
         0c:be:5d:6a:b7:1d:bb:2e:2a:c9:39:15:03:9e:8b:96:c5:2b:
         10:b9:89:48:cf:9a:f1:85:cc:f1:ab:5d:45:56:d8:b3:69:90:
         40:01:78:16:7e:6e:f0:13:6a:8d:0c:56:8f:02:3f:f1:e4:6c:
         fe:b8:7f:fb:64:6b:71:4c:16:f4:8b:c1:00:8a:16:47:74:76:
         8c:f2:d7:51:aa:5a:37:d0
-----BEGIN CERTIFICATE-----
MIIF4DCCA8igAwIBAgICANIwDQYJKoZIhvcNAQELBQAwajELMAkGA1UEBhMCZnIx
DDAKBgNVBAgMA2lkZjEOMAwGA1UEBwwFcGFyaXMxDjAMBgNVBAoMBXZpdGFtMRQw
EgYDVQQLDAthdXRob3JpdGllczEXMBUGA1UEAwwOY2Ffcm9vdF9zZXJ2ZXIwHhcN
MTcwODA5MTYwNDAyWhcNMjcwODA3MTYwNDAyWjBqMQswCQYDVQQGEwJmcjEMMAoG
A1UECAwDaWRmMQ4wDAYDVQQHDAVwYXJpczEOMAwGA1UECgwFdml0YW0xFDASBgNV
BAsMC2F1dGhvcml0aWVzMRcwFQYDVQQDDA5jYV9yb290X3NlcnZlcjCCAiIwDQYJ
KoZIhvcNAQEBBQADggIPADCCAgoCggIBAMJg6Up8HlCrvZpGwSyFk7j944JqmlFa
zYiLzvzx316ANCerv7hXSi09jC6jEha1DwK7oncTl+ZT4M+d8BsCidqZCzOJlB2L
JSNeLHFMmh79OSDo+0UcBixnhsR5qkYFfcSCAHXuQk/qt/jsni2vo7vicefqb8ji
bWGu2K9NPkwk/Dbc6GzjDhLxZicwO5Vvh7hTYu3gfps9ze1NXuwqyWSwLywXjQ5+
9XDvhiL4rlw1xmeduXtNN+GIWm99bJmFuVJ+LGL3nZGDshxZwq10sZ9a+y6Rpmad
PUoB5GrY8ZoF/EurcGgMBrZuN46xsvMUhgQSQtFeRJ/X6l9OCBU8CkOswOJ/gcYE
79Pr/YzLgWfHY6cfOsyFYq0bA9fClfxYfIz3rq4OTA/VGbxn/lMka5nys0a5zogY
iRGrJ5GUz2qHzEzVzCgmbi2xddU9er41xc+WqzRxPBSkJu7pjvyb9mjXSvyFPQIi
m6o6llgizPjtncaSS/bXfFv7Xw4b8og7X8ioYcwMcLBbbcdaRSdzkRR9XhnRtKRy
M4m4ia037QIllqqXiFp9RTXxzSxlRh91NQSzrueogMBm/qIxLyQnS328JEW8ZNo5
/wPr5tPAl7zjZjjJcfpV3jH//cr6+16ouDDP0Q2Zgj1AzuvhXct0ALUVlm4dgJrH
RZRqpVXLZmoNAgMBAAGjgY8wgYwwFgYJYIZIAYb4QgENBAkWB0NBIFJvb3QwHQYD
VR0OBBYEFLD2DWETwp3qV/syuiwBM0BkqA5kMB8GA1UdIwQYMBaAFLD2DWETwp3q
V/syuiwBM0BkqA5kMBIGA1UdEwEB/wQIMAYBAf8CAQEwCwYDVR0PBAQDAgEGMBEG
CWCGSAGG+EIBAQQEAwICBDANBgkqhkiG9w0BAQsFAAOCAgEAh0YrOh8qzZquDKtY
UGu/lKyNoDXFFszctjrXjg3sEmKDk+FpM00L+x5FI/99SCoWI7qXxziEPPtncz2+
+lVgVZ03S6Id9swEpeHf3rka75lO5ME1VTn6JrjIz0ZpQzJRq7Pwu4GqerRDx0JW
vt606KEk5dOKp8BPegcPaSHWa+8pAlBc9+JBvgoLw57npW2U4yW7qKpLiNAdPbOs
JwOtE7cTvYA9rOXhjikxF0Yd4kwLrpTxJ4pRpx2m9k6Lr8cD2qc8gGm6BtOpyjbh
iVJsxniElFPRRd8sKrNZotUNgdQhKixi4zfkWJT07L1yJ/7vxHtc5OxoKhj1jWCb
/DIvajZmCDWQTeWBalnmUNfQcE+JjZTpSRj3Pv6Y6Mr7UtRtiU9NBbbbvo2hLxKu
bwucDUwvNukUwZH2p1Yh0h6vHGK1WKywQJ31jBFGC+MVhr5WSymS90BWiiWdwflJ
1TWMCfM70tjUE7LoltjD/uZR9jQ7MIqyGw4twUNpwG8GmozDm4kO3LZzFVT85Cii
+k4jHW9cjQc8QlPOeT8qQ2H2qFi//ZdWS+0y+H2CMo+SQHxjDL5darcduy4qyTkV
A56LlsUrELmJSM+a8YXM8atdRVbYs2mQQAF4Fn5u8BNqjQxWjwI/8eRs/rh/+2Rr
cUwW9IvBAIoWR3R2jPLXUapaN9A=
-----END CERTIFICATE-----
