Certificate:
    Data:
        Version: 3 (0x2)
        Serial Number: 267 (0x10b)
        Signature Algorithm: sha256WithRSAEncryption
        Issuer: C=fr, ST=idf, L=paris, O=vitam, OU=authorities, CN=ca_root_server
        Validity
            Not Before: Sep 15 12:58:42 2020 GMT
            Not After : Dec 31 23:59:59 9999 GMT
        Subject: C=fr, ST=idf, L=paris, O=vitam, OU=authorities, CN=ca_root_server
        Subject Public Key Info:
            Public Key Algorithm: rsaEncryption
                RSA Public-Key: (4096 bit)
                Modulus:
                    00:cb:f0:66:44:af:c3:cf:38:21:c1:c1:51:35:80:
                    a7:75:32:9b:7a:96:a8:b5:f8:10:96:00:27:12:f4:
                    d2:f6:f7:7c:f0:61:50:6b:b4:cb:6a:e4:19:10:a5:
                    9c:9e:81:72:f6:bd:d4:ed:43:73:32:e2:de:52:d9:
                    3d:c9:c5:8f:a1:b4:0f:90:8c:99:4b:34:95:bc:d1:
                    06:00:0c:03:8c:58:8e:d0:b8:57:f1:ee:2f:e4:85:
                    aa:e3:c5:97:4a:6f:f1:cb:cd:3c:6a:f1:29:9d:4c:
                    3d:a6:c8:42:36:51:8b:69:c4:03:13:c9:33:c7:02:
                    72:f4:ff:3c:3f:36:6c:c7:16:fb:d4:1e:ed:97:a7:
                    58:4d:4a:77:c8:ca:af:59:db:0f:dc:02:97:8a:65:
                    77:c4:3d:16:62:f0:9e:e9:33:77:60:67:cf:df:c8:
                    f6:67:0e:1e:3c:a2:bc:ff:56:6e:f3:87:bc:91:d2:
                    1c:27:7e:16:71:bf:65:e0:95:1b:de:7b:73:a1:fa:
                    2e:08:20:95:8a:db:52:3a:39:59:da:a2:d9:ca:a7:
                    a6:3f:1b:51:20:09:97:8b:60:dd:8a:84:17:af:77:
                    ec:81:3a:c2:f0:26:96:f8:d7:a1:64:f0:fb:18:4f:
                    25:fa:ec:6d:1b:13:7e:33:62:87:0a:b6:1f:50:56:
                    80:bf:f5:ea:8d:12:01:61:fb:dc:26:37:86:c8:d6:
                    fd:19:79:66:46:04:74:28:37:14:97:e1:87:02:aa:
                    81:76:00:c3:45:66:0b:53:85:2c:21:72:59:35:bb:
                    1c:46:53:c9:b1:ba:7c:50:14:2f:20:38:46:d0:f5:
                    24:cf:53:8a:30:d2:46:36:8b:2f:76:18:41:07:a3:
                    22:81:35:94:5f:e2:6c:46:f0:9e:ea:f2:93:79:0a:
                    dc:fe:8f:78:ef:c1:b6:c2:6f:12:82:bf:88:cb:21:
                    b8:f3:dd:6e:c4:f1:24:fc:bf:d4:01:5e:48:33:be:
                    fc:b5:e4:01:e2:86:e5:94:9b:74:da:fb:ad:9f:fc:
                    ad:c5:6a:ce:73:d2:c1:69:0c:2b:11:6a:a1:8c:0d:
                    20:e1:03:7c:7a:ad:9c:f3:29:38:c3:82:78:99:4e:
                    0e:9b:f3:e1:c5:66:2c:38:1d:7c:c6:b2:1e:c6:73:
                    ee:78:f8:4f:c7:93:00:de:81:29:73:1a:b5:f4:d2:
                    c7:29:63:37:30:74:37:05:b1:e3:88:17:a1:b9:76:
                    7a:69:a2:53:6f:62:d5:a3:57:29:f1:49:1a:44:d8:
                    b3:61:33:b2:61:53:22:01:6b:fd:44:4f:25:dd:51:
                    dd:bd:65:1d:be:b7:82:84:94:ed:8b:9d:48:e0:59:
                    f7:2d:ad
                Exponent: 65537 (0x10001)
        X509v3 extensions:
            Netscape Comment: 
                CA Root
            X509v3 Subject Key Identifier: 
                ED:4D:09:6E:B4:3D:04:C0:20:C1:61:96:39:CF:79:69:B6:B4:FD:04
            X509v3 Authority Key Identifier: 
                keyid:ED:4D:09:6E:B4:3D:04:C0:20:C1:61:96:39:CF:79:69:B6:B4:FD:04

            X509v3 Basic Constraints: critical
                CA:TRUE, pathlen:1
            X509v3 Key Usage: 
                Certificate Sign, CRL Sign
            Netscape Cert Type: 
                SSL CA
    Signature Algorithm: sha256WithRSAEncryption
         02:a4:3a:d9:59:0a:1e:95:45:6b:86:55:5f:2b:63:9a:65:90:
         83:ad:9c:d2:d9:1a:17:56:b5:e2:1d:c6:5c:62:a4:e2:43:1b:
         0d:1b:36:f2:ea:e3:77:53:e0:d9:84:0d:9a:b9:14:22:17:43:
         b5:77:15:56:a0:cc:5a:85:67:45:39:08:a2:f3:4e:77:3c:7b:
         7e:7f:11:d7:9e:c6:5e:3f:92:9e:9e:6b:c3:ec:a6:0f:6d:58:
         da:67:c9:92:05:8d:15:0b:d3:96:8b:c5:90:28:f3:3b:b5:eb:
         ec:55:f9:2a:cf:5e:58:ca:de:b9:3a:e5:31:f1:97:aa:8a:a9:
         28:36:b2:c5:68:2c:4a:72:7a:0d:86:77:c5:42:bb:79:dc:b0:
         15:8f:44:c3:65:e7:31:1e:7d:a9:57:ba:18:c3:c9:b2:23:f0:
         ee:2a:f0:a4:d4:36:53:56:7c:68:6b:92:18:24:0c:a6:f1:ac:
         80:8f:b0:31:c7:31:d8:4b:fb:6b:03:5e:46:d9:b0:2c:4c:ee:
         fb:30:8d:a0:5f:4a:4c:cb:c1:ec:10:ac:88:97:29:20:7a:c1:
         27:df:ed:90:3f:2d:73:98:93:e6:54:59:90:b1:5b:1e:1f:95:
         0f:ac:80:21:64:3f:67:3e:58:d1:2b:1b:21:94:cb:8a:0f:2f:
         4c:30:84:c0:2d:58:69:ba:14:da:99:64:07:7d:19:13:55:c0:
         70:46:86:ff:17:7c:62:98:4c:58:b5:7e:3a:48:e5:51:9f:77:
         5d:2f:31:7c:a9:b2:ba:14:3b:43:51:7b:b0:9b:66:f9:98:c0:
         e8:9f:41:bb:8f:70:44:a1:21:36:f0:bf:0a:05:89:15:e1:fc:
         a1:71:f9:01:dc:72:4f:ab:63:b5:91:61:5e:1a:66:4c:4a:35:
         08:3d:87:30:e0:76:37:97:45:99:97:a8:05:12:a8:b1:af:6a:
         86:4b:b6:ec:a7:7a:f3:21:0a:a7:e4:72:21:55:46:f0:9f:28:
         36:98:7d:e8:98:99:19:db:14:ea:74:52:ef:4a:fa:f4:32:74:
         0e:56:2c:61:bc:61:32:0b:d3:37:b0:6f:1b:8b:46:ff:4a:31:
         33:40:e9:ac:95:b8:62:02:17:7a:48:6e:a9:31:35:73:58:00:
         ba:3e:09:37:ad:14:e8:ce:8b:47:df:58:a1:04:09:90:88:29:
         68:fc:29:a6:2a:2d:13:55:fd:51:9a:5f:66:3f:c9:c2:18:b2:
         27:96:85:d3:1e:72:03:52:1b:2b:8e:f8:37:29:22:4b:15:be:
         b1:4a:9f:54:e8:65:ca:2a:f7:b3:a4:9d:07:ec:e3:5f:6e:42:
         09:a7:0d:a4:00:23:eb:42
-----BEGIN CERTIFICATE-----
MIIF4jCCA8qgAwIBAgICAQswDQYJKoZIhvcNAQELBQAwajELMAkGA1UEBhMCZnIx
DDAKBgNVBAgMA2lkZjEOMAwGA1UEBwwFcGFyaXMxDjAMBgNVBAoMBXZpdGFtMRQw
EgYDVQQLDAthdXRob3JpdGllczEXMBUGA1UEAwwOY2Ffcm9vdF9zZXJ2ZXIwIBcN
MjAwOTE1MTI1ODQyWhgPOTk5OTEyMzEyMzU5NTlaMGoxCzAJBgNVBAYTAmZyMQww
CgYDVQQIDANpZGYxDjAMBgNVBAcMBXBhcmlzMQ4wDAYDVQQKDAV2aXRhbTEUMBIG
A1UECwwLYXV0aG9yaXRpZXMxFzAVBgNVBAMMDmNhX3Jvb3Rfc2VydmVyMIICIjAN
BgkqhkiG9w0BAQEFAAOCAg8AMIICCgKCAgEAy/BmRK/DzzghwcFRNYCndTKbepao
tfgQlgAnEvTS9vd88GFQa7TLauQZEKWcnoFy9r3U7UNzMuLeUtk9ycWPobQPkIyZ
SzSVvNEGAAwDjFiO0LhX8e4v5IWq48WXSm/xy808avEpnUw9pshCNlGLacQDE8kz
xwJy9P88PzZsxxb71B7tl6dYTUp3yMqvWdsP3AKXimV3xD0WYvCe6TN3YGfP38j2
Zw4ePKK8/1Zu84e8kdIcJ34Wcb9l4JUb3ntzofouCCCVittSOjlZ2qLZyqemPxtR
IAmXi2DdioQXr3fsgTrC8CaW+NehZPD7GE8l+uxtGxN+M2KHCrYfUFaAv/XqjRIB
YfvcJjeGyNb9GXlmRgR0KDcUl+GHAqqBdgDDRWYLU4UsIXJZNbscRlPJsbp8UBQv
IDhG0PUkz1OKMNJGNosvdhhBB6MigTWUX+JsRvCe6vKTeQrc/o9478G2wm8Sgr+I
yyG4891uxPEk/L/UAV5IM778teQB4obllJt02vutn/ytxWrOc9LBaQwrEWqhjA0g
4QN8eq2c8yk4w4J4mU4Om/PhxWYsOB18xrIexnPuePhPx5MA3oEpcxq19NLHKWM3
MHQ3BbHjiBehuXZ6aaJTb2LVo1cp8UkaRNizYTOyYVMiAWv9RE8l3VHdvWUdvreC
hJTti51I4Fn3La0CAwEAAaOBjzCBjDAWBglghkgBhvhCAQ0ECRYHQ0EgUm9vdDAd
BgNVHQ4EFgQU7U0JbrQ9BMAgwWGWOc95aba0/QQwHwYDVR0jBBgwFoAU7U0JbrQ9
BMAgwWGWOc95aba0/QQwEgYDVR0TAQH/BAgwBgEB/wIBATALBgNVHQ8EBAMCAQYw
EQYJYIZIAYb4QgEBBAQDAgIEMA0GCSqGSIb3DQEBCwUAA4ICAQACpDrZWQoelUVr
hlVfK2OaZZCDrZzS2RoXVrXiHcZcYqTiQxsNGzby6uN3U+DZhA2auRQiF0O1dxVW
oMxahWdFOQii8053PHt+fxHXnsZeP5KenmvD7KYPbVjaZ8mSBY0VC9OWi8WQKPM7
tevsVfkqz15Yyt65OuUx8ZeqiqkoNrLFaCxKcnoNhnfFQrt53LAVj0TDZecxHn2p
V7oYw8myI/DuKvCk1DZTVnxoa5IYJAym8ayAj7AxxzHYS/trA15G2bAsTO77MI2g
X0pMy8HsEKyIlykgesEn3+2QPy1zmJPmVFmQsVseH5UPrIAhZD9nPljRKxshlMuK
Dy9MMITALVhpuhTamWQHfRkTVcBwRob/F3ximExYtX46SOVRn3ddLzF8qbK6FDtD
UXuwm2b5mMDon0G7j3BEoSE28L8KBYkV4fyhcfkB3HJPq2O1kWFeGmZMSjUIPYcw
4HY3l0WZl6gFEqixr2qGS7bsp3rzIQqn5HIhVUbwnyg2mH3omJkZ2xTqdFLvSvr0
MnQOVixhvGEyC9M3sG8bi0b/SjEzQOmslbhiAhd6SG6pMTVzWAC6Pgk3rRTozotH
31ihBAmQiClo/CmmKi0TVf1Rml9mP8nCGLInloXTHnIDUhsrjvg3KSJLFb6xSp9U
6GXKKvezpJ0H7ONfbkIJpw2kACPrQg==
-----END CERTIFICATE-----
