Certificate:
    Data:
        Version: 3 (0x2)
        Serial Number: 164 (0xa4)
    Signature Algorithm: sha256WithRSAEncryption
        Issuer: C=FR, ST=idf, L=paris, O=Vitam., CN=CA_server
        Validity
            Not Before: Nov 18 14:12:58 2016 GMT
            Not After : Nov 16 14:12:58 2026 GMT
        Subject: C=FR, ST=idf, L=paris, O=Vitam., CN=CA_server
        Subject Public Key Info:
            Public Key Algorithm: rsaEncryption
                Public-Key: (512 bit)
                Modulus:
                    00:e8:12:02:29:be:8e:f3:6d:c6:77:30:de:4f:d8:
                    bb:5e:0c:59:2e:c4:3e:1f:84:5b:b0:12:56:42:3a:
                    b2:b3:c3:6f:6b:14:c5:1f:10:09:3c:a0:ae:a2:bb:
                    25:47:60:a6:48:9f:20:dc:fe:31:05:72:bb:75:dd:
                    22:0c:b9:e2:87
                Exponent: 65537 (0x10001)
        X509v3 extensions:
            X509v3 Subject Key Identifier: 
                50:16:E4:77:0D:FE:7D:E7:5E:C4:18:CC:FA:1B:42:C3:16:43:60:FD
            X509v3 Authority Key Identifier: 
                keyid:50:16:E4:77:0D:FE:7D:E7:5E:C4:18:CC:FA:1B:42:C3:16:43:60:FD

            X509v3 Basic Constraints: 
                CA:TRUE
    Signature Algorithm: sha256WithRSAEncryption
         7c:dc:6c:9b:79:33:51:74:60:7f:1e:37:47:2a:75:b5:19:fe:
         df:c4:ba:af:28:28:58:30:4c:61:73:ae:e4:01:9a:4f:46:37:
         58:a7:de:66:c0:fa:b8:bd:02:67:25:94:36:03:88:ad:12:3d:
         a7:4f:a1:b8:84:65:e9:1e:39:e3
-----BEGIN CERTIFICATE-----
MIIB4jCCAYygAwIBAgICAKQwDQYJKoZIhvcNAQELBQAwUDELMAkGA1UEBhMCRlIx
DDAKBgNVBAgTA2lkZjEOMAwGA1UEBxMFcGFyaXMxDzANBgNVBAoTBlZpdGFtLjES
MBAGA1UEAxQJQ0Ffc2VydmVyMB4XDTE2MTExODE0MTI1OFoXDTI2MTExNjE0MTI1
OFowUDELMAkGA1UEBhMCRlIxDDAKBgNVBAgTA2lkZjEOMAwGA1UEBxMFcGFyaXMx
DzANBgNVBAoTBlZpdGFtLjESMBAGA1UEAxQJQ0Ffc2VydmVyMFwwDQYJKoZIhvcN
AQEBBQADSwAwSAJBAOgSAim+jvNtxncw3k/Yu14MWS7EPh+EW7ASVkI6srPDb2sU
xR8QCTygrqK7JUdgpkifINz+MQVyu3XdIgy54ocCAwEAAaNQME4wHQYDVR0OBBYE
FFAW5HcN/n3nXsQYzPobQsMWQ2D9MB8GA1UdIwQYMBaAFFAW5HcN/n3nXsQYzPob
QsMWQ2D9MAwGA1UdEwQFMAMBAf8wDQYJKoZIhvcNAQELBQADQQB83GybeTNRdGB/
HjdHKnW1Gf7fxLqvKChYMExhc67kAZpPRjdYp95mwPq4vQJnJZQ2A4itEj2nT6G4
hGXpHjnj
-----END CERTIFICATE-----
