Certificate:
    Data:
        Version: 3 (0x2)
        Serial Number: 226 (0xe2)
    Signature Algorithm: sha256WithRSAEncryption
        Issuer: C=fr, ST=idf, L=paris, O=vitam, OU=authorities, CN=ca_intermediate_server
        Validity
            Not Before: Feb  5 12:57:15 2018 GMT
            Not After : Feb  4 12:57:15 2021 GMT
        Subject: C=fr, ST=idf, L=paris, O=vitam, CN=access-external.service.consul
        Subject Public Key Info:
            Public Key Algorithm: rsaEncryption
                Public-Key: (4096 bit)
                Modulus:
                    00:a1:d0:b7:4f:0d:d2:20:44:7b:c7:4f:91:55:98:
                    01:e0:e1:4e:d7:12:cd:60:e5:4c:18:fb:12:64:65:
                    37:de:bb:3a:7a:a4:9b:a0:21:ab:ba:b0:cc:44:f8:
                    0d:f4:f4:61:c7:fe:c5:0c:48:0e:7d:fb:06:82:52:
                    82:4d:96:e2:c4:59:bf:db:dd:46:d9:37:4a:27:11:
                    47:43:2c:2f:96:ae:5c:8a:36:e9:17:95:59:86:6c:
                    9a:dd:41:38:58:43:b0:bc:d1:40:9a:85:6c:dc:6b:
                    44:68:f3:30:a4:43:d8:db:0d:be:37:e0:07:c8:0d:
                    5e:15:42:09:62:64:5d:b3:cc:9a:37:9d:cf:f0:51:
                    eb:f2:6d:29:72:55:22:45:39:80:61:c1:1a:eb:0f:
                    a0:08:80:a7:0c:30:0c:bb:23:eb:d6:62:d1:0b:c2:
                    bc:b5:54:a1:37:ae:5b:a0:ca:bb:63:54:2c:2c:f9:
                    c4:bf:df:b4:78:39:25:a0:b8:18:f7:ad:4a:0c:00:
                    9a:d1:76:ad:b8:ae:1e:6b:d2:93:10:9b:d5:43:6c:
                    f3:ad:0c:92:d4:b8:c9:f8:b7:cc:73:93:82:ab:23:
                    50:5f:c1:05:00:d5:57:94:2e:52:39:09:0b:75:52:
                    38:16:68:1b:b6:ae:98:45:37:f6:8d:ee:de:7f:0b:
                    e4:31:79:d7:66:53:37:12:47:05:b2:c3:55:fc:16:
                    7a:5f:4c:64:1a:cf:45:bb:52:0e:62:29:b7:1a:04:
                    d1:4f:40:bd:5d:8e:d5:ca:69:2a:76:85:0c:c0:67:
                    17:53:eb:83:57:6f:ba:1c:90:3b:58:b9:3b:84:83:
                    1e:9d:36:14:0c:dc:15:81:20:59:d3:49:78:d7:4c:
                    f6:0c:3d:de:00:85:0a:ed:c5:c3:11:05:6f:b0:67:
                    e8:42:a7:48:af:e3:75:b4:af:94:6f:c0:d3:6e:5b:
                    73:26:ab:3a:1c:33:f3:54:b4:c1:da:f5:21:2f:19:
                    59:55:94:f9:c3:9b:53:93:19:bb:35:47:57:35:dd:
                    19:8b:0f:8a:09:da:59:fa:f4:5c:04:a5:c1:f0:6c:
                    dd:53:45:bd:c3:37:3b:21:bc:d2:63:6a:da:ba:fa:
                    4a:12:28:bd:bb:b4:35:25:5d:30:3c:7a:70:3d:03:
                    5f:21:05:3a:a7:bf:1d:14:12:f4:df:2c:eb:60:71:
                    cf:6e:c7:40:9b:6b:da:b6:ff:c3:4e:1e:07:97:1d:
                    4e:55:58:ee:75:ad:e3:1c:c3:26:84:f1:71:2f:fd:
                    32:af:bc:64:fa:cb:2d:9a:90:7a:39:7a:51:d4:d9:
                    a4:88:84:eb:0e:56:ab:5e:e4:bf:e2:2d:59:e5:41:
                    83:b4:b3
                Exponent: 65537 (0x10001)
        X509v3 extensions:
            Netscape Comment: 
                Certificat Serveur SSL
            X509v3 Subject Key Identifier: 
                AA:94:34:25:1D:D6:DB:9E:5A:FE:F1:FA:05:9B:26:E9:BA:21:A0:EF
            X509v3 Authority Key Identifier: 
                keyid:5A:C7:76:2D:0B:CA:D2:5D:01:B1:16:A7:F9:F2:91:A2:20:E5:56:42
                DirName:/C=fr/ST=idf/L=paris/O=vitam/OU=authorities/CN=ca_root_server
                serial:DB

            X509v3 Issuer Alternative Name: 
                <EMPTY>

            X509v3 Subject Alternative Name: 
                DNS:access-external.service.consul, DNS:localhost
            X509v3 Basic Constraints: critical
                CA:FALSE
            X509v3 Key Usage: 
                Digital Signature, Non Repudiation, Key Encipherment
            Netscape Cert Type: 
                SSL Server
            X509v3 Extended Key Usage: 
                TLS Web Server Authentication
    Signature Algorithm: sha256WithRSAEncryption
         28:65:cb:96:0c:05:66:a1:c2:d8:46:74:6d:80:c1:a8:7b:f9:
         00:47:dd:96:1a:1c:36:5e:5a:c5:4f:fa:1d:e6:4f:16:3b:97:
         19:0d:23:bb:81:93:fd:47:bf:ac:36:ef:a2:d2:42:30:9e:9e:
         61:1d:02:34:1c:9c:7b:6c:c9:8d:c7:17:b7:84:39:e3:3d:c8:
         1a:2c:5d:c4:c2:49:d2:b3:c5:e1:a6:99:3c:08:00:ee:ad:09:
         54:e3:ec:2d:96:b1:b4:43:98:c9:c1:06:b1:93:38:1f:f5:41:
         a7:68:ea:22:1b:2c:62:95:47:fb:83:15:18:2e:4c:af:a8:cf:
         37:dc:3a:b1:57:0c:80:6c:91:9c:c9:43:cd:58:d6:9e:0a:0d:
         53:d0:b0:c3:9c:ee:21:5a:e1:3f:7a:0d:35:c0:57:97:fa:f0:
         51:8b:8f:61:22:9d:52:a2:29:d3:d8:be:7e:5d:58:a8:10:29:
         1a:43:a4:cc:9f:fe:ce:65:0d:c4:7a:71:f6:cf:0d:d0:0a:b6:
         7b:9c:d5:61:42:09:33:f2:8a:3b:b9:60:43:ac:5b:76:41:60:
         c4:51:b4:d6:68:33:4c:0f:52:92:ca:31:42:15:ad:21:12:4d:
         c5:2e:43:ab:98:d4:1c:c7:ff:ab:55:03:e2:11:6d:75:d7:dc:
         96:5d:15:4b:cb:96:fb:e1:e9:13:dc:93:6a:d4:f9:e2:09:a5:
         a1:4c:98:fb:51:cf:bb:2e:33:f2:b0:6b:42:ef:c1:9a:b2:7e:
         1d:94:70:f6:45:ca:a5:55:a9:80:29:31:5a:57:3e:a6:3c:3d:
         f6:8a:dd:24:03:28:a5:97:ab:ed:b1:f1:71:34:ac:4d:59:56:
         56:76:51:b7:d3:f0:9d:22:e7:98:1b:49:46:df:aa:82:16:2a:
         86:10:96:24:d8:e3:d1:b8:09:db:60:73:34:c5:80:02:24:de:
         a2:a0:0e:fa:2e:f4:52:1d:d7:2c:bd:37:aa:1e:28:c3:dd:53:
         d8:2b:92:76:ed:01:68:43:a1:d5:2f:c1:5e:5c:f0:7f:de:f7:
         3a:7b:30:a2:1e:fc:76:21:f6:40:4f:63:e2:99:97:08:d4:b8:
         b4:01:6a:b7:19:c8:fd:ea:be:1c:c2:a8:a1:82:48:0e:44:0d:
         af:59:cd:27:f7:33:91:57:40:94:fe:4a:7f:5e:0d:a4:9e:76:
         88:c2:e3:d6:eb:1f:c1:68:f1:2c:4d:5c:fd:69:2f:ec:f4:cb:
         da:27:56:4d:1e:a8:ba:f4:4f:66:79:1c:bd:1f:38:ec:66:7a:
         5a:5d:a4:ea:13:ba:87:0c:3b:3c:99:2f:15:07:ac:d9:0b:1b:
         6a:f7:8e:76:3a:24:ac:91
-----BEGIN CERTIFICATE-----
MIIGujCCBKKgAwIBAgICAOIwDQYJKoZIhvcNAQELBQAwcjELMAkGA1UEBhMCZnIx
DDAKBgNVBAgMA2lkZjEOMAwGA1UEBwwFcGFyaXMxDjAMBgNVBAoMBXZpdGFtMRQw
EgYDVQQLDAthdXRob3JpdGllczEfMB0GA1UEAwwWY2FfaW50ZXJtZWRpYXRlX3Nl
cnZlcjAeFw0xODAyMDUxMjU3MTVaFw0yMTAyMDQxMjU3MTVaMGQxCzAJBgNVBAYT
AmZyMQwwCgYDVQQIDANpZGYxDjAMBgNVBAcMBXBhcmlzMQ4wDAYDVQQKDAV2aXRh
bTEnMCUGA1UEAwweYWNjZXNzLWV4dGVybmFsLnNlcnZpY2UuY29uc3VsMIICIjAN
BgkqhkiG9w0BAQEFAAOCAg8AMIICCgKCAgEAodC3Tw3SIER7x0+RVZgB4OFO1xLN
YOVMGPsSZGU33rs6eqSboCGrurDMRPgN9PRhx/7FDEgOffsGglKCTZbixFm/291G
2TdKJxFHQywvlq5cijbpF5VZhmya3UE4WEOwvNFAmoVs3GtEaPMwpEPY2w2+N+AH
yA1eFUIJYmRds8yaN53P8FHr8m0pclUiRTmAYcEa6w+gCICnDDAMuyPr1mLRC8K8
tVShN65boMq7Y1QsLPnEv9+0eDkloLgY961KDACa0XatuK4ea9KTEJvVQ2zzrQyS
1LjJ+LfMc5OCqyNQX8EFANVXlC5SOQkLdVI4Fmgbtq6YRTf2je7efwvkMXnXZlM3
EkcFssNV/BZ6X0xkGs9Fu1IOYim3GgTRT0C9XY7VymkqdoUMwGcXU+uDV2+6HJA7
WLk7hIMenTYUDNwVgSBZ00l410z2DD3eAIUK7cXDEQVvsGfoQqdIr+N1tK+Ub8DT
bltzJqs6HDPzVLTB2vUhLxlZVZT5w5tTkxm7NUdXNd0Ziw+KCdpZ+vRcBKXB8Gzd
U0W9wzc7IbzSY2rauvpKEii9u7Q1JV0wPHpwPQNfIQU6p78dFBL03yzrYHHPbsdA
m2vatv/DTh4Hlx1OVVjuda3jHMMmhPFxL/0yr7xk+sstmpB6OXpR1NmkiITrDlar
XuS/4i1Z5UGDtLMCAwEAAaOCAWYwggFiMCUGCWCGSAGG+EIBDQQYFhZDZXJ0aWZp
Y2F0IFNlcnZldXIgU1NMMB0GA1UdDgQWBBSqlDQlHdbbnlr+8foFmybpuiGg7zCB
lQYDVR0jBIGNMIGKgBRax3YtC8rSXQGxFqf58pGiIOVWQqFupGwwajELMAkGA1UE
BhMCZnIxDDAKBgNVBAgMA2lkZjEOMAwGA1UEBwwFcGFyaXMxDjAMBgNVBAoMBXZp
dGFtMRQwEgYDVQQLDAthdXRob3JpdGllczEXMBUGA1UEAwwOY2Ffcm9vdF9zZXJ2
ZXKCAgDbMAkGA1UdEgQCMAAwNAYDVR0RBC0wK4IeYWNjZXNzLWV4dGVybmFsLnNl
cnZpY2UuY29uc3Vsgglsb2NhbGhvc3QwDAYDVR0TAQH/BAIwADALBgNVHQ8EBAMC
BeAwEQYJYIZIAYb4QgEBBAQDAgZAMBMGA1UdJQQMMAoGCCsGAQUFBwMBMA0GCSqG
SIb3DQEBCwUAA4ICAQAoZcuWDAVmocLYRnRtgMGoe/kAR92WGhw2XlrFT/od5k8W
O5cZDSO7gZP9R7+sNu+i0kIwnp5hHQI0HJx7bMmNxxe3hDnjPcgaLF3EwknSs8Xh
ppk8CADurQlU4+wtlrG0Q5jJwQaxkzgf9UGnaOoiGyxilUf7gxUYLkyvqM833Dqx
VwyAbJGcyUPNWNaeCg1T0LDDnO4hWuE/eg01wFeX+vBRi49hIp1SoinT2L5+XVio
ECkaQ6TMn/7OZQ3EenH2zw3QCrZ7nNVhQgkz8oo7uWBDrFt2QWDEUbTWaDNMD1KS
yjFCFa0hEk3FLkOrmNQcx/+rVQPiEW1119yWXRVLy5b74ekT3JNq1PniCaWhTJj7
Uc+7LjPysGtC78Gasn4dlHD2RcqlVamAKTFaVz6mPD32it0kAyill6vtsfFxNKxN
WVZWdlG30/CdIueYG0lG36qCFiqGEJYk2OPRuAnbYHM0xYACJN6ioA76LvRSHdcs
vTeqHijD3VPYK5J27QFoQ6HVL8FeXPB/3vc6ezCiHvx2IfZAT2PimZcI1Li0AWq3
Gcj96r4cwqihgkgORA2vWc0n9zORV0CU/kp/Xg2knnaIwuPW6x/BaPEsTVz9aS/s
9MvaJ1ZNHqi69E9meRy9HzjsZnpaXaTqE7qHDDs8mS8VB6zZCxtq9452OiSskQ==
-----END CERTIFICATE-----
