Certificate:
    Data:
        Version: 3 (0x2)
        Serial Number: 270 (0x10e)
        Signature Algorithm: sha256WithRSAEncryption
        Issuer: C=fr, ST=idf, L=paris, O=vitam, OU=authorities, CN=ca_intermediate_server
        Validity
            Not Before: Sep 15 13:01:01 2020 GMT
            Not After : Dec 31 23:59:59 9999 GMT
        Subject: C=fr, ST=idf, L=paris, O=vitam, CN=access-external.service.local.consul
        Subject Public Key Info:
            Public Key Algorithm: rsaEncryption
                RSA Public-Key: (4096 bit)
                Modulus:
                    00:ae:c0:c7:75:38:fe:fa:1c:64:73:e1:b8:f5:eb:
                    1f:46:49:1f:3e:21:68:38:af:bc:ef:0e:24:69:92:
                    e8:1e:2e:40:98:77:7c:ed:6a:1c:7c:51:89:66:e9:
                    5f:0a:3e:cb:4e:ac:74:6f:21:86:a2:97:ea:c5:c1:
                    df:7d:f0:b1:32:dd:55:0a:ba:d0:c0:e4:6b:01:da:
                    d0:ff:00:33:76:05:8f:7e:53:65:0d:76:0b:3b:1b:
                    8f:35:3f:3e:de:c3:b1:3f:81:fd:ed:ca:48:da:55:
                    5e:3c:50:91:71:64:45:bd:58:4e:7f:54:93:bb:ad:
                    90:c5:fd:aa:d4:d4:09:b7:54:95:d6:39:e7:77:fe:
                    1f:03:5d:59:e5:2d:fb:fc:94:7e:bb:79:57:57:fe:
                    5c:ae:ab:42:b1:2b:6c:17:56:bf:82:62:8b:51:e0:
                    c9:cf:90:88:7f:94:1f:05:8d:f2:90:11:f9:f4:d1:
                    a1:a5:d5:aa:43:5e:13:63:55:00:98:70:87:d5:fa:
                    3e:5a:b8:7c:e1:2a:76:1e:b0:f8:a7:92:2f:bb:a5:
                    0e:68:b5:39:ce:e4:45:ea:f4:fa:40:b9:e6:59:ac:
                    3b:91:c2:74:be:c6:27:86:97:c9:82:d6:10:ef:bb:
                    2e:7f:ce:79:4c:0f:7e:f9:11:a0:f9:52:87:46:48:
                    94:09:42:75:1f:a2:6b:ab:40:ec:e7:0e:0f:69:d0:
                    57:13:45:c3:5d:73:fd:57:29:27:50:d3:12:2c:43:
                    92:32:b0:82:6a:7c:ef:74:8f:f7:ac:97:04:df:5b:
                    2e:62:c2:cc:4c:8c:67:95:b8:67:5f:7e:9f:53:ff:
                    19:db:f8:7b:a8:cf:b2:9b:89:3d:99:68:68:05:1a:
                    ba:08:03:32:4d:05:f7:6a:26:39:54:a5:11:3a:ce:
                    24:cc:35:13:ea:fe:8c:92:b7:40:d3:3c:a6:a4:96:
                    72:85:26:18:02:14:9b:c4:e4:ff:e3:a0:37:86:20:
                    de:c4:b2:ce:cb:5b:cd:ec:cd:da:ef:7d:73:c7:7f:
                    00:f8:11:a2:fc:e3:17:17:d2:5c:53:cb:ce:b4:82:
                    e5:94:86:b5:0b:7f:ce:97:f2:db:30:92:89:20:dd:
                    ca:a6:74:f3:21:4a:51:bc:46:35:1a:73:ab:b4:c3:
                    55:86:87:d0:6e:84:84:e0:eb:d4:f3:e7:7b:27:e1:
                    a4:ef:76:49:c6:56:6c:3c:3d:d2:93:71:24:60:cf:
                    fd:87:a1:75:fa:4b:b5:97:5e:3e:a6:b6:05:92:86:
                    fe:cf:e5:f3:8a:5a:25:ff:8e:48:47:87:42:1e:6b:
                    1c:07:1b:16:1f:00:1f:39:b0:ba:f5:68:65:f9:76:
                    27:67:1b
                Exponent: 65537 (0x10001)
        X509v3 extensions:
            Netscape Comment: 
                Certificat Serveur SSL
            X509v3 Subject Key Identifier: 
                6A:D6:5D:27:44:8D:39:77:4B:7B:BF:35:B7:8F:14:0E:FC:D4:4A:F3
            X509v3 Authority Key Identifier: 
                keyid:1F:AF:74:D4:61:D2:39:20:7E:C2:D6:67:C2:59:66:BB:EA:26:0E:9F
                DirName:/C=fr/ST=idf/L=paris/O=vitam/OU=authorities/CN=ca_root_server
                serial:01:0C

            X509v3 Issuer Alternative Name: 
                <EMPTY>

            X509v3 Subject Alternative Name: 
                DNS:access-external.service.consul, DNS:localhost, DNS:access-external.service.local.consul
            X509v3 Basic Constraints: critical
                CA:FALSE
            X509v3 Key Usage: 
                Digital Signature, Key Encipherment
            Netscape Cert Type: 
                SSL Server
            X509v3 Extended Key Usage: 
                TLS Web Server Authentication
    Signature Algorithm: sha256WithRSAEncryption
         9f:32:37:a2:26:97:97:bc:d6:6a:62:42:cf:fd:16:44:5c:07:
         ee:fa:a3:90:d5:be:ca:33:0e:da:0f:eb:43:4a:15:af:1f:66:
         fd:db:e6:74:a9:58:dd:b5:3e:93:ed:8e:e7:c0:9b:0a:3c:3d:
         05:05:bf:5a:ba:e4:01:97:93:51:2a:e8:e8:41:e4:41:7f:2b:
         e6:92:84:d9:fc:fa:55:50:e2:74:bb:a3:28:88:b1:19:ff:ef:
         98:de:7c:2f:62:9d:63:88:41:3f:1f:f0:a3:09:b8:bf:5c:05:
         8b:22:e4:2f:0c:e1:f3:fb:61:b5:f8:14:66:4a:2c:5a:e6:13:
         a6:47:5c:3f:c5:b1:65:04:84:02:b0:a3:3c:16:62:20:23:f1:
         36:d2:44:f2:3d:f3:7e:5c:97:b7:af:3a:4a:04:cf:a6:f3:fd:
         2d:47:7f:dd:91:16:ae:85:23:1a:06:25:ef:f9:75:d9:40:d0:
         e0:3a:73:50:68:2e:77:27:30:a5:c0:28:b2:de:11:30:53:5a:
         1b:fa:69:67:c3:18:70:3e:03:66:b8:7e:73:58:31:bd:f9:3d:
         01:b5:7d:9b:86:e5:f0:c9:13:e9:01:b9:9a:85:5e:5a:8b:13:
         47:73:bd:61:20:94:6d:82:4f:bf:b1:a3:fa:c7:02:f5:28:37:
         61:1d:cb:8c:40:86:9f:72:c7:91:c0:47:21:7a:e8:1e:3a:d3:
         0a:11:73:2a:b6:52:46:bd:a1:25:f8:8a:3c:a2:b6:3b:fc:db:
         d8:9d:80:69:38:88:cd:ce:40:3d:bb:86:8f:b1:ca:f5:06:0a:
         9f:f8:6a:70:ca:fd:93:16:5d:cf:9f:d8:b9:6f:6b:9b:be:d8:
         f8:82:0e:54:09:60:1b:8e:40:b7:fa:7f:71:c5:a0:70:d8:bc:
         b0:da:ac:3a:d3:ae:da:d6:c0:26:9c:7c:81:0d:67:a3:13:49:
         2a:f4:c4:46:25:25:31:81:10:08:3e:4e:16:c0:9c:ca:36:41:
         06:60:47:5b:e7:47:8b:6e:a0:22:09:8d:a2:68:c0:98:b4:c0:
         99:de:cb:83:52:0d:52:4c:95:91:d9:3c:94:b7:0e:9a:89:eb:
         a8:8a:bb:3f:11:f2:fd:8d:c8:6d:9b:2c:ee:8b:6f:fa:6d:6e:
         d5:1b:5c:89:c3:ce:ed:d6:f8:47:3c:ce:f5:65:ae:71:47:d0:
         6f:70:aa:db:d9:1c:f3:dc:aa:87:6c:1e:13:8d:ec:91:78:9e:
         6c:9a:79:b4:09:55:ab:14:3a:21:00:a8:5e:86:f5:d4:a8:72:
         9b:f9:c5:87:36:0d:4f:ea:b0:2d:de:5f:a8:cc:a6:03:bc:04:
         2e:1a:33:bc:86:00:ad:da
-----BEGIN CERTIFICATE-----
MIIG6DCCBNCgAwIBAgICAQ4wDQYJKoZIhvcNAQELBQAwcjELMAkGA1UEBhMCZnIx
DDAKBgNVBAgMA2lkZjEOMAwGA1UEBwwFcGFyaXMxDjAMBgNVBAoMBXZpdGFtMRQw
EgYDVQQLDAthdXRob3JpdGllczEfMB0GA1UEAwwWY2FfaW50ZXJtZWRpYXRlX3Nl
cnZlcjAgFw0yMDA5MTUxMzAxMDFaGA85OTk5MTIzMTIzNTk1OVowajELMAkGA1UE
BhMCZnIxDDAKBgNVBAgMA2lkZjEOMAwGA1UEBwwFcGFyaXMxDjAMBgNVBAoMBXZp
dGFtMS0wKwYDVQQDDCRhY2Nlc3MtZXh0ZXJuYWwuc2VydmljZS5sb2NhbC5jb25z
dWwwggIiMA0GCSqGSIb3DQEBAQUAA4ICDwAwggIKAoICAQCuwMd1OP76HGRz4bj1
6x9GSR8+IWg4r7zvDiRpkugeLkCYd3ztahx8UYlm6V8KPstOrHRvIYail+rFwd99
8LEy3VUKutDA5GsB2tD/ADN2BY9+U2UNdgs7G481Pz7ew7E/gf3tykjaVV48UJFx
ZEW9WE5/VJO7rZDF/arU1Am3VJXWOed3/h8DXVnlLfv8lH67eVdX/lyuq0KxK2wX
Vr+CYotR4MnPkIh/lB8FjfKQEfn00aGl1apDXhNjVQCYcIfV+j5auHzhKnYesPin
ki+7pQ5otTnO5EXq9PpAueZZrDuRwnS+xieGl8mC1hDvuy5/znlMD375EaD5UodG
SJQJQnUfomurQOznDg9p0FcTRcNdc/1XKSdQ0xIsQ5IysIJqfO90j/eslwTfWy5i
wsxMjGeVuGdffp9T/xnb+Huoz7KbiT2ZaGgFGroIAzJNBfdqJjlUpRE6ziTMNRPq
/oySt0DTPKaklnKFJhgCFJvE5P/joDeGIN7Ess7LW83szdrvfXPHfwD4EaL84xcX
0lxTy860guWUhrULf86X8tswkokg3cqmdPMhSlG8RjUac6u0w1WGh9BuhITg69Tz
53sn4aTvdknGVmw8PdKTcSRgz/2HoXX6S7WXXj6mtgWShv7P5fOKWiX/jkhHh0Ie
axwHGxYfAB85sLr1aGX5didnGwIDAQABo4IBjDCCAYgwJQYJYIZIAYb4QgENBBgW
FkNlcnRpZmljYXQgU2VydmV1ciBTU0wwHQYDVR0OBBYEFGrWXSdEjTl3S3u/NbeP
FA781ErzMIGVBgNVHSMEgY0wgYqAFB+vdNRh0jkgfsLWZ8JZZrvqJg6foW6kbDBq
MQswCQYDVQQGEwJmcjEMMAoGA1UECAwDaWRmMQ4wDAYDVQQHDAVwYXJpczEOMAwG
A1UECgwFdml0YW0xFDASBgNVBAsMC2F1dGhvcml0aWVzMRcwFQYDVQQDDA5jYV9y
b290X3NlcnZlcoICAQwwCQYDVR0SBAIwADBaBgNVHREEUzBRgh5hY2Nlc3MtZXh0
ZXJuYWwuc2VydmljZS5jb25zdWyCCWxvY2FsaG9zdIIkYWNjZXNzLWV4dGVybmFs
LnNlcnZpY2UubG9jYWwuY29uc3VsMAwGA1UdEwEB/wQCMAAwCwYDVR0PBAQDAgWg
MBEGCWCGSAGG+EIBAQQEAwIGQDATBgNVHSUEDDAKBggrBgEFBQcDATANBgkqhkiG
9w0BAQsFAAOCAgEAnzI3oiaXl7zWamJCz/0WRFwH7vqjkNW+yjMO2g/rQ0oVrx9m
/dvmdKlY3bU+k+2O58CbCjw9BQW/WrrkAZeTUSro6EHkQX8r5pKE2fz6VVDidLuj
KIixGf/vmN58L2KdY4hBPx/wowm4v1wFiyLkLwzh8/thtfgUZkosWuYTpkdcP8Wx
ZQSEArCjPBZiICPxNtJE8j3zflyXt686SgTPpvP9LUd/3ZEWroUjGgYl7/l12UDQ
4DpzUGgudycwpcAost4RMFNaG/ppZ8MYcD4DZrh+c1gxvfk9AbV9m4bl8MkT6QG5
moVeWosTR3O9YSCUbYJPv7Gj+scC9Sg3YR3LjECGn3LHkcBHIXroHjrTChFzKrZS
Rr2hJfiKPKK2O/zb2J2AaTiIzc5APbuGj7HK9QYKn/hqcMr9kxZdz5/YuW9rm77Y
+IIOVAlgG45At/p/ccWgcNi8sNqsOtOu2tbAJpx8gQ1noxNJKvTERiUlMYEQCD5O
FsCcyjZBBmBHW+dHi26gIgmNomjAmLTAmd7Lg1INUkyVkdk8lLcOmonrqIq7PxHy
/Y3IbZss7otv+m1u1RtcicPO7db4RzzO9WWucUfQb3Cq29kc89yqh2weE43skXie
bJp5tAlVqxQ6IQCoXob11Khym/nFhzYNT+qwLd5fqMymA7wELhozvIYArdo=
-----END CERTIFICATE-----
