Certificate:
    Data:
        Version: 3 (0x2)
        Serial Number: 286 (0x11e)
        Signature Algorithm: sha256WithRSAEncryption
        Issuer: C=fr, ST=idf, L=paris, O=vitam, OU=authorities, CN=ca_intermediate_server
        Validity
            Not Before: Jan 12 16:12:45 2022 GMT
            Not After : Jan 11 16:12:45 2025 GMT
        Subject: C=fr, ST=idf, L=paris, O=vitam, CN=access-external.service.fulllocal.consul
        Subject Public Key Info:
            Public Key Algorithm: rsaEncryption
                RSA Public-Key: (4096 bit)
                Modulus:
                    00:a9:8c:2e:1d:2b:29:54:9f:9d:a2:73:d1:8c:e2:
                    32:cc:00:fa:35:95:e3:9b:36:68:7a:b4:7a:8c:45:
                    60:e1:9c:df:b8:17:b1:ff:ff:48:63:eb:ed:07:4c:
                    84:6f:5a:93:5a:bf:21:ee:a5:f6:3d:5c:ae:88:c4:
                    67:88:d6:e9:4a:72:e3:75:0b:61:76:56:a3:6e:e7:
                    ac:03:ab:d3:e0:2f:bd:9b:84:4c:d3:0c:70:f8:b7:
                    5d:eb:31:0f:77:a7:79:fa:e5:c3:b3:51:f1:e5:22:
                    9b:4e:f5:f5:ca:1b:5f:97:d9:0e:d1:cb:48:78:5a:
                    d3:61:83:f6:db:4d:af:49:64:f7:e6:ae:e3:48:8d:
                    0e:47:e2:bb:2a:84:04:71:81:86:06:15:71:64:c9:
                    3e:a6:85:46:65:e9:45:6e:7b:72:84:1e:eb:53:9c:
                    b5:94:e5:13:c6:a6:96:d8:fc:b2:8e:21:b9:37:a1:
                    91:89:3c:1f:03:f6:33:6c:84:87:65:09:6a:08:ca:
                    c1:b5:04:3b:c1:16:ae:d6:bb:1d:6e:9e:26:61:68:
                    40:12:cc:aa:75:ed:fa:aa:6d:41:a8:81:d5:10:03:
                    19:69:f3:a7:30:cc:fc:f0:c3:46:13:6a:f1:cf:66:
                    77:d8:aa:36:61:4c:13:82:8d:35:3c:44:67:ad:2a:
                    db:d2:88:d1:e5:05:7a:19:e1:87:32:5a:df:95:58:
                    ff:e5:f8:92:87:54:d9:e5:cb:18:ec:e9:54:63:65:
                    e4:dd:5c:e3:17:d5:d0:ef:f3:d3:95:0c:2d:af:eb:
                    fb:15:6a:8f:02:05:6c:29:4c:59:ae:ec:35:bb:47:
                    c5:44:cd:13:61:9f:7c:17:1b:2e:4b:8c:c7:fc:e0:
                    58:b4:89:e8:25:76:2a:81:a9:28:a2:4a:c3:16:fa:
                    bc:f4:d7:a6:0e:90:09:5c:ba:8d:79:65:97:a2:7b:
                    bd:07:93:d9:67:b4:73:c1:c4:38:4a:ba:b5:60:4e:
                    ed:2c:ef:9a:ee:54:49:54:ee:14:78:0b:75:98:3a:
                    2c:71:51:c7:6f:06:2f:26:a7:17:9a:9f:6b:ee:3d:
                    95:2c:60:0d:15:70:51:63:a2:aa:a4:c2:1c:07:b3:
                    ac:9c:f6:18:a7:2d:17:f6:3c:85:02:b4:c2:90:1c:
                    91:4a:e4:51:16:76:ee:12:ad:4b:06:b8:86:0f:f5:
                    25:fa:68:35:44:86:a0:9d:0d:e2:01:91:b9:48:5a:
                    a9:24:78:a1:6a:60:1a:09:ad:dc:65:76:49:85:36:
                    53:3c:2d:80:67:00:4c:5e:5c:97:0e:e7:f2:44:30:
                    ce:6f:f5:2e:d6:8b:b2:75:76:d1:ae:3f:2a:d6:fd:
                    d8:fc:e9
                Exponent: 65537 (0x10001)
        X509v3 extensions:
            Netscape Comment: 
                Certificat Serveur SSL
            X509v3 Subject Key Identifier: 
                7A:18:CA:89:D0:52:0A:16:AF:52:BB:16:7F:6D:AC:42:6E:25:D0:84
            X509v3 Authority Key Identifier: 
                keyid:1F:AF:74:D4:61:D2:39:20:7E:C2:D6:67:C2:59:66:BB:EA:26:0E:9F
                DirName:/C=fr/ST=idf/L=paris/O=vitam/OU=authorities/CN=ca_root_server
                serial:01:0C

            X509v3 Issuer Alternative Name: 
                <EMPTY>

            X509v3 Subject Alternative Name: 
                DNS:access-external.service.consul, DNS:localhost, DNS:access-external.service.fulllocal.consul
            X509v3 Basic Constraints: critical
                CA:FALSE
            X509v3 Key Usage: 
                Digital Signature, Key Encipherment
            Netscape Cert Type: 
                SSL Server
            X509v3 Extended Key Usage: 
                TLS Web Server Authentication
    Signature Algorithm: sha256WithRSAEncryption
         32:a0:22:13:84:a2:7b:89:97:ae:72:ea:1b:cf:e2:60:b2:89:
         4b:04:83:f8:3d:16:51:1d:f0:35:1a:a1:71:bb:a6:6b:e8:96:
         ee:d8:ff:d5:51:23:82:21:c8:b5:f6:24:b4:4c:c4:77:d6:53:
         56:ec:f5:d8:71:50:09:80:3c:ac:2f:72:45:6a:a9:58:f9:81:
         8a:b0:2a:2d:4e:c9:cc:c2:7b:fd:e0:a3:77:4c:da:0e:6c:12:
         f6:0a:0b:30:92:b3:e1:4a:35:f3:8e:fe:c0:f6:29:5c:49:f9:
         91:53:8f:ef:f3:36:b6:9b:09:3f:8e:86:47:bb:9f:b2:6a:e3:
         26:2b:56:2a:27:0d:76:f2:45:19:a7:31:58:dd:2a:ce:bb:cb:
         3c:2e:ff:3d:3c:f2:5b:cb:24:5b:14:df:6e:f0:69:af:a9:1f:
         6e:5d:ac:f3:ec:22:43:6c:12:3d:82:9f:19:0b:45:1b:6d:e8:
         59:95:e4:ac:21:58:a5:b0:fd:69:ae:15:d8:42:01:93:33:3b:
         99:ea:f9:57:08:6e:2f:f1:c0:dd:ae:24:2f:53:49:52:61:07:
         fb:7c:57:bf:a8:5d:5a:f9:f4:fe:1e:e7:ad:ff:06:6c:9c:7f:
         92:c3:cd:d7:1a:84:1a:85:a8:78:7a:31:d4:27:7e:38:d0:e4:
         75:18:df:7b:51:64:a9:e5:6c:51:bc:50:e8:79:59:ca:2b:ea:
         cb:7d:7d:75:2e:23:fd:2e:da:f2:76:7b:16:03:34:43:0c:17:
         2a:53:df:1f:87:f5:00:f4:2b:9f:8c:c4:08:57:d5:cf:23:dc:
         96:f5:68:95:4a:44:8f:2d:d3:1f:f5:e8:83:8b:c7:98:d6:e9:
         dc:42:05:74:7b:f5:00:77:ac:fd:de:72:fa:5c:8d:c4:69:fc:
         99:6f:a9:2c:56:4f:86:7c:40:51:25:f2:45:ed:01:28:48:66:
         fa:94:36:5e:b8:2b:fa:f7:8f:04:1a:eb:73:14:fd:d2:17:1a:
         39:d6:c7:11:75:3b:5e:96:35:51:cc:03:6f:9d:6a:cc:04:90:
         76:90:dd:9a:25:15:4c:a2:74:48:27:04:cd:99:74:bc:b3:f7:
         dd:15:22:3f:23:8b:76:33:f1:6c:5e:45:d9:fe:39:ff:fa:cb:
         35:c2:9e:6a:8b:e4:3e:2d:63:bb:66:d8:fe:f0:ef:40:ee:ea:
         d1:3c:83:ed:99:f9:89:b9:40:31:e3:68:53:39:71:eb:2a:91:
         2d:7e:01:77:4e:db:88:9b:e8:de:68:d5:13:11:fb:8f:e7:48:
         35:62:41:8b:20:c9:de:c0:fe:e4:2a:4f:0c:b5:48:88:d7:f3:
         b2:67:d0:0a:4d:5d:10:b5
-----BEGIN CERTIFICATE-----
MIIG7jCCBNagAwIBAgICAR4wDQYJKoZIhvcNAQELBQAwcjELMAkGA1UEBhMCZnIx
DDAKBgNVBAgMA2lkZjEOMAwGA1UEBwwFcGFyaXMxDjAMBgNVBAoMBXZpdGFtMRQw
EgYDVQQLDAthdXRob3JpdGllczEfMB0GA1UEAwwWY2FfaW50ZXJtZWRpYXRlX3Nl
cnZlcjAeFw0yMjAxMTIxNjEyNDVaFw0yNTAxMTExNjEyNDVaMG4xCzAJBgNVBAYT
AmZyMQwwCgYDVQQIDANpZGYxDjAMBgNVBAcMBXBhcmlzMQ4wDAYDVQQKDAV2aXRh
bTExMC8GA1UEAwwoYWNjZXNzLWV4dGVybmFsLnNlcnZpY2UuZnVsbGxvY2FsLmNv
bnN1bDCCAiIwDQYJKoZIhvcNAQEBBQADggIPADCCAgoCggIBAKmMLh0rKVSfnaJz
0YziMswA+jWV45s2aHq0eoxFYOGc37gXsf//SGPr7QdMhG9ak1q/Ie6l9j1crojE
Z4jW6Upy43ULYXZWo27nrAOr0+AvvZuETNMMcPi3XesxD3enefrlw7NR8eUim071
9cobX5fZDtHLSHha02GD9ttNr0lk9+au40iNDkfiuyqEBHGBhgYVcWTJPqaFRmXp
RW57coQe61OctZTlE8amltj8so4huTehkYk8HwP2M2yEh2UJagjKwbUEO8EWrta7
HW6eJmFoQBLMqnXt+qptQaiB1RADGWnzpzDM/PDDRhNq8c9md9iqNmFME4KNNTxE
Z60q29KI0eUFehnhhzJa35VY/+X4kodU2eXLGOzpVGNl5N1c4xfV0O/z05UMLa/r
+xVqjwIFbClMWa7sNbtHxUTNE2GffBcbLkuMx/zgWLSJ6CV2KoGpKKJKwxb6vPTX
pg6QCVy6jXlll6J7vQeT2We0c8HEOEq6tWBO7Szvmu5USVTuFHgLdZg6LHFRx28G
LyanF5qfa+49lSxgDRVwUWOiqqTCHAezrJz2GKctF/Y8hQK0wpAckUrkURZ27hKt
Swa4hg/1JfpoNUSGoJ0N4gGRuUhaqSR4oWpgGgmt3GV2SYU2UzwtgGcATF5clw7n
8kQwzm/1LtaLsnV20a4/Ktb92PzpAgMBAAGjggGQMIIBjDAlBglghkgBhvhCAQ0E
GBYWQ2VydGlmaWNhdCBTZXJ2ZXVyIFNTTDAdBgNVHQ4EFgQUehjKidBSChavUrsW
f22sQm4l0IQwgZUGA1UdIwSBjTCBioAUH6901GHSOSB+wtZnwllmu+omDp+hbqRs
MGoxCzAJBgNVBAYTAmZyMQwwCgYDVQQIDANpZGYxDjAMBgNVBAcMBXBhcmlzMQ4w
DAYDVQQKDAV2aXRhbTEUMBIGA1UECwwLYXV0aG9yaXRpZXMxFzAVBgNVBAMMDmNh
X3Jvb3Rfc2VydmVyggIBDDAJBgNVHRIEAjAAMF4GA1UdEQRXMFWCHmFjY2Vzcy1l
eHRlcm5hbC5zZXJ2aWNlLmNvbnN1bIIJbG9jYWxob3N0gihhY2Nlc3MtZXh0ZXJu
YWwuc2VydmljZS5mdWxsbG9jYWwuY29uc3VsMAwGA1UdEwEB/wQCMAAwCwYDVR0P
BAQDAgWgMBEGCWCGSAGG+EIBAQQEAwIGQDATBgNVHSUEDDAKBggrBgEFBQcDATAN
BgkqhkiG9w0BAQsFAAOCAgEAMqAiE4Sie4mXrnLqG8/iYLKJSwSD+D0WUR3wNRqh
cbuma+iW7tj/1VEjgiHItfYktEzEd9ZTVuz12HFQCYA8rC9yRWqpWPmBirAqLU7J
zMJ7/eCjd0zaDmwS9goLMJKz4Uo1847+wPYpXEn5kVOP7/M2tpsJP46GR7ufsmrj
JitWKicNdvJFGacxWN0qzrvLPC7/PTzyW8skWxTfbvBpr6kfbl2s8+wiQ2wSPYKf
GQtFG23oWZXkrCFYpbD9aa4V2EIBkzM7mer5VwhuL/HA3a4kL1NJUmEH+3xXv6hd
Wvn0/h7nrf8GbJx/ksPN1xqEGoWoeHox1Cd+ONDkdRjfe1FkqeVsUbxQ6HlZyivq
y319dS4j/S7a8nZ7FgM0QwwXKlPfH4f1APQrn4zECFfVzyPclvVolUpEjy3TH/Xo
g4vHmNbp3EIFdHv1AHes/d5y+lyNxGn8mW+pLFZPhnxAUSXyRe0BKEhm+pQ2Xrgr
+vePBBrrcxT90hcaOdbHEXU7XpY1UcwDb51qzASQdpDdmiUVTKJ0SCcEzZl0vLP3
3RUiPyOLdjPxbF5F2f45//rLNcKeaovkPi1ju2bY/vDvQO7q0TyD7Zn5iblAMeNo
Uzlx6yqRLX4Bd07biJvo3mjVExH7j+dINWJBiyDJ3sD+5CpPDLVIiNfzsmfQCk1d
ELU=
-----END CERTIFICATE-----
