Certificate:
    Data:
        Version: 3 (0x2)
        Serial Number: 280 (0x118)
        Signature Algorithm: sha256WithRSAEncryption
        Issuer: C=fr, ST=idf, L=paris, O=vitam, OU=authorities, CN=ca_intermediate_server
        Validity
            Not Before: Nov 10 14:35:37 2021 GMT
            Not After : Nov  9 14:35:37 2024 GMT
        Subject: C=fr, ST=idf, L=paris, O=vitam, CN=access-external.service.fulllocal.consul
        Subject Public Key Info:
            Public Key Algorithm: rsaEncryption
                RSA Public-Key: (4096 bit)
                Modulus:
                    00:c8:80:32:93:bd:47:f6:0b:38:49:4f:34:9e:5d:
                    41:f7:bd:72:ab:31:25:f4:37:eb:1e:ea:1a:1b:c7:
                    af:41:e7:78:80:47:ff:47:9e:87:8c:2c:78:b3:c2:
                    c3:6c:fc:8e:47:67:f6:e4:fd:d3:77:6b:46:29:4e:
                    16:d5:52:9f:63:4e:69:dc:b8:38:d2:65:6a:17:8c:
                    13:6b:0e:12:53:0e:ee:30:90:22:63:22:01:64:e0:
                    b4:a8:ab:65:d9:fd:6e:b7:d8:a2:41:ad:fa:34:91:
                    4b:49:2a:c0:9a:27:5d:b5:70:e6:44:71:20:ba:33:
                    69:3d:84:90:4b:df:37:08:fe:26:4d:80:74:61:de:
                    30:43:d8:d9:df:08:02:5f:1d:3f:45:ec:67:74:59:
                    9b:a7:88:37:0d:97:20:fe:5a:c6:e6:23:2c:a9:0c:
                    13:d5:68:6d:40:d9:4c:8e:2c:f2:d3:e9:bc:dc:08:
                    b1:16:f3:1d:9e:cc:40:59:8c:b8:f0:c7:b2:41:e2:
                    8b:92:5e:aa:f2:04:6a:71:82:dc:b5:06:f4:c9:58:
                    73:d9:b3:1e:20:62:9a:23:6b:10:40:32:a4:b5:77:
                    40:b1:48:0b:42:12:8b:92:16:2f:85:85:ad:bd:37:
                    59:cd:fe:1e:a0:85:98:9e:43:8b:4e:50:9b:ed:b4:
                    a2:59:e4:61:f0:44:34:a2:e3:28:1e:8a:3b:de:f5:
                    6d:d8:c7:d6:42:db:3c:c1:a4:53:9a:2e:a9:8c:3b:
                    96:3e:cd:f2:2f:c7:24:d1:25:e3:1b:08:d1:9c:a8:
                    32:c6:4e:6a:5c:f7:ed:38:a5:0f:97:13:f0:e9:50:
                    d3:3a:8b:f4:b7:7f:43:36:50:ba:ed:1b:79:f8:21:
                    06:1c:75:2b:27:43:2e:85:9f:e4:8f:fa:06:7b:7b:
                    c0:3d:01:f4:ec:48:33:1b:15:e6:1d:73:93:5c:ea:
                    4e:f8:e2:74:88:6c:e3:be:42:19:16:79:45:c6:cf:
                    dd:5e:30:85:d1:e5:46:89:ce:6f:de:24:92:de:1e:
                    51:74:3e:26:ef:3e:47:f7:c3:44:88:d7:b5:67:29:
                    46:1d:64:61:49:50:f4:7e:8b:91:75:2e:04:e1:35:
                    3c:42:1e:6e:6b:f2:40:03:71:08:49:ac:cb:43:60:
                    f9:eb:67:69:d9:01:5e:d2:85:f7:19:11:6f:02:e7:
                    d6:0a:31:b0:23:3b:ad:f3:18:2b:23:d9:b0:d9:d9:
                    dd:99:10:6d:f1:b9:19:29:40:29:9e:c4:91:b2:29:
                    00:b6:25:f8:b5:e2:82:07:58:dc:8b:06:8a:2e:23:
                    6b:5e:43:b0:3c:19:7e:1c:fe:57:ad:10:19:bb:72:
                    b0:82:b7
                Exponent: 65537 (0x10001)
        X509v3 extensions:
            Netscape Comment: 
                Certificat Serveur SSL
            X509v3 Subject Key Identifier: 
                25:5E:4B:27:81:14:6A:BC:F8:E8:A3:9E:FA:E4:65:C9:D6:C9:CA:CC
            X509v3 Authority Key Identifier: 
                keyid:1F:AF:74:D4:61:D2:39:20:7E:C2:D6:67:C2:59:66:BB:EA:26:0E:9F
                DirName:/C=fr/ST=idf/L=paris/O=vitam/OU=authorities/CN=ca_root_server
                serial:01:0C

            X509v3 Issuer Alternative Name: 
                <EMPTY>

            X509v3 Subject Alternative Name: 
                DNS:access-external.service.consul, DNS:localhost, DNS:access-external.service.fulllocal.consul
            X509v3 Basic Constraints: critical
                CA:FALSE
            X509v3 Key Usage: 
                Digital Signature, Key Encipherment
            Netscape Cert Type: 
                SSL Server
            X509v3 Extended Key Usage: 
                TLS Web Server Authentication
    Signature Algorithm: sha256WithRSAEncryption
         38:42:26:72:be:a2:09:6e:b6:93:35:93:35:46:25:64:81:19:
         68:0d:79:26:e3:1a:d8:61:31:98:4a:cb:80:28:ac:b4:b0:a1:
         91:15:f6:90:ca:8e:ff:c2:e9:30:34:26:28:4f:39:60:d9:d4:
         fd:2f:68:96:fa:61:94:54:34:04:5d:7b:fe:06:09:43:74:d1:
         0a:7b:b1:75:db:4b:d9:34:69:ab:43:2f:b1:9a:41:e4:7a:7e:
         a6:53:fd:38:ce:78:b3:7f:2b:36:2c:7d:2a:af:e3:fa:a7:5d:
         a1:65:6c:6d:0d:fb:29:e9:a3:41:32:a5:5f:82:fb:01:a1:23:
         0f:7a:19:80:c9:96:fe:26:e0:d4:9c:93:05:9c:90:f3:02:c4:
         d9:2a:71:96:20:d9:03:49:53:51:92:4c:9a:64:8a:86:1e:cf:
         b0:13:72:96:c9:a4:bb:f7:98:f4:af:45:4a:b1:f1:cf:54:bc:
         63:fe:fa:14:84:36:b1:7a:65:c5:cc:91:47:ba:cf:bb:e9:e4:
         1c:26:d2:fe:3a:a9:5d:fb:26:0d:34:b3:46:c7:de:5c:41:48:
         bf:32:1f:e4:9b:da:35:6d:46:12:b0:f4:b1:ca:3c:f5:7c:2c:
         8c:1d:db:d4:41:fb:5d:5b:d2:30:29:de:d9:61:39:9c:61:3b:
         37:33:0a:ce:f8:a1:55:5f:c7:25:6d:d0:e0:c8:11:7e:5e:bb:
         0e:33:83:80:f0:b3:37:46:1c:ba:41:69:a8:aa:8e:27:87:c5:
         e8:e2:f0:55:35:ee:45:00:bc:a4:39:9e:44:31:68:ad:36:65:
         7c:fc:84:05:1a:4d:c6:6b:d9:4a:48:85:09:9b:29:6b:38:96:
         6f:11:74:98:45:e5:1b:e0:00:8e:02:15:80:0e:f7:52:03:ce:
         25:41:ac:08:ed:3c:55:eb:d6:34:b3:d7:95:16:2a:d0:4f:18:
         41:57:76:ef:12:93:89:66:c1:32:c0:96:fc:e8:a9:9c:85:ff:
         4c:c0:2d:b9:7c:32:d7:ce:12:5b:31:94:11:16:73:df:8c:ac:
         85:3e:4f:71:f7:53:a9:0c:9f:70:53:3f:66:27:ec:f3:23:27:
         01:cd:19:1a:b1:c9:4e:f0:8c:64:37:9c:b7:72:05:cf:a6:24:
         84:8a:50:b8:26:b6:75:eb:ca:6e:dc:88:76:fb:a4:b4:5f:ef:
         7a:a4:14:39:df:3c:22:03:15:f0:3a:69:75:ae:8a:e1:56:11:
         a4:1d:93:8d:bc:6e:37:76:70:59:a0:64:e7:09:e9:a9:70:08:
         9d:0b:93:f1:27:f4:72:83:59:5c:55:06:84:6e:f1:aa:21:0d:
         5a:e0:04:46:48:64:46:30
-----BEGIN CERTIFICATE-----
MIIG7jCCBNagAwIBAgICARgwDQYJKoZIhvcNAQELBQAwcjELMAkGA1UEBhMCZnIx
DDAKBgNVBAgMA2lkZjEOMAwGA1UEBwwFcGFyaXMxDjAMBgNVBAoMBXZpdGFtMRQw
EgYDVQQLDAthdXRob3JpdGllczEfMB0GA1UEAwwWY2FfaW50ZXJtZWRpYXRlX3Nl
cnZlcjAeFw0yMTExMTAxNDM1MzdaFw0yNDExMDkxNDM1MzdaMG4xCzAJBgNVBAYT
AmZyMQwwCgYDVQQIDANpZGYxDjAMBgNVBAcMBXBhcmlzMQ4wDAYDVQQKDAV2aXRh
bTExMC8GA1UEAwwoYWNjZXNzLWV4dGVybmFsLnNlcnZpY2UuZnVsbGxvY2FsLmNv
bnN1bDCCAiIwDQYJKoZIhvcNAQEBBQADggIPADCCAgoCggIBAMiAMpO9R/YLOElP
NJ5dQfe9cqsxJfQ36x7qGhvHr0HneIBH/0eeh4wseLPCw2z8jkdn9uT903drRilO
FtVSn2NOady4ONJlaheME2sOElMO7jCQImMiAWTgtKirZdn9brfYokGt+jSRS0kq
wJonXbVw5kRxILozaT2EkEvfNwj+Jk2AdGHeMEPY2d8IAl8dP0XsZ3RZm6eINw2X
IP5axuYjLKkME9VobUDZTI4s8tPpvNwIsRbzHZ7MQFmMuPDHskHii5JeqvIEanGC
3LUG9MlYc9mzHiBimiNrEEAypLV3QLFIC0ISi5IWL4WFrb03Wc3+HqCFmJ5Di05Q
m+20olnkYfBENKLjKB6KO971bdjH1kLbPMGkU5ouqYw7lj7N8i/HJNEl4xsI0Zyo
MsZOalz37TilD5cT8OlQ0zqL9Ld/QzZQuu0befghBhx1KydDLoWf5I/6Bnt7wD0B
9OxIMxsV5h1zk1zqTvjidIhs475CGRZ5RcbP3V4whdHlRonOb94kkt4eUXQ+Ju8+
R/fDRIjXtWcpRh1kYUlQ9H6LkXUuBOE1PEIebmvyQANxCEmsy0Ng+etnadkBXtKF
9xkRbwLn1goxsCM7rfMYKyPZsNnZ3ZkQbfG5GSlAKZ7EkbIpALYl+LXiggdY3IsG
ii4ja15DsDwZfhz+V60QGbtysIK3AgMBAAGjggGQMIIBjDAlBglghkgBhvhCAQ0E
GBYWQ2VydGlmaWNhdCBTZXJ2ZXVyIFNTTDAdBgNVHQ4EFgQUJV5LJ4EUarz46KOe
+uRlydbJyswwgZUGA1UdIwSBjTCBioAUH6901GHSOSB+wtZnwllmu+omDp+hbqRs
MGoxCzAJBgNVBAYTAmZyMQwwCgYDVQQIDANpZGYxDjAMBgNVBAcMBXBhcmlzMQ4w
DAYDVQQKDAV2aXRhbTEUMBIGA1UECwwLYXV0aG9yaXRpZXMxFzAVBgNVBAMMDmNh
X3Jvb3Rfc2VydmVyggIBDDAJBgNVHRIEAjAAMF4GA1UdEQRXMFWCHmFjY2Vzcy1l
eHRlcm5hbC5zZXJ2aWNlLmNvbnN1bIIJbG9jYWxob3N0gihhY2Nlc3MtZXh0ZXJu
YWwuc2VydmljZS5mdWxsbG9jYWwuY29uc3VsMAwGA1UdEwEB/wQCMAAwCwYDVR0P
BAQDAgWgMBEGCWCGSAGG+EIBAQQEAwIGQDATBgNVHSUEDDAKBggrBgEFBQcDATAN
BgkqhkiG9w0BAQsFAAOCAgEAOEImcr6iCW62kzWTNUYlZIEZaA15JuMa2GExmErL
gCistLChkRX2kMqO/8LpMDQmKE85YNnU/S9olvphlFQ0BF17/gYJQ3TRCnuxddtL
2TRpq0MvsZpB5Hp+plP9OM54s38rNix9Kq/j+qddoWVsbQ37KemjQTKlX4L7AaEj
D3oZgMmW/ibg1JyTBZyQ8wLE2SpxliDZA0lTUZJMmmSKhh7PsBNylsmku/eY9K9F
SrHxz1S8Y/76FIQ2sXplxcyRR7rPu+nkHCbS/jqpXfsmDTSzRsfeXEFIvzIf5Jva
NW1GErD0sco89XwsjB3b1EH7XVvSMCne2WE5nGE7NzMKzvihVV/HJW3Q4MgRfl67
DjODgPCzN0YcukFpqKqOJ4fF6OLwVTXuRQC8pDmeRDForTZlfPyEBRpNxmvZSkiF
CZspaziWbxF0mEXlG+AAjgIVgA73UgPOJUGsCO08VevWNLPXlRYq0E8YQVd27xKT
iWbBMsCW/OipnIX/TMAtuXwy184SWzGUERZz34yshT5PcfdTqQyfcFM/Zifs8yMn
Ac0ZGrHJTvCMZDect3IFz6YkhIpQuCa2devKbtyIdvuktF/veqQUOd88IgMV8Dpp
da6K4VYRpB2TjbxuN3ZwWaBk5wnpqXAInQuT8Sf0coNZXFUGhG7xqiENWuAERkhk
RjA=
-----END CERTIFICATE-----
