Certificate:
    Data:
        Version: 3 (0x2)
        Serial Number: 213 (0xd5)
    Signature Algorithm: sha256WithRSAEncryption
        Issuer: C=fr, ST=idf, L=paris, O=vitam, OU=authorities, CN=ca_intermediate_server
        Validity
            Not Before: Aug  9 16:04:45 2017 GMT
            Not After : Aug  8 16:04:45 2020 GMT
        Subject: C=fr, ST=idf, L=paris, O=vitam, CN=access-external.service.consul
        Subject Public Key Info:
            Public Key Algorithm: rsaEncryption
                Public-Key: (4096 bit)
                Modulus:
                    00:aa:f8:43:bc:72:a6:3a:2f:93:fe:d6:97:7f:74:
                    95:c8:fa:a6:33:7c:97:6b:fc:1b:88:f7:97:e9:7d:
                    cd:3e:06:76:a9:2e:cf:9b:92:9e:4b:1f:ac:a8:d5:
                    cc:56:8d:39:4a:20:09:67:93:4a:92:a1:26:d1:32:
                    ea:6e:27:00:af:aa:e0:27:af:e9:5a:8e:fc:d2:4c:
                    4a:af:5c:6a:14:63:b3:59:8f:01:50:f3:96:3d:a5:
                    65:60:15:a0:02:4b:1c:e0:15:91:ee:cd:03:0c:dc:
                    26:79:42:af:e4:20:f8:7f:be:6b:34:7a:1d:ca:e0:
                    07:6a:f1:ec:ba:81:86:f0:81:f8:39:cd:7d:65:cf:
                    99:db:cd:87:12:d4:80:18:09:68:62:51:cf:74:a3:
                    00:fb:62:3f:a7:72:a6:b0:bf:6d:59:7f:15:d9:a0:
                    fd:a2:20:68:67:ab:ba:36:3c:24:e7:af:f6:9e:8d:
                    b4:25:72:06:eb:66:de:56:c8:b9:31:1b:b4:91:c7:
                    3c:cd:28:00:88:4b:2a:19:26:a0:83:2f:96:ef:ea:
                    50:fe:02:07:8b:9e:7d:59:b0:6a:ce:3b:43:16:b4:
                    e1:ef:18:19:b1:9c:9a:bb:70:6e:f1:18:8a:9d:f1:
                    ab:8d:80:e9:95:74:7b:db:2e:39:53:4f:5a:b8:26:
                    cd:1e:ee:c9:d9:1b:41:e7:90:47:cb:e2:4d:50:4d:
                    af:c7:b1:1e:11:7d:4e:e8:79:27:10:35:55:de:bc:
                    4e:65:2f:e8:8d:c5:96:b3:d2:ba:92:d0:60:83:f2:
                    27:90:55:c1:1f:8e:07:58:a6:af:2d:f6:fe:af:28:
                    59:75:d6:a6:78:e1:fa:ba:a7:35:0c:c5:45:5d:c9:
                    7b:47:bc:f3:0f:70:d8:f2:9d:25:3c:30:98:43:81:
                    db:b0:6a:84:74:5d:1c:17:f8:f5:0e:97:a6:9e:43:
                    dd:2c:59:75:ec:2b:25:f8:fd:9c:38:cb:a3:47:bf:
                    7c:dc:7f:f2:f7:ac:a0:21:6a:0c:e2:d1:e6:a4:63:
                    70:2c:c7:01:0d:35:dd:d2:fb:aa:43:ac:2d:c7:5a:
                    28:05:97:17:bb:3d:dc:e1:fa:a1:d2:87:1a:26:62:
                    71:87:95:28:0c:cd:e0:4e:5f:b8:f5:81:ed:b6:53:
                    ab:31:cc:8a:42:0c:64:9f:a6:8a:8e:40:2c:64:61:
                    55:29:da:bb:f6:59:e8:d7:62:84:62:5d:cb:fc:43:
                    b1:a6:88:3a:f3:d7:88:f0:70:09:f7:4f:fd:f5:dd:
                    cd:7d:a6:11:0b:f4:40:6f:4e:42:0c:41:9a:16:6a:
                    33:77:b2:b4:c7:a9:ca:4f:c0:e0:c7:4a:64:f7:07:
                    89:eb:c1
                Exponent: 65537 (0x10001)
        X509v3 extensions:
            Netscape Comment: 
                Certificat Serveur SSL
            X509v3 Subject Key Identifier: 
                7A:1A:07:88:47:F7:C6:4A:F7:2F:84:79:25:2E:08:86:3B:C5:77:3A
            X509v3 Authority Key Identifier: 
                keyid:FD:29:CE:50:34:CD:B5:E2:30:E7:12:67:BA:2C:7D:5B:E0:D5:F2:2C
                DirName:/C=fr/ST=idf/L=paris/O=vitam/OU=authorities/CN=ca_root_server
                serial:D3

            X509v3 Issuer Alternative Name: 
                <EMPTY>

            X509v3 Subject Alternative Name: 
                DNS:access-external.service.consul, DNS:localhost
            X509v3 Basic Constraints: critical
                CA:FALSE
            X509v3 Key Usage: 
                Digital Signature, Non Repudiation, Key Encipherment
            Netscape Cert Type: 
                SSL Server
            X509v3 Extended Key Usage: 
                TLS Web Server Authentication
    Signature Algorithm: sha256WithRSAEncryption
         48:3a:a6:5e:3b:b1:d1:e0:8e:0d:3c:0d:76:84:88:24:08:9b:
         b6:02:7b:2d:2b:c3:c7:80:f7:19:53:c6:05:26:97:a2:10:b3:
         ff:a2:2a:fb:14:1c:5c:45:90:d8:dc:3e:a0:67:63:8b:40:6f:
         65:d4:2f:47:5b:9e:53:c9:f3:e9:16:ba:b9:e6:a1:2d:e5:e9:
         b3:68:b5:30:7b:37:ae:ad:b1:cb:36:c3:c9:76:85:e2:0f:ce:
         71:6d:17:e4:a8:af:d9:74:14:86:77:c6:58:41:1b:29:53:ac:
         5f:41:1c:5e:a8:14:d6:e6:ed:e7:09:cb:1b:ae:67:c6:cb:08:
         1c:cc:f8:50:96:6d:ef:68:84:cd:c1:a5:0b:5e:5a:cb:ca:d2:
         e9:22:f1:fb:33:14:1e:06:10:40:de:61:2a:d5:1c:c5:b4:1b:
         11:c7:43:02:7f:b1:72:40:92:58:b1:da:6e:0b:fa:75:92:c7:
         c1:54:be:a0:e5:8b:8f:a5:1e:3b:2e:90:79:10:0d:80:a8:ba:
         02:dd:9a:3d:ec:24:ee:4b:f1:d9:88:41:7b:40:28:fc:51:8b:
         92:06:e0:cf:99:3a:a9:da:5f:3c:b8:8c:73:c2:0b:fd:87:b2:
         bc:cd:89:4e:89:5e:9b:6a:f7:0a:fc:8d:64:da:d2:9a:24:29:
         49:12:6a:58:a8:e1:f6:18:5c:03:0f:e1:51:80:4d:85:ed:5c:
         40:1d:0e:d6:b2:7f:d6:a0:0a:14:5f:e2:71:a6:99:5a:9e:32:
         e8:b5:64:ff:80:0f:86:c0:47:e6:98:3e:f7:b9:5b:e6:f5:2e:
         7b:84:30:62:f7:79:99:d2:53:7e:35:da:09:5c:04:a8:1a:b6:
         17:f9:7c:ff:31:e3:a4:f7:80:09:7f:26:3f:4c:3e:d1:41:4c:
         52:a6:ba:df:c3:6e:d1:c5:35:33:43:81:46:ba:4e:93:a3:3e:
         e1:c7:4b:a6:a3:a6:c0:ef:6a:69:35:ae:49:b0:87:b3:d7:9f:
         94:97:7e:cc:02:e6:09:6e:4c:5d:f8:d9:b0:2a:de:cb:8e:34:
         02:58:aa:66:11:44:fa:7c:0c:c8:72:0b:09:52:81:aa:4a:56:
         83:65:6a:16:12:4e:cb:89:8d:3c:63:f9:70:10:cb:ab:fa:78:
         18:33:03:59:76:0a:ed:60:52:b0:81:e2:12:5d:61:38:52:73:
         31:45:41:99:d2:33:c6:e8:c8:da:dd:c8:c5:a3:86:6c:24:e8:
         be:eb:c2:4c:56:3e:1e:0f:67:71:40:a0:b8:f4:c4:41:41:e8:
         12:13:4b:06:52:d1:45:9c:93:d2:55:67:00:bc:dc:91:8e:9e:
         89:a0:4d:d8:18:36:05:0e
-----BEGIN CERTIFICATE-----
MIIGujCCBKKgAwIBAgICANUwDQYJKoZIhvcNAQELBQAwcjELMAkGA1UEBhMCZnIx
DDAKBgNVBAgMA2lkZjEOMAwGA1UEBwwFcGFyaXMxDjAMBgNVBAoMBXZpdGFtMRQw
EgYDVQQLDAthdXRob3JpdGllczEfMB0GA1UEAwwWY2FfaW50ZXJtZWRpYXRlX3Nl
cnZlcjAeFw0xNzA4MDkxNjA0NDVaFw0yMDA4MDgxNjA0NDVaMGQxCzAJBgNVBAYT
AmZyMQwwCgYDVQQIDANpZGYxDjAMBgNVBAcMBXBhcmlzMQ4wDAYDVQQKDAV2aXRh
bTEnMCUGA1UEAwweYWNjZXNzLWV4dGVybmFsLnNlcnZpY2UuY29uc3VsMIICIjAN
BgkqhkiG9w0BAQEFAAOCAg8AMIICCgKCAgEAqvhDvHKmOi+T/taXf3SVyPqmM3yX
a/wbiPeX6X3NPgZ2qS7Pm5KeSx+sqNXMVo05SiAJZ5NKkqEm0TLqbicAr6rgJ6/p
Wo780kxKr1xqFGOzWY8BUPOWPaVlYBWgAksc4BWR7s0DDNwmeUKv5CD4f75rNHod
yuAHavHsuoGG8IH4Oc19Zc+Z282HEtSAGAloYlHPdKMA+2I/p3KmsL9tWX8V2aD9
oiBoZ6u6Njwk56/2no20JXIG62beVsi5MRu0kcc8zSgAiEsqGSaggy+W7+pQ/gIH
i559WbBqzjtDFrTh7xgZsZyau3Bu8RiKnfGrjYDplXR72y45U09auCbNHu7J2RtB
55BHy+JNUE2vx7EeEX1O6HknEDVV3rxOZS/ojcWWs9K6ktBgg/InkFXBH44HWKav
Lfb+ryhZddameOH6uqc1DMVFXcl7R7zzD3DY8p0lPDCYQ4HbsGqEdF0cF/j1Dpem
nkPdLFl17Csl+P2cOMujR7983H/y96ygIWoM4tHmpGNwLMcBDTXd0vuqQ6wtx1oo
BZcXuz3c4fqh0ocaJmJxh5UoDM3gTl+49YHttlOrMcyKQgxkn6aKjkAsZGFVKdq7
9lno12KEYl3L/EOxpog689eI8HAJ90/99d3NfaYRC/RAb05CDEGaFmozd7K0x6nK
T8Dgx0pk9weJ68ECAwEAAaOCAWYwggFiMCUGCWCGSAGG+EIBDQQYFhZDZXJ0aWZp
Y2F0IFNlcnZldXIgU1NMMB0GA1UdDgQWBBR6GgeIR/fGSvcvhHklLgiGO8V3OjCB
lQYDVR0jBIGNMIGKgBT9Kc5QNM214jDnEme6LH1b4NXyLKFupGwwajELMAkGA1UE
BhMCZnIxDDAKBgNVBAgMA2lkZjEOMAwGA1UEBwwFcGFyaXMxDjAMBgNVBAoMBXZp
dGFtMRQwEgYDVQQLDAthdXRob3JpdGllczEXMBUGA1UEAwwOY2Ffcm9vdF9zZXJ2
ZXKCAgDTMAkGA1UdEgQCMAAwNAYDVR0RBC0wK4IeYWNjZXNzLWV4dGVybmFsLnNl
cnZpY2UuY29uc3Vsgglsb2NhbGhvc3QwDAYDVR0TAQH/BAIwADALBgNVHQ8EBAMC
BeAwEQYJYIZIAYb4QgEBBAQDAgZAMBMGA1UdJQQMMAoGCCsGAQUFBwMBMA0GCSqG
SIb3DQEBCwUAA4ICAQBIOqZeO7HR4I4NPA12hIgkCJu2AnstK8PHgPcZU8YFJpei
ELP/oir7FBxcRZDY3D6gZ2OLQG9l1C9HW55TyfPpFrq55qEt5emzaLUwezeurbHL
NsPJdoXiD85xbRfkqK/ZdBSGd8ZYQRspU6xfQRxeqBTW5u3nCcsbrmfGywgczPhQ
lm3vaITNwaULXlrLytLpIvH7MxQeBhBA3mEq1RzFtBsRx0MCf7FyQJJYsdpuC/p1
ksfBVL6g5YuPpR47LpB5EA2AqLoC3Zo97CTuS/HZiEF7QCj8UYuSBuDPmTqp2l88
uIxzwgv9h7K8zYlOiV6bavcK/I1k2tKaJClJEmpYqOH2GFwDD+FRgE2F7VxAHQ7W
sn/WoAoUX+JxpplanjLotWT/gA+GwEfmmD73uVvm9S57hDBi93mZ0lN+NdoJXASo
GrYX+Xz/MeOk94AJfyY/TD7RQUxSprrfw27RxTUzQ4FGuk6Toz7hx0umo6bA72pp
Na5JsIez15+Ul37MAuYJbkxd+NmwKt7LjjQCWKpmEUT6fAzIcgsJUoGqSlaDZWoW
Ek7LiY08Y/lwEMur+ngYMwNZdgrtYFKwgeISXWE4UnMxRUGZ0jPG6Mja3cjFo4Zs
JOi+68JMVj4eD2dxQKC49MRBQegSE0sGUtFFnJPSVWcAvNyRjp6JoE3YGDYFDg==
-----END CERTIFICATE-----
