Certificate:
    Data:
        Version: 3 (0x2)
        Serial Number: 202 (0xca)
    Signature Algorithm: sha256WithRSAEncryption
        Issuer: C=fr, ST=idf, L=paris, O=vitam, OU=authorities, CN=ca_intermediate_server
        Validity
            Not Before: Jul 12 14:29:50 2017 GMT
            Not After : Jul 11 14:29:50 2020 GMT
        Subject: C=fr, ST=idf, L=paris, O=vitam, CN=access-external.service.consul
        Subject Public Key Info:
            Public Key Algorithm: rsaEncryption
                Public-Key: (4096 bit)
                Modulus:
                    00:d3:73:44:2c:b2:19:f4:d5:e8:e8:64:66:52:78:
                    67:6e:51:16:9d:63:32:03:b7:a9:55:aa:41:45:b9:
                    be:7d:fd:c4:b4:e2:5a:3c:6b:a9:d1:c1:fb:18:31:
                    03:ae:93:79:a6:9c:e9:52:ef:55:a4:3d:a2:58:15:
                    ba:49:a3:3c:16:d0:57:0d:e9:a7:8b:96:af:87:bf:
                    f2:87:6b:87:ce:a2:6a:fa:88:48:86:52:7b:eb:84:
                    18:40:29:b3:99:9d:6c:13:da:e9:0c:42:1f:b5:cd:
                    8d:3d:79:6b:51:23:cd:30:b6:54:9d:20:6e:cc:81:
                    da:2c:96:dc:07:2b:f7:92:b7:5b:bc:6f:5c:40:cb:
                    23:e6:ec:6e:19:c7:c1:3a:3c:b5:44:25:c8:f1:37:
                    a2:79:c7:78:7a:39:6a:a7:97:5b:e9:5c:67:df:43:
                    5f:10:a4:39:af:fd:50:6a:7a:cb:2e:bc:5c:09:09:
                    f2:60:33:4d:b3:49:24:0c:90:a4:e6:67:48:9c:9c:
                    12:e6:98:10:bc:59:95:d4:3a:e7:6f:fc:83:40:5a:
                    05:44:bd:0d:de:2b:80:1d:76:80:05:ff:ca:6e:21:
                    c1:e1:bb:8d:b1:52:98:e0:6f:1f:b8:65:8a:7a:22:
                    e2:47:fd:a3:83:4f:dd:27:58:73:87:d6:a4:06:03:
                    db:cc:c5:d6:83:f3:6c:d8:f5:e6:f3:25:d0:5a:e9:
                    81:55:2d:31:90:b8:53:bd:7c:70:3e:33:24:87:1b:
                    2c:f4:0c:bf:9e:c4:10:7a:f3:5e:53:88:c5:da:b3:
                    33:94:dc:6e:ae:30:e8:3e:86:40:46:94:b1:a5:e1:
                    b7:ef:b5:8d:61:cc:4d:c6:5c:80:40:94:ad:64:63:
                    33:a9:1c:9f:ed:55:71:02:7e:a6:6d:f6:c7:4c:b0:
                    e5:b3:33:fd:f8:b4:65:73:50:64:ae:fe:41:f4:67:
                    2c:5b:8a:e6:83:98:83:7d:d9:7f:7f:12:69:41:62:
                    a4:dc:99:c5:3f:1d:b2:e1:e3:24:44:98:8f:85:58:
                    2f:dc:6b:86:fb:66:bf:16:c7:bc:6e:77:bd:99:62:
                    db:d3:ad:57:96:ab:e0:00:55:60:c5:fe:64:b6:42:
                    6f:67:9c:66:30:39:4f:4c:4e:98:35:54:ef:c1:53:
                    c1:63:20:8c:75:7c:86:bb:3c:64:43:1c:bf:75:74:
                    b0:ba:a8:16:16:7a:99:0d:00:d0:7c:ba:a9:2e:87:
                    6f:07:58:20:7a:93:c5:46:94:fb:eb:14:e1:e3:0b:
                    23:cc:e9:ad:2a:8d:78:c5:29:aa:48:bb:aa:3a:26:
                    87:e0:26:cc:ea:26:7f:a1:82:40:b1:ae:4c:11:bc:
                    e4:16:e3
                Exponent: 65537 (0x10001)
        X509v3 extensions:
            Netscape Comment: 
                Certificat Serveur SSL
            X509v3 Subject Key Identifier: 
                98:AF:9C:77:5E:E5:EB:8B:9B:0C:47:66:90:76:F8:D0:11:45:9C:32
            X509v3 Authority Key Identifier: 
                keyid:80:0B:DF:DC:D5:21:B0:C8:E3:CC:91:21:8F:29:18:A0:6E:B4:C8:12
                DirName:/C=fr/ST=idf/L=paris/O=vitam/OU=authorities/CN=ca_root_server
                serial:C8

            X509v3 Issuer Alternative Name: 
                <EMPTY>

            X509v3 Subject Alternative Name: 
                DNS:access-external.service.consul, DNS:localhost
            X509v3 Basic Constraints: critical
                CA:FALSE
            X509v3 Key Usage: 
                Digital Signature, Non Repudiation, Key Encipherment
            Netscape Cert Type: 
                SSL Server
            X509v3 Extended Key Usage: 
                TLS Web Server Authentication
    Signature Algorithm: sha256WithRSAEncryption
         68:7d:d9:c4:dc:05:82:4f:06:98:8b:46:92:2f:5e:9a:4f:06:
         b3:da:d5:c0:30:ac:a7:fb:30:9e:c1:0e:c4:35:1a:74:88:ff:
         f7:c7:4f:43:5f:f9:37:34:a4:84:e7:59:53:35:e4:70:d1:d0:
         9a:69:72:7c:3e:d7:2c:cb:19:db:99:48:48:57:98:76:14:8a:
         e2:ac:79:1f:b3:8c:b6:01:a3:e1:aa:2a:9c:90:35:9f:fc:fb:
         0d:8e:b2:1b:00:88:e6:6f:34:3e:26:f5:cb:71:ae:7a:41:b6:
         e1:c5:e8:cc:ab:e6:9d:7d:e2:03:d4:c2:60:71:a5:70:9f:2e:
         63:7f:61:14:de:57:8d:7c:f2:0e:ea:a3:18:0c:8a:d7:bb:c0:
         ae:8c:a2:75:7c:52:d4:14:dd:3c:3b:ec:2b:99:1f:75:78:76:
         8f:6b:14:34:3f:07:94:1c:a8:46:6a:8a:00:78:86:73:15:e8:
         0e:b4:da:d0:b5:f4:14:dd:73:23:42:98:0d:ae:ce:3d:81:df:
         11:c2:f6:d1:e2:35:0b:a1:2e:55:a1:ab:c1:98:31:5e:27:f4:
         76:48:8d:b9:7a:0c:ec:ce:b8:c8:7a:a3:a2:16:d4:db:e7:a4:
         2f:60:81:50:6a:25:26:1d:77:65:81:6e:4e:55:e6:e6:34:bd:
         a2:ab:eb:05:5f:e4:6d:53:f0:f5:ba:3e:24:ef:84:c4:03:51:
         94:ca:b9:4d:b4:59:4a:64:3d:88:99:6e:8f:14:15:e5:d3:a1:
         c9:18:a3:24:d5:9b:18:26:2c:b2:bd:a3:30:e8:f7:f5:71:a6:
         00:9f:b1:c1:52:8c:c4:03:84:01:2f:70:c2:40:7d:37:b9:cd:
         b2:71:f9:1a:d2:56:87:d3:32:27:a0:e6:00:b9:76:9c:22:3c:
         e3:4c:6d:4f:46:6b:90:c8:c6:6e:3f:19:4c:50:85:b2:0f:bd:
         a3:16:db:b4:c3:26:33:90:8a:d3:2f:6b:5d:83:96:5f:0b:8c:
         c0:74:68:88:16:49:30:f3:23:45:45:49:11:e9:06:ff:0e:39:
         ae:93:e6:6e:9a:6b:be:65:58:2d:d2:a8:3b:dd:4a:f2:1a:d1:
         f9:cd:5b:70:59:2e:a6:cf:7a:a0:d5:09:c3:35:ec:d0:5a:c9:
         03:72:cc:c1:e6:1b:ff:91:0f:66:57:5b:fc:19:84:7b:1b:c3:
         7c:65:6c:b7:62:5a:cf:83:8b:eb:c1:d4:f1:30:4c:88:9a:b0:
         87:63:3d:69:a3:01:dd:d1:62:c9:19:dc:89:df:5e:a9:fe:5a:
         04:29:b2:03:11:55:71:ff:d0:df:46:29:16:d9:f0:fc:34:b3:
         5c:e4:d4:74:8c:52:03:74
-----BEGIN CERTIFICATE-----
MIIGujCCBKKgAwIBAgICAMowDQYJKoZIhvcNAQELBQAwcjELMAkGA1UEBhMCZnIx
DDAKBgNVBAgMA2lkZjEOMAwGA1UEBwwFcGFyaXMxDjAMBgNVBAoMBXZpdGFtMRQw
EgYDVQQLDAthdXRob3JpdGllczEfMB0GA1UEAwwWY2FfaW50ZXJtZWRpYXRlX3Nl
cnZlcjAeFw0xNzA3MTIxNDI5NTBaFw0yMDA3MTExNDI5NTBaMGQxCzAJBgNVBAYT
AmZyMQwwCgYDVQQIDANpZGYxDjAMBgNVBAcMBXBhcmlzMQ4wDAYDVQQKDAV2aXRh
bTEnMCUGA1UEAwweYWNjZXNzLWV4dGVybmFsLnNlcnZpY2UuY29uc3VsMIICIjAN
BgkqhkiG9w0BAQEFAAOCAg8AMIICCgKCAgEA03NELLIZ9NXo6GRmUnhnblEWnWMy
A7epVapBRbm+ff3EtOJaPGup0cH7GDEDrpN5ppzpUu9VpD2iWBW6SaM8FtBXDemn
i5avh7/yh2uHzqJq+ohIhlJ764QYQCmzmZ1sE9rpDEIftc2NPXlrUSPNMLZUnSBu
zIHaLJbcByv3krdbvG9cQMsj5uxuGcfBOjy1RCXI8Teiecd4ejlqp5db6Vxn30Nf
EKQ5r/1QanrLLrxcCQnyYDNNs0kkDJCk5mdInJwS5pgQvFmV1Drnb/yDQFoFRL0N
3iuAHXaABf/KbiHB4buNsVKY4G8fuGWKeiLiR/2jg0/dJ1hzh9akBgPbzMXWg/Ns
2PXm8yXQWumBVS0xkLhTvXxwPjMkhxss9Ay/nsQQevNeU4jF2rMzlNxurjDoPoZA
RpSxpeG377WNYcxNxlyAQJStZGMzqRyf7VVxAn6mbfbHTLDlszP9+LRlc1Bkrv5B
9GcsW4rmg5iDfdl/fxJpQWKk3JnFPx2y4eMkRJiPhVgv3GuG+2a/Fse8bne9mWLb
061XlqvgAFVgxf5ktkJvZ5xmMDlPTE6YNVTvwVPBYyCMdXyGuzxkQxy/dXSwuqgW
FnqZDQDQfLqpLodvB1ggepPFRpT76xTh4wsjzOmtKo14xSmqSLuqOiaH4CbM6iZ/
oYJAsa5MEbzkFuMCAwEAAaOCAWYwggFiMCUGCWCGSAGG+EIBDQQYFhZDZXJ0aWZp
Y2F0IFNlcnZldXIgU1NMMB0GA1UdDgQWBBSYr5x3XuXri5sMR2aQdvjQEUWcMjCB
lQYDVR0jBIGNMIGKgBSAC9/c1SGwyOPMkSGPKRigbrTIEqFupGwwajELMAkGA1UE
BhMCZnIxDDAKBgNVBAgMA2lkZjEOMAwGA1UEBwwFcGFyaXMxDjAMBgNVBAoMBXZp
dGFtMRQwEgYDVQQLDAthdXRob3JpdGllczEXMBUGA1UEAwwOY2Ffcm9vdF9zZXJ2
ZXKCAgDIMAkGA1UdEgQCMAAwNAYDVR0RBC0wK4IeYWNjZXNzLWV4dGVybmFsLnNl
cnZpY2UuY29uc3Vsgglsb2NhbGhvc3QwDAYDVR0TAQH/BAIwADALBgNVHQ8EBAMC
BeAwEQYJYIZIAYb4QgEBBAQDAgZAMBMGA1UdJQQMMAoGCCsGAQUFBwMBMA0GCSqG
SIb3DQEBCwUAA4ICAQBofdnE3AWCTwaYi0aSL16aTwaz2tXAMKyn+zCewQ7ENRp0
iP/3x09DX/k3NKSE51lTNeRw0dCaaXJ8PtcsyxnbmUhIV5h2FIrirHkfs4y2AaPh
qiqckDWf/PsNjrIbAIjmbzQ+JvXLca56QbbhxejMq+adfeID1MJgcaVwny5jf2EU
3leNfPIO6qMYDIrXu8CujKJ1fFLUFN08O+wrmR91eHaPaxQ0PweUHKhGaooAeIZz
FegOtNrQtfQU3XMjQpgNrs49gd8RwvbR4jULoS5VoavBmDFeJ/R2SI25egzszrjI
eqOiFtTb56QvYIFQaiUmHXdlgW5OVebmNL2iq+sFX+RtU/D1uj4k74TEA1GUyrlN
tFlKZD2ImW6PFBXl06HJGKMk1ZsYJiyyvaMw6Pf1caYAn7HBUozEA4QBL3DCQH03
uc2ycfka0laH0zInoOYAuXacIjzjTG1PRmuQyMZuPxlMUIWyD72jFtu0wyYzkIrT
L2tdg5ZfC4zAdGiIFkkw8yNFRUkR6Qb/Djmuk+Zummu+ZVgt0qg73UryGtH5zVtw
WS6mz3qg1QnDNezQWskDcszB5hv/kQ9mV1v8GYR7G8N8ZWy3YlrPg4vrwdTxMEyI
mrCHYz1powHd0WLJGdyJ316p/loEKbIDEVVx/9DfRikW2fD8NLNc5NR0jFIDdA==
-----END CERTIFICATE-----
