Certificate:
    Data:
        Version: 3 (0x2)
        Serial Number: 256 (0x100)
    Signature Algorithm: sha256WithRSAEncryption
        Issuer: C=fr, ST=idf, L=paris, O=vitam, OU=authorities, CN=ca_intermediate_server
        Validity
            Not Before: Feb 22 16:36:54 2018 GMT
            Not After : Feb 21 16:36:54 2021 GMT
        Subject: C=fr, ST=idf, L=paris, O=vitam, CN=access-external.service.consul
        Subject Public Key Info:
            Public Key Algorithm: rsaEncryption
                Public-Key: (4096 bit)
                Modulus:
                    00:ab:6c:9b:3d:55:08:e0:e6:3f:d2:db:b7:25:b0:
                    c3:9e:03:dc:96:db:a9:63:d6:16:f8:ba:1d:19:74:
                    3b:ee:6b:21:c5:24:fb:03:d8:6f:9c:d4:40:1b:0b:
                    44:86:9d:75:86:fb:57:a5:3b:84:23:0e:44:ad:4c:
                    bb:82:aa:02:14:32:94:a5:45:3f:a8:94:07:5a:22:
                    ce:23:d8:32:31:15:84:f8:d0:05:19:f5:91:22:52:
                    0f:87:d2:22:e5:14:f8:8b:cc:e2:f0:db:00:33:26:
                    b7:26:4e:8a:59:81:9f:c2:29:3f:fc:ed:9c:a0:45:
                    9b:2c:0d:a2:7f:5c:10:29:56:30:d0:ff:8b:3c:16:
                    c2:28:7c:00:11:68:ea:96:ce:71:57:bd:74:51:04:
                    18:b1:4e:8a:99:99:34:12:79:24:a7:3d:47:56:7c:
                    03:ff:75:a5:8e:a8:52:da:79:cc:74:b3:56:33:74:
                    91:fc:38:5b:23:02:2c:60:2d:16:70:9c:2d:f8:87:
                    44:70:a8:04:41:71:40:a9:94:d1:76:78:5c:32:7d:
                    76:93:cc:ad:af:f8:61:c2:0b:74:f0:47:a7:18:32:
                    7f:2c:e9:32:72:55:78:99:c5:85:e9:e8:61:e3:b0:
                    84:4d:08:8e:82:da:1a:8b:43:79:62:3e:dd:0e:ef:
                    b9:a0:8b:52:54:4c:52:b1:0b:a6:79:3a:f1:b6:5a:
                    30:67:6f:53:7d:b9:9a:a9:80:2c:06:2d:98:c3:9a:
                    3d:e0:c0:1b:a0:1b:44:2d:71:60:bb:34:66:61:61:
                    94:26:58:88:99:2d:98:b2:44:d8:9e:8f:d8:21:57:
                    36:d5:8e:43:c8:c4:5a:6b:93:47:05:ee:1f:bb:8d:
                    52:92:a4:b3:e7:99:d2:f2:16:4c:af:62:3b:71:9c:
                    5b:6a:9e:08:31:6d:cf:8b:d4:ce:57:95:9e:67:5f:
                    5f:0d:18:c7:88:8a:b3:e1:41:50:9d:cd:69:d1:27:
                    55:a6:58:ac:b4:3e:7d:45:38:b5:23:33:20:de:1a:
                    62:3c:08:34:6d:b7:91:a7:9a:e7:62:5d:4e:f2:13:
                    4e:ad:22:dc:7c:45:cd:fb:48:69:c0:8c:c0:e4:a6:
                    8d:22:a7:d8:15:22:8b:f9:fa:08:72:ae:71:36:d8:
                    ba:12:65:98:84:38:89:58:0b:6b:12:c9:48:47:d8:
                    66:50:77:52:ac:a7:37:c2:c3:46:1f:36:f1:7b:2d:
                    f6:22:0a:f9:85:73:00:89:b4:be:ca:0a:46:b2:29:
                    1e:7e:25:9d:2e:82:68:fa:dd:63:0a:cf:18:c6:b7:
                    5b:2c:c1:16:70:00:a3:ae:ee:04:c5:cd:8a:be:e0:
                    8d:b6:23
                Exponent: 65537 (0x10001)
        X509v3 extensions:
            Netscape Comment: 
                Certificat Serveur SSL
            X509v3 Subject Key Identifier: 
                7A:75:90:68:8B:8D:D3:0C:96:A7:7B:E2:D6:C9:98:27:1E:D9:59:21
            X509v3 Authority Key Identifier: 
                keyid:6D:B1:F2:D5:CE:0E:93:60:CE:FD:D3:91:D2:23:ED:95:21:BB:D5:0C
                DirName:/C=fr/ST=idf/L=paris/O=vitam/OU=authorities/CN=ca_root_server
                serial:DB

            X509v3 Issuer Alternative Name: 
                <EMPTY>

            X509v3 Subject Alternative Name: 
                DNS:access-external.service.consul, DNS:localhost
            X509v3 Basic Constraints: critical
                CA:FALSE
            X509v3 Key Usage: 
                Digital Signature, Non Repudiation, Key Encipherment
            Netscape Cert Type: 
                SSL Server
            X509v3 Extended Key Usage: 
                TLS Web Server Authentication
    Signature Algorithm: sha256WithRSAEncryption
         62:61:a9:54:a1:31:0f:2a:46:89:e1:b6:b5:80:8b:03:79:df:
         7f:d8:b9:1f:b5:95:47:e8:ad:0d:a4:a1:75:cb:d0:61:ad:76:
         42:67:fc:70:2c:94:4f:cb:7b:a4:3f:23:79:08:c6:ab:02:55:
         ac:cf:61:3a:47:7d:79:03:a6:d4:69:3d:bf:13:f7:74:2c:ee:
         c1:4f:e4:be:05:7e:52:bf:80:8d:c9:f9:9c:a4:c4:f8:b2:3b:
         6a:1e:8a:33:bb:7f:a3:57:ca:8b:c5:2a:86:f5:bb:37:91:7f:
         53:e0:b3:3a:b4:c5:4a:1b:99:da:bf:be:54:22:42:0b:99:e1:
         63:9b:90:7e:1e:1f:ba:91:13:8c:2d:7e:74:b7:da:e0:e0:6e:
         17:6b:9b:23:20:fa:26:5f:df:c2:a3:d5:9d:aa:d4:0d:8c:51:
         c6:7c:4f:40:5a:c6:7f:2e:2e:67:99:ed:11:af:2a:bd:1e:6e:
         95:8d:c2:1a:88:53:08:b8:db:12:d8:55:c9:f1:f3:84:c9:a2:
         a2:2a:f4:f1:e7:6b:66:32:d1:71:e7:4f:4f:2d:33:8d:13:75:
         14:f4:e8:ff:9b:0b:36:89:13:45:6e:de:5e:02:c8:c1:14:ad:
         d8:a6:0f:40:5e:f4:db:97:f6:30:74:67:7c:be:a1:86:9a:4e:
         fc:90:0d:99:e0:c2:27:0c:91:9c:9a:5a:14:70:63:7e:2b:96:
         86:a0:93:f0:92:5c:b6:d6:10:05:0d:cd:6c:e2:60:e3:2a:bd:
         d9:24:13:01:5e:c8:c9:33:b5:e1:20:c2:4a:20:a4:51:d2:de:
         d0:b7:a6:ca:bd:db:af:c3:8e:40:5e:bc:0c:ba:e8:bc:02:9f:
         08:fd:ed:70:77:3e:d5:0b:1f:6c:4f:2a:c1:64:ed:9c:80:ee:
         f6:7c:bd:8f:a1:d3:b1:41:99:c6:a8:3a:d6:20:f8:d7:aa:39:
         fe:a3:8f:63:c3:5b:19:a9:96:d3:2d:9e:05:65:79:48:71:a5:
         98:1f:11:7e:eb:c8:2f:2e:39:27:75:4d:36:b1:ce:0c:8a:6e:
         0c:bd:0d:52:37:1d:7a:c1:35:76:e4:7f:62:ca:61:68:8c:eb:
         3e:47:b3:05:23:b6:62:95:2b:4c:e3:9f:90:5c:5d:37:0d:48:
         88:eb:f5:fc:ba:85:67:ca:de:cc:42:68:b1:25:7f:72:d5:43:
         58:b0:fc:11:ab:e1:3e:59:e4:1b:a4:94:e2:2d:c4:b2:00:f1:
         49:47:b8:b3:23:4d:9e:1b:8c:a0:11:df:fa:98:13:b7:83:d6:
         07:86:99:b5:6e:cf:2c:a8:c1:fc:65:6e:98:6a:d9:e9:4c:36:
         a4:48:46:18:2d:46:87:9e
-----BEGIN CERTIFICATE-----
MIIGujCCBKKgAwIBAgICAQAwDQYJKoZIhvcNAQELBQAwcjELMAkGA1UEBhMCZnIx
DDAKBgNVBAgMA2lkZjEOMAwGA1UEBwwFcGFyaXMxDjAMBgNVBAoMBXZpdGFtMRQw
EgYDVQQLDAthdXRob3JpdGllczEfMB0GA1UEAwwWY2FfaW50ZXJtZWRpYXRlX3Nl
cnZlcjAeFw0xODAyMjIxNjM2NTRaFw0yMTAyMjExNjM2NTRaMGQxCzAJBgNVBAYT
AmZyMQwwCgYDVQQIDANpZGYxDjAMBgNVBAcMBXBhcmlzMQ4wDAYDVQQKDAV2aXRh
bTEnMCUGA1UEAwweYWNjZXNzLWV4dGVybmFsLnNlcnZpY2UuY29uc3VsMIICIjAN
BgkqhkiG9w0BAQEFAAOCAg8AMIICCgKCAgEAq2ybPVUI4OY/0tu3JbDDngPcltup
Y9YW+LodGXQ77mshxST7A9hvnNRAGwtEhp11hvtXpTuEIw5ErUy7gqoCFDKUpUU/
qJQHWiLOI9gyMRWE+NAFGfWRIlIPh9Ii5RT4i8zi8NsAMya3Jk6KWYGfwik//O2c
oEWbLA2if1wQKVYw0P+LPBbCKHwAEWjqls5xV710UQQYsU6KmZk0Enkkpz1HVnwD
/3WljqhS2nnMdLNWM3SR/DhbIwIsYC0WcJwt+IdEcKgEQXFAqZTRdnhcMn12k8yt
r/hhwgt08EenGDJ/LOkyclV4mcWF6ehh47CETQiOgtoai0N5Yj7dDu+5oItSVExS
sQumeTrxtlowZ29TfbmaqYAsBi2Yw5o94MAboBtELXFguzRmYWGUJliImS2YskTY
no/YIVc21Y5DyMRaa5NHBe4fu41SkqSz55nS8hZMr2I7cZxbap4IMW3Pi9TOV5We
Z19fDRjHiIqz4UFQnc1p0SdVplistD59RTi1IzMg3hpiPAg0bbeRp5rnYl1O8hNO
rSLcfEXN+0hpwIzA5KaNIqfYFSKL+foIcq5xNti6EmWYhDiJWAtrEslIR9hmUHdS
rKc3wsNGHzbxey32Igr5hXMAibS+ygpGsikefiWdLoJo+t1jCs8YxrdbLMEWcACj
ru4Exc2KvuCNtiMCAwEAAaOCAWYwggFiMCUGCWCGSAGG+EIBDQQYFhZDZXJ0aWZp
Y2F0IFNlcnZldXIgU1NMMB0GA1UdDgQWBBR6dZBoi43TDJane+LWyZgnHtlZITCB
lQYDVR0jBIGNMIGKgBRtsfLVzg6TYM7905HSI+2VIbvVDKFupGwwajELMAkGA1UE
BhMCZnIxDDAKBgNVBAgMA2lkZjEOMAwGA1UEBwwFcGFyaXMxDjAMBgNVBAoMBXZp
dGFtMRQwEgYDVQQLDAthdXRob3JpdGllczEXMBUGA1UEAwwOY2Ffcm9vdF9zZXJ2
ZXKCAgDbMAkGA1UdEgQCMAAwNAYDVR0RBC0wK4IeYWNjZXNzLWV4dGVybmFsLnNl
cnZpY2UuY29uc3Vsgglsb2NhbGhvc3QwDAYDVR0TAQH/BAIwADALBgNVHQ8EBAMC
BeAwEQYJYIZIAYb4QgEBBAQDAgZAMBMGA1UdJQQMMAoGCCsGAQUFBwMBMA0GCSqG
SIb3DQEBCwUAA4ICAQBiYalUoTEPKkaJ4ba1gIsDed9/2LkftZVH6K0NpKF1y9Bh
rXZCZ/xwLJRPy3ukPyN5CMarAlWsz2E6R315A6bUaT2/E/d0LO7BT+S+BX5Sv4CN
yfmcpMT4sjtqHoozu3+jV8qLxSqG9bs3kX9T4LM6tMVKG5nav75UIkILmeFjm5B+
Hh+6kROMLX50t9rg4G4Xa5sjIPomX9/Co9WdqtQNjFHGfE9AWsZ/Li5nme0Rryq9
Hm6VjcIaiFMIuNsS2FXJ8fOEyaKiKvTx52tmMtFx509PLTONE3UU9Oj/mws2iRNF
bt5eAsjBFK3Ypg9AXvTbl/YwdGd8vqGGmk78kA2Z4MInDJGcmloUcGN+K5aGoJPw
kly21hAFDc1s4mDjKr3ZJBMBXsjJM7XhIMJKIKRR0t7Qt6bKvduvw45AXrwMuui8
Ap8I/e1wdz7VCx9sTyrBZO2cgO72fL2PodOxQZnGqDrWIPjXqjn+o49jw1sZqZbT
LZ4FZXlIcaWYHxF+68gvLjkndU02sc4Mim4MvQ1SNx16wTV25H9iymFojOs+R7MF
I7ZilStM45+QXF03DUiI6/X8uoVnyt7MQmixJX9y1UNYsPwRq+E+WeQbpJTiLcSy
APFJR7izI02eG4ygEd/6mBO3g9YHhpm1bs8sqMH8ZW6YatnpTDakSEYYLUaHng==
-----END CERTIFICATE-----
