Certificate:
    Data:
        Version: 3 (0x2)
        Serial Number: 263 (0x107)
    Signature Algorithm: sha256WithRSAEncryption
        Issuer: C=fr, ST=idf, L=paris, O=vitam, OU=authorities, CN=ca_intermediate_server
        Validity
            Not Before: Oct 19 08:40:50 2018 GMT
            Not After : Oct 18 08:40:50 2021 GMT
        Subject: C=fr, ST=idf, L=paris, O=vitam, CN=access-external.service.consul
        Subject Public Key Info:
            Public Key Algorithm: rsaEncryption
                Public-Key: (4096 bit)
                Modulus:
                    00:e7:70:f7:4f:16:09:14:d9:6f:28:48:b1:32:29:
                    e5:7d:e7:84:05:87:7a:a8:75:d3:9f:d7:8c:a9:28:
                    70:3f:ef:86:8d:95:1e:8a:ad:4d:40:30:41:b0:3e:
                    57:36:f0:1a:c3:81:74:28:59:f9:14:97:b2:6a:83:
                    fb:52:66:82:71:7f:ff:18:ad:4a:ae:d8:53:14:89:
                    70:34:cd:38:40:d7:64:87:ed:cf:b1:a9:f7:b4:f1:
                    28:14:8a:11:3b:c2:4c:30:f5:dd:5a:bc:2e:f9:c8:
                    6e:9b:9c:cd:f5:a3:b5:d2:74:53:9b:60:90:a6:29:
                    a7:ca:f6:c1:b8:6e:11:91:14:bb:4d:5c:ca:d0:7e:
                    ef:74:e5:ed:80:0c:6d:aa:2d:b1:60:b5:75:06:8b:
                    26:10:80:59:cc:93:8a:58:7e:3f:37:a4:8d:e3:44:
                    b6:92:94:48:08:a3:55:5c:1f:18:87:c0:f9:1d:78:
                    c6:37:3b:c3:bf:9e:b9:45:b2:8c:3d:4c:36:18:36:
                    ad:87:b5:a5:e1:15:da:64:88:b7:12:d6:2b:e6:b7:
                    6f:af:21:26:ef:cf:92:89:17:0f:8c:46:3c:ce:91:
                    cd:ad:06:c7:3e:9f:95:d9:7d:79:27:0e:cf:ec:49:
                    6f:d1:f0:e2:17:f4:fd:bb:5a:e3:94:ac:b1:57:42:
                    0b:fd:08:e3:ec:42:c2:10:db:8d:d6:37:62:ec:0c:
                    bc:28:de:39:52:e1:b3:6c:df:49:28:97:5d:8b:e6:
                    59:55:24:00:f2:00:23:7c:dd:5b:b0:96:36:3c:4a:
                    27:48:48:da:49:1a:30:70:9a:5c:59:11:1b:95:4c:
                    6f:70:d4:a4:9a:87:51:3a:4f:62:f3:24:a7:8a:62:
                    e9:23:2f:54:e0:7c:e3:46:91:09:95:c3:b2:48:86:
                    a7:58:d8:97:4b:b6:de:34:58:b6:38:d6:90:fa:94:
                    7c:23:c0:95:f7:fc:3e:d4:33:2e:ff:10:55:11:a3:
                    ad:36:22:e6:f9:1a:37:55:c0:45:6f:69:5c:89:2f:
                    b0:d3:94:03:4b:fc:bf:00:8f:7e:ba:92:03:44:66:
                    6d:db:f8:83:bb:26:5b:ee:8f:3c:5b:8a:d3:d2:70:
                    a5:cf:ed:8d:04:d4:b3:a4:d2:a4:9a:69:61:1b:9a:
                    1c:4c:8c:ef:66:46:39:b6:87:ff:fe:dc:b7:83:ee:
                    e6:27:95:22:c1:2a:64:40:78:60:a3:b7:b4:9a:8c:
                    67:12:8f:38:b6:ba:66:aa:68:8c:db:27:6a:7a:af:
                    fa:3e:64:d1:d4:a0:31:33:47:46:e1:85:7c:dd:d6:
                    d3:3d:c7:ab:13:29:d7:eb:70:36:f8:76:11:4e:9b:
                    7d:1b:89
                Exponent: 65537 (0x10001)
        X509v3 extensions:
            Netscape Comment: 
                Certificat Serveur SSL
            X509v3 Subject Key Identifier: 
                C3:89:31:64:2F:A3:AE:3C:C4:74:52:93:4B:E9:82:E5:96:3A:C4:BC
            X509v3 Authority Key Identifier: 
                keyid:8E:45:CA:B9:5E:F2:8A:F9:A0:3A:C0:5C:78:C2:FC:E5:E8:6E:29:D9
                DirName:/C=fr/ST=idf/L=paris/O=vitam/OU=authorities/CN=ca_root_server
                serial:01:05

            X509v3 Issuer Alternative Name: 
                <EMPTY>

            X509v3 Subject Alternative Name: 
                DNS:access-external.service.consul, DNS:localhost
            X509v3 Basic Constraints: critical
                CA:FALSE
            X509v3 Key Usage: 
                Digital Signature, Key Encipherment
            Netscape Cert Type: 
                SSL Server
            X509v3 Extended Key Usage: 
                TLS Web Server Authentication
    Signature Algorithm: sha256WithRSAEncryption
         27:53:c3:fa:79:90:d9:d0:ef:3d:5f:28:7b:5f:4b:25:72:4c:
         14:70:ef:14:42:50:20:7d:b6:79:03:55:e9:c8:c0:d8:11:15:
         95:8c:ac:39:83:af:f5:1e:35:14:d3:3d:ae:af:82:e9:47:1b:
         69:ff:ad:de:ea:39:bb:ff:e9:37:bf:97:fa:cb:50:0c:8c:d0:
         dd:72:a1:2a:cb:4e:20:ab:58:24:ab:9f:6e:96:a5:67:87:82:
         7a:d1:f4:62:e3:4e:17:99:f0:32:46:84:15:b5:93:c6:10:83:
         83:84:a8:a5:bf:e7:70:37:61:5b:c6:64:e0:61:4c:e0:e8:94:
         f5:9d:08:80:1d:30:10:44:3f:34:ee:1c:43:22:b5:41:48:89:
         43:7b:4c:55:99:ac:d0:51:e1:1a:56:1b:7f:44:5d:2f:67:07:
         69:fb:cf:4f:6a:0c:ad:ea:85:96:31:3e:8e:3c:a8:5d:34:b7:
         52:73:af:37:34:c5:bf:8a:99:1c:25:61:f1:69:63:f3:0e:d5:
         94:2f:a6:25:5f:a6:79:cf:57:ad:f2:ce:b3:59:22:e6:7a:67:
         b5:68:73:dd:a7:0c:34:21:7b:45:98:d6:1a:f6:15:3b:cf:98:
         eb:ca:a0:fc:f4:54:db:17:36:f2:d5:54:a9:d8:32:1a:c5:9b:
         f4:0d:36:a1:eb:a6:23:01:2c:5a:c9:a4:b3:d6:e2:4a:66:12:
         ac:38:a2:e7:46:55:c3:a8:52:3f:35:72:9d:47:0a:a8:84:a2:
         b3:f7:d3:f7:ab:10:5d:ef:3f:52:f7:04:25:c6:d2:af:93:24:
         0a:9f:de:4e:92:67:30:03:61:4b:1e:ec:fb:c6:8f:ec:59:30:
         a0:3c:9d:e9:fa:cb:c4:90:9a:d9:5c:2d:7b:bc:49:b0:d2:2e:
         fb:cf:eb:42:63:af:6b:99:02:43:60:70:03:1b:ef:d6:47:c4:
         71:84:05:2b:d8:bd:74:54:86:8b:26:a9:19:66:ef:63:9a:c5:
         68:6f:84:53:a0:80:f0:a7:a7:01:cd:e2:27:85:34:af:20:0e:
         d9:af:2f:86:13:dd:f5:50:c5:6f:c3:0a:01:77:7d:fd:56:88:
         12:00:d2:59:67:f4:2e:52:a9:cf:cd:8f:19:4e:2e:c0:3a:3a:
         11:10:78:80:ac:89:06:a0:7e:e0:a0:7f:ed:8d:ab:ac:4c:dd:
         84:b1:61:d6:3a:e1:0b:82:6d:9b:22:9c:0d:97:58:dd:0b:a6:
         e2:b3:45:35:c0:8e:cd:a5:be:42:24:8d:71:c2:e0:b8:14:cc:
         85:74:1b:19:a7:0f:2b:43:46:c4:b4:6d:7c:da:b2:97:64:0d:
         96:19:ec:e5:7d:80:fc:50
-----BEGIN CERTIFICATE-----
MIIGujCCBKKgAwIBAgICAQcwDQYJKoZIhvcNAQELBQAwcjELMAkGA1UEBhMCZnIx
DDAKBgNVBAgMA2lkZjEOMAwGA1UEBwwFcGFyaXMxDjAMBgNVBAoMBXZpdGFtMRQw
EgYDVQQLDAthdXRob3JpdGllczEfMB0GA1UEAwwWY2FfaW50ZXJtZWRpYXRlX3Nl
cnZlcjAeFw0xODEwMTkwODQwNTBaFw0yMTEwMTgwODQwNTBaMGQxCzAJBgNVBAYT
AmZyMQwwCgYDVQQIDANpZGYxDjAMBgNVBAcMBXBhcmlzMQ4wDAYDVQQKDAV2aXRh
bTEnMCUGA1UEAwweYWNjZXNzLWV4dGVybmFsLnNlcnZpY2UuY29uc3VsMIICIjAN
BgkqhkiG9w0BAQEFAAOCAg8AMIICCgKCAgEA53D3TxYJFNlvKEixMinlfeeEBYd6
qHXTn9eMqShwP++GjZUeiq1NQDBBsD5XNvAaw4F0KFn5FJeyaoP7UmaCcX//GK1K
rthTFIlwNM04QNdkh+3Psan3tPEoFIoRO8JMMPXdWrwu+chum5zN9aO10nRTm2CQ
pimnyvbBuG4RkRS7TVzK0H7vdOXtgAxtqi2xYLV1BosmEIBZzJOKWH4/N6SN40S2
kpRICKNVXB8Yh8D5HXjGNzvDv565RbKMPUw2GDath7Wl4RXaZIi3EtYr5rdvryEm
78+SiRcPjEY8zpHNrQbHPp+V2X15Jw7P7Elv0fDiF/T9u1rjlKyxV0IL/Qjj7ELC
ENuN1jdi7Ay8KN45UuGzbN9JKJddi+ZZVSQA8gAjfN1bsJY2PEonSEjaSRowcJpc
WREblUxvcNSkmodROk9i8ySnimLpIy9U4HzjRpEJlcOySIanWNiXS7beNFi2ONaQ
+pR8I8CV9/w+1DMu/xBVEaOtNiLm+Ro3VcBFb2lciS+w05QDS/y/AI9+upIDRGZt
2/iDuyZb7o88W4rT0nClz+2NBNSzpNKkmmlhG5ocTIzvZkY5tof//ty3g+7mJ5Ui
wSpkQHhgo7e0moxnEo84trpmqmiM2ydqeq/6PmTR1KAxM0dG4YV83dbTPcerEynX
63A2+HYRTpt9G4kCAwEAAaOCAWYwggFiMCUGCWCGSAGG+EIBDQQYFhZDZXJ0aWZp
Y2F0IFNlcnZldXIgU1NMMB0GA1UdDgQWBBTDiTFkL6OuPMR0UpNL6YLlljrEvDCB
lQYDVR0jBIGNMIGKgBSORcq5XvKK+aA6wFx4wvzl6G4p2aFupGwwajELMAkGA1UE
BhMCZnIxDDAKBgNVBAgMA2lkZjEOMAwGA1UEBwwFcGFyaXMxDjAMBgNVBAoMBXZp
dGFtMRQwEgYDVQQLDAthdXRob3JpdGllczEXMBUGA1UEAwwOY2Ffcm9vdF9zZXJ2
ZXKCAgEFMAkGA1UdEgQCMAAwNAYDVR0RBC0wK4IeYWNjZXNzLWV4dGVybmFsLnNl
cnZpY2UuY29uc3Vsgglsb2NhbGhvc3QwDAYDVR0TAQH/BAIwADALBgNVHQ8EBAMC
BaAwEQYJYIZIAYb4QgEBBAQDAgZAMBMGA1UdJQQMMAoGCCsGAQUFBwMBMA0GCSqG
SIb3DQEBCwUAA4ICAQAnU8P6eZDZ0O89Xyh7X0slckwUcO8UQlAgfbZ5A1XpyMDY
ERWVjKw5g6/1HjUU0z2ur4LpRxtp/63e6jm7/+k3v5f6y1AMjNDdcqEqy04gq1gk
q59ulqVnh4J60fRi404XmfAyRoQVtZPGEIODhKilv+dwN2FbxmTgYUzg6JT1nQiA
HTAQRD807hxDIrVBSIlDe0xVmazQUeEaVht/RF0vZwdp+89Pagyt6oWWMT6OPKhd
NLdSc683NMW/ipkcJWHxaWPzDtWUL6YlX6Z5z1et8s6zWSLmeme1aHPdpww0IXtF
mNYa9hU7z5jryqD89FTbFzby1VSp2DIaxZv0DTah66YjASxayaSz1uJKZhKsOKLn
RlXDqFI/NXKdRwqohKKz99P3qxBd7z9S9wQlxtKvkyQKn95OkmcwA2FLHuz7xo/s
WTCgPJ3p+svEkJrZXC17vEmw0i77z+tCY69rmQJDYHADG+/WR8RxhAUr2L10VIaL
JqkZZu9jmsVob4RToIDwp6cBzeInhTSvIA7Zry+GE931UMVvwwoBd339VogSANJZ
Z/QuUqnPzY8ZTi7AOjoREHiArIkGoH7goH/tjausTN2EsWHWOuELgm2bIpwNl1jd
C6bis0U1wI7Npb5CJI1xwuC4FMyFdBsZpw8rQ0bEtG182rKXZA2WGezlfYD8UA==
-----END CERTIFICATE-----
