Certificate:
    Data:
        Version: 3 (0x2)
        Serial Number: 284 (0x11c)
        Signature Algorithm: sha256WithRSAEncryption
        Issuer: C=fr, ST=idf, L=paris, O=vitam, OU=authorities, CN=ca_intermediate_server
        Validity
            Not Before: Nov 10 14:35:45 2021 GMT
            Not After : Nov  9 14:35:45 2024 GMT
        Subject: C=fr, ST=idf, L=paris, O=vitam, CN=collect.service.fulllocal.consul
        Subject Public Key Info:
            Public Key Algorithm: rsaEncryption
                RSA Public-Key: (4096 bit)
                Modulus:
                    00:d0:2d:c2:e9:99:d3:9f:3f:dc:1a:93:17:aa:86:
                    58:38:22:a8:8b:3a:12:1f:c3:b4:74:03:0a:22:ae:
                    23:cb:5e:ad:10:c9:48:f7:8a:c5:97:88:11:61:80:
                    64:b1:a5:b9:ed:bf:19:cd:44:43:c9:4d:e3:70:40:
                    9d:dd:ac:27:50:e9:49:e6:40:85:b5:89:ad:e9:24:
                    92:9f:6c:e3:3e:66:d4:95:b9:74:13:45:b2:22:51:
                    ed:36:da:fc:a5:3a:7b:80:c5:46:a1:4b:5e:eb:72:
                    fd:c7:68:b3:2c:c9:50:a3:92:6d:ae:3c:a5:1a:a2:
                    69:b8:f2:81:dd:e9:48:88:cd:98:69:c6:42:9a:2d:
                    cc:e6:3e:59:93:93:b9:3e:03:1a:aa:0a:ff:c7:2c:
                    eb:62:7a:94:fe:20:22:46:4c:78:9f:45:b0:13:df:
                    d3:37:d4:7b:a4:35:00:8f:6e:e9:8b:3b:f7:19:72:
                    56:6b:3a:38:29:16:cd:03:07:85:a9:b7:99:d1:09:
                    75:6e:24:57:43:a0:60:86:2b:e6:08:94:d3:a9:f5:
                    af:21:38:74:78:92:9d:19:9b:55:f6:35:2d:1d:8f:
                    b6:0f:c8:e8:36:1b:ec:7c:37:ff:52:69:4f:f9:17:
                    fd:db:62:06:55:30:92:b2:81:e6:fc:f1:c7:03:8d:
                    44:19:be:17:15:94:9d:a5:4a:af:1b:7f:d6:fb:3f:
                    09:7e:a0:e0:94:bd:0b:62:4f:49:80:c8:f3:77:29:
                    2e:e5:8a:3f:66:dd:91:05:df:cd:1e:58:58:64:5d:
                    a7:04:f5:75:7b:be:b0:93:3a:79:dd:9a:c9:9a:18:
                    67:bf:61:e1:7e:a6:19:c1:66:fa:e0:2c:e5:27:97:
                    dd:14:25:e6:bf:f7:b8:e6:85:b3:64:d6:b3:e6:9c:
                    9a:65:f4:01:a7:7f:c5:02:ac:fc:c0:8f:6c:b2:12:
                    1a:ea:f5:7f:af:65:3e:b6:aa:2a:68:a2:8d:d8:8c:
                    d9:3c:b5:e8:14:85:09:64:8f:64:70:99:c1:5f:7a:
                    4e:b5:ee:12:81:91:e4:e0:24:80:6e:e5:7a:cd:40:
                    c1:33:75:db:53:07:1e:9b:0e:88:98:05:69:cc:da:
                    40:31:7f:97:90:c6:b5:c6:e7:f9:ad:f3:ea:54:4b:
                    2f:0d:95:66:55:0d:df:e6:39:b9:b3:5e:a0:fe:d1:
                    a6:2e:0b:87:e4:67:19:a8:fd:cc:0c:5e:62:a8:d8:
                    ae:f5:9f:30:3f:79:94:55:a9:41:3d:a0:bb:65:07:
                    db:70:9f:1c:c9:26:e7:ad:fe:5b:d1:0f:1f:8e:b9:
                    22:7e:43:bb:a9:27:99:9f:97:91:d8:06:8d:99:a1:
                    46:2a:0f
                Exponent: 65537 (0x10001)
        X509v3 extensions:
            Netscape Comment: 
                Certificat Serveur SSL
            X509v3 Subject Key Identifier: 
                34:EA:7A:70:03:A2:FF:54:78:AE:EE:DC:E4:90:54:28:A2:13:C7:99
            X509v3 Authority Key Identifier: 
                keyid:1F:AF:74:D4:61:D2:39:20:7E:C2:D6:67:C2:59:66:BB:EA:26:0E:9F
                DirName:/C=fr/ST=idf/L=paris/O=vitam/OU=authorities/CN=ca_root_server
                serial:01:0C

            X509v3 Issuer Alternative Name: 
                <EMPTY>

            X509v3 Subject Alternative Name: 
                DNS:collect.service.consul, DNS:localhost, DNS:collect.service.fulllocal.consul
            X509v3 Basic Constraints: critical
                CA:FALSE
            X509v3 Key Usage: 
                Digital Signature, Key Encipherment
            Netscape Cert Type: 
                SSL Server
            X509v3 Extended Key Usage: 
                TLS Web Server Authentication
    Signature Algorithm: sha256WithRSAEncryption
         78:39:5a:ba:70:2e:8a:3a:e9:d8:80:07:ec:46:f9:d1:a8:56:
         d7:07:15:5c:d4:c0:53:83:33:a6:0b:96:47:ef:f7:59:a6:1a:
         19:d0:f2:a9:7a:19:88:66:f8:24:eb:f5:0f:84:e1:f0:e1:8a:
         16:d8:ad:ea:7b:3b:9d:d8:25:b9:1f:98:f5:14:a6:82:96:e6:
         51:b7:61:a9:64:6e:14:bd:7a:28:e4:2c:f4:c6:34:c8:b9:e2:
         ad:15:2a:dc:b7:f3:82:bb:27:0b:c3:af:ab:4c:d1:bf:9e:2d:
         aa:7c:1b:48:7e:36:1d:4f:d2:a6:22:dd:25:1f:93:46:cd:2e:
         af:67:b4:58:10:ad:19:8a:33:a1:5d:6b:39:c3:b2:e0:8c:8e:
         8b:7c:2e:a6:6e:8f:ad:b9:4f:4b:ed:f5:13:fa:2b:2d:d6:83:
         ce:3f:7d:44:fa:8a:5a:a8:f2:48:38:99:3c:1b:0f:9e:76:28:
         dd:e9:3a:ca:d6:c8:cc:85:02:1d:5f:40:a2:c4:02:32:f8:5f:
         36:e0:05:c7:d8:f6:b5:a3:9f:92:1b:c5:32:ca:e6:29:cb:8a:
         77:bf:17:d2:06:d2:67:b2:00:f9:0f:ea:76:4b:d6:ac:10:f1:
         44:ba:04:e0:ac:62:94:c8:a1:65:b9:86:00:ab:24:6c:b1:30:
         f6:ac:7d:41:a1:18:5b:70:04:a0:69:92:b9:c4:48:e1:33:4d:
         6c:37:df:5c:ac:26:a0:63:d5:b4:f8:31:30:1b:b4:bd:a3:1d:
         48:3d:d7:aa:55:39:1f:9b:61:d0:88:6a:7d:45:db:8f:72:b2:
         8b:15:7c:87:97:21:a7:5b:c2:92:5f:9d:5a:b8:eb:c6:3b:c0:
         03:c7:0c:4a:9d:b9:9b:82:1a:fa:bc:49:79:73:ea:37:d6:76:
         c4:86:75:1c:a4:a9:0b:b0:8f:0b:5b:bb:03:01:6f:4a:50:18:
         e7:1a:f2:7a:5b:3c:2f:44:77:16:84:87:f6:83:4f:23:72:a7:
         89:ee:ad:3c:b1:48:b9:95:31:49:7a:de:59:18:e9:2f:ec:bb:
         52:71:da:27:d6:21:52:71:a6:d0:6a:27:54:54:b2:74:14:77:
         b9:2b:c5:1c:94:5d:b5:7c:f8:b9:a8:67:63:31:2a:b0:84:9c:
         d0:e6:ab:53:77:3d:d4:08:07:27:9d:bd:fe:43:4e:c2:50:21:
         ce:58:e6:ed:f0:22:1a:ab:03:74:f4:7d:b7:d1:e9:8e:59:78:
         fb:1c:77:d6:f7:fd:e5:1a:7f:67:ed:f2:5b:53:f0:e5:d7:85:
         9a:65:0b:40:6a:6a:a9:0a:f6:65:87:1a:bb:47:9f:06:2f:df:
         34:9c:9f:b9:ed:dd:4e:5d
-----BEGIN CERTIFICATE-----
MIIG1jCCBL6gAwIBAgICARwwDQYJKoZIhvcNAQELBQAwcjELMAkGA1UEBhMCZnIx
DDAKBgNVBAgMA2lkZjEOMAwGA1UEBwwFcGFyaXMxDjAMBgNVBAoMBXZpdGFtMRQw
EgYDVQQLDAthdXRob3JpdGllczEfMB0GA1UEAwwWY2FfaW50ZXJtZWRpYXRlX3Nl
cnZlcjAeFw0yMTExMTAxNDM1NDVaFw0yNDExMDkxNDM1NDVaMGYxCzAJBgNVBAYT
AmZyMQwwCgYDVQQIDANpZGYxDjAMBgNVBAcMBXBhcmlzMQ4wDAYDVQQKDAV2aXRh
bTEpMCcGA1UEAwwgY29sbGVjdC5zZXJ2aWNlLmZ1bGxsb2NhbC5jb25zdWwwggIi
MA0GCSqGSIb3DQEBAQUAA4ICDwAwggIKAoICAQDQLcLpmdOfP9wakxeqhlg4IqiL
OhIfw7R0AwoiriPLXq0QyUj3isWXiBFhgGSxpbntvxnNREPJTeNwQJ3drCdQ6Unm
QIW1ia3pJJKfbOM+ZtSVuXQTRbIiUe022vylOnuAxUahS17rcv3HaLMsyVCjkm2u
PKUaomm48oHd6UiIzZhpxkKaLczmPlmTk7k+AxqqCv/HLOtiepT+ICJGTHifRbAT
39M31HukNQCPbumLO/cZclZrOjgpFs0DB4Wpt5nRCXVuJFdDoGCGK+YIlNOp9a8h
OHR4kp0Zm1X2NS0dj7YPyOg2G+x8N/9SaU/5F/3bYgZVMJKygeb88ccDjUQZvhcV
lJ2lSq8bf9b7Pwl+oOCUvQtiT0mAyPN3KS7lij9m3ZEF380eWFhkXacE9XV7vrCT
OnndmsmaGGe/YeF+phnBZvrgLOUnl90UJea/97jmhbNk1rPmnJpl9AGnf8UCrPzA
j2yyEhrq9X+vZT62qipooo3YjNk8tegUhQlkj2RwmcFfek617hKBkeTgJIBu5XrN
QMEzddtTBx6bDoiYBWnM2kAxf5eQxrXG5/mt8+pUSy8NlWZVDd/mObmzXqD+0aYu
C4fkZxmo/cwMXmKo2K71nzA/eZRVqUE9oLtlB9twnxzJJuet/lvRDx+OuSJ+Q7up
J5mfl5HYBo2ZoUYqDwIDAQABo4IBgDCCAXwwJQYJYIZIAYb4QgENBBgWFkNlcnRp
ZmljYXQgU2VydmV1ciBTU0wwHQYDVR0OBBYEFDTqenADov9UeK7u3OSQVCiiE8eZ
MIGVBgNVHSMEgY0wgYqAFB+vdNRh0jkgfsLWZ8JZZrvqJg6foW6kbDBqMQswCQYD
VQQGEwJmcjEMMAoGA1UECAwDaWRmMQ4wDAYDVQQHDAVwYXJpczEOMAwGA1UECgwF
dml0YW0xFDASBgNVBAsMC2F1dGhvcml0aWVzMRcwFQYDVQQDDA5jYV9yb290X3Nl
cnZlcoICAQwwCQYDVR0SBAIwADBOBgNVHREERzBFghZjb2xsZWN0LnNlcnZpY2Uu
Y29uc3Vsgglsb2NhbGhvc3SCIGNvbGxlY3Quc2VydmljZS5mdWxsbG9jYWwuY29u
c3VsMAwGA1UdEwEB/wQCMAAwCwYDVR0PBAQDAgWgMBEGCWCGSAGG+EIBAQQEAwIG
QDATBgNVHSUEDDAKBggrBgEFBQcDATANBgkqhkiG9w0BAQsFAAOCAgEAeDlaunAu
ijrp2IAH7Eb50ahW1wcVXNTAU4MzpguWR+/3WaYaGdDyqXoZiGb4JOv1D4Th8OGK
Ftit6ns7ndgluR+Y9RSmgpbmUbdhqWRuFL16KOQs9MY0yLnirRUq3LfzgrsnC8Ov
q0zRv54tqnwbSH42HU/SpiLdJR+TRs0ur2e0WBCtGYozoV1rOcOy4IyOi3wupm6P
rblPS+31E/orLdaDzj99RPqKWqjySDiZPBsPnnYo3ek6ytbIzIUCHV9AosQCMvhf
NuAFx9j2taOfkhvFMsrmKcuKd78X0gbSZ7IA+Q/qdkvWrBDxRLoE4KxilMihZbmG
AKskbLEw9qx9QaEYW3AEoGmSucRI4TNNbDffXKwmoGPVtPgxMBu0vaMdSD3XqlU5
H5th0IhqfUXbj3KyixV8h5chp1vCkl+dWrjrxjvAA8cMSp25m4Ia+rxJeXPqN9Z2
xIZ1HKSpC7CPC1u7AwFvSlAY5xryels8L0R3FoSH9oNPI3Knie6tPLFIuZUxSXre
WRjpL+y7UnHaJ9YhUnGm0GonVFSydBR3uSvFHJRdtXz4uahnYzEqsISc0OarU3c9
1AgHJ529/kNOwlAhzljm7fAiGqsDdPR9t9Hpjll4+xx31vf95Rp/Z+3yW1Pw5deF
mmULQGpqqQr2ZYcau0efBi/fNJyfue3dTl0=
-----END CERTIFICATE-----
