Certificate:
    Data:
        Version: 3 (0x2)
        Serial Number: 291 (0x123)
        Signature Algorithm: sha256WithRSAEncryption
        Issuer: C=fr, ST=idf, L=paris, O=vitam, OU=authorities, CN=ca_intermediate_server
        Validity
            Not Before: Mar  4 11:30:11 2022 GMT
            Not After : Dec 31 23:59:59 9999 GMT
        Subject: C=fr, ST=idf, L=paris, O=vitam, CN=collect.service.fulllocal.consul
        Subject Public Key Info:
            Public Key Algorithm: rsaEncryption
                RSA Public-Key: (4096 bit)
                Modulus:
                    00:e8:b6:d0:c7:76:fe:99:d8:05:35:d1:ec:fa:e5:
                    d1:0a:7b:02:25:c6:66:36:3a:57:9c:5f:b0:39:94:
                    25:0c:16:78:46:ca:50:ae:b1:b4:b2:fb:fb:3d:fe:
                    8c:ea:6c:da:8a:4b:bd:d5:6b:ab:d7:f6:ab:ce:cb:
                    d2:fb:eb:73:c2:96:4b:34:74:a7:ee:d3:c8:48:1e:
                    34:c0:d6:ae:8e:3f:90:b6:66:2a:8b:da:d1:72:75:
                    6b:69:b4:ed:b9:cc:d3:b9:2b:a5:2e:34:9a:fc:cd:
                    ad:73:2a:37:46:24:72:41:0e:f1:97:86:d7:6f:b6:
                    98:3f:c5:d7:6c:3b:89:20:70:6e:e4:82:88:c6:d4:
                    46:a5:70:23:cb:58:99:d4:06:95:eb:58:d9:8a:3e:
                    8e:bc:cb:12:fa:1a:af:25:eb:e7:2c:5c:ff:75:43:
                    c3:ab:77:bc:4a:13:ae:de:9c:ce:5a:3d:5b:de:e5:
                    f2:8a:ea:a1:c0:09:83:aa:39:2d:2e:c5:d3:40:d6:
                    09:17:41:47:5a:ae:6d:44:82:d2:b0:96:79:24:49:
                    0c:52:aa:62:eb:ea:cb:70:40:15:21:9b:91:48:c3:
                    77:9a:0d:d4:af:f6:bd:b7:a8:cb:b2:da:cc:ef:ae:
                    67:3a:51:48:22:f4:81:b1:6d:e2:36:6a:43:e0:2e:
                    ee:5c:2a:f4:6b:04:03:fb:22:3f:7e:33:a8:8f:77:
                    ff:fd:19:9a:6c:05:88:bc:55:13:bf:cf:10:63:ae:
                    a1:be:0a:1e:59:a5:0d:6a:3d:7b:92:96:5c:c7:d0:
                    cb:4b:3b:50:b9:e1:e4:50:0f:88:81:0b:eb:df:55:
                    65:43:8d:50:15:40:55:e6:81:07:0d:7f:e4:46:0f:
                    c5:2a:eb:f1:64:1a:5e:ce:68:e7:7f:06:02:8f:5c:
                    a2:2a:bb:47:37:05:91:90:82:1a:a4:ea:f3:2e:90:
                    13:27:ac:bf:f4:e7:ee:ec:83:81:f6:dc:14:e4:87:
                    75:b5:0b:0f:f0:3d:fd:70:d0:f9:a8:ef:99:25:b1:
                    97:2d:15:76:4d:9b:c1:61:22:d0:ea:9d:51:50:2b:
                    9d:56:05:8a:70:42:03:4d:32:fd:b3:07:7c:ff:50:
                    ae:ed:33:dc:e1:27:93:c0:ff:5f:1f:66:d6:db:0e:
                    64:22:ab:e3:53:2d:a6:4a:d2:76:7c:5b:8f:83:84:
                    ec:4c:78:ea:24:d2:42:24:2c:7a:20:12:26:f8:65:
                    a9:9b:4a:bb:c8:90:f7:dd:de:0a:db:ab:53:29:5d:
                    74:59:87:0a:e2:d8:df:7c:8a:55:29:3f:3f:d5:93:
                    e4:30:f3:75:2d:44:09:9d:f3:6e:4f:a0:97:21:bc:
                    ea:78:6d
                Exponent: 65537 (0x10001)
        X509v3 extensions:
            Netscape Comment: 
                Certificat Serveur SSL
            X509v3 Subject Key Identifier: 
                66:9B:41:DF:11:87:DA:E1:19:AA:D0:99:EC:CA:5C:B8:86:53:CE:15
            X509v3 Authority Key Identifier: 
                keyid:1F:AF:74:D4:61:D2:39:20:7E:C2:D6:67:C2:59:66:BB:EA:26:0E:9F
                DirName:/C=fr/ST=idf/L=paris/O=vitam/OU=authorities/CN=ca_root_server
                serial:01:0C

            X509v3 Issuer Alternative Name: 
                <EMPTY>

            X509v3 Subject Alternative Name: 
                DNS:collect.service.consul, DNS:localhost, DNS:collect.service.fulllocal.consul
            X509v3 Basic Constraints: critical
                CA:FALSE
            X509v3 Key Usage: 
                Digital Signature, Key Encipherment
            Netscape Cert Type: 
                SSL Server
            X509v3 Extended Key Usage: 
                TLS Web Server Authentication
    Signature Algorithm: sha256WithRSAEncryption
         be:58:db:a9:c0:6e:f5:46:8a:27:b0:6e:12:5b:6a:cc:4b:db:
         58:8c:74:d6:b2:15:11:3b:e5:63:b8:5d:30:f8:75:bc:99:ff:
         6f:42:cb:f7:29:15:2b:79:5a:a4:ae:92:a6:6d:7c:fe:f4:4f:
         3c:11:84:df:d5:08:f8:b4:73:9d:be:0c:4c:b7:41:9c:8a:0d:
         cd:51:35:0b:85:c3:57:62:64:da:06:eb:77:b3:b2:62:1e:a6:
         2f:f3:04:75:01:39:5c:a5:70:85:f1:16:48:c8:fc:03:a0:ff:
         13:8a:35:67:77:f1:20:a8:e6:0f:12:22:62:21:13:32:65:03:
         53:e0:c8:e4:eb:25:68:6c:30:b3:20:ee:e4:56:fa:b1:70:3f:
         41:64:09:84:5f:91:42:23:b4:cb:40:86:a5:fc:4c:45:c7:ba:
         72:52:17:69:af:f6:49:40:29:09:bb:92:b3:2e:d4:c7:8b:93:
         a6:9c:8d:a2:9b:70:e0:e5:03:4c:9d:9c:a4:ce:a2:5c:cd:fa:
         a2:4d:3d:4c:46:20:53:ab:7f:52:ed:3c:f1:4a:d0:ee:14:1a:
         0d:bd:ae:4c:ab:0e:33:3e:5c:5b:32:c7:83:ed:c4:11:e9:7b:
         5c:c7:63:cb:ad:64:e5:4b:6f:fa:53:ed:47:58:dd:39:34:be:
         1d:fa:b2:4d:7f:eb:84:69:73:4b:27:1a:56:2c:78:95:3c:0f:
         f2:88:32:1e:7a:3b:0c:17:51:ec:cc:14:ff:f5:ec:e1:20:dd:
         f2:6c:0f:7f:13:08:3b:47:44:93:a5:c5:bd:1c:e0:fd:eb:f2:
         f0:1d:22:da:84:20:cb:d8:1e:21:ff:69:5c:9e:ca:7e:16:7f:
         cc:1f:5f:5f:7f:ac:b5:b2:ab:62:73:18:8e:03:ed:d5:aa:69:
         0d:c1:0e:54:c2:ac:8e:f7:9d:cc:1c:07:4a:90:05:51:cc:33:
         1d:35:53:3a:5a:24:92:ba:f2:1f:7d:55:19:89:48:92:57:eb:
         25:b2:74:d4:9e:83:ca:7d:f7:4e:34:a0:63:bc:fc:23:13:04:
         81:20:72:14:35:e9:13:08:c7:53:54:56:f8:9d:62:6a:58:f1:
         fc:70:f4:fd:5c:7f:55:0a:d0:a2:73:37:a4:13:6e:ad:b7:cf:
         c4:42:72:87:5e:4a:6b:95:9e:78:8e:b1:ba:50:cc:f1:bd:f4:
         29:0c:e3:5d:74:53:f2:5a:18:03:14:1d:c9:d5:98:da:ed:6f:
         af:21:5a:fe:de:80:dc:17:89:5a:86:02:5b:96:bc:b8:26:d7:
         89:50:62:93:72:46:ed:c7:60:0a:73:93:e1:ab:55:12:1c:57:
         c6:ec:af:83:90:cd:1d:ab
-----BEGIN CERTIFICATE-----
MIIG2DCCBMCgAwIBAgICASMwDQYJKoZIhvcNAQELBQAwcjELMAkGA1UEBhMCZnIx
DDAKBgNVBAgMA2lkZjEOMAwGA1UEBwwFcGFyaXMxDjAMBgNVBAoMBXZpdGFtMRQw
EgYDVQQLDAthdXRob3JpdGllczEfMB0GA1UEAwwWY2FfaW50ZXJtZWRpYXRlX3Nl
cnZlcjAgFw0yMjAzMDQxMTMwMTFaGA85OTk5MTIzMTIzNTk1OVowZjELMAkGA1UE
BhMCZnIxDDAKBgNVBAgMA2lkZjEOMAwGA1UEBwwFcGFyaXMxDjAMBgNVBAoMBXZp
dGFtMSkwJwYDVQQDDCBjb2xsZWN0LnNlcnZpY2UuZnVsbGxvY2FsLmNvbnN1bDCC
AiIwDQYJKoZIhvcNAQEBBQADggIPADCCAgoCggIBAOi20Md2/pnYBTXR7Prl0Qp7
AiXGZjY6V5xfsDmUJQwWeEbKUK6xtLL7+z3+jOps2opLvdVrq9f2q87L0vvrc8KW
SzR0p+7TyEgeNMDWro4/kLZmKova0XJ1a2m07bnM07krpS40mvzNrXMqN0YkckEO
8ZeG12+2mD/F12w7iSBwbuSCiMbURqVwI8tYmdQGletY2Yo+jrzLEvoaryXr5yxc
/3VDw6t3vEoTrt6czlo9W97l8orqocAJg6o5LS7F00DWCRdBR1qubUSC0rCWeSRJ
DFKqYuvqy3BAFSGbkUjDd5oN1K/2vbeoy7LazO+uZzpRSCL0gbFt4jZqQ+Au7lwq
9GsEA/siP34zqI93//0ZmmwFiLxVE7/PEGOuob4KHlmlDWo9e5KWXMfQy0s7ULnh
5FAPiIEL699VZUONUBVAVeaBBw1/5EYPxSrr8WQaXs5o538GAo9coiq7RzcFkZCC
GqTq8y6QEyesv/Tn7uyDgfbcFOSHdbULD/A9/XDQ+ajvmSWxly0Vdk2bwWEi0Oqd
UVArnVYFinBCA00y/bMHfP9Qru0z3OEnk8D/Xx9m1tsOZCKr41MtpkrSdnxbj4OE
7Ex46iTSQiQseiASJvhlqZtKu8iQ993eCturUylddFmHCuLY33yKVSk/P9WT5DDz
dS1ECZ3zbk+glyG86nhtAgMBAAGjggGAMIIBfDAlBglghkgBhvhCAQ0EGBYWQ2Vy
dGlmaWNhdCBTZXJ2ZXVyIFNTTDAdBgNVHQ4EFgQUZptB3xGH2uEZqtCZ7MpcuIZT
zhUwgZUGA1UdIwSBjTCBioAUH6901GHSOSB+wtZnwllmu+omDp+hbqRsMGoxCzAJ
BgNVBAYTAmZyMQwwCgYDVQQIDANpZGYxDjAMBgNVBAcMBXBhcmlzMQ4wDAYDVQQK
DAV2aXRhbTEUMBIGA1UECwwLYXV0aG9yaXRpZXMxFzAVBgNVBAMMDmNhX3Jvb3Rf
c2VydmVyggIBDDAJBgNVHRIEAjAAME4GA1UdEQRHMEWCFmNvbGxlY3Quc2Vydmlj
ZS5jb25zdWyCCWxvY2FsaG9zdIIgY29sbGVjdC5zZXJ2aWNlLmZ1bGxsb2NhbC5j
b25zdWwwDAYDVR0TAQH/BAIwADALBgNVHQ8EBAMCBaAwEQYJYIZIAYb4QgEBBAQD
AgZAMBMGA1UdJQQMMAoGCCsGAQUFBwMBMA0GCSqGSIb3DQEBCwUAA4ICAQC+WNup
wG71RoonsG4SW2rMS9tYjHTWshURO+VjuF0w+HW8mf9vQsv3KRUreVqkrpKmbXz+
9E88EYTf1Qj4tHOdvgxMt0Gcig3NUTULhcNXYmTaBut3s7JiHqYv8wR1ATlcpXCF
8RZIyPwDoP8TijVnd/EgqOYPEiJiIRMyZQNT4Mjk6yVobDCzIO7kVvqxcD9BZAmE
X5FCI7TLQIal/ExFx7pyUhdpr/ZJQCkJu5KzLtTHi5OmnI2im3Dg5QNMnZykzqJc
zfqiTT1MRiBTq39S7TzxStDuFBoNva5Mqw4zPlxbMseD7cQR6Xtcx2PLrWTlS2/6
U+1HWN05NL4d+rJNf+uEaXNLJxpWLHiVPA/yiDIeejsMF1HszBT/9ezhIN3ybA9/
Ewg7R0STpcW9HOD96/LwHSLahCDL2B4h/2lcnsp+Fn/MH19ff6y1sqticxiOA+3V
qmkNwQ5UwqyO953MHAdKkAVRzDMdNVM6WiSSuvIffVUZiUiSV+slsnTUnoPKffdO
NKBjvPwjEwSBIHIUNekTCMdTVFb4nWJqWPH8cPT9XH9VCtCiczekE26tt8/EQnKH
XkprlZ54jrG6UMzxvfQpDONddFPyWhgDFB3J1Zja7W+vIVr+3oDcF4lahgJblry4
JteJUGKTckbtx2AKc5Phq1USHFfG7K+DkM0dqw==
-----END CERTIFICATE-----
