Certificate:
    Data:
        Version: 3 (0x2)
        Serial Number: 290 (0x122)
        Signature Algorithm: sha256WithRSAEncryption
        Issuer: C=fr, ST=idf, L=paris, O=vitam, OU=authorities, CN=ca_intermediate_server
        Validity
            Not Before: Jan 12 16:12:53 2022 GMT
            Not After : Jan 11 16:12:53 2025 GMT
        Subject: C=fr, ST=idf, L=paris, O=vitam, CN=collect.service.fulllocal.consul
        Subject Public Key Info:
            Public Key Algorithm: rsaEncryption
                RSA Public-Key: (4096 bit)
                Modulus:
                    00:de:4b:d1:72:e8:05:e3:03:e5:3e:b2:96:21:62:
                    cc:b7:0a:e7:05:08:a7:61:ca:36:b6:df:96:a2:ca:
                    34:1c:8b:1d:77:13:f3:40:54:72:da:42:3f:ce:b6:
                    e8:a5:d1:f8:ea:39:06:29:8a:5f:c3:7b:88:aa:f5:
                    4d:5c:11:c0:3c:16:96:35:d4:64:e1:2a:b5:c1:bc:
                    47:e0:68:8b:d1:9f:a4:8b:dc:f1:0b:7c:8d:c4:5f:
                    5f:4b:0d:45:5d:1d:c7:39:d0:ff:60:97:d2:7d:6e:
                    12:ba:c6:0e:fb:b7:8d:a9:e7:e7:43:6e:d8:d9:83:
                    b3:f1:ee:7d:6d:3c:3e:c8:f0:b0:8a:29:1a:b4:e3:
                    cf:86:f6:61:b8:9b:3e:40:16:94:16:3c:d6:e4:f5:
                    9d:da:63:ca:cf:1f:a3:51:5d:e2:ab:87:f3:cf:b4:
                    11:67:61:a1:54:73:47:35:1b:96:79:9c:56:ef:4d:
                    28:8b:77:0d:52:10:c5:f9:3b:c7:59:36:30:25:df:
                    07:5a:9f:6f:a2:6d:b9:f2:0e:ae:3a:3c:20:41:66:
                    ed:61:99:79:78:e5:77:b1:fa:d0:b9:49:ca:a5:48:
                    a7:cd:8c:73:66:65:ff:4e:3a:c6:b0:22:3a:8b:94:
                    7b:53:db:9c:e1:40:75:15:c5:d8:44:ba:ea:13:1f:
                    6d:8a:25:9c:ca:e8:c6:bb:6e:fe:1e:8e:81:f6:d7:
                    34:80:06:05:f5:b2:09:bf:02:1c:02:ad:3f:31:db:
                    08:29:64:cc:69:c2:1d:ba:4a:1b:d9:eb:81:d5:21:
                    4a:c3:ae:e6:93:b3:91:26:cb:3e:a9:52:28:e4:24:
                    b3:13:70:7c:cd:c9:15:4d:c8:13:00:f5:67:4c:79:
                    9f:a5:87:b5:71:10:f8:11:b7:2d:12:a3:6d:de:bb:
                    12:c3:76:e3:96:ef:37:a6:32:c9:a3:68:ce:4a:ec:
                    dd:9e:e1:86:d4:38:4d:93:e3:01:2f:cc:58:6b:a1:
                    e4:3a:3a:31:74:5f:fd:fa:dc:af:d3:73:48:74:99:
                    8c:3d:c7:0b:3b:56:6d:9e:4a:39:88:08:c7:22:a4:
                    f8:ba:44:ec:54:cc:c0:f1:34:fe:3e:cf:0b:4d:68:
                    15:04:2f:c4:c9:47:12:2f:81:7a:02:f2:09:6d:04:
                    19:0d:37:c7:98:2c:b7:9c:84:26:1b:16:84:f7:8b:
                    7c:69:47:d2:e7:9c:ef:fa:83:b5:56:fe:8f:c3:b7:
                    d9:55:be:8e:c6:1d:66:11:5f:e7:85:84:07:0c:f3:
                    31:60:5e:83:85:79:c5:79:46:39:22:0e:78:d2:26:
                    3a:79:9e:d0:7f:4e:b6:22:89:0b:49:b0:24:ab:95:
                    c0:c3:e3
                Exponent: 65537 (0x10001)
        X509v3 extensions:
            Netscape Comment: 
                Certificat Serveur SSL
            X509v3 Subject Key Identifier: 
                EA:80:E7:24:97:3F:E2:97:1B:5B:A9:C4:EB:BD:A6:1F:20:73:4A:91
            X509v3 Authority Key Identifier: 
                keyid:1F:AF:74:D4:61:D2:39:20:7E:C2:D6:67:C2:59:66:BB:EA:26:0E:9F
                DirName:/C=fr/ST=idf/L=paris/O=vitam/OU=authorities/CN=ca_root_server
                serial:01:0C

            X509v3 Issuer Alternative Name: 
                <EMPTY>

            X509v3 Subject Alternative Name: 
                DNS:collect.service.consul, DNS:localhost, DNS:collect.service.fulllocal.consul
            X509v3 Basic Constraints: critical
                CA:FALSE
            X509v3 Key Usage: 
                Digital Signature, Key Encipherment
            Netscape Cert Type: 
                SSL Server
            X509v3 Extended Key Usage: 
                TLS Web Server Authentication
    Signature Algorithm: sha256WithRSAEncryption
         72:9a:f9:3d:9c:26:98:06:c8:48:43:bb:bc:33:3c:e5:be:5d:
         5e:69:85:06:82:5e:e7:e7:40:8b:62:f4:35:95:b2:77:22:28:
         bf:48:ac:b1:59:e7:26:4b:dd:e9:cb:5b:b9:f8:05:6e:32:72:
         df:c2:7a:08:2a:50:5e:b5:d9:b5:76:d3:b0:9d:81:9b:22:d5:
         59:8c:eb:2b:78:56:4c:ea:d2:49:46:9b:ac:32:31:7d:4f:8e:
         a3:68:64:0d:fe:3d:9b:0a:c0:2e:5a:7b:78:e5:49:0e:2c:76:
         02:d2:89:15:bd:77:1e:a5:a2:29:3c:30:eb:b3:88:11:e5:9a:
         3b:05:19:6d:8f:af:6a:8f:60:0c:fd:e7:2f:df:b7:09:e9:21:
         9f:87:96:63:a2:a8:89:c3:2a:47:49:e0:a5:4b:8d:02:26:ad:
         be:65:66:35:a1:8c:6d:31:de:2d:97:df:a6:91:67:7f:1d:86:
         24:90:c9:ba:1e:c2:85:05:02:2a:42:32:17:38:d3:3b:b5:56:
         90:25:28:9a:7c:66:14:c3:07:7e:c0:e5:1b:98:ad:f7:65:ed:
         b6:ff:b2:1e:64:2f:77:7b:20:e3:32:07:92:78:77:38:2d:21:
         52:7f:63:6f:99:48:ca:f4:2e:7a:38:78:04:7e:d8:b0:61:57:
         bd:de:bc:d7:2e:99:13:b7:99:a8:fb:a3:04:65:c0:68:94:75:
         81:95:0a:bb:16:d0:8f:b8:e6:40:f4:84:4e:37:6c:32:eb:3e:
         78:42:41:68:2f:d0:7c:5d:67:66:02:90:ca:06:e8:b7:ff:66:
         d2:70:3d:8a:ef:7f:af:1b:cd:04:d0:4a:a9:5e:a2:a9:cf:6d:
         56:0f:75:d3:5f:c9:53:fb:6b:84:c6:db:84:88:3d:04:0c:00:
         3b:df:44:46:8c:cc:d3:5c:15:4a:1c:c3:a1:78:ed:ed:8d:40:
         9c:cb:d3:ba:b9:dd:1d:35:c3:cc:f0:4b:b2:63:d8:ee:5f:60:
         00:a8:f3:f6:ec:e1:12:be:aa:7a:f5:9c:6f:f4:91:61:94:6f:
         f5:b9:08:19:b3:e7:ae:4c:6f:29:42:4a:35:3f:05:fe:de:54:
         44:66:d2:e1:63:da:85:79:52:9a:ed:f9:8b:72:84:93:19:c0:
         08:15:eb:d9:8a:a2:42:b6:93:93:e6:ec:5b:9b:95:72:68:34:
         41:0a:a0:ec:30:5f:2f:10:65:53:f5:6c:10:da:bb:7e:f6:6c:
         bc:35:d6:fa:86:f7:e3:84:3d:d0:00:7c:51:b2:4b:93:e1:4a:
         96:4d:6a:4c:b7:f4:01:57:41:e7:28:e1:8a:08:0f:b0:93:c1:
         47:31:9d:f2:df:94:14:c5
-----BEGIN CERTIFICATE-----
MIIG1jCCBL6gAwIBAgICASIwDQYJKoZIhvcNAQELBQAwcjELMAkGA1UEBhMCZnIx
DDAKBgNVBAgMA2lkZjEOMAwGA1UEBwwFcGFyaXMxDjAMBgNVBAoMBXZpdGFtMRQw
EgYDVQQLDAthdXRob3JpdGllczEfMB0GA1UEAwwWY2FfaW50ZXJtZWRpYXRlX3Nl
cnZlcjAeFw0yMjAxMTIxNjEyNTNaFw0yNTAxMTExNjEyNTNaMGYxCzAJBgNVBAYT
AmZyMQwwCgYDVQQIDANpZGYxDjAMBgNVBAcMBXBhcmlzMQ4wDAYDVQQKDAV2aXRh
bTEpMCcGA1UEAwwgY29sbGVjdC5zZXJ2aWNlLmZ1bGxsb2NhbC5jb25zdWwwggIi
MA0GCSqGSIb3DQEBAQUAA4ICDwAwggIKAoICAQDeS9Fy6AXjA+U+spYhYsy3CucF
CKdhyja235aiyjQcix13E/NAVHLaQj/Otuil0fjqOQYpil/De4iq9U1cEcA8FpY1
1GThKrXBvEfgaIvRn6SL3PELfI3EX19LDUVdHcc50P9gl9J9bhK6xg77t42p5+dD
btjZg7Px7n1tPD7I8LCKKRq048+G9mG4mz5AFpQWPNbk9Z3aY8rPH6NRXeKrh/PP
tBFnYaFUc0c1G5Z5nFbvTSiLdw1SEMX5O8dZNjAl3wdan2+ibbnyDq46PCBBZu1h
mXl45Xex+tC5ScqlSKfNjHNmZf9OOsawIjqLlHtT25zhQHUVxdhEuuoTH22KJZzK
6Ma7bv4ejoH21zSABgX1sgm/AhwCrT8x2wgpZMxpwh26ShvZ64HVIUrDruaTs5Em
yz6pUijkJLMTcHzNyRVNyBMA9WdMeZ+lh7VxEPgRty0So23euxLDduOW7zemMsmj
aM5K7N2e4YbUOE2T4wEvzFhroeQ6OjF0X/363K/Tc0h0mYw9xws7Vm2eSjmICMci
pPi6ROxUzMDxNP4+zwtNaBUEL8TJRxIvgXoC8gltBBkNN8eYLLechCYbFoT3i3xp
R9LnnO/6g7VW/o/Dt9lVvo7GHWYRX+eFhAcM8zFgXoOFecV5RjkiDnjSJjp5ntB/
TrYiiQtJsCSrlcDD4wIDAQABo4IBgDCCAXwwJQYJYIZIAYb4QgENBBgWFkNlcnRp
ZmljYXQgU2VydmV1ciBTU0wwHQYDVR0OBBYEFOqA5ySXP+KXG1upxOu9ph8gc0qR
MIGVBgNVHSMEgY0wgYqAFB+vdNRh0jkgfsLWZ8JZZrvqJg6foW6kbDBqMQswCQYD
VQQGEwJmcjEMMAoGA1UECAwDaWRmMQ4wDAYDVQQHDAVwYXJpczEOMAwGA1UECgwF
dml0YW0xFDASBgNVBAsMC2F1dGhvcml0aWVzMRcwFQYDVQQDDA5jYV9yb290X3Nl
cnZlcoICAQwwCQYDVR0SBAIwADBOBgNVHREERzBFghZjb2xsZWN0LnNlcnZpY2Uu
Y29uc3Vsgglsb2NhbGhvc3SCIGNvbGxlY3Quc2VydmljZS5mdWxsbG9jYWwuY29u
c3VsMAwGA1UdEwEB/wQCMAAwCwYDVR0PBAQDAgWgMBEGCWCGSAGG+EIBAQQEAwIG
QDATBgNVHSUEDDAKBggrBgEFBQcDATANBgkqhkiG9w0BAQsFAAOCAgEAcpr5PZwm
mAbISEO7vDM85b5dXmmFBoJe5+dAi2L0NZWydyIov0issVnnJkvd6ctbufgFbjJy
38J6CCpQXrXZtXbTsJ2BmyLVWYzrK3hWTOrSSUabrDIxfU+Oo2hkDf49mwrALlp7
eOVJDix2AtKJFb13HqWiKTww67OIEeWaOwUZbY+vao9gDP3nL9+3Cekhn4eWY6Ko
icMqR0ngpUuNAiatvmVmNaGMbTHeLZffppFnfx2GJJDJuh7ChQUCKkIyFzjTO7VW
kCUomnxmFMMHfsDlG5it92Xttv+yHmQvd3sg4zIHknh3OC0hUn9jb5lIyvQuejh4
BH7YsGFXvd681y6ZE7eZqPujBGXAaJR1gZUKuxbQj7jmQPSETjdsMus+eEJBaC/Q
fF1nZgKQygbot/9m0nA9iu9/rxvNBNBKqV6iqc9tVg9101/JU/trhMbbhIg9BAwA
O99ERozM01wVShzDoXjt7Y1AnMvTurndHTXDzPBLsmPY7l9gAKjz9uzhEr6qevWc
b/SRYZRv9bkIGbPnrkxvKUJKNT8F/t5URGbS4WPahXlSmu35i3KEkxnACBXr2Yqi
QraTk+bsW5uVcmg0QQqg7DBfLxBlU/VsENq7fvZsvDXW+ob344Q90AB8UbJLk+FK
lk1qTLf0AVdB5yjhiggPsJPBRzGd8t+UFMU=
-----END CERTIFICATE-----
