Certificate:
    Data:
        Version: 3 (0x2)
        Serial Number: 265 (0x109)
    Signature Algorithm: sha256WithRSAEncryption
        Issuer: C=fr, ST=idf, L=paris, O=vitam, OU=authorities, CN=ca_intermediate_server
        Validity
            Not Before: Oct 19 08:40:55 2018 GMT
            Not After : Oct 18 08:40:55 2021 GMT
        Subject: C=fr, ST=idf, L=paris, O=vitam, CN=ihm-recette.service.consul
        Subject Public Key Info:
            Public Key Algorithm: rsaEncryption
                Public-Key: (4096 bit)
                Modulus:
                    00:c3:2a:6c:c3:ca:57:53:c7:cf:1e:1a:c1:88:f7:
                    1f:3d:90:e5:1d:b6:18:d1:e5:e9:2b:29:da:3e:dc:
                    e2:6d:81:1c:a2:e4:48:f0:55:57:d7:17:55:82:03:
                    f7:6f:22:ce:c1:87:1f:fe:2a:a8:f7:bf:0a:6e:d1:
                    67:e2:97:21:51:2a:c1:34:77:6a:90:48:a9:87:97:
                    40:12:e0:f3:82:8b:0e:3b:66:26:37:ca:57:74:27:
                    ba:ef:b1:5c:1f:8e:f4:f4:f5:2e:60:c2:d4:ce:e1:
                    1d:e1:db:03:a8:3d:3d:54:b5:2a:b8:6d:67:5d:e3:
                    43:b3:90:5c:9c:eb:16:fa:75:8d:48:fa:2a:d7:95:
                    03:09:2a:4d:92:91:70:71:37:59:15:ae:54:81:6f:
                    6d:2c:4d:e6:ed:20:9f:ca:7b:60:07:be:2d:18:6a:
                    07:31:92:29:ee:b3:e5:85:79:7e:45:07:1b:71:d7:
                    f4:2e:12:84:80:37:6e:ca:47:c1:ec:00:21:81:ba:
                    6d:e8:fb:91:9a:aa:28:70:53:28:08:3a:f1:cd:97:
                    fb:b9:1c:f7:b0:0f:97:90:c1:dd:7a:52:f5:6d:59:
                    38:2e:84:bc:e9:82:bc:b5:51:0b:6c:05:39:85:26:
                    2c:5e:e9:40:4b:b7:a3:84:a9:f8:77:61:33:d1:74:
                    b7:7a:61:d2:e9:4f:49:2e:20:4f:4c:aa:e4:54:30:
                    e9:c4:3d:81:f9:cb:a8:a5:4d:c7:ff:9a:de:fe:1e:
                    b8:88:51:f4:b2:f6:fd:dd:21:12:d0:8d:4f:49:1d:
                    b4:c7:1d:64:99:d6:e3:d8:2f:6f:b8:b6:7f:af:c6:
                    35:8a:05:d8:49:29:14:02:4f:b3:35:b0:bd:af:4e:
                    f2:34:c9:95:4f:38:01:30:7f:bf:29:89:ee:c1:ce:
                    b0:a3:12:44:f4:ed:73:97:70:27:c5:0f:30:24:1a:
                    64:9f:bd:e4:08:92:23:77:85:95:fd:10:92:0a:0e:
                    7b:7b:b6:7f:95:fd:ec:b2:20:8b:68:47:09:e8:d1:
                    a4:10:99:1f:5b:7d:e8:4e:a8:13:75:5b:56:a9:d1:
                    f9:6c:25:20:46:62:db:7a:f3:dd:58:4a:47:86:99:
                    eb:10:1f:70:b2:0e:db:36:24:7f:3c:1d:a6:8a:8d:
                    bf:75:e0:74:91:08:79:08:56:c8:ba:5f:e7:76:5e:
                    1a:de:8a:cb:3d:dd:54:dd:25:80:08:98:65:fb:c3:
                    d9:6a:79:29:1b:53:1b:fd:ee:b2:19:d7:4a:e9:c0:
                    97:31:13:8a:34:7d:6d:65:a5:14:08:6a:8c:ae:74:
                    72:a3:03:65:a7:79:27:ee:86:1d:a0:0c:11:f0:26:
                    17:3b:31
                Exponent: 65537 (0x10001)
        X509v3 extensions:
            Netscape Comment: 
                Certificat Serveur SSL
            X509v3 Subject Key Identifier: 
                B7:8C:51:72:83:9B:7A:CA:AF:B4:3E:A2:8F:2B:91:87:B7:B9:E2:BC
            X509v3 Authority Key Identifier: 
                keyid:8E:45:CA:B9:5E:F2:8A:F9:A0:3A:C0:5C:78:C2:FC:E5:E8:6E:29:D9
                DirName:/C=fr/ST=idf/L=paris/O=vitam/OU=authorities/CN=ca_root_server
                serial:01:05

            X509v3 Issuer Alternative Name: 
                <EMPTY>

            X509v3 Subject Alternative Name: 
                DNS:ihm-recette.service.consul, DNS:localhost
            X509v3 Basic Constraints: critical
                CA:FALSE
            X509v3 Key Usage: 
                Digital Signature, Key Encipherment
            Netscape Cert Type: 
                SSL Server
            X509v3 Extended Key Usage: 
                TLS Web Server Authentication
    Signature Algorithm: sha256WithRSAEncryption
         c2:b4:6a:4f:cc:f7:68:13:e4:30:9a:5b:2d:01:02:02:8d:40:
         5b:4d:f8:be:cd:7b:e7:9b:33:81:1d:53:b3:19:f3:b7:fc:85:
         f3:07:c3:03:75:32:ea:94:ab:3b:0f:55:9a:b9:1d:b3:a0:cf:
         7d:22:d1:a0:40:09:2a:dc:80:93:d1:5f:ae:6e:9b:f1:d6:aa:
         23:38:f4:4d:be:5b:67:d8:0c:31:ec:3b:e7:50:89:59:37:89:
         3e:c3:01:ab:cb:bc:b0:a4:fb:ee:0d:b2:d3:ac:c0:e1:f5:9a:
         fb:47:8a:dd:b9:27:f0:4e:5d:62:ab:4a:dc:8f:a1:62:02:0f:
         4b:7c:ef:56:e3:78:02:a0:b9:ab:3b:d0:d2:a7:6f:d5:0c:9c:
         e0:7f:22:50:0f:b0:bb:a3:a5:74:3f:5a:7a:cf:7f:dd:a1:eb:
         e9:82:64:cc:1e:34:23:2d:0d:74:10:3a:f9:58:d5:1f:25:a0:
         3f:e3:d2:09:71:ac:16:27:db:ec:eb:a9:21:fa:6a:d4:ff:d4:
         b9:6a:2e:81:d9:b9:f0:9c:24:8c:1b:7c:e0:f5:69:3a:cf:ee:
         fe:bd:df:4e:27:d3:f0:2b:af:b6:b6:36:0f:e5:5f:41:d4:e0:
         c8:5e:ef:a7:aa:16:1e:cd:f5:fd:a5:ac:c0:7b:02:ae:2e:4c:
         b5:f1:c7:4f:27:da:42:f8:38:a7:d9:bc:bb:04:fe:93:8b:0d:
         92:d4:e0:64:ff:2c:6f:b5:7b:cd:bd:e1:b8:e0:2c:22:89:95:
         24:d4:4f:6e:b1:01:42:a4:7a:cd:c1:74:fa:28:b1:ef:de:53:
         0b:ac:1c:54:27:25:ee:1f:06:68:8f:4f:fc:91:05:5a:8f:ab:
         87:40:01:88:d8:81:6f:93:99:f1:9f:f6:b5:0a:7b:09:85:81:
         4d:5e:22:21:04:ef:43:5a:ee:9c:93:1d:39:f8:f5:7d:de:43:
         8f:19:68:e5:5c:6b:0d:ce:98:86:cf:97:6d:cc:a1:d7:10:78:
         fd:f6:93:42:d3:1d:22:8f:35:20:1e:47:41:36:7c:30:5c:75:
         12:b1:b1:b8:3c:fe:0d:72:0b:35:84:ee:ad:d3:1d:ab:e8:02:
         a7:3d:36:36:50:c1:0f:91:9f:ef:0b:df:16:f4:eb:97:7d:e5:
         d7:84:75:1a:c0:c2:c1:37:04:f8:d5:70:f9:95:a3:b1:54:30:
         d6:ef:e0:be:23:84:ac:f8:be:a2:1b:6d:8d:51:65:2c:91:17:
         79:11:8a:5d:da:cc:b5:98:10:71:00:4c:3d:c9:15:6b:0b:9f:
         8d:82:52:82:a2:f1:64:7a:de:6c:fc:f9:12:c5:9c:ef:7e:fd:
         ed:cb:e8:8f:2b:9d:16:85
-----BEGIN CERTIFICATE-----
MIIGsjCCBJqgAwIBAgICAQkwDQYJKoZIhvcNAQELBQAwcjELMAkGA1UEBhMCZnIx
DDAKBgNVBAgMA2lkZjEOMAwGA1UEBwwFcGFyaXMxDjAMBgNVBAoMBXZpdGFtMRQw
EgYDVQQLDAthdXRob3JpdGllczEfMB0GA1UEAwwWY2FfaW50ZXJtZWRpYXRlX3Nl
cnZlcjAeFw0xODEwMTkwODQwNTVaFw0yMTEwMTgwODQwNTVaMGAxCzAJBgNVBAYT
AmZyMQwwCgYDVQQIDANpZGYxDjAMBgNVBAcMBXBhcmlzMQ4wDAYDVQQKDAV2aXRh
bTEjMCEGA1UEAwwaaWhtLXJlY2V0dGUuc2VydmljZS5jb25zdWwwggIiMA0GCSqG
SIb3DQEBAQUAA4ICDwAwggIKAoICAQDDKmzDyldTx88eGsGI9x89kOUdthjR5ekr
Kdo+3OJtgRyi5EjwVVfXF1WCA/dvIs7Bhx/+Kqj3vwpu0WfilyFRKsE0d2qQSKmH
l0AS4POCiw47ZiY3yld0J7rvsVwfjvT09S5gwtTO4R3h2wOoPT1UtSq4bWdd40Oz
kFyc6xb6dY1I+irXlQMJKk2SkXBxN1kVrlSBb20sTebtIJ/Ke2AHvi0Yagcxkinu
s+WFeX5FBxtx1/QuEoSAN27KR8HsACGBum3o+5GaqihwUygIOvHNl/u5HPewD5eQ
wd16UvVtWTguhLzpgry1UQtsBTmFJixe6UBLt6OEqfh3YTPRdLd6YdLpT0kuIE9M
quRUMOnEPYH5y6ilTcf/mt7+HriIUfSy9v3dIRLQjU9JHbTHHWSZ1uPYL2+4tn+v
xjWKBdhJKRQCT7M1sL2vTvI0yZVPOAEwf78pie7BzrCjEkT07XOXcCfFDzAkGmSf
veQIkiN3hZX9EJIKDnt7tn+V/eyyIItoRwno0aQQmR9bfehOqBN1W1ap0flsJSBG
Ytt6891YSkeGmesQH3CyDts2JH88HaaKjb914HSRCHkIVsi6X+d2Xhreiss93VTd
JYAImGX7w9lqeSkbUxv97rIZ10rpwJcxE4o0fW1lpRQIaoyudHKjA2WneSfuhh2g
DBHwJhc7MQIDAQABo4IBYjCCAV4wJQYJYIZIAYb4QgENBBgWFkNlcnRpZmljYXQg
U2VydmV1ciBTU0wwHQYDVR0OBBYEFLeMUXKDm3rKr7Q+oo8rkYe3ueK8MIGVBgNV
HSMEgY0wgYqAFI5Fyrle8or5oDrAXHjC/OXobinZoW6kbDBqMQswCQYDVQQGEwJm
cjEMMAoGA1UECAwDaWRmMQ4wDAYDVQQHDAVwYXJpczEOMAwGA1UECgwFdml0YW0x
FDASBgNVBAsMC2F1dGhvcml0aWVzMRcwFQYDVQQDDA5jYV9yb290X3NlcnZlcoIC
AQUwCQYDVR0SBAIwADAwBgNVHREEKTAnghppaG0tcmVjZXR0ZS5zZXJ2aWNlLmNv
bnN1bIIJbG9jYWxob3N0MAwGA1UdEwEB/wQCMAAwCwYDVR0PBAQDAgWgMBEGCWCG
SAGG+EIBAQQEAwIGQDATBgNVHSUEDDAKBggrBgEFBQcDATANBgkqhkiG9w0BAQsF
AAOCAgEAwrRqT8z3aBPkMJpbLQECAo1AW034vs1755szgR1Tsxnzt/yF8wfDA3Uy
6pSrOw9Vmrkds6DPfSLRoEAJKtyAk9Ffrm6b8daqIzj0Tb5bZ9gMMew751CJWTeJ
PsMBq8u8sKT77g2y06zA4fWa+0eK3bkn8E5dYqtK3I+hYgIPS3zvVuN4AqC5qzvQ
0qdv1Qyc4H8iUA+wu6OldD9aes9/3aHr6YJkzB40Iy0NdBA6+VjVHyWgP+PSCXGs
Fifb7OupIfpq1P/UuWougdm58JwkjBt84PVpOs/u/r3fTifT8CuvtrY2D+VfQdTg
yF7vp6oWHs31/aWswHsCri5MtfHHTyfaQvg4p9m8uwT+k4sNktTgZP8sb7V7zb3h
uOAsIomVJNRPbrEBQqR6zcF0+iix795TC6wcVCcl7h8GaI9P/JEFWo+rh0ABiNiB
b5OZ8Z/2tQp7CYWBTV4iIQTvQ1runJMdOfj1fd5Djxlo5VxrDc6Yhs+Xbcyh1xB4
/faTQtMdIo81IB5HQTZ8MFx1ErGxuDz+DXILNYTurdMdq+gCpz02NlDBD5Gf7wvf
FvTrl33l14R1GsDCwTcE+NVw+ZWjsVQw1u/gviOErPi+ohttjVFlLJEXeRGKXdrM
tZgQcQBMPckVawufjYJSgqLxZHrebPz5EsWc73797cvojyudFoU=
-----END CERTIFICATE-----
