Certificate:
    Data:
        Version: 3 (0x2)
        Serial Number: 289 (0x121)
        Signature Algorithm: sha256WithRSAEncryption
        Issuer: C=fr, ST=idf, L=paris, O=vitam, OU=authorities, CN=ca_intermediate_server
        Validity
            Not Before: Jan 12 16:12:52 2022 GMT
            Not After : Jan 11 16:12:52 2025 GMT
        Subject: C=fr, ST=idf, L=paris, O=vitam, CN=ihm-demo.service.fulllocal.consul
        Subject Public Key Info:
            Public Key Algorithm: rsaEncryption
                RSA Public-Key: (4096 bit)
                Modulus:
                    00:c7:94:82:ea:a6:a5:f1:9d:3c:70:77:1a:95:19:
                    6f:2c:af:1f:ef:e7:51:e9:e1:d2:a9:02:c8:38:92:
                    a9:e0:cd:e7:c4:cc:b0:72:4d:cc:ae:97:8e:55:02:
                    ea:84:10:a2:16:37:87:f8:c7:fc:fc:ad:6e:50:b3:
                    35:b8:01:93:ae:ce:e7:88:56:72:24:5d:fa:f6:17:
                    d3:c2:b7:c9:c7:91:ca:62:dd:96:5d:e9:9e:97:90:
                    56:1b:a0:a0:a0:52:c0:ce:1f:01:1b:10:99:83:a7:
                    17:a7:9f:4a:75:0d:80:3d:1a:b8:c9:af:ec:9e:c9:
                    6d:15:12:5b:d3:39:c5:3a:64:4d:cc:c2:c0:82:47:
                    0a:85:de:be:54:79:32:54:b0:75:50:4c:ce:43:a8:
                    d1:20:06:d7:8e:3b:b3:e4:7b:86:02:b0:f7:39:e4:
                    59:c2:44:1d:85:3d:f1:47:82:e2:42:4b:a8:c9:a3:
                    10:41:5e:3a:95:36:d2:58:da:96:b0:9d:29:bf:66:
                    f2:49:be:df:02:07:a9:ee:3e:cc:ba:1c:09:b7:97:
                    9d:a1:c8:7b:23:ae:cd:1b:7a:1e:3b:27:24:ce:8a:
                    e5:bc:08:ac:e0:ca:d6:5c:07:be:29:3b:c0:1d:6e:
                    93:3f:89:d2:35:bf:e0:d6:0a:18:50:4e:4c:28:c6:
                    31:25:c0:d1:c1:4c:19:a4:95:41:9b:ff:11:06:b8:
                    fd:0b:d3:8c:03:70:fa:bf:ee:6c:52:81:17:02:3e:
                    e8:06:2a:67:b5:ae:6d:11:86:3d:d5:99:67:50:a9:
                    6e:12:56:c0:5d:6e:fd:8e:b9:33:63:10:5c:23:f2:
                    9f:09:9b:55:bd:08:c3:80:ed:df:42:b5:4d:e1:41:
                    9f:de:22:a9:28:b3:3c:1f:11:5b:42:1d:24:3e:7a:
                    a4:96:36:a8:9c:65:dd:ea:14:9a:f8:d5:57:3e:0e:
                    c8:ac:a9:39:de:e8:bf:6f:d7:a4:5f:79:75:4d:05:
                    9b:32:35:f6:66:35:19:f3:ff:ca:3f:82:65:25:bf:
                    76:01:0d:94:90:56:e7:1d:fb:fd:d0:52:6d:e0:82:
                    8b:51:8a:81:94:cc:c4:dd:5c:3d:9e:57:4a:20:24:
                    d3:d3:76:61:48:15:64:dd:ab:57:06:d1:84:35:98:
                    a5:13:d2:b6:da:e7:2d:1e:06:fd:12:1e:67:51:fd:
                    6d:27:70:aa:bb:2e:89:75:41:56:d2:19:63:e1:6f:
                    f3:43:9e:7a:3f:c4:46:a0:5a:b4:ed:26:d3:9f:8c:
                    8c:9a:e0:4a:a9:1b:83:06:5d:a2:34:94:9f:e9:32:
                    06:79:2a:6e:45:3b:7f:fa:d7:60:8b:cb:1a:b8:9f:
                    8b:09:8d
                Exponent: 65537 (0x10001)
        X509v3 extensions:
            Netscape Comment: 
                Certificat Serveur SSL
            X509v3 Subject Key Identifier: 
                4E:75:86:66:95:FB:12:A9:8C:28:8D:C8:DB:1F:77:4D:9A:E1:26:CC
            X509v3 Authority Key Identifier: 
                keyid:1F:AF:74:D4:61:D2:39:20:7E:C2:D6:67:C2:59:66:BB:EA:26:0E:9F
                DirName:/C=fr/ST=idf/L=paris/O=vitam/OU=authorities/CN=ca_root_server
                serial:01:0C

            X509v3 Issuer Alternative Name: 
                <EMPTY>

            X509v3 Subject Alternative Name: 
                DNS:ihm-demo.service.consul, DNS:localhost, DNS:ihm-demo.service.fulllocal.consul
            X509v3 Basic Constraints: critical
                CA:FALSE
            X509v3 Key Usage: 
                Digital Signature, Key Encipherment
            Netscape Cert Type: 
                SSL Server
            X509v3 Extended Key Usage: 
                TLS Web Server Authentication
    Signature Algorithm: sha256WithRSAEncryption
         b4:9a:fd:d4:45:1a:52:a4:e1:2f:fd:62:6c:13:9a:ab:ca:a5:
         79:17:7a:36:9b:d3:e4:70:68:9c:8f:79:ed:90:ca:4a:34:0b:
         c4:45:f4:c1:57:03:72:66:a1:9c:da:c6:eb:a6:d7:e5:2c:e4:
         c3:87:6d:75:b5:ba:72:0b:c8:c5:09:99:a1:d2:52:1c:88:da:
         52:69:9c:af:72:4a:00:b7:91:af:57:be:81:cb:6c:07:67:20:
         f5:84:38:06:57:69:ac:55:18:51:74:ee:0b:3c:0e:56:49:1b:
         dc:fe:5d:a1:50:d7:1d:55:cb:5b:66:40:8c:c7:f1:93:97:87:
         5d:47:6c:c7:ab:1c:92:2a:da:0c:97:d9:33:93:ac:a1:6a:88:
         21:5f:77:90:5c:af:44:f8:ae:bc:11:05:fa:78:94:1e:76:68:
         38:e1:c5:b9:09:73:32:b7:c0:96:35:b0:dd:ef:4b:c0:ac:e4:
         cb:9a:fb:62:7d:c1:d0:5f:59:56:3c:9a:2f:d3:b0:98:4a:70:
         63:8b:d4:9f:c0:bd:97:61:4c:8a:54:fc:96:0d:ce:17:86:67:
         97:c3:cc:d1:cf:d1:44:72:9d:78:4e:f9:2a:e2:52:87:06:93:
         d4:a3:f6:54:e4:25:24:eb:c3:6e:70:1f:d1:1d:db:64:62:51:
         75:29:bc:f4:2a:7b:03:27:ca:09:75:cf:67:5c:83:00:86:0c:
         f8:ef:0a:84:bd:f2:9c:d9:a4:3a:1f:67:24:cc:ee:58:44:93:
         49:8a:75:ca:bc:66:2b:94:37:77:e7:22:55:55:1f:4e:b1:f7:
         3a:64:1e:34:38:e3:51:a3:97:74:3b:ea:41:a2:65:44:0e:f3:
         16:e2:96:ea:de:4f:67:ad:0d:6f:91:19:20:9d:59:8b:03:52:
         7b:f0:f6:2a:ce:6a:b0:18:e7:da:31:30:2a:63:7e:26:b5:62:
         db:1b:c5:f0:1c:0f:a3:0b:56:a9:10:c8:dc:da:e3:28:4d:cd:
         b0:d9:e3:9d:93:99:ab:01:84:2a:72:db:8c:af:7e:92:9f:36:
         2f:5d:76:9a:22:b6:c2:75:32:5c:e3:a8:a3:58:8b:e5:56:6b:
         30:90:62:db:7f:70:1e:d6:0f:a2:df:ca:75:fa:88:2e:8d:6a:
         78:08:ed:be:8c:80:fe:99:ac:48:22:8d:6f:65:c1:d2:9b:49:
         e2:2d:ad:9e:6e:ed:9f:da:17:e8:bb:13:5c:00:17:ed:11:9d:
         2b:af:e5:81:3f:e2:2c:56:0a:4b:92:43:db:7a:d7:65:d3:f5:
         d8:f3:32:78:01:07:c5:27:c7:e3:80:9a:e7:42:e3:7a:c6:01:
         79:e9:69:1a:87:93:60:5c
-----BEGIN CERTIFICATE-----
MIIG2TCCBMGgAwIBAgICASEwDQYJKoZIhvcNAQELBQAwcjELMAkGA1UEBhMCZnIx
DDAKBgNVBAgMA2lkZjEOMAwGA1UEBwwFcGFyaXMxDjAMBgNVBAoMBXZpdGFtMRQw
EgYDVQQLDAthdXRob3JpdGllczEfMB0GA1UEAwwWY2FfaW50ZXJtZWRpYXRlX3Nl
cnZlcjAeFw0yMjAxMTIxNjEyNTJaFw0yNTAxMTExNjEyNTJaMGcxCzAJBgNVBAYT
AmZyMQwwCgYDVQQIDANpZGYxDjAMBgNVBAcMBXBhcmlzMQ4wDAYDVQQKDAV2aXRh
bTEqMCgGA1UEAwwhaWhtLWRlbW8uc2VydmljZS5mdWxsbG9jYWwuY29uc3VsMIIC
IjANBgkqhkiG9w0BAQEFAAOCAg8AMIICCgKCAgEAx5SC6qal8Z08cHcalRlvLK8f
7+dR6eHSqQLIOJKp4M3nxMywck3MrpeOVQLqhBCiFjeH+Mf8/K1uULM1uAGTrs7n
iFZyJF369hfTwrfJx5HKYt2WXemel5BWG6CgoFLAzh8BGxCZg6cXp59KdQ2APRq4
ya/snsltFRJb0znFOmRNzMLAgkcKhd6+VHkyVLB1UEzOQ6jRIAbXjjuz5HuGArD3
OeRZwkQdhT3xR4LiQkuoyaMQQV46lTbSWNqWsJ0pv2bySb7fAgep7j7MuhwJt5ed
och7I67NG3oeOyckzorlvAis4MrWXAe+KTvAHW6TP4nSNb/g1goYUE5MKMYxJcDR
wUwZpJVBm/8RBrj9C9OMA3D6v+5sUoEXAj7oBipnta5tEYY91ZlnUKluElbAXW79
jrkzYxBcI/KfCZtVvQjDgO3fQrVN4UGf3iKpKLM8HxFbQh0kPnqkljaonGXd6hSa
+NVXPg7IrKk53ui/b9ekX3l1TQWbMjX2ZjUZ8//KP4JlJb92AQ2UkFbnHfv90FJt
4IKLUYqBlMzE3Vw9nldKICTT03ZhSBVk3atXBtGENZilE9K22uctHgb9Eh5nUf1t
J3Cquy6JdUFW0hlj4W/zQ556P8RGoFq07SbTn4yMmuBKqRuDBl2iNJSf6TIGeSpu
RTt/+tdgi8sauJ+LCY0CAwEAAaOCAYIwggF+MCUGCWCGSAGG+EIBDQQYFhZDZXJ0
aWZpY2F0IFNlcnZldXIgU1NMMB0GA1UdDgQWBBROdYZmlfsSqYwojcjbH3dNmuEm
zDCBlQYDVR0jBIGNMIGKgBQfr3TUYdI5IH7C1mfCWWa76iYOn6FupGwwajELMAkG
A1UEBhMCZnIxDDAKBgNVBAgMA2lkZjEOMAwGA1UEBwwFcGFyaXMxDjAMBgNVBAoM
BXZpdGFtMRQwEgYDVQQLDAthdXRob3JpdGllczEXMBUGA1UEAwwOY2Ffcm9vdF9z
ZXJ2ZXKCAgEMMAkGA1UdEgQCMAAwUAYDVR0RBEkwR4IXaWhtLWRlbW8uc2Vydmlj
ZS5jb25zdWyCCWxvY2FsaG9zdIIhaWhtLWRlbW8uc2VydmljZS5mdWxsbG9jYWwu
Y29uc3VsMAwGA1UdEwEB/wQCMAAwCwYDVR0PBAQDAgWgMBEGCWCGSAGG+EIBAQQE
AwIGQDATBgNVHSUEDDAKBggrBgEFBQcDATANBgkqhkiG9w0BAQsFAAOCAgEAtJr9
1EUaUqThL/1ibBOaq8qleRd6NpvT5HBonI957ZDKSjQLxEX0wVcDcmahnNrG66bX
5Szkw4dtdbW6cgvIxQmZodJSHIjaUmmcr3JKALeRr1e+gctsB2cg9YQ4BldprFUY
UXTuCzwOVkkb3P5doVDXHVXLW2ZAjMfxk5eHXUdsx6sckiraDJfZM5OsoWqIIV93
kFyvRPiuvBEF+niUHnZoOOHFuQlzMrfAljWw3e9LwKzky5r7Yn3B0F9ZVjyaL9Ow
mEpwY4vUn8C9l2FMilT8lg3OF4Znl8PM0c/RRHKdeE75KuJShwaT1KP2VOQlJOvD
bnAf0R3bZGJRdSm89Cp7AyfKCXXPZ1yDAIYM+O8KhL3ynNmkOh9nJMzuWESTSYp1
yrxmK5Q3d+ciVVUfTrH3OmQeNDjjUaOXdDvqQaJlRA7zFuKW6t5PZ60Nb5EZIJ1Z
iwNSe/D2Ks5qsBjn2jEwKmN+JrVi2xvF8BwPowtWqRDI3NrjKE3NsNnjnZOZqwGE
KnLbjK9+kp82L112miK2wnUyXOOoo1iL5VZrMJBi239wHtYPot/KdfqILo1qeAjt
voyA/pmsSCKNb2XB0ptJ4i2tnm7tn9oX6LsTXAAX7RGdK6/lgT/iLFYKS5JD23rX
ZdP12PMyeAEHxSfH44Ca50LjesYBeelpGoeTYFw=
-----END CERTIFICATE-----
