Certificate:
    Data:
        Version: 3 (0x2)
        Serial Number: 259 (0x103)
    Signature Algorithm: sha256WithRSAEncryption
        Issuer: C=fr, ST=idf, L=paris, O=vitam, OU=authorities, CN=ca_intermediate_server
        Validity
            Not Before: Feb 22 16:37:00 2018 GMT
            Not After : Feb 21 16:37:00 2021 GMT
        Subject: C=fr, ST=idf, L=paris, O=vitam, CN=ihm-demo.service.consul
        Subject Public Key Info:
            Public Key Algorithm: rsaEncryption
                Public-Key: (4096 bit)
                Modulus:
                    00:c7:16:dd:55:6b:06:92:30:3d:52:f5:12:1f:ef:
                    80:09:26:52:e7:d5:f0:3f:cb:ed:b5:e2:45:37:ea:
                    47:19:e7:de:c7:e0:6b:58:8e:f5:87:e2:75:ff:6c:
                    ee:50:22:c1:e0:88:ad:1b:27:a7:3f:af:0c:7b:85:
                    b5:54:06:d0:62:5e:79:aa:15:25:74:89:35:1b:67:
                    79:64:e4:45:7d:f3:b4:19:49:dc:a6:8b:16:99:a0:
                    01:67:00:12:97:ae:aa:15:4e:2b:f2:ad:26:c0:a2:
                    18:48:23:a6:dc:26:43:76:f2:99:18:fe:04:0b:3f:
                    37:a7:b1:bf:a3:62:05:15:a3:5d:fe:32:2e:6d:65:
                    58:73:65:f6:7b:73:58:68:e2:78:9f:3a:7e:94:81:
                    6f:09:ad:ce:ce:44:36:42:7a:59:a7:3a:9a:14:96:
                    19:c5:91:a0:3b:c7:50:43:f8:cc:9d:10:d1:be:16:
                    d6:e7:74:e0:f6:5d:5d:cb:df:af:52:c1:05:49:ec:
                    08:30:7c:8f:fd:fa:a8:5c:a0:8f:b8:a8:cd:47:f2:
                    f5:f0:2a:c7:be:39:9f:b3:d8:44:28:70:c0:9c:c5:
                    fd:d2:7a:8e:fe:1e:a1:fc:56:60:35:b1:4f:e3:40:
                    8a:f7:ca:58:38:d7:66:6a:d8:ef:4e:d8:f0:47:a3:
                    22:ee:ed:f1:fa:15:04:57:17:fc:f4:cf:b1:38:74:
                    c2:d3:8a:29:47:c5:15:aa:9b:32:b5:4f:97:8e:8c:
                    39:c5:db:c8:b0:a7:f9:cb:cc:1b:11:0c:a0:17:7e:
                    b6:e6:37:8b:fb:0b:d9:08:a8:b7:1c:c8:d7:7e:35:
                    41:4e:b6:19:fe:fe:f4:68:7f:fd:17:c3:89:0d:bf:
                    82:5a:c8:4b:ca:5a:be:d4:c0:d9:ad:be:16:35:10:
                    af:b9:be:2d:fd:64:eb:31:35:1a:ee:70:a0:87:94:
                    29:07:07:57:67:c0:fe:65:63:33:29:af:a2:e5:30:
                    bc:ff:33:e2:b4:70:d4:b6:67:96:1c:41:3b:1d:8e:
                    a9:f0:8e:c9:51:af:00:28:0e:3c:dd:6a:7d:5a:7d:
                    61:6e:db:cf:75:73:04:77:28:1e:04:80:ac:58:46:
                    d1:9b:9f:62:9f:d0:19:b7:d8:99:6d:49:2d:24:d6:
                    d0:00:10:18:29:a0:c5:a7:fe:79:1f:23:e9:ee:e2:
                    5d:55:64:c0:44:a4:d3:fd:33:a4:99:01:32:40:c0:
                    1e:70:67:76:c3:8b:c7:8a:9c:a3:6a:e3:15:16:0e:
                    39:11:46:c3:6d:ab:fb:db:5c:6c:82:2d:ee:c6:d7:
                    3e:bb:1a:a6:9e:d8:91:cb:8f:60:27:0b:55:20:19:
                    ed:31:99
                Exponent: 65537 (0x10001)
        X509v3 extensions:
            Netscape Comment: 
                Certificat Serveur SSL
            X509v3 Subject Key Identifier: 
                CF:C1:B2:B3:A5:E3:3B:34:75:3F:FC:DC:BA:47:E5:FA:FD:0D:89:7F
            X509v3 Authority Key Identifier: 
                keyid:6D:B1:F2:D5:CE:0E:93:60:CE:FD:D3:91:D2:23:ED:95:21:BB:D5:0C
                DirName:/C=fr/ST=idf/L=paris/O=vitam/OU=authorities/CN=ca_root_server
                serial:DB

            X509v3 Issuer Alternative Name: 
                <EMPTY>

            X509v3 Subject Alternative Name: 
                DNS:ihm-demo.service.consul, DNS:localhost
            X509v3 Basic Constraints: critical
                CA:FALSE
            X509v3 Key Usage: 
                Digital Signature, Non Repudiation, Key Encipherment
            Netscape Cert Type: 
                SSL Server
            X509v3 Extended Key Usage: 
                TLS Web Server Authentication
    Signature Algorithm: sha256WithRSAEncryption
         a8:48:34:8b:cd:49:7b:b4:86:11:31:16:44:68:98:af:f5:ca:
         df:31:38:6f:fc:89:08:cf:de:6b:a4:49:6b:d8:f4:ab:32:41:
         77:d0:af:9f:18:8b:91:49:af:a9:32:c9:b7:87:e8:1a:a2:9b:
         ca:e5:00:f7:d9:cc:2a:83:3d:eb:de:84:1f:ff:cc:bc:8c:94:
         87:26:35:56:dc:c4:00:10:70:1f:b0:b0:2c:7e:c5:8b:99:a7:
         9e:ad:6b:c4:e2:81:09:77:f6:7a:75:8a:13:c0:51:bf:6e:f0:
         2b:8f:64:69:0f:00:74:c9:1f:17:c2:c1:7a:3c:a0:c0:a3:a6:
         5c:80:ec:7c:42:29:fe:7e:14:d1:93:67:72:4f:be:ac:e0:10:
         82:b4:a7:d4:d7:73:e5:5a:b0:77:66:a4:97:33:ec:8f:eb:f0:
         0f:f0:4b:40:82:77:aa:df:b5:75:2a:af:4c:88:4a:5d:43:d4:
         fe:de:bf:91:59:e5:7d:0c:15:be:99:70:89:63:4f:e4:33:5f:
         9a:6c:cf:a7:1f:53:6a:48:57:05:f1:32:7b:d3:4a:bb:0c:3f:
         55:e7:24:ee:09:bb:13:81:40:aa:a3:a8:95:b8:82:5b:d4:48:
         36:2c:2a:d0:35:6b:ce:a8:eb:2c:dc:82:d1:87:30:40:5b:2a:
         26:26:01:80:16:43:04:72:b8:52:00:0a:82:0a:1c:dd:8a:1b:
         a4:d9:0b:d5:fc:0d:f6:f8:c9:d6:54:45:6a:3d:44:86:67:e2:
         98:f0:26:db:56:ac:5c:a7:87:fc:15:5b:1a:31:20:f7:ef:58:
         78:43:a1:a0:e8:41:ac:07:32:27:e2:a4:d8:6c:5e:44:1d:f9:
         05:52:3a:a8:6b:99:0c:6d:de:4f:92:05:32:a7:32:72:90:8c:
         6c:88:92:d9:f6:8f:16:6f:3f:11:d3:61:97:7e:63:ad:59:8a:
         10:85:30:0f:42:99:9b:f3:d4:82:47:71:73:73:cd:a2:2e:8f:
         4f:eb:d0:98:d7:5d:13:f5:06:df:20:05:6e:a6:5d:31:3e:4e:
         d3:e9:b5:94:37:71:89:0f:d8:97:6f:75:29:36:a1:af:86:86:
         0f:d3:54:c5:1a:55:91:39:23:fa:dd:ee:b4:b7:e3:9b:43:00:
         fb:fe:6e:61:ab:18:83:c2:37:93:0f:e8:5a:7b:75:7c:1f:bb:
         5f:1d:bc:f7:ca:c8:41:82:c9:97:6d:ba:cd:6f:41:4a:57:e2:
         39:f2:e6:3d:e3:b8:b2:86:8d:98:20:63:85:68:f5:13:f5:91:
         95:87:db:e1:04:c6:c3:12:30:22:7e:8a:97:50:91:a6:a3:17:
         0f:29:4a:a6:33:b3:54:4b
-----BEGIN CERTIFICATE-----
MIIGrDCCBJSgAwIBAgICAQMwDQYJKoZIhvcNAQELBQAwcjELMAkGA1UEBhMCZnIx
DDAKBgNVBAgMA2lkZjEOMAwGA1UEBwwFcGFyaXMxDjAMBgNVBAoMBXZpdGFtMRQw
EgYDVQQLDAthdXRob3JpdGllczEfMB0GA1UEAwwWY2FfaW50ZXJtZWRpYXRlX3Nl
cnZlcjAeFw0xODAyMjIxNjM3MDBaFw0yMTAyMjExNjM3MDBaMF0xCzAJBgNVBAYT
AmZyMQwwCgYDVQQIDANpZGYxDjAMBgNVBAcMBXBhcmlzMQ4wDAYDVQQKDAV2aXRh
bTEgMB4GA1UEAwwXaWhtLWRlbW8uc2VydmljZS5jb25zdWwwggIiMA0GCSqGSIb3
DQEBAQUAA4ICDwAwggIKAoICAQDHFt1VawaSMD1S9RIf74AJJlLn1fA/y+214kU3
6kcZ597H4GtYjvWH4nX/bO5QIsHgiK0bJ6c/rwx7hbVUBtBiXnmqFSV0iTUbZ3lk
5EV987QZSdymixaZoAFnABKXrqoVTivyrSbAohhII6bcJkN28pkY/gQLPzensb+j
YgUVo13+Mi5tZVhzZfZ7c1ho4nifOn6UgW8Jrc7ORDZCelmnOpoUlhnFkaA7x1BD
+MydENG+FtbndOD2XV3L369SwQVJ7AgwfI/9+qhcoI+4qM1H8vXwKse+OZ+z2EQo
cMCcxf3Seo7+HqH8VmA1sU/jQIr3ylg412Zq2O9O2PBHoyLu7fH6FQRXF/z0z7E4
dMLTiilHxRWqmzK1T5eOjDnF28iwp/nLzBsRDKAXfrbmN4v7C9kIqLccyNd+NUFO
thn+/vRof/0Xw4kNv4JayEvKWr7UwNmtvhY1EK+5vi39ZOsxNRrucKCHlCkHB1dn
wP5lYzMpr6LlMLz/M+K0cNS2Z5YcQTsdjqnwjslRrwAoDjzdan1afWFu2891cwR3
KB4EgKxYRtGbn2Kf0Bm32JltSS0k1tAAEBgpoMWn/nkfI+nu4l1VZMBEpNP9M6SZ
ATJAwB5wZ3bDi8eKnKNq4xUWDjkRRsNtq/vbXGyCLe7G1z67Gqae2JHLj2AnC1Ug
Ge0xmQIDAQABo4IBXzCCAVswJQYJYIZIAYb4QgENBBgWFkNlcnRpZmljYXQgU2Vy
dmV1ciBTU0wwHQYDVR0OBBYEFM/BsrOl4zs0dT/83LpH5fr9DYl/MIGVBgNVHSME
gY0wgYqAFG2x8tXODpNgzv3TkdIj7ZUhu9UMoW6kbDBqMQswCQYDVQQGEwJmcjEM
MAoGA1UECAwDaWRmMQ4wDAYDVQQHDAVwYXJpczEOMAwGA1UECgwFdml0YW0xFDAS
BgNVBAsMC2F1dGhvcml0aWVzMRcwFQYDVQQDDA5jYV9yb290X3NlcnZlcoICANsw
CQYDVR0SBAIwADAtBgNVHREEJjAkghdpaG0tZGVtby5zZXJ2aWNlLmNvbnN1bIIJ
bG9jYWxob3N0MAwGA1UdEwEB/wQCMAAwCwYDVR0PBAQDAgXgMBEGCWCGSAGG+EIB
AQQEAwIGQDATBgNVHSUEDDAKBggrBgEFBQcDATANBgkqhkiG9w0BAQsFAAOCAgEA
qEg0i81Je7SGETEWRGiYr/XK3zE4b/yJCM/ea6RJa9j0qzJBd9CvnxiLkUmvqTLJ
t4foGqKbyuUA99nMKoM9696EH//MvIyUhyY1VtzEABBwH7CwLH7Fi5mnnq1rxOKB
CXf2enWKE8BRv27wK49kaQ8AdMkfF8LBejygwKOmXIDsfEIp/n4U0ZNnck++rOAQ
grSn1Ndz5Vqwd2aklzPsj+vwD/BLQIJ3qt+1dSqvTIhKXUPU/t6/kVnlfQwVvplw
iWNP5DNfmmzPpx9TakhXBfEye9NKuww/Veck7gm7E4FAqqOolbiCW9RINiwq0DVr
zqjrLNyC0YcwQFsqJiYBgBZDBHK4UgAKggoc3YobpNkL1fwN9vjJ1lRFaj1Ehmfi
mPAm21asXKeH/BVbGjEg9+9YeEOhoOhBrAcyJ+Kk2GxeRB35BVI6qGuZDG3eT5IF
MqcycpCMbIiS2faPFm8/EdNhl35jrVmKEIUwD0KZm/PUgkdxc3PNoi6PT+vQmNdd
E/UG3yAFbqZdMT5O0+m1lDdxiQ/Yl291KTahr4aGD9NUxRpVkTkj+t3utLfjm0MA
+/5uYasYg8I3kw/oWnt1fB+7Xx2898rIQYLJl226zW9BSlfiOfLmPeO4soaNmCBj
hWj1E/WRlYfb4QTGwxIwIn6Kl1CRpqMXDylKpjOzVEs=
-----END CERTIFICATE-----
