Certificate:
    Data:
        Version: 3 (0x2)
        Serial Number: 273 (0x111)
        Signature Algorithm: sha256WithRSAEncryption
        Issuer: C=fr, ST=idf, L=paris, O=vitam, OU=authorities, CN=ca_intermediate_server
        Validity
            Not Before: Sep 15 13:01:06 2020 GMT
            Not After : Dec 31 23:59:59 9999 GMT
        Subject: C=fr, ST=idf, L=paris, O=vitam, CN=ihm-demo.service.local.consul
        Subject Public Key Info:
            Public Key Algorithm: rsaEncryption
                RSA Public-Key: (4096 bit)
                Modulus:
                    00:a7:14:dc:3a:ac:3b:9f:ad:f8:de:4b:3a:65:f5:
                    04:8a:b7:c9:8a:9e:e8:1a:71:db:60:be:62:79:aa:
                    3a:7e:d2:d1:d6:02:88:4a:ab:66:82:98:ac:f5:dd:
                    0b:6f:69:c8:37:f0:0b:a4:89:ac:27:f1:3a:dd:56:
                    94:82:8a:00:d0:52:fc:64:b4:33:06:54:ba:fb:54:
                    26:68:fd:52:87:e8:6c:ef:e7:08:66:7e:f3:2f:bd:
                    75:94:c1:00:01:f7:2f:d0:d2:d6:d1:96:61:28:34:
                    50:6d:d7:e3:c6:51:72:13:0a:cc:d0:93:df:66:8d:
                    fb:8e:af:ca:79:22:fb:87:66:e3:da:6e:7e:d8:9b:
                    e7:90:0d:66:9c:57:89:40:df:6a:51:99:e5:c8:0f:
                    3f:ff:e3:c4:ac:62:9b:c0:c1:c8:ba:ea:b7:35:f4:
                    8f:8f:14:32:20:c0:33:ec:98:45:a2:ac:10:9f:06:
                    8a:b9:52:06:c4:12:9e:0c:c8:ad:a6:6f:a0:0e:ab:
                    e6:92:d6:71:4b:8d:50:67:27:11:48:ae:17:f2:c9:
                    67:f3:c8:d7:66:7d:41:61:6f:d2:36:9a:e6:79:ed:
                    c0:1e:0e:dd:23:76:28:4c:2a:19:6e:c6:f5:2c:c1:
                    60:04:59:db:a5:34:0f:19:50:96:a6:65:f1:b1:1e:
                    22:19:4e:06:4e:a0:28:15:fb:5d:9f:25:8d:d6:a0:
                    21:8a:2c:9b:54:ed:ee:67:e7:70:aa:7a:26:a9:fd:
                    52:40:9a:5a:79:84:44:e3:8e:35:5c:db:2b:b1:90:
                    f4:48:ee:e9:4d:8f:de:31:cc:66:36:b7:ee:16:dc:
                    0c:86:94:11:a0:81:47:8b:f6:4a:90:a0:3b:0f:3d:
                    59:a9:f8:db:5d:c9:28:5d:2a:27:fc:78:56:9b:10:
                    ea:60:b0:67:7d:43:5c:0b:ee:8f:32:a9:a9:b0:aa:
                    97:5c:69:6b:34:44:00:d6:0a:ed:8b:06:de:a6:da:
                    3a:2b:bd:08:a0:bf:22:f0:7d:3f:9a:9c:fe:f3:b5:
                    77:00:b2:7c:8a:17:b6:cc:b8:5e:b9:35:73:4a:10:
                    8a:da:af:2a:76:91:66:ec:d9:b0:8f:74:8d:ed:17:
                    4c:6b:20:15:64:bc:d5:b0:26:15:98:5f:a4:b8:de:
                    bd:33:56:43:9d:86:ec:87:01:34:ba:d0:70:73:3c:
                    97:b5:71:bc:ca:49:04:e1:a5:8b:1d:f1:63:a6:d9:
                    97:7d:65:42:d6:59:44:aa:e3:69:86:85:3e:e6:28:
                    c3:a8:06:58:e5:ad:1d:ae:7e:05:03:c7:7a:2c:11:
                    65:c0:03:21:0e:98:66:9d:8c:73:26:e6:25:d7:79:
                    cc:72:33
                Exponent: 65537 (0x10001)
        X509v3 extensions:
            Netscape Comment: 
                Certificat Serveur SSL
            X509v3 Subject Key Identifier: 
                D0:BF:3D:54:05:CA:23:F7:83:57:00:59:C9:08:E8:03:FD:26:C8:91
            X509v3 Authority Key Identifier: 
                keyid:1F:AF:74:D4:61:D2:39:20:7E:C2:D6:67:C2:59:66:BB:EA:26:0E:9F
                DirName:/C=fr/ST=idf/L=paris/O=vitam/OU=authorities/CN=ca_root_server
                serial:01:0C

            X509v3 Issuer Alternative Name: 
                <EMPTY>

            X509v3 Subject Alternative Name: 
                DNS:ihm-demo.service.consul, DNS:localhost, DNS:ihm-demo.service.local.consul
            X509v3 Basic Constraints: critical
                CA:FALSE
            X509v3 Key Usage: 
                Digital Signature, Key Encipherment
            Netscape Cert Type: 
                SSL Server
            X509v3 Extended Key Usage: 
                TLS Web Server Authentication
    Signature Algorithm: sha256WithRSAEncryption
         17:e3:dd:75:de:a9:eb:56:ef:bc:74:a9:ed:02:31:d1:15:ff:
         ed:f7:d8:53:1a:24:4d:e5:aa:a6:43:b6:42:4a:44:33:e5:56:
         45:71:8e:80:df:99:d7:ec:ae:8f:f2:b8:8a:00:7b:db:00:d7:
         7d:9a:38:55:18:b8:69:ea:fa:e9:72:a7:ab:c6:63:59:7f:5a:
         86:55:bf:5d:96:c2:c3:0f:ff:0b:e8:60:aa:9e:6f:56:f0:a9:
         8b:08:54:0f:2c:91:04:b7:03:fb:fc:1e:4c:0d:ec:c3:f6:61:
         dc:82:e0:b7:b9:f9:06:50:ba:9a:3d:9e:c0:6f:3d:22:6b:e6:
         1b:1e:1f:bb:27:83:52:53:81:f2:df:05:4b:fd:ad:e5:d8:90:
         a8:62:de:78:dd:d4:17:fc:83:ec:17:ba:ed:f6:b3:e8:9d:83:
         2b:c9:7a:8f:91:d6:71:a1:d7:73:83:aa:d4:4e:7b:0b:80:55:
         37:21:d5:0c:2d:72:c7:08:a6:81:97:c3:b4:bd:4e:ad:1f:96:
         44:7b:4e:c0:27:ed:34:68:64:e2:81:ab:db:54:bf:c3:6f:4b:
         c4:0a:7b:c6:23:7d:61:f6:b8:f5:e0:77:a7:95:6c:89:71:a9:
         c3:cb:be:73:82:50:27:8e:a2:39:b5:0c:a2:35:59:be:66:0e:
         3a:ea:00:40:72:1b:ed:ec:de:19:62:64:30:e4:24:ca:20:13:
         52:cf:86:ac:2c:0b:ff:b2:45:d1:67:38:2f:af:8b:f9:02:d8:
         f8:87:ce:35:30:e2:94:a9:0d:29:51:4c:b0:c5:7c:2b:cb:71:
         ad:86:91:95:99:c8:4c:5d:71:e2:60:a7:1e:26:f5:c2:84:4c:
         45:5d:bc:6c:d9:4d:9f:d3:45:f6:70:80:14:5d:d8:0e:a2:11:
         8b:58:b7:39:c2:b1:74:1e:06:a6:1f:82:c2:4d:40:71:f8:89:
         80:0d:56:d7:c9:c0:35:2c:65:f6:3b:ba:c6:7e:31:7e:e1:8d:
         10:9e:78:11:b5:8e:e7:94:1e:6b:f5:3a:8f:ba:4a:ea:66:8f:
         b1:18:d4:e0:3f:97:0d:f7:c1:05:b0:3e:02:b5:a4:8f:f5:df:
         9b:8e:84:a2:9e:e1:ed:cb:5f:8b:a8:06:29:d6:dc:21:a6:2b:
         22:b3:ce:56:a4:c6:24:30:f2:a5:e9:98:fc:f0:46:df:44:96:
         66:e8:8b:7a:1e:cc:af:d3:b9:5e:13:e9:dd:c9:00:7f:d3:0b:
         c4:c8:d0:63:61:bf:29:54:17:a7:66:07:ad:e0:f7:f1:95:0f:
         16:7c:9d:1d:9a:0a:6b:5e:52:a1:51:2f:b4:90:9b:13:2b:56:
         00:c4:3f:08:47:90:f4:13
-----BEGIN CERTIFICATE-----
MIIG0zCCBLugAwIBAgICAREwDQYJKoZIhvcNAQELBQAwcjELMAkGA1UEBhMCZnIx
DDAKBgNVBAgMA2lkZjEOMAwGA1UEBwwFcGFyaXMxDjAMBgNVBAoMBXZpdGFtMRQw
EgYDVQQLDAthdXRob3JpdGllczEfMB0GA1UEAwwWY2FfaW50ZXJtZWRpYXRlX3Nl
cnZlcjAgFw0yMDA5MTUxMzAxMDZaGA85OTk5MTIzMTIzNTk1OVowYzELMAkGA1UE
BhMCZnIxDDAKBgNVBAgMA2lkZjEOMAwGA1UEBwwFcGFyaXMxDjAMBgNVBAoMBXZp
dGFtMSYwJAYDVQQDDB1paG0tZGVtby5zZXJ2aWNlLmxvY2FsLmNvbnN1bDCCAiIw
DQYJKoZIhvcNAQEBBQADggIPADCCAgoCggIBAKcU3DqsO5+t+N5LOmX1BIq3yYqe
6Bpx22C+YnmqOn7S0dYCiEqrZoKYrPXdC29pyDfwC6SJrCfxOt1WlIKKANBS/GS0
MwZUuvtUJmj9UofobO/nCGZ+8y+9dZTBAAH3L9DS1tGWYSg0UG3X48ZRchMKzNCT
32aN+46vynki+4dm49puftib55ANZpxXiUDfalGZ5cgPP//jxKxim8DByLrqtzX0
j48UMiDAM+yYRaKsEJ8GirlSBsQSngzIraZvoA6r5pLWcUuNUGcnEUiuF/LJZ/PI
12Z9QWFv0jaa5nntwB4O3SN2KEwqGW7G9SzBYARZ26U0DxlQlqZl8bEeIhlOBk6g
KBX7XZ8ljdagIYosm1Tt7mfncKp6Jqn9UkCaWnmEROOONVzbK7GQ9Eju6U2P3jHM
Zja37hbcDIaUEaCBR4v2SpCgOw89Wan4213JKF0qJ/x4VpsQ6mCwZ31DXAvujzKp
qbCql1xpazREANYK7YsG3qbaOiu9CKC/IvB9P5qc/vO1dwCyfIoXtsy4Xrk1c0oQ
itqvKnaRZuzZsI90je0XTGsgFWS81bAmFZhfpLjevTNWQ52G7IcBNLrQcHM8l7Vx
vMpJBOGlix3xY6bZl31lQtZZRKrjaYaFPuYow6gGWOWtHa5+BQPHeiwRZcADIQ6Y
Zp2McybmJdd5zHIzAgMBAAGjggF+MIIBejAlBglghkgBhvhCAQ0EGBYWQ2VydGlm
aWNhdCBTZXJ2ZXVyIFNTTDAdBgNVHQ4EFgQU0L89VAXKI/eDVwBZyQjoA/0myJEw
gZUGA1UdIwSBjTCBioAUH6901GHSOSB+wtZnwllmu+omDp+hbqRsMGoxCzAJBgNV
BAYTAmZyMQwwCgYDVQQIDANpZGYxDjAMBgNVBAcMBXBhcmlzMQ4wDAYDVQQKDAV2
aXRhbTEUMBIGA1UECwwLYXV0aG9yaXRpZXMxFzAVBgNVBAMMDmNhX3Jvb3Rfc2Vy
dmVyggIBDDAJBgNVHRIEAjAAMEwGA1UdEQRFMEOCF2lobS1kZW1vLnNlcnZpY2Uu
Y29uc3Vsgglsb2NhbGhvc3SCHWlobS1kZW1vLnNlcnZpY2UubG9jYWwuY29uc3Vs
MAwGA1UdEwEB/wQCMAAwCwYDVR0PBAQDAgWgMBEGCWCGSAGG+EIBAQQEAwIGQDAT
BgNVHSUEDDAKBggrBgEFBQcDATANBgkqhkiG9w0BAQsFAAOCAgEAF+Pddd6p61bv
vHSp7QIx0RX/7ffYUxokTeWqpkO2QkpEM+VWRXGOgN+Z1+yuj/K4igB72wDXfZo4
VRi4aer66XKnq8ZjWX9ahlW/XZbCww//C+hgqp5vVvCpiwhUDyyRBLcD+/weTA3s
w/Zh3ILgt7n5BlC6mj2ewG89ImvmGx4fuyeDUlOB8t8FS/2t5diQqGLeeN3UF/yD
7Be67faz6J2DK8l6j5HWcaHXc4Oq1E57C4BVNyHVDC1yxwimgZfDtL1OrR+WRHtO
wCftNGhk4oGr21S/w29LxAp7xiN9Yfa49eB3p5VsiXGpw8u+c4JQJ46iObUMojVZ
vmYOOuoAQHIb7ezeGWJkMOQkyiATUs+GrCwL/7JF0Wc4L6+L+QLY+IfONTDilKkN
KVFMsMV8K8txrYaRlZnITF1x4mCnHib1woRMRV28bNlNn9NF9nCAFF3YDqIRi1i3
OcKxdB4Gph+Cwk1AcfiJgA1W18nANSxl9ju6xn4xfuGNEJ54EbWO55Qea/U6j7pK
6maPsRjU4D+XDffBBbA+ArWkj/Xfm46Eop7h7ctfi6gGKdbcIaYrIrPOVqTGJDDy
pemY/PBG30SWZuiLeh7Mr9O5XhPp3ckAf9MLxMjQY2G/KVQXp2YHreD38ZUPFnyd
HZoKa15SoVEvtJCbEytWAMQ/CEeQ9BM=
-----END CERTIFICATE-----
