Certificate:
    Data:
        Version: 3 (0x2)
        Serial Number: 215 (0xd7)
    Signature Algorithm: sha256WithRSAEncryption
        Issuer: C=fr, ST=idf, L=paris, O=vitam, OU=authorities, CN=ca_intermediate_server
        Validity
            Not Before: Aug  9 16:04:49 2017 GMT
            Not After : Aug  8 16:04:49 2020 GMT
        Subject: C=fr, ST=idf, L=paris, O=vitam, CN=ihm-recette.service.consul
        Subject Public Key Info:
            Public Key Algorithm: rsaEncryption
                Public-Key: (4096 bit)
                Modulus:
                    00:bd:a2:8c:14:f3:e0:03:a5:4b:75:94:d4:16:00:
                    4b:83:e8:6a:fb:eb:81:60:7e:91:3b:6d:18:63:9e:
                    4d:ce:a0:7a:0b:53:c9:a4:b5:d0:fd:b3:6c:3a:9e:
                    fd:03:07:81:d3:d5:60:67:cc:4a:09:08:eb:7d:03:
                    ad:7d:49:df:22:ea:35:b7:da:63:c6:c1:06:8e:43:
                    e2:22:75:5e:d7:22:45:44:27:db:db:96:1e:de:69:
                    6d:53:54:40:19:6f:8e:74:0f:17:19:67:de:d6:ec:
                    4a:3c:15:49:2f:7a:38:3c:98:c0:14:88:9f:40:39:
                    a5:78:16:32:55:f8:80:bb:ef:dc:1f:89:a5:ab:c5:
                    05:34:05:ea:45:e2:df:ff:4a:8a:76:4a:7c:89:09:
                    10:1a:c8:6e:41:f3:37:c8:6e:cd:61:3c:88:e0:fd:
                    96:56:04:f9:11:d5:d3:23:f6:2d:4b:9d:23:a9:8b:
                    7e:89:15:64:e0:fb:f2:72:b6:8a:95:b7:78:d3:fc:
                    bc:c2:26:b1:c0:11:51:4d:cf:b7:26:c3:99:9e:07:
                    5b:a2:6d:bf:48:22:8a:a7:77:98:7c:95:33:2b:d4:
                    f8:c6:29:ba:8e:e6:ce:38:f8:1c:5d:a6:d7:05:c1:
                    40:a3:b6:06:22:33:fe:33:52:26:c5:c3:45:25:35:
                    b0:28:ff:b9:34:cc:e4:82:ce:64:ce:bf:e7:e8:08:
                    07:fc:dc:67:2f:67:e3:da:5c:0a:ef:5c:9a:a3:93:
                    87:39:90:d9:5f:41:37:9c:fb:32:c9:07:29:27:c3:
                    88:46:ba:6e:f2:7a:1a:46:b3:ff:45:04:db:54:df:
                    ac:80:30:c6:5e:01:45:ba:dc:5b:05:d7:a3:7c:25:
                    0a:7f:f0:c1:01:0f:97:13:92:ee:f9:9b:6f:23:49:
                    2e:5e:19:41:be:51:88:79:7a:9f:b8:3a:db:0e:7c:
                    c2:df:08:d9:a5:b1:09:a0:b8:2b:70:aa:27:b8:94:
                    1a:fd:4e:22:4b:2c:d1:a9:37:e7:3b:c0:44:f9:67:
                    9c:e2:b8:53:4b:cd:30:9b:02:f6:c0:de:60:94:b0:
                    00:4d:16:df:71:4f:4a:4e:4d:3e:b7:55:93:22:65:
                    37:19:45:67:45:37:96:ce:66:18:86:d3:9f:ef:1d:
                    60:37:8b:48:41:fc:45:ec:a7:45:75:cb:05:f7:9a:
                    86:d1:35:c5:50:9f:51:77:29:b8:d6:fb:ab:00:ea:
                    72:ab:03:0b:ee:94:9a:8c:f4:11:f6:ae:55:a7:bb:
                    e7:cc:73:4e:80:58:34:87:31:73:85:bc:f3:33:02:
                    fb:7c:99:4b:c6:57:57:29:1f:81:15:e7:5b:d5:a4:
                    2c:40:19
                Exponent: 65537 (0x10001)
        X509v3 extensions:
            Netscape Comment: 
                Certificat Serveur SSL
            X509v3 Subject Key Identifier: 
                00:0C:80:9A:4E:08:3E:99:25:5E:CD:05:CA:FB:71:DF:37:D6:D2:D0
            X509v3 Authority Key Identifier: 
                keyid:FD:29:CE:50:34:CD:B5:E2:30:E7:12:67:BA:2C:7D:5B:E0:D5:F2:2C
                DirName:/C=fr/ST=idf/L=paris/O=vitam/OU=authorities/CN=ca_root_server
                serial:D3

            X509v3 Issuer Alternative Name: 
                <EMPTY>

            X509v3 Subject Alternative Name: 
                DNS:ihm-recette.service.consul, DNS:localhost
            X509v3 Basic Constraints: critical
                CA:FALSE
            X509v3 Key Usage: 
                Digital Signature, Non Repudiation, Key Encipherment
            Netscape Cert Type: 
                SSL Server
            X509v3 Extended Key Usage: 
                TLS Web Server Authentication
    Signature Algorithm: sha256WithRSAEncryption
         0a:7e:33:ad:99:53:0a:0d:d4:15:72:46:96:71:84:ac:f0:7a:
         1e:03:3d:bb:83:2a:24:86:81:78:2c:65:43:d1:95:d1:00:7c:
         6a:a4:28:db:1a:9c:7b:ad:77:56:cd:2b:ce:34:6f:9b:1d:2a:
         60:bc:c1:71:7d:0a:43:8e:6f:20:96:e2:41:46:a0:cf:d5:fb:
         9e:5e:5a:4a:55:e0:b3:a0:66:08:5f:4a:74:7f:af:3d:f9:52:
         8a:96:b3:06:55:57:c7:e5:bc:db:bb:a7:b3:ed:1d:b1:c7:8b:
         38:ff:9d:8b:1e:20:77:65:20:7c:c1:04:56:30:d0:66:14:67:
         88:5d:6b:76:02:92:3d:0c:49:ad:17:de:ef:fb:ef:f8:e4:e1:
         e1:55:22:6e:7c:02:de:e3:00:08:e3:1f:c5:65:de:16:4a:b7:
         e0:dc:39:2d:c9:db:81:54:e7:8c:c8:cf:12:26:b3:88:15:a3:
         a3:85:41:fb:76:94:f7:17:77:3e:8b:24:87:2b:23:f0:60:96:
         80:8f:50:17:6f:f9:f9:41:1d:74:c2:7e:03:54:4f:b0:53:1f:
         dc:8d:02:49:5a:c1:f9:74:5f:31:65:cd:b7:de:43:7e:76:76:
         96:ad:86:27:72:a0:65:18:3d:a0:85:95:d3:cf:53:eb:13:4a:
         5e:34:64:ed:53:0a:c2:bf:4f:6e:1e:00:6d:eb:92:bd:7e:30:
         66:fd:af:25:04:9a:36:58:79:cc:84:5d:b3:bc:f6:ea:f6:6c:
         1f:d5:24:a3:8e:13:ee:ee:39:a7:e5:20:0c:07:77:c8:d1:eb:
         5c:f2:5f:44:29:de:b2:9e:70:75:ef:2c:51:00:c2:0f:81:ab:
         48:3e:4d:e3:1f:69:fd:98:9c:32:a5:99:03:69:37:74:d3:a9:
         1d:eb:df:d8:09:b0:d3:02:7d:c6:74:ca:86:c2:98:50:92:2f:
         61:c2:8f:af:85:e8:84:e4:d0:2e:5a:c0:de:3a:eb:79:8e:0a:
         52:52:ca:9b:02:22:f5:cf:dc:0d:12:35:b8:04:30:6c:a0:74:
         55:dd:3b:bd:7f:2d:cb:aa:17:f0:61:51:62:9e:59:21:9c:0b:
         df:78:01:4e:9b:83:f1:e2:a1:b9:11:be:48:a4:71:0f:05:56:
         e7:c7:13:09:dd:38:16:20:ff:39:90:bc:3e:98:be:54:44:ff:
         32:05:1f:d9:91:ff:69:0f:71:95:3c:c4:0b:82:be:e5:f7:0e:
         6d:94:e1:6c:f8:d3:c7:26:76:36:ba:7e:18:a1:52:0b:ec:5f:
         53:5e:30:93:dd:a1:4c:2a:78:ef:a6:27:fe:b7:90:83:aa:36:
         c2:33:42:45:23:91:f2:f4
-----BEGIN CERTIFICATE-----
MIIGsjCCBJqgAwIBAgICANcwDQYJKoZIhvcNAQELBQAwcjELMAkGA1UEBhMCZnIx
DDAKBgNVBAgMA2lkZjEOMAwGA1UEBwwFcGFyaXMxDjAMBgNVBAoMBXZpdGFtMRQw
EgYDVQQLDAthdXRob3JpdGllczEfMB0GA1UEAwwWY2FfaW50ZXJtZWRpYXRlX3Nl
cnZlcjAeFw0xNzA4MDkxNjA0NDlaFw0yMDA4MDgxNjA0NDlaMGAxCzAJBgNVBAYT
AmZyMQwwCgYDVQQIDANpZGYxDjAMBgNVBAcMBXBhcmlzMQ4wDAYDVQQKDAV2aXRh
bTEjMCEGA1UEAwwaaWhtLXJlY2V0dGUuc2VydmljZS5jb25zdWwwggIiMA0GCSqG
SIb3DQEBAQUAA4ICDwAwggIKAoICAQC9oowU8+ADpUt1lNQWAEuD6Gr764FgfpE7
bRhjnk3OoHoLU8mktdD9s2w6nv0DB4HT1WBnzEoJCOt9A619Sd8i6jW32mPGwQaO
Q+IidV7XIkVEJ9vblh7eaW1TVEAZb450DxcZZ97W7Eo8FUkvejg8mMAUiJ9AOaV4
FjJV+IC779wfiaWrxQU0BepF4t//Sop2SnyJCRAayG5B8zfIbs1hPIjg/ZZWBPkR
1dMj9i1LnSOpi36JFWTg+/JytoqVt3jT/LzCJrHAEVFNz7cmw5meB1uibb9IIoqn
d5h8lTMr1PjGKbqO5s44+BxdptcFwUCjtgYiM/4zUibFw0UlNbAo/7k0zOSCzmTO
v+foCAf83GcvZ+PaXArvXJqjk4c5kNlfQTec+zLJByknw4hGum7yehpGs/9FBNtU
36yAMMZeAUW63FsF16N8JQp/8MEBD5cTku75m28jSS5eGUG+UYh5ep+4OtsOfMLf
CNmlsQmguCtwqie4lBr9TiJLLNGpN+c7wET5Z5ziuFNLzTCbAvbA3mCUsABNFt9x
T0pOTT63VZMiZTcZRWdFN5bOZhiG05/vHWA3i0hB/EXsp0V1ywX3mobRNcVQn1F3
KbjW+6sA6nKrAwvulJqM9BH2rlWnu+fMc06AWDSHMXOFvPMzAvt8mUvGV1cpH4EV
51vVpCxAGQIDAQABo4IBYjCCAV4wJQYJYIZIAYb4QgENBBgWFkNlcnRpZmljYXQg
U2VydmV1ciBTU0wwHQYDVR0OBBYEFAAMgJpOCD6ZJV7NBcr7cd831tLQMIGVBgNV
HSMEgY0wgYqAFP0pzlA0zbXiMOcSZ7osfVvg1fIsoW6kbDBqMQswCQYDVQQGEwJm
cjEMMAoGA1UECAwDaWRmMQ4wDAYDVQQHDAVwYXJpczEOMAwGA1UECgwFdml0YW0x
FDASBgNVBAsMC2F1dGhvcml0aWVzMRcwFQYDVQQDDA5jYV9yb290X3NlcnZlcoIC
ANMwCQYDVR0SBAIwADAwBgNVHREEKTAnghppaG0tcmVjZXR0ZS5zZXJ2aWNlLmNv
bnN1bIIJbG9jYWxob3N0MAwGA1UdEwEB/wQCMAAwCwYDVR0PBAQDAgXgMBEGCWCG
SAGG+EIBAQQEAwIGQDATBgNVHSUEDDAKBggrBgEFBQcDATANBgkqhkiG9w0BAQsF
AAOCAgEACn4zrZlTCg3UFXJGlnGErPB6HgM9u4MqJIaBeCxlQ9GV0QB8aqQo2xqc
e613Vs0rzjRvmx0qYLzBcX0KQ45vIJbiQUagz9X7nl5aSlXgs6BmCF9KdH+vPflS
ipazBlVXx+W827uns+0dsceLOP+dix4gd2UgfMEEVjDQZhRniF1rdgKSPQxJrRfe
7/vv+OTh4VUibnwC3uMACOMfxWXeFkq34Nw5LcnbgVTnjMjPEiaziBWjo4VB+3aU
9xd3Poskhysj8GCWgI9QF2/5+UEddMJ+A1RPsFMf3I0CSVrB+XRfMWXNt95DfnZ2
lq2GJ3KgZRg9oIWV089T6xNKXjRk7VMKwr9Pbh4AbeuSvX4wZv2vJQSaNlh5zIRd
s7z26vZsH9Uko44T7u45p+UgDAd3yNHrXPJfRCnesp5wde8sUQDCD4GrSD5N4x9p
/ZicMqWZA2k3dNOpHevf2Amw0wJ9xnTKhsKYUJIvYcKPr4XohOTQLlrA3jrreY4K
UlLKmwIi9c/cDRI1uAQwbKB0Vd07vX8ty6oX8GFRYp5ZIZwL33gBTpuD8eKhuRG+
SKRxDwVW58cTCd04FiD/OZC8Ppi+VET/MgUf2ZH/aQ9xlTzEC4K+5fcObZThbPjT
xyZ2Nrp+GKFSC+xfU14wk92hTCp476Yn/reQg6o2wjNCRSOR8vQ=
-----END CERTIFICATE-----
