Certificate:
    Data:
        Version: 3 (0x2)
        Serial Number: 266 (0x10a)
    Signature Algorithm: sha256WithRSAEncryption
        Issuer: C=fr, ST=idf, L=paris, O=vitam, OU=authorities, CN=ca_intermediate_server
        Validity
            Not Before: Oct 19 08:40:57 2018 GMT
            Not After : Oct 18 08:40:57 2021 GMT
        Subject: C=fr, ST=idf, L=paris, O=vitam, CN=ihm-demo.service.consul
        Subject Public Key Info:
            Public Key Algorithm: rsaEncryption
                Public-Key: (4096 bit)
                Modulus:
                    00:f8:04:28:4b:45:ef:ad:7a:7b:c5:97:e1:ae:f4:
                    71:46:5b:47:13:a4:80:a2:1a:b0:27:ab:d7:82:e7:
                    6c:76:79:db:ed:de:88:1a:cc:72:6d:0a:95:47:68:
                    3f:66:54:50:70:1e:76:e8:d1:fa:10:c2:0b:c6:7f:
                    f6:14:32:28:b8:f7:9b:93:55:bf:45:1c:9b:18:6d:
                    ef:29:d4:3c:70:ad:6b:aa:cd:3f:c8:3a:ae:fe:60:
                    92:87:68:7d:b5:6e:77:84:39:a0:c9:6e:d8:4a:d8:
                    32:0b:f8:03:20:21:bb:1d:29:c0:37:b1:8a:2c:2e:
                    15:91:84:4a:75:e2:58:21:c6:0a:56:d4:a9:13:e9:
                    0c:df:9c:2a:07:45:f2:11:dd:07:84:ab:35:5f:55:
                    ca:66:a4:e3:9e:0f:10:dc:03:29:01:c3:c9:66:cc:
                    7d:e3:4d:01:41:c8:b8:f7:1c:49:de:6c:97:55:38:
                    86:8f:ca:42:83:ca:9c:1f:64:c0:a5:7f:a3:14:1a:
                    c1:ac:fd:4d:5b:a5:9f:b5:71:ea:d8:7b:90:e0:1b:
                    b1:fa:14:d0:87:06:8a:c7:60:b0:a9:bd:96:08:25:
                    a0:f5:a3:78:5c:61:43:10:c2:21:f3:e9:6d:56:af:
                    e3:f0:3e:af:41:e9:4e:69:24:f5:04:1f:b2:9a:cb:
                    93:dd:9b:65:b2:9e:58:75:c9:99:66:01:b8:af:51:
                    ad:a9:ae:da:b4:75:99:83:40:d8:8a:c9:2a:3f:b4:
                    f5:26:a7:a7:6d:c4:a9:f3:ca:2e:6c:0d:eb:fe:9b:
                    cb:6d:20:86:a1:0c:ff:c8:12:0a:7d:49:93:e7:27:
                    c6:c9:a1:b5:ae:27:19:2e:3c:32:09:e9:40:cc:63:
                    79:1b:b7:03:12:91:2a:7a:08:6b:a5:e7:fb:9c:b3:
                    d4:43:58:d4:9d:49:8e:f7:22:23:44:41:78:99:08:
                    34:2a:83:d9:de:e0:4c:77:ca:a5:ab:72:5e:73:fe:
                    c4:9f:f6:74:83:ec:b8:b1:de:d7:05:bc:97:f5:f8:
                    53:57:aa:37:0e:91:f2:0e:a8:98:f9:37:f3:4c:c7:
                    fc:54:72:b9:45:20:e1:66:60:11:a9:03:d4:c8:93:
                    be:79:f2:d3:55:9b:d6:b9:cb:ec:5c:b7:4a:90:39:
                    e9:65:57:02:97:5c:fd:0f:51:77:a1:7c:57:10:9b:
                    f5:c7:8d:a4:12:9a:8d:56:1e:9e:1b:c6:92:7b:94:
                    6b:ca:d8:3b:cc:54:1b:41:06:43:fc:7c:2b:1d:77:
                    e5:38:c5:64:e8:f0:bd:75:46:e6:16:70:4b:a1:0d:
                    7b:c0:94:a5:c0:79:c5:d1:56:bd:5c:b9:19:27:9f:
                    8f:2f:bd
                Exponent: 65537 (0x10001)
        X509v3 extensions:
            Netscape Comment: 
                Certificat Serveur SSL
            X509v3 Subject Key Identifier: 
                F6:EC:6A:AF:1F:01:D6:CF:6A:15:38:AC:9B:3F:9E:2B:C5:15:71:1D
            X509v3 Authority Key Identifier: 
                keyid:8E:45:CA:B9:5E:F2:8A:F9:A0:3A:C0:5C:78:C2:FC:E5:E8:6E:29:D9
                DirName:/C=fr/ST=idf/L=paris/O=vitam/OU=authorities/CN=ca_root_server
                serial:01:05

            X509v3 Issuer Alternative Name: 
                <EMPTY>

            X509v3 Subject Alternative Name: 
                DNS:ihm-demo.service.consul, DNS:localhost
            X509v3 Basic Constraints: critical
                CA:FALSE
            X509v3 Key Usage: 
                Digital Signature, Key Encipherment
            Netscape Cert Type: 
                SSL Server
            X509v3 Extended Key Usage: 
                TLS Web Server Authentication
    Signature Algorithm: sha256WithRSAEncryption
         03:c5:01:b5:08:e8:6d:b5:c6:70:73:31:76:eb:da:d7:15:9f:
         80:11:ae:d4:ec:cd:06:71:0e:01:64:4c:98:1d:49:21:ce:47:
         95:4a:71:30:4d:e6:29:df:fb:74:76:29:f3:4e:cd:22:45:43:
         08:78:79:59:43:03:67:74:4c:e7:0e:c9:af:2f:fa:45:c7:63:
         af:4e:cc:14:f9:d2:45:dc:6f:ec:f5:ff:18:61:26:83:95:08:
         3f:d1:d1:1a:e5:2f:4f:b4:74:97:0d:25:14:c4:68:29:24:83:
         40:99:36:14:69:40:fa:42:a1:6f:3c:ea:63:9f:35:e7:23:21:
         46:9f:15:7d:21:0c:17:7e:8a:2b:c9:33:65:1c:8b:7b:5f:1b:
         ed:fa:88:b4:49:a2:25:8e:01:e9:8b:27:d4:58:dd:9a:5a:01:
         58:f0:42:23:06:6b:24:4a:03:ee:75:59:3a:a8:f7:45:80:c5:
         a4:96:16:f6:4f:18:05:0a:0b:64:3f:33:8e:1c:a1:84:03:24:
         aa:50:07:81:af:ac:0f:c2:83:03:82:7e:34:82:16:a6:99:04:
         44:f9:d3:56:90:3f:dc:3a:56:a3:ba:52:9d:1b:88:99:af:45:
         56:d7:57:7e:44:f7:6a:3c:38:12:3e:e6:49:bc:b8:c9:bc:5b:
         d7:a7:f6:16:2a:f2:7d:a0:9f:3e:94:b8:bb:90:6a:8c:97:be:
         82:ee:45:0c:8c:cb:10:4b:8b:53:15:c0:85:ba:bd:41:49:d1:
         a0:16:c8:ec:0e:ec:9b:88:88:d0:6a:4b:51:0c:d4:36:0d:8f:
         5f:ae:9c:e1:a4:d1:ea:08:2e:8e:ce:71:8e:ea:92:35:fa:4b:
         74:d7:65:62:cc:a8:c9:e8:9e:b3:34:6f:dd:81:69:3f:13:4f:
         e1:8b:c5:cc:6d:c2:dc:fb:c6:9c:0b:94:7d:ac:af:16:e3:85:
         7f:13:e8:88:ef:7b:96:42:91:41:44:48:c8:3c:69:4e:14:86:
         77:c7:39:76:ce:db:4c:6c:c7:bf:a4:b4:a1:08:06:14:ed:1b:
         e1:f3:b5:35:2c:21:eb:80:05:c3:f5:80:76:62:b2:77:1c:81:
         5f:81:67:04:68:c5:e4:c9:28:c5:dd:b2:4b:b9:e7:db:b3:f7:
         2c:ec:50:80:e7:78:56:9a:8b:07:cd:b7:2d:4a:01:3c:ef:5a:
         7b:12:89:96:a0:c5:b8:76:07:7c:0f:cd:6f:30:1b:94:62:5a:
         67:5b:1a:42:aa:25:84:ca:f4:58:f0:72:2a:03:01:c6:a4:08:
         34:89:58:be:fd:f4:73:82:6b:f9:1a:76:98:90:2c:7a:de:2a:
         86:f7:16:54:92:07:5f:4a
-----BEGIN CERTIFICATE-----
MIIGrDCCBJSgAwIBAgICAQowDQYJKoZIhvcNAQELBQAwcjELMAkGA1UEBhMCZnIx
DDAKBgNVBAgMA2lkZjEOMAwGA1UEBwwFcGFyaXMxDjAMBgNVBAoMBXZpdGFtMRQw
EgYDVQQLDAthdXRob3JpdGllczEfMB0GA1UEAwwWY2FfaW50ZXJtZWRpYXRlX3Nl
cnZlcjAeFw0xODEwMTkwODQwNTdaFw0yMTEwMTgwODQwNTdaMF0xCzAJBgNVBAYT
AmZyMQwwCgYDVQQIDANpZGYxDjAMBgNVBAcMBXBhcmlzMQ4wDAYDVQQKDAV2aXRh
bTEgMB4GA1UEAwwXaWhtLWRlbW8uc2VydmljZS5jb25zdWwwggIiMA0GCSqGSIb3
DQEBAQUAA4ICDwAwggIKAoICAQD4BChLRe+tenvFl+Gu9HFGW0cTpICiGrAnq9eC
52x2edvt3ogazHJtCpVHaD9mVFBwHnbo0foQwgvGf/YUMii495uTVb9FHJsYbe8p
1DxwrWuqzT/IOq7+YJKHaH21bneEOaDJbthK2DIL+AMgIbsdKcA3sYosLhWRhEp1
4lghxgpW1KkT6QzfnCoHRfIR3QeEqzVfVcpmpOOeDxDcAykBw8lmzH3jTQFByLj3
HEnebJdVOIaPykKDypwfZMClf6MUGsGs/U1bpZ+1cerYe5DgG7H6FNCHBorHYLCp
vZYIJaD1o3hcYUMQwiHz6W1Wr+PwPq9B6U5pJPUEH7Kay5Pdm2Wynlh1yZlmAbiv
Ua2prtq0dZmDQNiKySo/tPUmp6dtxKnzyi5sDev+m8ttIIahDP/IEgp9SZPnJ8bJ
obWuJxkuPDIJ6UDMY3kbtwMSkSp6CGul5/ucs9RDWNSdSY73IiNEQXiZCDQqg9ne
4Ex3yqWrcl5z/sSf9nSD7Lix3tcFvJf1+FNXqjcOkfIOqJj5N/NMx/xUcrlFIOFm
YBGpA9TIk7558tNVm9a5y+xct0qQOellVwKXXP0PUXehfFcQm/XHjaQSmo1WHp4b
xpJ7lGvK2DvMVBtBBkP8fCsdd+U4xWTo8L11RuYWcEuhDXvAlKXAecXRVr1cuRkn
n48vvQIDAQABo4IBXzCCAVswJQYJYIZIAYb4QgENBBgWFkNlcnRpZmljYXQgU2Vy
dmV1ciBTU0wwHQYDVR0OBBYEFPbsaq8fAdbPahU4rJs/nivFFXEdMIGVBgNVHSME
gY0wgYqAFI5Fyrle8or5oDrAXHjC/OXobinZoW6kbDBqMQswCQYDVQQGEwJmcjEM
MAoGA1UECAwDaWRmMQ4wDAYDVQQHDAVwYXJpczEOMAwGA1UECgwFdml0YW0xFDAS
BgNVBAsMC2F1dGhvcml0aWVzMRcwFQYDVQQDDA5jYV9yb290X3NlcnZlcoICAQUw
CQYDVR0SBAIwADAtBgNVHREEJjAkghdpaG0tZGVtby5zZXJ2aWNlLmNvbnN1bIIJ
bG9jYWxob3N0MAwGA1UdEwEB/wQCMAAwCwYDVR0PBAQDAgWgMBEGCWCGSAGG+EIB
AQQEAwIGQDATBgNVHSUEDDAKBggrBgEFBQcDATANBgkqhkiG9w0BAQsFAAOCAgEA
A8UBtQjobbXGcHMxduva1xWfgBGu1OzNBnEOAWRMmB1JIc5HlUpxME3mKd/7dHYp
807NIkVDCHh5WUMDZ3RM5w7Jry/6Rcdjr07MFPnSRdxv7PX/GGEmg5UIP9HRGuUv
T7R0lw0lFMRoKSSDQJk2FGlA+kKhbzzqY5815yMhRp8VfSEMF36KK8kzZRyLe18b
7fqItEmiJY4B6Ysn1FjdmloBWPBCIwZrJEoD7nVZOqj3RYDFpJYW9k8YBQoLZD8z
jhyhhAMkqlAHga+sD8KDA4J+NIIWppkERPnTVpA/3DpWo7pSnRuIma9FVtdXfkT3
ajw4Ej7mSby4ybxb16f2FiryfaCfPpS4u5BqjJe+gu5FDIzLEEuLUxXAhbq9QUnR
oBbI7A7sm4iI0GpLUQzUNg2PX66c4aTR6ggujs5xjuqSNfpLdNdlYsyoyeieszRv
3YFpPxNP4YvFzG3C3PvGnAuUfayvFuOFfxPoiO97lkKRQURIyDxpThSGd8c5ds7b
TGzHv6S0oQgGFO0b4fO1NSwh64AFw/WAdmKydxyBX4FnBGjF5Mkoxd2yS7nn27P3
LOxQgOd4VpqLB823LUoBPO9aexKJlqDFuHYHfA/NbzAblGJaZ1saQqolhMr0WPBy
KgMBxqQINIlYvv30c4Jr+Rp2mJAset4qhvcWVJIHX0o=
-----END CERTIFICATE-----
