Certificate:
    Data:
        Version: 3 (0x2)
        Serial Number: 229 (0xe5)
    Signature Algorithm: sha256WithRSAEncryption
        Issuer: C=fr, ST=idf, L=paris, O=vitam, OU=authorities, CN=ca_intermediate_server
        Validity
            Not Before: Feb  5 12:57:24 2018 GMT
            Not After : Feb  4 12:57:24 2021 GMT
        Subject: C=fr, ST=idf, L=paris, O=vitam, CN=ihm-demo.service.consul
        Subject Public Key Info:
            Public Key Algorithm: rsaEncryption
                Public-Key: (4096 bit)
                Modulus:
                    00:eb:2a:98:aa:32:a9:05:2c:f3:46:99:2c:51:0b:
                    e9:d8:82:1e:58:d1:1e:42:39:d2:4a:6e:3c:f2:24:
                    a5:f0:e0:02:8d:82:cb:4f:43:b2:00:d3:0e:57:21:
                    1e:24:4c:01:a2:52:f0:f3:6f:2b:0c:fa:17:35:4a:
                    5e:13:b1:d3:4d:c8:c0:67:11:95:1d:4f:2f:e5:8f:
                    1c:db:e2:06:f2:d3:58:21:e2:bd:f7:fc:bc:02:be:
                    fa:93:ce:42:fe:b9:1f:13:a2:66:27:15:37:70:e4:
                    23:d0:db:32:69:01:a6:fc:65:cf:b1:8b:21:99:b5:
                    d3:5e:1b:e2:94:e7:69:e5:69:a6:72:09:18:1c:9c:
                    94:84:86:b6:ae:b2:18:90:87:6b:11:07:58:0b:ed:
                    1d:09:88:d2:13:51:b0:4b:fd:d9:10:c2:56:78:f3:
                    89:2c:08:65:ac:5a:29:a0:e4:ae:91:09:0a:5c:7c:
                    92:02:6c:51:c9:46:38:22:a3:e1:26:8b:82:07:42:
                    b5:f9:b2:fb:66:7e:b2:5f:9f:1f:30:08:c6:75:66:
                    54:80:a7:0e:75:b6:f3:2e:52:86:0d:5b:58:30:66:
                    95:09:51:6a:74:7f:af:76:06:d9:6d:4d:6b:57:ae:
                    bb:69:6d:a9:31:df:98:1d:cb:b5:ca:63:82:61:12:
                    5d:e3:ee:c2:e0:4d:1c:0c:46:4c:1d:0d:49:2f:64:
                    f5:99:31:58:b6:a3:50:fd:25:dd:c2:2f:8b:b7:28:
                    b1:b4:32:ee:fb:64:72:e7:9f:6f:8f:e3:ec:e3:78:
                    41:b1:8b:1d:70:6e:59:97:0c:ae:85:5a:ca:50:4c:
                    d5:18:81:d7:2a:73:ac:27:2f:b8:9e:51:a8:36:50:
                    2e:70:b5:98:b4:93:30:fa:e2:34:48:23:95:f1:d8:
                    dc:a1:7f:81:f0:dd:0b:8b:27:92:c1:18:9c:b0:96:
                    4a:e4:98:22:82:ba:7c:76:1e:a0:0d:2e:0b:c6:ac:
                    c8:78:c7:7c:44:09:90:c2:07:c9:c7:14:60:51:16:
                    1e:60:b4:70:97:7b:98:6e:79:90:36:c5:ed:2e:40:
                    f2:c9:2e:06:72:7b:95:9d:af:ac:09:75:67:e8:ba:
                    d7:a4:b3:98:e7:6e:d4:49:d5:9d:9e:43:da:f2:07:
                    29:ef:0f:30:ff:77:dd:be:63:8d:7d:6f:fe:91:12:
                    71:d1:0b:61:5c:7d:82:0b:4b:36:9f:49:87:b3:7a:
                    f5:fe:59:88:fd:dc:4f:5d:6b:71:19:0d:87:2a:41:
                    71:dd:d5:5a:02:cb:5a:d8:5a:bc:30:93:d7:b6:ca:
                    40:e4:e7:f4:8a:06:5a:99:96:52:05:ff:69:cb:ab:
                    9a:e1:5b
                Exponent: 65537 (0x10001)
        X509v3 extensions:
            Netscape Comment: 
                Certificat Serveur SSL
            X509v3 Subject Key Identifier: 
                16:BE:E5:2C:68:E9:51:80:3E:61:96:95:18:A6:34:DC:0F:97:45:D0
            X509v3 Authority Key Identifier: 
                keyid:5A:C7:76:2D:0B:CA:D2:5D:01:B1:16:A7:F9:F2:91:A2:20:E5:56:42
                DirName:/C=fr/ST=idf/L=paris/O=vitam/OU=authorities/CN=ca_root_server
                serial:DB

            X509v3 Issuer Alternative Name: 
                <EMPTY>

            X509v3 Subject Alternative Name: 
                DNS:ihm-demo.service.consul, DNS:localhost
            X509v3 Basic Constraints: critical
                CA:FALSE
            X509v3 Key Usage: 
                Digital Signature, Non Repudiation, Key Encipherment
            Netscape Cert Type: 
                SSL Server
            X509v3 Extended Key Usage: 
                TLS Web Server Authentication
    Signature Algorithm: sha256WithRSAEncryption
         80:64:02:bd:bc:6a:cd:34:d7:43:e3:11:c5:b4:cf:18:0b:16:
         c7:60:98:ad:3f:e2:ec:51:b7:e2:22:a9:e1:a5:3f:7c:f0:5b:
         1b:cd:f1:60:d7:ca:19:3e:61:5b:3a:c6:3d:f7:b5:30:98:a7:
         54:d8:6e:04:bd:e2:b0:fb:1e:09:43:18:c6:1e:ba:88:9e:47:
         11:44:ab:c4:0b:24:27:62:06:67:27:3f:32:ff:8f:c2:5f:ab:
         8a:a9:32:49:4e:1f:6c:11:84:b8:b8:58:16:2e:26:f0:68:02:
         06:5c:44:36:44:b2:48:d5:51:59:f5:c9:2a:b8:c6:51:c4:ad:
         52:f7:7b:16:35:48:ae:20:96:66:f9:6e:02:d5:6f:e6:43:90:
         30:47:ac:b9:47:95:c3:4b:50:c7:f7:37:62:f3:e8:60:1d:ee:
         91:e8:15:04:f3:02:21:f8:36:4f:bb:f4:7d:6a:ce:50:f6:a3:
         34:89:79:3e:cb:31:bd:e4:df:74:50:24:e7:2c:e5:4b:b3:4f:
         07:d4:4e:65:12:bc:1e:ee:5d:15:34:6d:67:3b:cf:dd:78:f3:
         05:33:97:00:6f:7b:87:3d:07:27:93:a1:98:0d:70:d4:81:44:
         19:06:2f:8b:28:15:61:dd:d2:78:67:77:05:de:12:f7:1d:43:
         39:b3:38:fa:fd:56:36:96:8a:32:ec:1b:c3:dd:45:d3:6b:eb:
         4a:90:7f:81:0b:08:81:11:23:f6:18:9a:eb:dd:a6:dc:72:08:
         e7:c0:04:0a:a8:17:97:a9:63:aa:18:3b:b6:31:99:a5:bf:70:
         78:8c:3c:58:af:da:90:dd:b9:fa:ff:15:1d:1d:f6:23:57:4e:
         ef:46:25:01:da:46:18:cd:c1:66:5f:7d:4b:14:3d:8f:b5:78:
         98:12:b4:46:55:98:1b:14:76:23:87:b5:51:94:47:db:b3:1a:
         80:20:3f:68:a1:8b:ac:85:68:d9:9a:96:c1:cc:af:ef:32:99:
         2b:43:31:55:4b:45:5e:f4:91:cf:e1:86:ba:5c:ff:ed:65:d6:
         11:bd:2a:f7:20:32:ce:cf:7b:e9:b7:19:c1:db:7a:db:21:2b:
         d2:56:f8:fd:95:69:bb:de:c7:09:c4:e8:42:4b:4d:a0:e5:04:
         46:aa:76:7e:92:f1:61:7a:92:90:e2:4c:bb:89:d0:0b:fd:15:
         ea:f3:8b:90:d2:3b:cf:0b:dd:7c:63:66:7c:48:c3:80:a5:ed:
         50:c1:ef:f7:9f:3e:9a:e8:ec:f0:b0:0b:85:71:10:6e:fb:0c:
         3a:35:a4:bb:56:82:24:ec:69:d6:e5:9e:22:26:90:b0:61:c1:
         a5:ed:9c:f9:4f:74:d4:3c
-----BEGIN CERTIFICATE-----
MIIGrDCCBJSgAwIBAgICAOUwDQYJKoZIhvcNAQELBQAwcjELMAkGA1UEBhMCZnIx
DDAKBgNVBAgMA2lkZjEOMAwGA1UEBwwFcGFyaXMxDjAMBgNVBAoMBXZpdGFtMRQw
EgYDVQQLDAthdXRob3JpdGllczEfMB0GA1UEAwwWY2FfaW50ZXJtZWRpYXRlX3Nl
cnZlcjAeFw0xODAyMDUxMjU3MjRaFw0yMTAyMDQxMjU3MjRaMF0xCzAJBgNVBAYT
AmZyMQwwCgYDVQQIDANpZGYxDjAMBgNVBAcMBXBhcmlzMQ4wDAYDVQQKDAV2aXRh
bTEgMB4GA1UEAwwXaWhtLWRlbW8uc2VydmljZS5jb25zdWwwggIiMA0GCSqGSIb3
DQEBAQUAA4ICDwAwggIKAoICAQDrKpiqMqkFLPNGmSxRC+nYgh5Y0R5COdJKbjzy
JKXw4AKNgstPQ7IA0w5XIR4kTAGiUvDzbysM+hc1Sl4TsdNNyMBnEZUdTy/ljxzb
4gby01gh4r33/LwCvvqTzkL+uR8TomYnFTdw5CPQ2zJpAab8Zc+xiyGZtdNeG+KU
52nlaaZyCRgcnJSEhraushiQh2sRB1gL7R0JiNITUbBL/dkQwlZ484ksCGWsWimg
5K6RCQpcfJICbFHJRjgio+Emi4IHQrX5svtmfrJfnx8wCMZ1ZlSApw51tvMuUoYN
W1gwZpUJUWp0f692BtltTWtXrrtpbakx35gdy7XKY4JhEl3j7sLgTRwMRkwdDUkv
ZPWZMVi2o1D9Jd3CL4u3KLG0Mu77ZHLnn2+P4+zjeEGxix1wblmXDK6FWspQTNUY
gdcqc6wnL7ieUag2UC5wtZi0kzD64jRII5Xx2Nyhf4Hw3QuLJ5LBGJywlkrkmCKC
unx2HqANLgvGrMh4x3xECZDCB8nHFGBRFh5gtHCXe5hueZA2xe0uQPLJLgZye5Wd
r6wJdWfouteks5jnbtRJ1Z2eQ9ryBynvDzD/d92+Y419b/6REnHRC2FcfYILSzaf
SYezevX+WYj93E9da3EZDYcqQXHd1VoCy1rYWrwwk9e2ykDk5/SKBlqZllIF/2nL
q5rhWwIDAQABo4IBXzCCAVswJQYJYIZIAYb4QgENBBgWFkNlcnRpZmljYXQgU2Vy
dmV1ciBTU0wwHQYDVR0OBBYEFBa+5Sxo6VGAPmGWlRimNNwPl0XQMIGVBgNVHSME
gY0wgYqAFFrHdi0LytJdAbEWp/nykaIg5VZCoW6kbDBqMQswCQYDVQQGEwJmcjEM
MAoGA1UECAwDaWRmMQ4wDAYDVQQHDAVwYXJpczEOMAwGA1UECgwFdml0YW0xFDAS
BgNVBAsMC2F1dGhvcml0aWVzMRcwFQYDVQQDDA5jYV9yb290X3NlcnZlcoICANsw
CQYDVR0SBAIwADAtBgNVHREEJjAkghdpaG0tZGVtby5zZXJ2aWNlLmNvbnN1bIIJ
bG9jYWxob3N0MAwGA1UdEwEB/wQCMAAwCwYDVR0PBAQDAgXgMBEGCWCGSAGG+EIB
AQQEAwIGQDATBgNVHSUEDDAKBggrBgEFBQcDATANBgkqhkiG9w0BAQsFAAOCAgEA
gGQCvbxqzTTXQ+MRxbTPGAsWx2CYrT/i7FG34iKp4aU/fPBbG83xYNfKGT5hWzrG
Pfe1MJinVNhuBL3isPseCUMYxh66iJ5HEUSrxAskJ2IGZyc/Mv+Pwl+riqkySU4f
bBGEuLhYFi4m8GgCBlxENkSySNVRWfXJKrjGUcStUvd7FjVIriCWZvluAtVv5kOQ
MEesuUeVw0tQx/c3YvPoYB3ukegVBPMCIfg2T7v0fWrOUPajNIl5PssxveTfdFAk
5yzlS7NPB9ROZRK8Hu5dFTRtZzvP3XjzBTOXAG97hz0HJ5OhmA1w1IFEGQYviygV
Yd3SeGd3Bd4S9x1DObM4+v1WNpaKMuwbw91F02vrSpB/gQsIgREj9hia692m3HII
58AECqgXl6ljqhg7tjGZpb9weIw8WK/akN25+v8VHR32I1dO70YlAdpGGM3BZl99
SxQ9j7V4mBK0RlWYGxR2I4e1UZRH27MagCA/aKGLrIVo2ZqWwcyv7zKZK0MxVUtF
XvSRz+GGulz/7WXWEb0q9yAyzs976bcZwdt62yEr0lb4/ZVpu97HCcToQktNoOUE
Rqp2fpLxYXqSkOJMu4nQC/0V6vOLkNI7zwvdfGNmfEjDgKXtUMHv958+mujs8LAL
hXEQbvsMOjWku1aCJOxp1uWeIiaQsGHBpe2c+U901Dw=
-----END CERTIFICATE-----
