Certificate:
    Data:
        Version: 3 (0x2)
        Serial Number: 228 (0xe4)
    Signature Algorithm: sha256WithRSAEncryption
        Issuer: C=fr, ST=idf, L=paris, O=vitam, OU=authorities, CN=ca_intermediate_server
        Validity
            Not Before: Feb  5 12:57:21 2018 GMT
            Not After : Feb  4 12:57:21 2021 GMT
        Subject: C=fr, ST=idf, L=paris, O=vitam, CN=ihm-recette.service.consul
        Subject Public Key Info:
            Public Key Algorithm: rsaEncryption
                Public-Key: (4096 bit)
                Modulus:
                    00:a0:77:42:00:1e:f7:4a:aa:2a:e6:6c:e4:69:76:
                    cb:bf:21:40:84:db:b1:27:af:e3:f9:22:91:f2:17:
                    0b:75:57:0f:6f:34:73:7c:12:17:b9:95:eb:9a:d4:
                    9e:37:d1:bc:5a:8d:cb:11:60:ad:11:0e:2c:c4:4f:
                    0a:fd:24:5a:58:ee:08:2d:0f:de:29:52:2c:59:6f:
                    42:94:b7:71:8e:71:03:51:d6:ec:d0:cb:32:3d:67:
                    fd:20:f5:8e:74:ec:c5:90:f0:8b:9e:07:6c:9b:f9:
                    76:f2:2b:ff:3d:73:e1:39:85:bd:24:d2:10:74:ea:
                    a6:cc:6e:64:ac:4a:fb:a1:6c:14:89:7e:67:08:26:
                    66:e2:e1:a1:3b:fe:9e:a2:ce:f7:7d:13:5d:59:75:
                    e4:c2:d9:6d:e9:8a:76:19:e6:89:c3:12:03:f3:12:
                    c1:42:1e:a9:12:8f:e7:93:08:1b:98:96:92:b3:86:
                    9a:08:34:78:05:69:34:d1:dd:9c:b3:8d:8e:40:82:
                    c0:e9:a4:da:0b:03:60:e3:0e:45:1a:5f:b8:69:3e:
                    99:0c:23:af:a8:53:f4:6f:d1:53:b0:72:40:f3:21:
                    43:c9:34:67:3a:90:40:91:d6:93:7c:b0:1f:30:e5:
                    67:17:cd:22:8f:f8:a1:d2:34:ff:ee:c6:3b:3f:c8:
                    09:58:57:b3:14:18:58:83:db:cc:90:8b:da:93:0a:
                    7a:db:35:bb:da:54:e1:ff:4b:2d:44:84:51:c6:c1:
                    cb:90:ad:c2:97:fb:dc:29:54:07:f4:25:cf:95:b8:
                    ec:44:1c:a2:e9:5b:de:c4:ba:1a:a4:14:58:86:72:
                    9a:ba:46:81:9b:ac:b4:7b:67:40:31:0f:13:01:86:
                    e1:bb:fc:35:f0:96:2f:a2:9f:fd:aa:b0:14:fb:60:
                    68:91:7d:f1:b4:c1:2a:69:04:ab:0d:6a:e9:fd:d2:
                    54:de:61:d7:45:85:15:84:cd:8c:c7:86:5c:c9:e2:
                    36:a0:dd:bb:55:c6:36:ce:ff:d4:f5:08:f7:fa:61:
                    9c:9e:7e:53:35:ca:9a:fb:29:73:9b:d0:23:37:a4:
                    7e:e4:d2:c9:fd:7f:67:f0:1e:73:a1:95:4f:6f:a3:
                    76:36:fb:fa:85:59:25:bc:ac:6e:fd:b5:16:5c:29:
                    0b:b0:33:0e:77:4a:ef:62:2a:25:4d:13:dd:98:c7:
                    38:b8:7b:99:1b:a0:45:46:a3:ce:68:32:2c:85:f1:
                    1f:bc:6a:51:c5:ee:04:30:f7:38:fe:e4:73:ce:de:
                    02:3e:4d:94:5a:c3:bb:a5:4c:3c:c6:3e:e5:7e:8f:
                    74:28:a8:ac:66:cf:71:7e:a1:71:79:5b:df:bf:9f:
                    94:29:55
                Exponent: 65537 (0x10001)
        X509v3 extensions:
            Netscape Comment: 
                Certificat Serveur SSL
            X509v3 Subject Key Identifier: 
                5B:24:C6:B9:32:BD:6D:16:E0:99:DD:1B:2E:22:E5:4E:7C:02:32:3F
            X509v3 Authority Key Identifier: 
                keyid:5A:C7:76:2D:0B:CA:D2:5D:01:B1:16:A7:F9:F2:91:A2:20:E5:56:42
                DirName:/C=fr/ST=idf/L=paris/O=vitam/OU=authorities/CN=ca_root_server
                serial:DB

            X509v3 Issuer Alternative Name: 
                <EMPTY>

            X509v3 Subject Alternative Name: 
                DNS:ihm-recette.service.consul, DNS:localhost
            X509v3 Basic Constraints: critical
                CA:FALSE
            X509v3 Key Usage: 
                Digital Signature, Non Repudiation, Key Encipherment
            Netscape Cert Type: 
                SSL Server
            X509v3 Extended Key Usage: 
                TLS Web Server Authentication
    Signature Algorithm: sha256WithRSAEncryption
         70:72:04:13:5d:98:9b:35:0e:b7:ab:08:bc:ac:33:69:92:66:
         d1:42:6a:5c:9a:1c:7e:de:6c:11:3a:d2:8c:51:5b:61:46:0c:
         77:71:2c:99:32:7a:98:b9:2d:a3:33:f2:45:3c:4f:71:47:17:
         ba:1f:ba:19:9a:95:98:7b:de:88:24:51:c5:a8:b1:fc:bb:6d:
         0c:67:51:d7:f8:79:c1:d0:09:27:72:14:ce:5e:3e:09:65:bf:
         43:da:af:e7:d0:74:9e:f4:9e:4c:bb:16:bf:54:68:45:09:a2:
         d4:7d:e7:30:f1:d0:d8:69:b3:f7:80:92:2f:7e:60:9e:68:55:
         7e:cb:b1:df:c7:00:bb:a5:06:69:cf:c4:a2:7d:0f:09:57:bc:
         7a:fe:a2:f4:05:43:55:ba:88:4b:7a:ba:63:8d:63:98:d2:e5:
         5e:10:41:ec:3f:ea:86:5b:6e:8e:bd:8a:2b:d7:8d:21:8b:33:
         e6:9d:f7:03:d0:88:c9:0e:51:00:b4:30:c7:40:8d:f4:1d:cd:
         7a:86:d2:36:62:ee:de:4c:a0:e4:87:ed:4a:15:b3:7a:0d:3f:
         6c:9c:ae:6e:34:59:58:ba:1e:a4:dd:ea:85:89:06:67:5f:e2:
         2f:5e:22:85:80:1c:09:9f:57:db:08:5a:cc:c1:64:67:11:0a:
         f5:80:62:58:48:d2:ed:72:98:84:ee:3b:f5:c1:a3:ec:55:bb:
         1f:15:38:ae:98:9b:e3:4a:27:16:f1:02:96:b2:8b:92:89:91:
         13:75:b9:43:a5:fd:d2:5c:b1:26:cd:54:63:97:3a:98:21:6b:
         8c:88:a3:9e:d5:10:a1:10:7f:5b:cc:e3:81:e7:a3:f8:f3:3a:
         f8:30:83:27:f6:f0:bb:d9:97:3e:27:0a:91:46:b6:8c:f0:d7:
         05:e8:78:fe:b1:54:f4:c1:e9:8a:e9:ee:6f:b1:90:df:f7:d5:
         9e:0d:ef:dd:a2:77:6e:2c:dc:21:ec:a7:e3:33:22:ca:15:9b:
         8b:b3:26:d8:bb:cf:9f:d4:ff:e4:47:bd:36:1a:b0:26:2c:07:
         34:bf:1b:4f:0d:f8:c3:6b:e2:c9:ea:fd:be:42:67:df:c6:10:
         e9:0c:be:d6:2e:cb:0b:b1:c1:38:bb:81:83:d1:16:4a:f8:57:
         2c:64:31:10:e3:1a:da:54:5e:b6:91:ec:0f:dc:06:39:5c:c7:
         a6:2d:7e:00:2d:8e:97:75:03:69:0d:2f:f9:bd:39:b2:57:14:
         df:a8:80:b6:c0:43:4a:93:2a:34:c1:73:d9:4a:2c:72:c0:e1:
         b6:65:1d:46:d6:6e:1f:6b:c3:1e:17:6b:96:8a:f1:c9:09:75:
         75:f1:59:67:6f:60:92:e6
-----BEGIN CERTIFICATE-----
MIIGsjCCBJqgAwIBAgICAOQwDQYJKoZIhvcNAQELBQAwcjELMAkGA1UEBhMCZnIx
DDAKBgNVBAgMA2lkZjEOMAwGA1UEBwwFcGFyaXMxDjAMBgNVBAoMBXZpdGFtMRQw
EgYDVQQLDAthdXRob3JpdGllczEfMB0GA1UEAwwWY2FfaW50ZXJtZWRpYXRlX3Nl
cnZlcjAeFw0xODAyMDUxMjU3MjFaFw0yMTAyMDQxMjU3MjFaMGAxCzAJBgNVBAYT
AmZyMQwwCgYDVQQIDANpZGYxDjAMBgNVBAcMBXBhcmlzMQ4wDAYDVQQKDAV2aXRh
bTEjMCEGA1UEAwwaaWhtLXJlY2V0dGUuc2VydmljZS5jb25zdWwwggIiMA0GCSqG
SIb3DQEBAQUAA4ICDwAwggIKAoICAQCgd0IAHvdKqirmbORpdsu/IUCE27Enr+P5
IpHyFwt1Vw9vNHN8Ehe5leua1J430bxajcsRYK0RDizETwr9JFpY7ggtD94pUixZ
b0KUt3GOcQNR1uzQyzI9Z/0g9Y507MWQ8IueB2yb+XbyK/89c+E5hb0k0hB06qbM
bmSsSvuhbBSJfmcIJmbi4aE7/p6izvd9E11ZdeTC2W3pinYZ5onDEgPzEsFCHqkS
j+eTCBuYlpKzhpoINHgFaTTR3ZyzjY5AgsDppNoLA2DjDkUaX7hpPpkMI6+oU/Rv
0VOwckDzIUPJNGc6kECR1pN8sB8w5WcXzSKP+KHSNP/uxjs/yAlYV7MUGFiD28yQ
i9qTCnrbNbvaVOH/Sy1EhFHGwcuQrcKX+9wpVAf0Jc+VuOxEHKLpW97EuhqkFFiG
cpq6RoGbrLR7Z0AxDxMBhuG7/DXwli+in/2qsBT7YGiRffG0wSppBKsNaun90lTe
YddFhRWEzYzHhlzJ4jag3btVxjbO/9T1CPf6YZyeflM1ypr7KXOb0CM3pH7k0sn9
f2fwHnOhlU9vo3Y2+/qFWSW8rG79tRZcKQuwMw53Su9iKiVNE92Yxzi4e5kboEVG
o85oMiyF8R+8alHF7gQw9zj+5HPO3gI+TZRaw7ulTDzGPuV+j3QoqKxmz3F+oXF5
W9+/n5QpVQIDAQABo4IBYjCCAV4wJQYJYIZIAYb4QgENBBgWFkNlcnRpZmljYXQg
U2VydmV1ciBTU0wwHQYDVR0OBBYEFFskxrkyvW0W4JndGy4i5U58AjI/MIGVBgNV
HSMEgY0wgYqAFFrHdi0LytJdAbEWp/nykaIg5VZCoW6kbDBqMQswCQYDVQQGEwJm
cjEMMAoGA1UECAwDaWRmMQ4wDAYDVQQHDAVwYXJpczEOMAwGA1UECgwFdml0YW0x
FDASBgNVBAsMC2F1dGhvcml0aWVzMRcwFQYDVQQDDA5jYV9yb290X3NlcnZlcoIC
ANswCQYDVR0SBAIwADAwBgNVHREEKTAnghppaG0tcmVjZXR0ZS5zZXJ2aWNlLmNv
bnN1bIIJbG9jYWxob3N0MAwGA1UdEwEB/wQCMAAwCwYDVR0PBAQDAgXgMBEGCWCG
SAGG+EIBAQQEAwIGQDATBgNVHSUEDDAKBggrBgEFBQcDATANBgkqhkiG9w0BAQsF
AAOCAgEAcHIEE12YmzUOt6sIvKwzaZJm0UJqXJocft5sETrSjFFbYUYMd3EsmTJ6
mLktozPyRTxPcUcXuh+6GZqVmHveiCRRxaix/LttDGdR1/h5wdAJJ3IUzl4+CWW/
Q9qv59B0nvSeTLsWv1RoRQmi1H3nMPHQ2Gmz94CSL35gnmhVfsux38cAu6UGac/E
on0PCVe8ev6i9AVDVbqIS3q6Y41jmNLlXhBB7D/qhltujr2KK9eNIYsz5p33A9CI
yQ5RALQwx0CN9B3NeobSNmLu3kyg5IftShWzeg0/bJyubjRZWLoepN3qhYkGZ1/i
L14ihYAcCZ9X2whazMFkZxEK9YBiWEjS7XKYhO479cGj7FW7HxU4rpib40onFvEC
lrKLkomRE3W5Q6X90lyxJs1UY5c6mCFrjIijntUQoRB/W8zjgeej+PM6+DCDJ/bw
u9mXPicKkUa2jPDXBeh4/rFU9MHpiunub7GQ3/fVng3v3aJ3bizcIeyn4zMiyhWb
i7Mm2LvPn9T/5Ee9NhqwJiwHNL8bTw34w2viyer9vkJn38YQ6Qy+1i7LC7HBOLuB
g9EWSvhXLGQxEOMa2lRetpHsD9wGOVzHpi1+AC2Ol3UDaQ0v+b05slcU36iAtsBD
SpMqNMFz2UoscsDhtmUdRtZuH2vDHhdrlorxyQl1dfFZZ29gkuY=
-----END CERTIFICATE-----
