Certificate:
    Data:
        Version: 3 (0x2)
        Serial Number: 272 (0x110)
        Signature Algorithm: sha256WithRSAEncryption
        Issuer: C=fr, ST=idf, L=paris, O=vitam, OU=authorities, CN=ca_intermediate_server
        Validity
            Not Before: Sep 15 13:01:04 2020 GMT
            Not After : Dec 31 23:59:59 9999 GMT
        Subject: C=fr, ST=idf, L=paris, O=vitam, CN=ihm-recette.service.local.consul
        Subject Public Key Info:
            Public Key Algorithm: rsaEncryption
                RSA Public-Key: (4096 bit)
                Modulus:
                    00:c8:8e:3f:a2:73:77:6f:eb:9c:22:ce:2f:98:0b:
                    2c:f8:a1:90:ba:59:2c:73:c2:e3:ec:33:19:21:da:
                    dd:77:af:6c:8b:6c:1c:0c:b1:72:cc:a8:cb:59:48:
                    d4:9f:5e:bf:06:cb:d9:fa:30:94:e7:35:70:1b:70:
                    f5:5a:b1:c1:46:52:d5:4b:dd:e9:e9:a3:aa:3a:a3:
                    b9:55:41:ac:a7:75:5c:74:f1:57:3f:9a:e1:5c:1f:
                    98:fe:5e:60:bf:b4:8e:9c:3c:70:c9:05:2e:22:71:
                    c4:20:1b:ec:f5:34:cf:91:d2:fe:15:51:ca:bf:a1:
                    ec:61:be:e8:03:5c:36:3d:7a:cd:d5:94:cb:1c:55:
                    3b:85:28:e2:da:81:cb:2e:03:49:8a:41:cd:26:aa:
                    77:f2:bd:94:89:4f:1e:e2:3f:a5:0f:7c:2b:d0:91:
                    dd:89:ed:61:38:0c:ac:b9:7c:9d:2f:65:e6:ff:3c:
                    2e:92:b0:ce:eb:74:3d:85:f3:9c:af:8f:97:1a:e2:
                    05:9d:e4:0c:c0:ef:d7:e9:ae:ac:43:41:cb:50:84:
                    49:a9:76:82:70:e9:fa:0a:19:e3:f3:02:9d:6d:f2:
                    df:94:e5:cd:d1:f6:8f:46:26:8f:76:d6:23:76:f9:
                    1d:8a:b7:a4:82:db:f4:a4:61:6c:c7:c8:84:9d:58:
                    43:85:16:85:9d:46:de:25:85:b6:3c:f9:b8:6c:ca:
                    a8:21:82:4d:b3:c7:ec:7c:05:98:b0:47:3f:fc:38:
                    99:9c:25:1b:4f:87:03:20:44:21:0d:26:51:b0:da:
                    67:12:78:f4:b6:2d:ba:3f:22:f2:74:ab:4e:2d:59:
                    7c:b9:21:35:03:47:06:53:27:ca:db:17:0b:26:e3:
                    e9:af:d0:bb:63:6b:a3:0d:d3:37:a7:24:60:25:e2:
                    77:75:f0:0e:07:e1:65:13:5a:c4:63:12:bb:9d:32:
                    4a:bb:86:a0:91:3d:ef:1f:a1:d0:63:2a:de:06:6f:
                    9f:28:a1:7d:a4:14:9f:cb:bf:54:7e:82:51:3d:b4:
                    dc:2b:ed:be:6f:e4:12:4d:e4:b8:b9:d4:2b:ac:28:
                    4b:47:03:3f:7a:29:83:e9:e5:99:39:80:9f:e6:ff:
                    99:7d:0b:10:6c:82:25:77:d7:fb:19:44:81:73:2f:
                    de:da:dd:36:e6:44:fb:9e:b4:46:4f:b8:b0:58:af:
                    5e:19:81:1a:48:45:e8:f4:93:bf:2a:48:74:37:9a:
                    b3:46:e9:57:93:28:79:d5:1b:56:fc:68:3e:ac:5c:
                    92:1b:12:ff:ab:42:78:09:95:f9:f0:ae:1f:fb:7d:
                    19:7c:fb:8b:1c:f0:60:77:8b:5b:52:ea:e7:8f:84:
                    f1:d8:0d
                Exponent: 65537 (0x10001)
        X509v3 extensions:
            Netscape Comment: 
                Certificat Serveur SSL
            X509v3 Subject Key Identifier: 
                F4:1C:A8:8A:8A:81:7F:B1:0A:08:08:6E:BD:7D:14:27:3B:8E:8A:1C
            X509v3 Authority Key Identifier: 
                keyid:1F:AF:74:D4:61:D2:39:20:7E:C2:D6:67:C2:59:66:BB:EA:26:0E:9F
                DirName:/C=fr/ST=idf/L=paris/O=vitam/OU=authorities/CN=ca_root_server
                serial:01:0C

            X509v3 Issuer Alternative Name: 
                <EMPTY>

            X509v3 Subject Alternative Name: 
                DNS:ihm-recette.service.consul, DNS:localhost, DNS:ihm-recette.service.local.consul
            X509v3 Basic Constraints: critical
                CA:FALSE
            X509v3 Key Usage: 
                Digital Signature, Key Encipherment
            Netscape Cert Type: 
                SSL Server
            X509v3 Extended Key Usage: 
                TLS Web Server Authentication
    Signature Algorithm: sha256WithRSAEncryption
         c4:99:70:c7:f2:c7:41:07:be:5f:3c:1b:fb:5f:f8:72:20:8f:
         c3:be:b7:fc:5b:ca:df:68:5a:c1:c0:dc:8e:05:9e:50:52:c1:
         c0:52:13:b0:b6:48:fd:28:26:42:b6:ca:91:3e:88:0c:c2:6b:
         52:c2:d4:77:f7:e6:59:41:70:0a:73:5f:4c:68:02:0f:b5:45:
         85:f3:fc:30:5d:5a:5a:6f:42:69:1b:9a:08:6c:da:68:7f:81:
         e6:25:35:5d:99:54:6a:a5:1c:38:09:13:a4:da:f1:79:6e:19:
         32:c0:3c:2d:55:a0:99:9c:e9:2c:bc:1c:14:fb:a0:fb:c8:9b:
         13:a6:b6:e4:02:a0:b6:5c:66:20:18:50:77:2c:b4:98:bc:75:
         63:27:03:f2:4c:e7:fe:2e:47:a5:e0:5d:e4:f0:02:e4:d5:aa:
         03:91:80:b5:75:87:e9:db:6e:73:d8:99:82:43:db:18:16:50:
         e4:76:38:9c:2b:6a:ea:67:27:e7:94:5d:24:ed:b2:42:fe:8d:
         59:55:d2:e5:a5:db:73:b1:7b:8b:7a:fb:34:d7:57:d0:e8:51:
         42:4b:7d:91:5b:dd:22:32:0a:a6:9a:b4:08:1a:1f:99:9f:8c:
         45:3e:1d:ed:ca:76:64:68:f9:0f:c2:99:d2:01:96:7b:c6:bd:
         69:ac:32:77:22:4d:dc:c8:e5:ba:b7:91:cb:4e:a0:31:28:fc:
         55:0b:ae:89:ae:e7:49:6a:35:09:d6:db:06:f2:80:74:a6:94:
         77:6d:5b:57:97:88:95:85:ee:da:c4:a4:69:ea:7a:f6:64:b7:
         df:4d:59:00:4c:0c:56:b8:4b:70:fc:5c:12:84:7f:f1:2c:02:
         b4:52:21:0e:20:ff:4f:97:2c:f9:f3:90:67:ac:a8:3e:ba:8e:
         55:ae:b5:64:d9:5c:2e:4f:2c:15:da:e2:28:ef:1e:6d:a2:25:
         52:78:08:df:2e:01:bd:1b:1b:86:2c:38:45:de:c7:bb:06:88:
         f4:05:12:13:55:b5:9d:cf:28:7b:a3:b8:8c:9d:0d:24:16:c3:
         13:66:2d:7b:01:26:2b:f6:f8:5c:06:8d:7a:74:c7:70:57:ae:
         8a:fe:04:bc:86:8d:ba:15:f0:15:ae:e9:64:56:91:06:08:a4:
         dc:86:94:8a:2a:5e:04:94:bb:62:2e:4c:8a:3c:70:88:a3:80:
         17:b5:75:24:c3:a9:93:3e:3a:a5:3b:7d:81:9f:d7:5e:38:3d:
         a5:b2:8e:a1:ea:50:52:7f:95:ea:fe:5e:f7:6e:1d:d6:a8:07:
         45:a9:d8:65:1d:e3:c5:c4:00:0c:8d:6f:00:b9:a1:53:2e:56:
         1a:fd:d8:07:aa:fd:5a:83
-----BEGIN CERTIFICATE-----
MIIG3DCCBMSgAwIBAgICARAwDQYJKoZIhvcNAQELBQAwcjELMAkGA1UEBhMCZnIx
DDAKBgNVBAgMA2lkZjEOMAwGA1UEBwwFcGFyaXMxDjAMBgNVBAoMBXZpdGFtMRQw
EgYDVQQLDAthdXRob3JpdGllczEfMB0GA1UEAwwWY2FfaW50ZXJtZWRpYXRlX3Nl
cnZlcjAgFw0yMDA5MTUxMzAxMDRaGA85OTk5MTIzMTIzNTk1OVowZjELMAkGA1UE
BhMCZnIxDDAKBgNVBAgMA2lkZjEOMAwGA1UEBwwFcGFyaXMxDjAMBgNVBAoMBXZp
dGFtMSkwJwYDVQQDDCBpaG0tcmVjZXR0ZS5zZXJ2aWNlLmxvY2FsLmNvbnN1bDCC
AiIwDQYJKoZIhvcNAQEBBQADggIPADCCAgoCggIBAMiOP6Jzd2/rnCLOL5gLLPih
kLpZLHPC4+wzGSHa3XevbItsHAyxcsyoy1lI1J9evwbL2fowlOc1cBtw9VqxwUZS
1Uvd6emjqjqjuVVBrKd1XHTxVz+a4VwfmP5eYL+0jpw8cMkFLiJxxCAb7PU0z5HS
/hVRyr+h7GG+6ANcNj16zdWUyxxVO4Uo4tqByy4DSYpBzSaqd/K9lIlPHuI/pQ98
K9CR3YntYTgMrLl8nS9l5v88LpKwzut0PYXznK+PlxriBZ3kDMDv1+murENBy1CE
Sal2gnDp+goZ4/MCnW3y35TlzdH2j0Ymj3bWI3b5HYq3pILb9KRhbMfIhJ1YQ4UW
hZ1G3iWFtjz5uGzKqCGCTbPH7HwFmLBHP/w4mZwlG0+HAyBEIQ0mUbDaZxJ49LYt
uj8i8nSrTi1ZfLkhNQNHBlMnytsXCybj6a/Qu2Nrow3TN6ckYCXid3XwDgfhZRNa
xGMSu50ySruGoJE97x+h0GMq3gZvnyihfaQUn8u/VH6CUT203Cvtvm/kEk3kuLnU
K6woS0cDP3opg+nlmTmAn+b/mX0LEGyCJXfX+xlEgXMv3trdNuZE+560Rk+4sFiv
XhmBGkhF6PSTvypIdDeas0bpV5MoedUbVvxoPqxckhsS/6tCeAmV+fCuH/t9GXz7
ixzwYHeLW1Lq54+E8dgNAgMBAAGjggGEMIIBgDAlBglghkgBhvhCAQ0EGBYWQ2Vy
dGlmaWNhdCBTZXJ2ZXVyIFNTTDAdBgNVHQ4EFgQU9ByoioqBf7EKCAhuvX0UJzuO
ihwwgZUGA1UdIwSBjTCBioAUH6901GHSOSB+wtZnwllmu+omDp+hbqRsMGoxCzAJ
BgNVBAYTAmZyMQwwCgYDVQQIDANpZGYxDjAMBgNVBAcMBXBhcmlzMQ4wDAYDVQQK
DAV2aXRhbTEUMBIGA1UECwwLYXV0aG9yaXRpZXMxFzAVBgNVBAMMDmNhX3Jvb3Rf
c2VydmVyggIBDDAJBgNVHRIEAjAAMFIGA1UdEQRLMEmCGmlobS1yZWNldHRlLnNl
cnZpY2UuY29uc3Vsgglsb2NhbGhvc3SCIGlobS1yZWNldHRlLnNlcnZpY2UubG9j
YWwuY29uc3VsMAwGA1UdEwEB/wQCMAAwCwYDVR0PBAQDAgWgMBEGCWCGSAGG+EIB
AQQEAwIGQDATBgNVHSUEDDAKBggrBgEFBQcDATANBgkqhkiG9w0BAQsFAAOCAgEA
xJlwx/LHQQe+Xzwb+1/4ciCPw763/FvK32hawcDcjgWeUFLBwFITsLZI/SgmQrbK
kT6IDMJrUsLUd/fmWUFwCnNfTGgCD7VFhfP8MF1aWm9CaRuaCGzaaH+B5iU1XZlU
aqUcOAkTpNrxeW4ZMsA8LVWgmZzpLLwcFPug+8ibE6a25AKgtlxmIBhQdyy0mLx1
YycD8kzn/i5HpeBd5PAC5NWqA5GAtXWH6dtuc9iZgkPbGBZQ5HY4nCtq6mcn55Rd
JO2yQv6NWVXS5aXbc7F7i3r7NNdX0OhRQkt9kVvdIjIKppq0CBofmZ+MRT4d7cp2
ZGj5D8KZ0gGWe8a9aawydyJN3MjlureRy06gMSj8VQuuia7nSWo1CdbbBvKAdKaU
d21bV5eIlYXu2sSkaep69mS3301ZAEwMVrhLcPxcEoR/8SwCtFIhDiD/T5cs+fOQ
Z6yoPrqOVa61ZNlcLk8sFdriKO8ebaIlUngI3y4BvRsbhiw4Rd7HuwaI9AUSE1W1
nc8oe6O4jJ0NJBbDE2YtewEmK/b4XAaNenTHcFeuiv4EvIaNuhXwFa7pZFaRBgik
3IaUiipeBJS7Yi5MijxwiKOAF7V1JMOpkz46pTt9gZ/XXjg9pbKOoepQUn+V6v5e
924d1qgHRanYZR3jxcQADI1vALmhUy5WGv3YB6r9WoM=
-----END CERTIFICATE-----
