Certificate:
    Data:
        Version: 3 (0x2)
        Serial Number: 288 (0x120)
        Signature Algorithm: sha256WithRSAEncryption
        Issuer: C=fr, ST=idf, L=paris, O=vitam, OU=authorities, CN=ca_intermediate_server
        Validity
            Not Before: Jan 12 16:12:50 2022 GMT
            Not After : Jan 11 16:12:50 2025 GMT
        Subject: C=fr, ST=idf, L=paris, O=vitam, CN=ihm-recette.service.fulllocal.consul
        Subject Public Key Info:
            Public Key Algorithm: rsaEncryption
                RSA Public-Key: (4096 bit)
                Modulus:
                    00:b7:0a:21:cd:b8:b7:36:78:84:83:17:94:3a:e6:
                    19:50:e6:74:ef:c0:00:2a:d5:f0:61:39:4a:d9:a0:
                    5a:81:03:87:f3:f5:5d:61:ee:ff:77:a7:1f:84:47:
                    da:29:8d:e5:f8:5d:19:ff:c3:97:b3:7b:9a:6d:05:
                    07:61:a2:1e:07:58:28:f1:b1:a7:37:e5:9d:50:02:
                    dd:58:f0:43:65:f4:ae:c9:04:fe:44:f3:bd:f3:6e:
                    77:36:d9:e8:f4:6c:b2:2b:05:ae:c8:f1:e6:48:83:
                    1f:49:dc:bc:1b:98:cd:ed:ce:b3:1a:d1:eb:d1:64:
                    a5:f7:27:28:26:5f:a9:ce:20:dc:93:6f:b0:08:37:
                    3e:91:2f:5d:69:43:4b:0c:77:f6:25:31:32:b7:6b:
                    13:3c:80:46:2f:be:d9:2f:23:9b:40:17:75:00:c5:
                    e0:6d:18:62:fa:2d:bf:00:60:0e:5e:0c:ac:85:e6:
                    de:50:2b:48:19:97:31:d8:45:da:9a:d7:d5:58:5e:
                    4a:76:89:4b:4a:06:a9:dd:9a:ee:9f:b2:de:63:2d:
                    b7:f3:cb:97:4f:d3:c6:4b:ef:89:5b:e1:2e:1c:53:
                    53:9b:b7:98:31:d7:0e:9b:63:86:56:fd:41:29:95:
                    31:d1:04:19:14:51:eb:af:65:05:89:f0:b3:e4:c1:
                    15:71:7c:83:85:39:27:8b:f6:00:4e:26:be:4e:69:
                    d8:ce:56:ce:3b:a4:b0:f2:14:07:9b:eb:20:5b:49:
                    f1:7c:3c:14:0c:5c:06:24:98:1b:41:41:c7:b0:c2:
                    e4:04:59:cf:b5:ec:23:9a:31:1c:da:42:34:cd:2d:
                    d2:06:eb:3f:41:1d:e9:7f:c2:6b:bf:a3:da:d9:66:
                    49:83:36:02:65:75:f6:74:69:a6:88:79:0a:dd:05:
                    29:c8:9c:01:2f:bd:c7:f0:b1:7c:b4:69:7c:51:eb:
                    4f:14:b1:f7:55:44:4e:a0:81:3d:20:42:eb:79:55:
                    af:40:a3:8f:47:fd:6c:a6:92:ad:3a:00:4a:4f:e2:
                    e3:ca:d8:1d:96:56:16:fe:13:fe:b2:0d:52:a0:2a:
                    df:40:1b:c0:d4:19:3c:a5:45:75:23:5d:4b:7c:95:
                    14:11:6e:18:6e:a3:e4:49:8e:a9:a8:77:f3:df:c5:
                    38:82:c0:30:ce:ed:b3:18:9d:af:b8:9c:df:e8:77:
                    47:d3:0b:d7:f2:2f:f9:53:fe:56:12:92:e0:41:24:
                    60:6c:e2:33:1d:45:ff:02:d0:08:88:8c:01:44:2b:
                    40:47:2b:70:38:9d:f9:26:5f:d6:33:1b:83:a1:95:
                    08:8d:bd:6c:6e:d0:28:eb:cd:42:db:7f:ea:66:ba:
                    b1:fc:b5
                Exponent: 65537 (0x10001)
        X509v3 extensions:
            Netscape Comment: 
                Certificat Serveur SSL
            X509v3 Subject Key Identifier: 
                A2:C5:41:4A:60:1B:DE:64:59:55:7D:3C:BD:80:4B:7E:39:C3:7C:AA
            X509v3 Authority Key Identifier: 
                keyid:1F:AF:74:D4:61:D2:39:20:7E:C2:D6:67:C2:59:66:BB:EA:26:0E:9F
                DirName:/C=fr/ST=idf/L=paris/O=vitam/OU=authorities/CN=ca_root_server
                serial:01:0C

            X509v3 Issuer Alternative Name: 
                <EMPTY>

            X509v3 Subject Alternative Name: 
                DNS:ihm-recette.service.consul, DNS:localhost, DNS:ihm-recette.service.fulllocal.consul
            X509v3 Basic Constraints: critical
                CA:FALSE
            X509v3 Key Usage: 
                Digital Signature, Key Encipherment
            Netscape Cert Type: 
                SSL Server
            X509v3 Extended Key Usage: 
                TLS Web Server Authentication
    Signature Algorithm: sha256WithRSAEncryption
         05:79:2d:7d:93:08:31:09:5b:43:43:49:c1:25:2e:ed:c0:2a:
         6d:d5:96:4c:a6:4c:df:25:22:eb:45:43:a1:10:70:d5:24:68:
         77:85:e2:d7:54:a8:0a:9e:d4:46:5f:bb:0c:2e:3e:75:65:30:
         cc:e2:8c:aa:2b:fa:5e:4c:13:81:8e:ee:9b:60:5e:ab:97:8a:
         ac:fa:a3:9d:dd:c8:48:5e:84:4f:47:d6:ff:bc:18:5d:26:c0:
         37:64:05:4d:fd:b1:ba:14:25:92:45:1e:f7:2a:c1:f8:30:62:
         f1:02:22:b7:f2:e5:a1:e6:d2:2d:e3:ac:5b:95:8e:5b:a7:a0:
         9a:fb:68:3f:9f:59:8f:f8:49:c2:6d:e3:50:37:ae:19:cd:c1:
         a1:76:bf:db:e0:77:1e:84:1e:1b:19:9e:2a:56:8d:36:06:27:
         c2:01:97:c6:85:5b:25:ef:1e:e4:4c:b5:08:7d:cc:3e:de:13:
         e7:b8:dc:8a:dd:97:4b:47:45:45:fa:8c:f4:c8:58:3a:66:a2:
         13:b2:c7:64:0e:11:2a:88:6b:63:a9:fa:6f:47:06:96:30:6a:
         0a:88:97:9c:d5:45:f0:0a:5e:44:2f:98:e0:1a:be:f5:eb:65:
         83:2a:da:8f:a4:e3:f1:35:8e:b9:fb:1d:28:ab:61:b2:95:85:
         9f:36:3e:70:b9:85:4d:fe:c1:f8:5e:83:d8:b5:6d:37:2e:80:
         99:76:8c:a8:8a:0e:bd:cb:e4:2d:04:cd:76:06:12:6a:b3:d8:
         49:32:c1:92:76:75:af:6c:be:ce:6e:28:e0:8e:74:ad:f2:4d:
         06:b5:12:04:f3:e9:b0:b0:da:ed:a1:90:5b:2e:31:3b:05:8f:
         49:34:69:d2:c9:59:46:52:c7:82:44:e5:06:3f:5b:ac:f8:c7:
         ee:c0:2c:29:d5:d3:b8:be:e4:de:ce:8d:fa:1a:95:e2:69:43:
         eb:b0:b6:d8:1b:a5:6e:a0:6a:cf:09:45:ae:b9:f2:ba:5b:eb:
         cc:37:b8:4e:e9:33:d5:7a:c0:9d:cc:b0:40:f4:ef:40:68:40:
         e4:a8:6b:78:a5:ae:3f:5f:eb:26:78:39:73:3a:58:f3:d9:07:
         60:bf:3b:25:5d:63:5a:d0:1d:3e:31:55:5f:f5:1b:fe:83:94:
         37:1e:d7:49:46:ef:89:de:87:fb:49:5f:7a:6d:a0:18:7e:a3:
         f6:25:dd:0d:98:4f:0a:df:70:2b:a1:b3:68:49:12:01:28:71:
         3b:e4:a7:f8:f2:d7:7d:0f:3e:0a:4c:2a:91:61:23:06:2c:bc:
         d0:51:4e:08:60:66:2f:86:9e:95:9f:ce:b5:af:e0:88:8a:b8:
         33:03:be:34:60:5d:4a:33
-----BEGIN CERTIFICATE-----
MIIG4jCCBMqgAwIBAgICASAwDQYJKoZIhvcNAQELBQAwcjELMAkGA1UEBhMCZnIx
DDAKBgNVBAgMA2lkZjEOMAwGA1UEBwwFcGFyaXMxDjAMBgNVBAoMBXZpdGFtMRQw
EgYDVQQLDAthdXRob3JpdGllczEfMB0GA1UEAwwWY2FfaW50ZXJtZWRpYXRlX3Nl
cnZlcjAeFw0yMjAxMTIxNjEyNTBaFw0yNTAxMTExNjEyNTBaMGoxCzAJBgNVBAYT
AmZyMQwwCgYDVQQIDANpZGYxDjAMBgNVBAcMBXBhcmlzMQ4wDAYDVQQKDAV2aXRh
bTEtMCsGA1UEAwwkaWhtLXJlY2V0dGUuc2VydmljZS5mdWxsbG9jYWwuY29uc3Vs
MIICIjANBgkqhkiG9w0BAQEFAAOCAg8AMIICCgKCAgEAtwohzbi3NniEgxeUOuYZ
UOZ078AAKtXwYTlK2aBagQOH8/VdYe7/d6cfhEfaKY3l+F0Z/8OXs3uabQUHYaIe
B1go8bGnN+WdUALdWPBDZfSuyQT+RPO98253Ntno9GyyKwWuyPHmSIMfSdy8G5jN
7c6zGtHr0WSl9ycoJl+pziDck2+wCDc+kS9daUNLDHf2JTEyt2sTPIBGL77ZLyOb
QBd1AMXgbRhi+i2/AGAOXgyshebeUCtIGZcx2EXamtfVWF5KdolLSgap3Zrun7Le
Yy2388uXT9PGS++JW+EuHFNTm7eYMdcOm2OGVv1BKZUx0QQZFFHrr2UFifCz5MEV
cXyDhTkni/YATia+TmnYzlbOO6Sw8hQHm+sgW0nxfDwUDFwGJJgbQUHHsMLkBFnP
tewjmjEc2kI0zS3SBus/QR3pf8Jrv6Pa2WZJgzYCZXX2dGmmiHkK3QUpyJwBL73H
8LF8tGl8UetPFLH3VUROoIE9IELreVWvQKOPR/1sppKtOgBKT+LjytgdllYW/hP+
sg1SoCrfQBvA1Bk8pUV1I11LfJUUEW4YbqPkSY6pqHfz38U4gsAwzu2zGJ2vuJzf
6HdH0wvX8i/5U/5WEpLgQSRgbOIzHUX/AtAIiIwBRCtARytwOJ35Jl/WMxuDoZUI
jb1sbtAo681C23/qZrqx/LUCAwEAAaOCAYgwggGEMCUGCWCGSAGG+EIBDQQYFhZD
ZXJ0aWZpY2F0IFNlcnZldXIgU1NMMB0GA1UdDgQWBBSixUFKYBveZFlVfTy9gEt+
OcN8qjCBlQYDVR0jBIGNMIGKgBQfr3TUYdI5IH7C1mfCWWa76iYOn6FupGwwajEL
MAkGA1UEBhMCZnIxDDAKBgNVBAgMA2lkZjEOMAwGA1UEBwwFcGFyaXMxDjAMBgNV
BAoMBXZpdGFtMRQwEgYDVQQLDAthdXRob3JpdGllczEXMBUGA1UEAwwOY2Ffcm9v
dF9zZXJ2ZXKCAgEMMAkGA1UdEgQCMAAwVgYDVR0RBE8wTYIaaWhtLXJlY2V0dGUu
c2VydmljZS5jb25zdWyCCWxvY2FsaG9zdIIkaWhtLXJlY2V0dGUuc2VydmljZS5m
dWxsbG9jYWwuY29uc3VsMAwGA1UdEwEB/wQCMAAwCwYDVR0PBAQDAgWgMBEGCWCG
SAGG+EIBAQQEAwIGQDATBgNVHSUEDDAKBggrBgEFBQcDATANBgkqhkiG9w0BAQsF
AAOCAgEABXktfZMIMQlbQ0NJwSUu7cAqbdWWTKZM3yUi60VDoRBw1SRod4Xi11So
Cp7URl+7DC4+dWUwzOKMqiv6XkwTgY7um2Beq5eKrPqjnd3ISF6ET0fW/7wYXSbA
N2QFTf2xuhQlkkUe9yrB+DBi8QIit/LloebSLeOsW5WOW6egmvtoP59Zj/hJwm3j
UDeuGc3BoXa/2+B3HoQeGxmeKlaNNgYnwgGXxoVbJe8e5Ey1CH3MPt4T57jcit2X
S0dFRfqM9MhYOmaiE7LHZA4RKohrY6n6b0cGljBqCoiXnNVF8ApeRC+Y4Bq+9etl
gyraj6Tj8TWOufsdKKthspWFnzY+cLmFTf7B+F6D2LVtNy6AmXaMqIoOvcvkLQTN
dgYSarPYSTLBknZ1r2y+zm4o4I50rfJNBrUSBPPpsLDa7aGQWy4xOwWPSTRp0slZ
RlLHgkTlBj9brPjH7sAsKdXTuL7k3s6N+hqV4mlD67C22BulbqBqzwlFrrnyulvr
zDe4Tukz1XrAncywQPTvQGhA5KhreKWuP1/rJng5czpY89kHYL87JV1jWtAdPjFV
X/Ub/oOUNx7XSUbvid6H+0lfem2gGH6j9iXdDZhPCt9wK6GzaEkSAShxO+Sn+PLX
fQ8+CkwqkWEjBiy80FFOCGBmL4aelZ/Ota/giIq4MwO+NGBdSjM=
-----END CERTIFICATE-----
