Certificate:
    Data:
        Version: 3 (0x2)
        Serial Number: 217 (0xd9)
    Signature Algorithm: sha256WithRSAEncryption
        Issuer: C=fr, ST=idf, L=paris, O=vitam, OU=authorities, CN=ca_intermediate_server
        Validity
            Not Before: Dec 21 16:21:51 2017 GMT
            Not After : Dec 20 16:21:51 2020 GMT
        Subject: C=fr, ST=idf, L=paris, O=vitam, CN=ihm-demo.service.consul
        Subject Public Key Info:
            Public Key Algorithm: rsaEncryption
                Public-Key: (4096 bit)
                Modulus:
                    00:dc:89:ee:d6:9b:e6:6f:d5:13:3d:42:2e:8e:38:
                    9c:af:53:68:24:f4:8a:39:86:d6:40:89:b0:72:f8:
                    57:53:a5:f3:e0:10:19:db:ed:c9:48:9f:cf:da:38:
                    84:f7:89:53:af:e0:29:a6:85:94:ee:84:0d:c8:6e:
                    31:34:7e:59:9b:7e:81:ca:a5:ee:95:92:03:08:e1:
                    98:89:fa:f1:37:54:57:01:28:8f:b9:7f:ad:e9:99:
                    fc:9c:5f:00:25:1d:d3:47:53:7c:d3:89:b6:86:bb:
                    84:2d:18:ab:8b:0a:ee:70:b3:bc:f5:f0:75:19:b2:
                    b0:59:36:47:38:2b:46:5c:33:61:88:25:18:08:5b:
                    45:83:a5:2f:6b:7a:aa:2e:ba:88:c1:71:b3:18:9a:
                    0b:59:7f:9b:e6:8a:57:f0:18:ea:92:1d:38:94:19:
                    9b:64:d6:13:be:11:f5:d2:1c:43:84:ea:e5:e0:3e:
                    96:16:64:b9:16:2c:70:66:5a:4f:35:ce:14:b9:cf:
                    d5:a3:2f:f7:a4:ce:47:11:4a:b5:41:f5:81:8d:3c:
                    90:b7:8e:1f:9b:3a:b4:ed:76:47:c1:fd:57:17:e4:
                    b9:51:9b:1c:4b:51:2c:8a:93:5b:01:67:ac:ea:5f:
                    b7:e7:17:25:05:38:0f:1e:ff:0f:8d:2f:97:2d:b2:
                    7e:22:ad:fa:25:3c:fe:7e:df:41:85:fc:58:0b:b9:
                    ae:23:4b:ea:4c:4b:f6:d8:f5:ab:6d:02:68:ef:1b:
                    e7:df:67:06:d0:9e:bc:73:b4:e6:53:db:51:d1:70:
                    00:16:9e:45:1b:33:f4:2c:d1:bb:3d:4d:de:e9:3d:
                    ca:6d:81:e8:90:1a:52:d4:a0:ba:8e:fd:ac:b0:d2:
                    71:1c:90:6a:20:94:86:85:5b:43:b8:03:d5:3f:b5:
                    c8:40:61:a1:73:48:5a:4e:78:83:66:39:0e:29:f6:
                    40:65:0d:6e:8a:70:7c:58:66:d4:30:f2:6e:ea:31:
                    65:67:c1:76:0e:b2:e4:59:5d:9f:c6:88:7f:ae:81:
                    67:33:87:fa:45:3c:96:94:56:5d:87:bb:bb:18:80:
                    cb:4e:23:dd:83:04:8f:22:92:1d:16:35:3c:0c:66:
                    4e:a6:71:5b:18:5a:ff:e0:ac:ba:a1:fe:42:5e:7e:
                    71:ab:20:2e:70:1e:b8:82:9e:60:85:90:1c:1c:05:
                    7c:82:ac:12:38:34:21:40:67:da:9f:41:8e:f6:40:
                    13:82:33:26:45:a8:06:0f:90:89:42:92:0e:cd:d5:
                    17:69:2b:53:c0:e4:be:d9:fc:54:cc:db:68:f3:63:
                    12:82:21:50:32:4f:d5:cb:c1:87:b1:16:92:ec:1d:
                    16:76:69
                Exponent: 65537 (0x10001)
        X509v3 extensions:
            Netscape Comment: 
                Certificat Serveur SSL
            X509v3 Subject Key Identifier: 
                1B:AC:87:2A:8B:E7:73:76:F8:72:F1:A7:A7:EE:8E:C9:26:B3:BF:8E
            X509v3 Authority Key Identifier: 
                keyid:FD:29:CE:50:34:CD:B5:E2:30:E7:12:67:BA:2C:7D:5B:E0:D5:F2:2C
                DirName:/C=fr/ST=idf/L=paris/O=vitam/OU=authorities/CN=ca_root_server
                serial:D3

            X509v3 Issuer Alternative Name: 
                <EMPTY>

            X509v3 Subject Alternative Name: 
                DNS:ihm-demo.service.consul, DNS:localhost
            X509v3 Basic Constraints: critical
                CA:FALSE
            X509v3 Key Usage: 
                Digital Signature, Non Repudiation, Key Encipherment
            Netscape Cert Type: 
                SSL Server
            X509v3 Extended Key Usage: 
                TLS Web Server Authentication
    Signature Algorithm: sha256WithRSAEncryption
         38:10:ae:9c:7a:da:72:8d:34:2b:75:83:9f:75:9e:e2:39:21:
         cf:f0:cb:f1:10:f7:f1:af:01:a1:59:75:63:e8:ab:67:59:98:
         24:11:f0:4a:fe:ae:4d:3b:6f:19:40:fd:75:8e:18:2b:36:a9:
         92:5a:58:35:57:28:b0:a7:f6:f7:ef:41:56:4a:01:00:0b:f7:
         f0:3a:00:2e:38:7a:0e:bf:e2:a0:51:f7:1f:33:de:26:9a:30:
         a1:fa:58:a4:d8:4f:cc:d2:01:19:67:04:96:4b:57:45:a6:23:
         84:21:22:97:8c:d4:b0:a8:a3:fb:ee:0b:07:26:2a:17:0e:8a:
         62:25:e9:73:12:87:8e:72:0d:70:c9:3f:3e:df:ee:9a:48:97:
         35:53:34:3e:f2:9f:06:bf:1e:0e:85:42:87:85:2e:ad:81:33:
         68:7f:44:7a:d9:4d:d4:78:c0:28:19:2e:10:7a:2f:2f:b6:71:
         19:eb:13:66:e2:f8:82:9a:53:65:97:35:f4:0b:e2:eb:d0:6f:
         68:f2:5d:ab:88:7b:2f:f3:7f:d8:eb:1d:58:19:43:6e:af:5a:
         ab:23:d0:1c:ea:72:53:02:d2:98:5d:4f:e6:5c:c5:6e:ad:89:
         4e:41:77:37:5b:6f:d8:5b:7e:ed:a3:fb:3d:03:a4:5b:fe:2e:
         ab:c5:9a:3d:ee:a9:f7:53:bf:d3:66:54:19:da:7b:b5:0b:26:
         da:2c:82:e8:a1:cf:9a:b8:7c:ab:ea:f5:0d:47:0c:a9:13:c0:
         ad:3b:eb:fa:ea:5b:b2:e6:8b:a1:47:7f:55:b2:ca:79:e9:fe:
         e2:de:d3:30:db:e0:29:83:aa:ec:40:44:26:10:12:60:81:ce:
         9d:c8:be:8d:8e:5e:23:c8:24:5b:e3:61:51:9f:7e:f8:d3:46:
         04:2e:96:51:03:01:9d:ff:17:28:7e:ca:06:e5:4e:a0:4f:f8:
         9c:75:5f:82:2e:36:02:25:76:56:ee:2b:21:02:f2:2e:23:ca:
         37:e4:ac:9e:da:96:91:10:aa:3c:79:19:f0:de:de:9b:7d:3c:
         d1:01:f1:a2:53:95:f0:aa:32:79:8d:c5:7b:59:77:ae:17:5a:
         b8:3a:aa:05:51:bf:1c:79:0f:4c:f6:64:66:64:78:29:00:6f:
         b8:b1:d2:52:66:f3:61:46:45:e2:d7:01:dd:b3:51:1e:5f:75:
         f5:17:d8:c3:9a:7a:97:c6:f9:0d:36:44:84:a1:ea:20:62:5d:
         9f:88:fb:38:04:a7:c7:1f:eb:1e:75:0e:22:1f:4a:12:a9:cb:
         d6:1c:07:2b:19:11:3a:e3:c1:97:fe:66:3b:d5:ff:04:48:58:
         2b:50:ae:02:a1:7a:0d:35
-----BEGIN CERTIFICATE-----
MIIGrDCCBJSgAwIBAgICANkwDQYJKoZIhvcNAQELBQAwcjELMAkGA1UEBhMCZnIx
DDAKBgNVBAgMA2lkZjEOMAwGA1UEBwwFcGFyaXMxDjAMBgNVBAoMBXZpdGFtMRQw
EgYDVQQLDAthdXRob3JpdGllczEfMB0GA1UEAwwWY2FfaW50ZXJtZWRpYXRlX3Nl
cnZlcjAeFw0xNzEyMjExNjIxNTFaFw0yMDEyMjAxNjIxNTFaMF0xCzAJBgNVBAYT
AmZyMQwwCgYDVQQIDANpZGYxDjAMBgNVBAcMBXBhcmlzMQ4wDAYDVQQKDAV2aXRh
bTEgMB4GA1UEAwwXaWhtLWRlbW8uc2VydmljZS5jb25zdWwwggIiMA0GCSqGSIb3
DQEBAQUAA4ICDwAwggIKAoICAQDcie7Wm+Zv1RM9Qi6OOJyvU2gk9Io5htZAibBy
+FdTpfPgEBnb7clIn8/aOIT3iVOv4CmmhZTuhA3IbjE0flmbfoHKpe6VkgMI4ZiJ
+vE3VFcBKI+5f63pmfycXwAlHdNHU3zTibaGu4QtGKuLCu5ws7z18HUZsrBZNkc4
K0ZcM2GIJRgIW0WDpS9reqouuojBcbMYmgtZf5vmilfwGOqSHTiUGZtk1hO+EfXS
HEOE6uXgPpYWZLkWLHBmWk81zhS5z9WjL/ekzkcRSrVB9YGNPJC3jh+bOrTtdkfB
/VcX5LlRmxxLUSyKk1sBZ6zqX7fnFyUFOA8e/w+NL5ctsn4irfolPP5+30GF/FgL
ua4jS+pMS/bY9attAmjvG+ffZwbQnrxztOZT21HRcAAWnkUbM/Qs0bs9Td7pPcpt
geiQGlLUoLqO/ayw0nEckGoglIaFW0O4A9U/tchAYaFzSFpOeINmOQ4p9kBlDW6K
cHxYZtQw8m7qMWVnwXYOsuRZXZ/GiH+ugWczh/pFPJaUVl2Hu7sYgMtOI92DBI8i
kh0WNTwMZk6mcVsYWv/grLqh/kJefnGrIC5wHriCnmCFkBwcBXyCrBI4NCFAZ9qf
QY72QBOCMyZFqAYPkIlCkg7N1RdpK1PA5L7Z/FTM22jzYxKCIVAyT9XLwYexFpLs
HRZ2aQIDAQABo4IBXzCCAVswJQYJYIZIAYb4QgENBBgWFkNlcnRpZmljYXQgU2Vy
dmV1ciBTU0wwHQYDVR0OBBYEFBushyqL53N2+HLxp6fujskms7+OMIGVBgNVHSME
gY0wgYqAFP0pzlA0zbXiMOcSZ7osfVvg1fIsoW6kbDBqMQswCQYDVQQGEwJmcjEM
MAoGA1UECAwDaWRmMQ4wDAYDVQQHDAVwYXJpczEOMAwGA1UECgwFdml0YW0xFDAS
BgNVBAsMC2F1dGhvcml0aWVzMRcwFQYDVQQDDA5jYV9yb290X3NlcnZlcoICANMw
CQYDVR0SBAIwADAtBgNVHREEJjAkghdpaG0tZGVtby5zZXJ2aWNlLmNvbnN1bIIJ
bG9jYWxob3N0MAwGA1UdEwEB/wQCMAAwCwYDVR0PBAQDAgXgMBEGCWCGSAGG+EIB
AQQEAwIGQDATBgNVHSUEDDAKBggrBgEFBQcDATANBgkqhkiG9w0BAQsFAAOCAgEA
OBCunHraco00K3WDn3We4jkhz/DL8RD38a8BoVl1Y+irZ1mYJBHwSv6uTTtvGUD9
dY4YKzapklpYNVcosKf29+9BVkoBAAv38DoALjh6Dr/ioFH3HzPeJpowofpYpNhP
zNIBGWcElktXRaYjhCEil4zUsKij++4LByYqFw6KYiXpcxKHjnINcMk/Pt/umkiX
NVM0PvKfBr8eDoVCh4UurYEzaH9EetlN1HjAKBkuEHovL7ZxGesTZuL4gppTZZc1
9Avi69BvaPJdq4h7L/N/2OsdWBlDbq9aqyPQHOpyUwLSmF1P5lzFbq2JTkF3N1tv
2Ft+7aP7PQOkW/4uq8WaPe6p91O/02ZUGdp7tQsm2iyC6KHPmrh8q+r1DUcMqRPA
rTvr+upbsuaLoUd/VbLKeen+4t7TMNvgKYOq7EBEJhASYIHOnci+jY5eI8gkW+Nh
UZ9++NNGBC6WUQMBnf8XKH7KBuVOoE/4nHVfgi42AiV2Vu4rIQLyLiPKN+SsntqW
kRCqPHkZ8N7em3080QHxolOV8KoyeY3Fe1l3rhdauDqqBVG/HHkPTPZkZmR4KQBv
uLHSUmbzYUZF4tcB3bNRHl919RfYw5p6l8b5DTZEhKHqIGJdn4j7OASnxx/rHnUO
Ih9KEqnL1hwHKxkROuPBl/5mO9X/BEhYK1CuAqF6DTU=
-----END CERTIFICATE-----
