Certificate:
    Data:
        Version: 3 (0x2)
        Serial Number: 282 (0x11a)
        Signature Algorithm: sha256WithRSAEncryption
        Issuer: C=fr, ST=idf, L=paris, O=vitam, OU=authorities, CN=ca_intermediate_server
        Validity
            Not Before: Nov 10 14:35:42 2021 GMT
            Not After : Nov  9 14:35:42 2024 GMT
        Subject: C=fr, ST=idf, L=paris, O=vitam, CN=ihm-recette.service.fulllocal.consul
        Subject Public Key Info:
            Public Key Algorithm: rsaEncryption
                RSA Public-Key: (4096 bit)
                Modulus:
                    00:b9:6b:03:29:59:99:64:10:af:5c:c8:6f:df:47:
                    49:46:9d:ea:a0:a7:9a:ef:01:8a:85:eb:12:2b:af:
                    6b:f2:c1:5c:74:4d:29:97:ed:7f:00:3e:c5:f7:ec:
                    b1:c6:fd:e6:0f:37:21:47:df:30:a4:7f:9b:de:bb:
                    04:f9:01:ba:7b:1e:2d:31:3f:5e:44:85:16:03:8b:
                    a5:fa:10:48:72:84:ea:1f:a5:88:0d:34:d5:c7:b9:
                    54:0e:64:90:5d:17:89:91:a5:63:b4:38:bb:43:1f:
                    29:75:e9:b5:e1:e2:f8:d0:10:b5:84:12:b4:5f:ab:
                    c5:7e:b1:10:26:b3:de:fe:60:0f:80:e5:09:ea:8b:
                    e6:3f:da:20:ac:dd:d2:b0:fa:8f:0c:77:d1:06:81:
                    4e:73:e0:b6:23:87:43:cf:d7:d1:20:fe:e8:ea:13:
                    1f:1a:5b:b2:22:5f:1a:a7:5e:5a:a5:af:ac:95:1d:
                    0d:8d:1c:af:37:d3:ae:ef:06:db:a1:11:f2:bf:f4:
                    fc:73:bf:94:c6:54:bf:a7:09:bf:3f:09:dc:e8:be:
                    fd:2e:06:24:62:2a:84:43:d0:d6:cf:5e:25:ec:80:
                    b0:3a:2e:44:69:76:98:f9:19:99:cd:e6:77:29:df:
                    66:98:93:90:62:e4:98:9e:25:15:5a:8e:fb:c0:48:
                    e6:12:61:43:5d:d8:2c:63:f5:64:c9:6c:3a:0a:54:
                    35:d6:a3:24:51:c3:ce:7b:a9:f9:10:cb:9a:e2:b2:
                    94:ce:20:d3:26:87:43:47:a4:6e:07:d8:1c:47:97:
                    c2:9e:b8:78:76:5a:9d:eb:09:25:8e:65:ab:2e:26:
                    f4:ea:3c:c6:0f:28:8c:0d:b3:85:ef:19:6c:5e:db:
                    8f:f5:fe:8b:dd:9a:46:16:62:b6:eb:dd:fb:ff:c0:
                    c7:61:ff:f5:f0:ed:58:55:8b:d3:07:3a:51:91:0c:
                    65:b3:bb:99:0d:88:f2:28:d3:c6:32:44:26:8b:de:
                    27:8c:28:73:84:40:1b:c2:6f:47:9f:ef:81:b5:b6:
                    81:24:eb:aa:d1:49:b8:75:12:8e:27:00:28:89:ae:
                    84:7d:99:c7:c5:e6:c1:86:e1:ca:40:4e:91:17:30:
                    f9:91:37:06:c8:fb:49:e2:c3:62:cf:8d:ef:a6:d1:
                    20:17:0a:58:a1:e2:67:fa:e9:50:06:15:0d:c4:21:
                    3a:f1:95:b3:e2:67:cd:fb:9e:42:13:01:ae:75:c1:
                    f6:7e:32:15:cb:9e:b8:16:36:71:01:43:68:33:70:
                    cf:92:df:89:75:af:2a:1c:7c:5d:36:28:6e:b0:ee:
                    71:cd:41:7c:a7:bf:4c:f9:16:8c:52:de:2b:ca:bb:
                    91:6b:67
                Exponent: 65537 (0x10001)
        X509v3 extensions:
            Netscape Comment: 
                Certificat Serveur SSL
            X509v3 Subject Key Identifier: 
                AA:92:41:18:13:91:4D:F5:1D:ED:E2:8F:BB:91:E5:82:EE:D4:52:6D
            X509v3 Authority Key Identifier: 
                keyid:1F:AF:74:D4:61:D2:39:20:7E:C2:D6:67:C2:59:66:BB:EA:26:0E:9F
                DirName:/C=fr/ST=idf/L=paris/O=vitam/OU=authorities/CN=ca_root_server
                serial:01:0C

            X509v3 Issuer Alternative Name: 
                <EMPTY>

            X509v3 Subject Alternative Name: 
                DNS:ihm-recette.service.consul, DNS:localhost, DNS:ihm-recette.service.fulllocal.consul
            X509v3 Basic Constraints: critical
                CA:FALSE
            X509v3 Key Usage: 
                Digital Signature, Key Encipherment
            Netscape Cert Type: 
                SSL Server
            X509v3 Extended Key Usage: 
                TLS Web Server Authentication
    Signature Algorithm: sha256WithRSAEncryption
         3a:01:1f:fe:16:b7:5d:08:56:d2:78:5e:98:69:a1:a6:f3:c0:
         61:d6:51:d6:70:d0:0c:de:40:89:46:9a:2f:32:b1:fb:2e:66:
         f8:44:4f:15:a5:5a:45:b5:12:94:85:d0:37:6b:11:e0:f8:5a:
         f5:fb:15:8a:16:18:67:f4:81:75:10:ef:5a:fe:66:9a:e0:c3:
         8a:af:24:48:20:e0:df:fb:cd:3e:7e:7b:d9:36:e1:a8:3d:6c:
         9d:9c:1a:7a:e8:81:a2:1c:37:27:34:eb:55:a0:2a:a9:ff:9a:
         bd:6c:9c:b6:b9:a1:56:c3:43:7d:92:5e:e9:b6:27:81:04:3d:
         02:3d:14:62:ec:53:ac:6c:96:96:c0:19:fb:91:de:80:aa:36:
         28:c2:60:9e:be:2c:90:0a:cd:0f:0b:eb:30:c1:5c:6e:12:49:
         1e:a0:01:2f:c3:30:69:47:d8:fa:fd:9d:3d:9b:bd:72:6d:2f:
         ec:0e:1c:d6:ec:f3:df:1c:61:ad:76:1b:e3:03:85:bc:dd:c7:
         ed:77:a8:03:c3:73:3c:3e:ab:43:e6:35:bd:f2:c1:24:ca:74:
         45:d9:16:5a:c1:fd:1e:5a:06:fd:fc:6a:c5:97:18:15:fb:f1:
         f2:85:98:d9:78:64:33:cc:4f:e8:00:04:db:b6:42:92:f3:de:
         ab:f4:04:d1:e1:b1:c3:93:9b:c1:56:c8:27:dd:4f:89:d9:d3:
         b2:91:7e:cd:63:8c:94:81:6e:83:9a:31:cd:45:fc:f7:d7:fd:
         d4:ca:66:3c:71:62:20:b0:11:31:82:51:50:00:79:d4:49:a0:
         4b:69:6e:25:ed:0e:8c:0d:20:04:83:48:9a:a0:c1:d3:9f:47:
         95:38:32:08:49:7c:43:54:83:41:a1:ce:d3:88:c8:d2:9f:c9:
         14:b9:d2:c0:96:b5:83:04:06:31:c0:1c:6d:ff:24:ce:e9:d9:
         f7:45:4f:80:34:09:95:f1:05:e8:fc:7a:b7:53:aa:eb:dc:9c:
         45:c8:f2:32:4a:55:95:da:22:f2:a0:10:0b:7e:3e:af:67:df:
         c5:1f:1a:3f:49:0b:f7:f7:e5:dd:55:c9:c7:64:f4:ce:3e:83:
         02:64:64:e6:f8:bd:67:60:1a:ad:ab:18:e8:cb:fb:31:ce:d5:
         1a:26:e3:44:a1:e0:2b:f6:5f:f9:57:db:4e:6c:0b:80:50:d6:
         c1:80:01:7b:9e:bf:b1:87:12:b5:4f:c7:90:c8:2e:a4:46:76:
         1c:65:2b:1c:2b:4d:9a:de:0f:f8:e0:32:2e:6e:d5:17:1c:8e:
         c5:e6:33:3e:bb:e3:54:27:91:7e:3b:f4:ee:27:82:58:0d:ed:
         75:f2:7b:a4:24:de:37:3a
-----BEGIN CERTIFICATE-----
MIIG4jCCBMqgAwIBAgICARowDQYJKoZIhvcNAQELBQAwcjELMAkGA1UEBhMCZnIx
DDAKBgNVBAgMA2lkZjEOMAwGA1UEBwwFcGFyaXMxDjAMBgNVBAoMBXZpdGFtMRQw
EgYDVQQLDAthdXRob3JpdGllczEfMB0GA1UEAwwWY2FfaW50ZXJtZWRpYXRlX3Nl
cnZlcjAeFw0yMTExMTAxNDM1NDJaFw0yNDExMDkxNDM1NDJaMGoxCzAJBgNVBAYT
AmZyMQwwCgYDVQQIDANpZGYxDjAMBgNVBAcMBXBhcmlzMQ4wDAYDVQQKDAV2aXRh
bTEtMCsGA1UEAwwkaWhtLXJlY2V0dGUuc2VydmljZS5mdWxsbG9jYWwuY29uc3Vs
MIICIjANBgkqhkiG9w0BAQEFAAOCAg8AMIICCgKCAgEAuWsDKVmZZBCvXMhv30dJ
Rp3qoKea7wGKhesSK69r8sFcdE0pl+1/AD7F9+yxxv3mDzchR98wpH+b3rsE+QG6
ex4tMT9eRIUWA4ul+hBIcoTqH6WIDTTVx7lUDmSQXReJkaVjtDi7Qx8pdem14eL4
0BC1hBK0X6vFfrEQJrPe/mAPgOUJ6ovmP9ogrN3SsPqPDHfRBoFOc+C2I4dDz9fR
IP7o6hMfGluyIl8ap15apa+slR0NjRyvN9Ou7wbboRHyv/T8c7+UxlS/pwm/Pwnc
6L79LgYkYiqEQ9DWz14l7ICwOi5EaXaY+RmZzeZ3Kd9mmJOQYuSYniUVWo77wEjm
EmFDXdgsY/VkyWw6ClQ11qMkUcPOe6n5EMua4rKUziDTJodDR6RuB9gcR5fCnrh4
dlqd6wkljmWrLib06jzGDyiMDbOF7xlsXtuP9f6L3ZpGFmK26937/8DHYf/18O1Y
VYvTBzpRkQxls7uZDYjyKNPGMkQmi94njChzhEAbwm9Hn++BtbaBJOuq0Um4dRKO
JwAoia6EfZnHxebBhuHKQE6RFzD5kTcGyPtJ4sNiz43vptEgFwpYoeJn+ulQBhUN
xCE68ZWz4mfN+55CEwGudcH2fjIVy564FjZxAUNoM3DPkt+Jda8qHHxdNihusO5x
zUF8p79M+RaMUt4ryruRa2cCAwEAAaOCAYgwggGEMCUGCWCGSAGG+EIBDQQYFhZD
ZXJ0aWZpY2F0IFNlcnZldXIgU1NMMB0GA1UdDgQWBBSqkkEYE5FN9R3t4o+7keWC
7tRSbTCBlQYDVR0jBIGNMIGKgBQfr3TUYdI5IH7C1mfCWWa76iYOn6FupGwwajEL
MAkGA1UEBhMCZnIxDDAKBgNVBAgMA2lkZjEOMAwGA1UEBwwFcGFyaXMxDjAMBgNV
BAoMBXZpdGFtMRQwEgYDVQQLDAthdXRob3JpdGllczEXMBUGA1UEAwwOY2Ffcm9v
dF9zZXJ2ZXKCAgEMMAkGA1UdEgQCMAAwVgYDVR0RBE8wTYIaaWhtLXJlY2V0dGUu
c2VydmljZS5jb25zdWyCCWxvY2FsaG9zdIIkaWhtLXJlY2V0dGUuc2VydmljZS5m
dWxsbG9jYWwuY29uc3VsMAwGA1UdEwEB/wQCMAAwCwYDVR0PBAQDAgWgMBEGCWCG
SAGG+EIBAQQEAwIGQDATBgNVHSUEDDAKBggrBgEFBQcDATANBgkqhkiG9w0BAQsF
AAOCAgEAOgEf/ha3XQhW0nhemGmhpvPAYdZR1nDQDN5AiUaaLzKx+y5m+ERPFaVa
RbUSlIXQN2sR4Pha9fsVihYYZ/SBdRDvWv5mmuDDiq8kSCDg3/vNPn572TbhqD1s
nZwaeuiBohw3JzTrVaAqqf+avWyctrmhVsNDfZJe6bYngQQ9Aj0UYuxTrGyWlsAZ
+5HegKo2KMJgnr4skArNDwvrMMFcbhJJHqABL8MwaUfY+v2dPZu9cm0v7A4c1uzz
3xxhrXYb4wOFvN3H7XeoA8NzPD6rQ+Y1vfLBJMp0RdkWWsH9HloG/fxqxZcYFfvx
8oWY2XhkM8xP6AAE27ZCkvPeq/QE0eGxw5ObwVbIJ91PidnTspF+zWOMlIFug5ox
zUX899f91MpmPHFiILARMYJRUAB51EmgS2luJe0OjA0gBINImqDB059HlTgyCEl8
Q1SDQaHO04jI0p/JFLnSwJa1gwQGMcAcbf8kzunZ90VPgDQJlfEF6Px6t1Oq69yc
RcjyMkpVldoi8qAQC34+r2ffxR8aP0kL9/fl3VXJx2T0zj6DAmRk5vi9Z2AarasY
6Mv7Mc7VGibjRKHgK/Zf+VfbTmwLgFDWwYABe56/sYcStU/HkMgupEZ2HGUrHCtN
mt4P+OAyLm7VFxyOxeYzPrvjVCeRfjv07ieCWA3tdfJ7pCTeNzo=
-----END CERTIFICATE-----
