Certificate:
    Data:
        Version: 3 (0x2)
        Serial Number: 258 (0x102)
    Signature Algorithm: sha256WithRSAEncryption
        Issuer: C=fr, ST=idf, L=paris, O=vitam, OU=authorities, CN=ca_intermediate_server
        Validity
            Not Before: Feb 22 16:36:58 2018 GMT
            Not After : Feb 21 16:36:58 2021 GMT
        Subject: C=fr, ST=idf, L=paris, O=vitam, CN=ihm-recette.service.consul
        Subject Public Key Info:
            Public Key Algorithm: rsaEncryption
                Public-Key: (4096 bit)
                Modulus:
                    00:bf:61:1d:98:fe:2c:d5:48:88:8e:fb:39:e0:a6:
                    08:96:c7:4e:ef:83:d8:d3:70:31:ef:ff:cf:59:4c:
                    24:00:b9:0b:14:cc:39:c2:7a:69:b8:03:e3:af:a5:
                    5d:e7:dc:30:40:69:21:95:4d:b5:34:dd:af:3d:cf:
                    1a:39:35:cf:43:3f:a0:78:fc:28:d5:d7:0f:a5:9d:
                    a7:41:b3:db:2e:41:71:4c:56:c4:86:01:68:b0:8b:
                    49:67:8f:64:ba:80:57:7c:d5:6a:4c:cb:ae:a1:5b:
                    d5:d8:1f:49:1f:e2:e1:6b:1e:23:a7:51:60:c4:fd:
                    ff:d6:d6:e0:dc:03:7d:ec:71:66:d8:cd:5e:d7:1a:
                    2a:f9:dc:38:31:b7:a1:97:54:68:75:c0:6b:06:3f:
                    58:46:3c:4a:07:c1:8c:14:81:04:36:4d:ff:37:90:
                    29:46:32:30:ea:3d:30:94:4b:46:1b:01:ce:b4:1e:
                    40:19:5c:d7:2b:31:73:8d:04:95:ca:66:c2:1d:17:
                    b7:2f:18:43:e2:10:63:82:9e:2f:e4:39:ab:59:2d:
                    3d:5a:80:45:8e:47:14:fe:50:5e:33:f6:85:29:00:
                    7a:6d:25:b4:0e:cc:8c:95:3b:f0:86:36:a0:88:97:
                    28:f0:dd:ef:f1:7a:0b:6b:15:db:3c:bc:f9:25:69:
                    b5:4e:48:94:1a:33:76:88:f8:f0:d3:90:b3:27:0f:
                    69:6e:4c:d7:64:33:71:b8:aa:d9:27:c1:35:08:54:
                    02:d0:1b:3a:c3:be:66:0e:d4:6a:f5:23:a0:ff:73:
                    2e:d6:70:bc:21:4f:37:59:73:fe:30:fb:3b:64:4d:
                    2c:55:c5:b3:0c:e0:95:77:2e:86:34:d2:5e:a1:40:
                    f5:6b:80:43:8f:39:d9:ed:80:a0:1e:a7:f1:fd:b9:
                    cf:41:2a:50:d9:86:fb:3c:6b:61:2a:f0:9a:75:ce:
                    a7:17:fe:41:38:bd:3f:cb:b0:69:82:f2:97:c3:50:
                    33:11:b7:1b:32:d9:77:0d:88:90:d6:c7:56:51:4e:
                    47:eb:1e:2b:b9:e7:81:a9:26:a3:7d:5f:23:e4:9a:
                    e4:bb:ef:12:76:93:7f:bb:53:42:17:0d:25:3e:30:
                    c9:d6:ab:01:c3:7a:44:5d:39:35:e3:62:14:11:25:
                    fc:ed:b5:8b:8e:64:65:d5:d8:d3:bb:0e:6c:d4:98:
                    14:05:90:58:12:fb:bb:62:12:d7:d4:92:9a:98:cc:
                    42:96:84:9b:a7:d3:ce:cc:7b:5e:72:a8:82:ed:18:
                    13:6b:5c:9b:01:b5:92:4f:aa:9a:f5:8e:6a:dd:83:
                    7d:91:10:b0:1d:75:e1:96:71:c8:89:58:6c:a0:62:
                    be:1b:37
                Exponent: 65537 (0x10001)
        X509v3 extensions:
            Netscape Comment: 
                Certificat Serveur SSL
            X509v3 Subject Key Identifier: 
                7A:30:00:46:A4:C6:05:23:3B:7F:83:E4:8C:85:05:97:25:CD:80:39
            X509v3 Authority Key Identifier: 
                keyid:6D:B1:F2:D5:CE:0E:93:60:CE:FD:D3:91:D2:23:ED:95:21:BB:D5:0C
                DirName:/C=fr/ST=idf/L=paris/O=vitam/OU=authorities/CN=ca_root_server
                serial:DB

            X509v3 Issuer Alternative Name: 
                <EMPTY>

            X509v3 Subject Alternative Name: 
                DNS:ihm-recette.service.consul, DNS:localhost
            X509v3 Basic Constraints: critical
                CA:FALSE
            X509v3 Key Usage: 
                Digital Signature, Non Repudiation, Key Encipherment
            Netscape Cert Type: 
                SSL Server
            X509v3 Extended Key Usage: 
                TLS Web Server Authentication
    Signature Algorithm: sha256WithRSAEncryption
         cd:9d:82:6d:8a:53:07:b8:66:65:0b:9c:10:64:a4:c6:04:a5:
         27:f7:07:6f:6f:a6:0e:96:67:df:ae:13:8d:a3:6d:05:e5:89:
         82:62:c1:19:5b:0c:71:94:34:f2:c6:37:95:09:32:a9:bc:ac:
         68:b5:4d:ac:f3:ed:30:30:2d:a4:0e:e3:1d:2a:7e:1f:3b:03:
         a4:1e:63:d0:cb:7e:0c:40:1e:1d:38:67:1d:a8:6e:b5:73:0f:
         7f:59:3b:75:50:2f:d5:3f:89:22:8c:ed:13:a0:65:25:5e:b4:
         b1:51:9a:65:dc:c1:b0:41:d7:ba:d1:7f:ac:63:41:ef:f7:e4:
         8f:ac:22:d6:d2:81:0d:cd:62:07:f2:4c:cc:ec:1d:7e:96:75:
         6e:e5:db:2f:c9:e2:6f:98:47:6e:3b:25:eb:d7:bf:20:2b:0b:
         e7:07:db:66:71:10:fe:da:0b:87:3e:d5:45:dc:13:fc:c2:6a:
         8f:bf:3c:46:3f:d0:fe:d8:f3:91:2c:45:f7:3a:99:50:70:ea:
         e2:fd:89:46:74:1d:fc:3a:4c:f8:5e:b3:5d:ad:e2:ae:78:51:
         2b:f3:a2:9d:19:25:48:54:dd:ce:a8:2b:19:ea:26:d4:ac:84:
         c2:95:19:9d:03:8b:4f:d4:62:b9:ae:14:88:85:a0:81:fd:74:
         d4:d3:0f:41:89:9d:3b:87:7d:88:cc:38:2d:4b:dc:bf:ca:99:
         4b:5d:c8:d7:97:38:50:8a:d2:2f:46:e6:7f:0f:bc:fe:bc:4d:
         2c:61:0c:03:c9:08:59:ae:86:9e:20:97:82:45:6f:37:66:c9:
         b8:1f:25:72:c0:92:c6:7f:3c:01:9d:39:44:49:90:89:ec:04:
         05:72:72:8d:d2:1b:cb:2b:f9:5b:8d:90:39:b0:0c:ed:e1:30:
         ff:13:f7:78:8d:85:12:8f:d1:7d:33:a2:b0:58:df:17:84:22:
         e7:29:ef:1d:1b:1a:87:cf:76:a5:d9:2c:73:27:8a:58:e5:b3:
         c0:7f:07:5f:2e:ce:57:ab:69:e8:c6:60:71:0d:62:55:df:72:
         40:40:e5:1d:d5:0b:ff:46:cf:a8:1c:aa:ff:ec:de:f5:42:c0:
         06:a0:2e:4b:10:1e:7f:53:b2:d8:85:98:be:68:1c:2c:04:96:
         ed:15:26:90:0c:0d:c2:ec:e7:c3:16:d2:9e:5c:74:bc:0f:d5:
         6c:6b:05:e2:6f:ff:20:79:5e:2f:35:4a:bb:d6:cf:9e:ef:f9:
         65:c6:df:54:57:ed:05:14:38:b4:0b:9d:76:14:3e:e2:ab:00:
         c3:92:2a:f5:44:2a:b7:f0:09:6a:a2:17:62:a1:37:e8:3b:66:
         9f:0d:d7:4d:f7:e0:69:81
-----BEGIN CERTIFICATE-----
MIIGsjCCBJqgAwIBAgICAQIwDQYJKoZIhvcNAQELBQAwcjELMAkGA1UEBhMCZnIx
DDAKBgNVBAgMA2lkZjEOMAwGA1UEBwwFcGFyaXMxDjAMBgNVBAoMBXZpdGFtMRQw
EgYDVQQLDAthdXRob3JpdGllczEfMB0GA1UEAwwWY2FfaW50ZXJtZWRpYXRlX3Nl
cnZlcjAeFw0xODAyMjIxNjM2NThaFw0yMTAyMjExNjM2NThaMGAxCzAJBgNVBAYT
AmZyMQwwCgYDVQQIDANpZGYxDjAMBgNVBAcMBXBhcmlzMQ4wDAYDVQQKDAV2aXRh
bTEjMCEGA1UEAwwaaWhtLXJlY2V0dGUuc2VydmljZS5jb25zdWwwggIiMA0GCSqG
SIb3DQEBAQUAA4ICDwAwggIKAoICAQC/YR2Y/izVSIiO+zngpgiWx07vg9jTcDHv
/89ZTCQAuQsUzDnCemm4A+OvpV3n3DBAaSGVTbU03a89zxo5Nc9DP6B4/CjV1w+l
nadBs9suQXFMVsSGAWiwi0lnj2S6gFd81WpMy66hW9XYH0kf4uFrHiOnUWDE/f/W
1uDcA33scWbYzV7XGir53Dgxt6GXVGh1wGsGP1hGPEoHwYwUgQQ2Tf83kClGMjDq
PTCUS0YbAc60HkAZXNcrMXONBJXKZsIdF7cvGEPiEGOCni/kOatZLT1agEWORxT+
UF4z9oUpAHptJbQOzIyVO/CGNqCIlyjw3e/xegtrFds8vPklabVOSJQaM3aI+PDT
kLMnD2luTNdkM3G4qtknwTUIVALQGzrDvmYO1Gr1I6D/cy7WcLwhTzdZc/4w+ztk
TSxVxbMM4JV3LoY00l6hQPVrgEOPOdntgKAep/H9uc9BKlDZhvs8a2Eq8Jp1zqcX
/kE4vT/LsGmC8pfDUDMRtxsy2XcNiJDWx1ZRTkfrHiu554GpJqN9XyPkmuS77xJ2
k3+7U0IXDSU+MMnWqwHDekRdOTXjYhQRJfzttYuOZGXV2NO7DmzUmBQFkFgS+7ti
EtfUkpqYzEKWhJun087Me15yqILtGBNrXJsBtZJPqpr1jmrdg32RELAddeGWcciJ
WGygYr4bNwIDAQABo4IBYjCCAV4wJQYJYIZIAYb4QgENBBgWFkNlcnRpZmljYXQg
U2VydmV1ciBTU0wwHQYDVR0OBBYEFHowAEakxgUjO3+D5IyFBZclzYA5MIGVBgNV
HSMEgY0wgYqAFG2x8tXODpNgzv3TkdIj7ZUhu9UMoW6kbDBqMQswCQYDVQQGEwJm
cjEMMAoGA1UECAwDaWRmMQ4wDAYDVQQHDAVwYXJpczEOMAwGA1UECgwFdml0YW0x
FDASBgNVBAsMC2F1dGhvcml0aWVzMRcwFQYDVQQDDA5jYV9yb290X3NlcnZlcoIC
ANswCQYDVR0SBAIwADAwBgNVHREEKTAnghppaG0tcmVjZXR0ZS5zZXJ2aWNlLmNv
bnN1bIIJbG9jYWxob3N0MAwGA1UdEwEB/wQCMAAwCwYDVR0PBAQDAgXgMBEGCWCG
SAGG+EIBAQQEAwIGQDATBgNVHSUEDDAKBggrBgEFBQcDATANBgkqhkiG9w0BAQsF
AAOCAgEAzZ2CbYpTB7hmZQucEGSkxgSlJ/cHb2+mDpZn364TjaNtBeWJgmLBGVsM
cZQ08sY3lQkyqbysaLVNrPPtMDAtpA7jHSp+HzsDpB5j0Mt+DEAeHThnHahutXMP
f1k7dVAv1T+JIoztE6BlJV60sVGaZdzBsEHXutF/rGNB7/fkj6wi1tKBDc1iB/JM
zOwdfpZ1buXbL8nib5hHbjsl69e/ICsL5wfbZnEQ/toLhz7VRdwT/MJqj788Rj/Q
/tjzkSxF9zqZUHDq4v2JRnQd/DpM+F6zXa3irnhRK/OinRklSFTdzqgrGeom1KyE
wpUZnQOLT9Riua4UiIWggf101NMPQYmdO4d9iMw4LUvcv8qZS13I15c4UIrSL0bm
fw+8/rxNLGEMA8kIWa6GniCXgkVvN2bJuB8lcsCSxn88AZ05REmQiewEBXJyjdIb
yyv5W42QObAM7eEw/xP3eI2FEo/RfTOisFjfF4Qi5ynvHRsah892pdkscyeKWOWz
wH8HXy7OV6tp6MZgcQ1iVd9yQEDlHdUL/0bPqByq/+ze9ULABqAuSxAef1Oy2IWY
vmgcLASW7RUmkAwNwuznwxbSnlx0vA/VbGsF4m//IHleLzVKu9bPnu/5ZcbfVFft
BRQ4tAuddhQ+4qsAw5Iq9UQqt/AJaqIXYqE36Dtmnw3XTffgaYE=
-----END CERTIFICATE-----
