Certificate:
    Data:
        Version: 3 (0x2)
        Serial Number: 283 (0x11b)
        Signature Algorithm: sha256WithRSAEncryption
        Issuer: C=fr, ST=idf, L=paris, O=vitam, OU=authorities, CN=ca_intermediate_server
        Validity
            Not Before: Nov 10 14:35:44 2021 GMT
            Not After : Nov  9 14:35:44 2024 GMT
        Subject: C=fr, ST=idf, L=paris, O=vitam, CN=ihm-demo.service.fulllocal.consul
        Subject Public Key Info:
            Public Key Algorithm: rsaEncryption
                RSA Public-Key: (4096 bit)
                Modulus:
                    00:b1:70:c1:4d:6a:f5:c6:3b:da:f5:56:0f:e9:fd:
                    20:0d:85:f9:e9:81:a1:08:62:2b:60:46:df:86:09:
                    8e:88:cb:97:ed:03:ee:ba:f4:f5:5f:26:25:82:06:
                    2e:27:b0:fb:bf:d1:70:15:b4:79:0b:b2:ab:7c:7b:
                    7e:f4:23:4f:e4:75:1f:9b:ae:6d:b2:d0:29:0e:93:
                    b9:57:bd:2c:9f:2c:84:4b:7f:86:86:96:e5:f3:bb:
                    a9:58:df:56:a0:ff:09:81:48:71:bf:2d:cf:08:54:
                    60:8e:85:9b:b2:ec:2f:27:b9:cd:5a:6a:5f:89:39:
                    82:91:67:cb:07:7d:6c:68:e0:36:7b:de:e9:6a:19:
                    8c:d0:1c:d9:16:e5:0b:9e:2c:10:ed:d1:84:e5:f6:
                    a4:1f:cc:c0:d5:37:c3:5e:a5:e7:6f:bf:94:33:51:
                    5c:0a:12:8f:68:16:9d:58:e4:27:c5:1a:0d:29:ac:
                    4e:6c:f8:ed:35:fa:cf:55:a1:db:91:29:52:5e:97:
                    57:44:c2:95:84:d8:c8:10:5e:50:21:1b:1f:9f:32:
                    bf:37:5a:18:8a:ad:03:6b:07:b2:6d:10:90:2a:b4:
                    58:3c:ad:51:08:5f:bd:74:6d:93:d1:e8:8d:6f:b9:
                    c8:7d:3f:92:a5:86:f6:66:dd:16:2c:d9:9d:ff:23:
                    d2:a1:1c:63:c8:99:e4:c2:6c:44:d9:8b:23:e8:7e:
                    d9:15:79:09:9c:b3:d7:dc:f5:d1:5f:a0:c4:f0:a0:
                    47:1c:26:67:5a:3d:b0:42:cb:1f:64:d0:4d:9b:29:
                    b9:ca:67:d1:30:ac:3f:78:47:62:f8:94:4c:c4:32:
                    4f:b8:39:f8:39:7d:30:da:28:1e:f6:b7:9f:d7:5a:
                    28:de:60:af:0c:af:b8:62:8a:dc:f1:24:8c:19:c2:
                    fe:b6:53:69:cb:ed:a5:35:9d:d8:33:fa:54:c3:39:
                    d4:38:ea:f3:1d:92:e1:db:26:3e:58:2f:36:79:96:
                    91:fc:d7:f1:c0:ef:d0:c5:a6:e1:8e:08:d1:25:a0:
                    12:e7:ee:73:be:4a:a3:b6:d2:11:3c:74:2a:b9:02:
                    14:eb:fe:e0:77:b0:2e:7e:58:44:8e:6b:0e:3c:e3:
                    6e:ae:64:f3:e7:45:e0:20:fb:6c:db:10:8d:8c:4b:
                    16:98:98:fa:3e:9d:09:1e:28:77:65:e3:73:40:8f:
                    c7:d5:3d:47:15:99:a7:3a:e2:08:f0:a2:86:b3:f9:
                    de:9e:44:f6:07:64:28:44:1c:be:bd:bf:c8:03:b4:
                    8c:bc:25:c2:64:35:b4:40:0d:3b:03:2f:84:78:81:
                    30:ad:d1:dc:ff:7d:66:9d:e5:78:44:5a:c6:6e:f1:
                    d9:a3:87
                Exponent: 65537 (0x10001)
        X509v3 extensions:
            Netscape Comment: 
                Certificat Serveur SSL
            X509v3 Subject Key Identifier: 
                1F:D8:03:68:25:A1:4E:3C:33:02:CE:BA:B6:3B:B1:FF:45:E9:50:A7
            X509v3 Authority Key Identifier: 
                keyid:1F:AF:74:D4:61:D2:39:20:7E:C2:D6:67:C2:59:66:BB:EA:26:0E:9F
                DirName:/C=fr/ST=idf/L=paris/O=vitam/OU=authorities/CN=ca_root_server
                serial:01:0C

            X509v3 Issuer Alternative Name: 
                <EMPTY>

            X509v3 Subject Alternative Name: 
                DNS:ihm-demo.service.consul, DNS:localhost, DNS:ihm-demo.service.fulllocal.consul
            X509v3 Basic Constraints: critical
                CA:FALSE
            X509v3 Key Usage: 
                Digital Signature, Key Encipherment
            Netscape Cert Type: 
                SSL Server
            X509v3 Extended Key Usage: 
                TLS Web Server Authentication
    Signature Algorithm: sha256WithRSAEncryption
         4e:37:3f:04:23:02:20:41:46:fd:3a:9f:64:be:df:de:ce:8f:
         ff:1f:12:af:d7:1a:2e:bd:4f:0e:67:18:f0:ac:56:9e:fb:b0:
         8a:92:ea:02:a4:4f:91:02:84:f9:f4:40:cb:13:7a:8f:df:05:
         6e:d5:0a:93:d1:23:a3:c1:8c:a8:03:5d:8d:9c:ab:7c:03:fa:
         44:46:7d:d8:a9:12:dc:0c:65:cd:d8:42:d4:db:dc:bf:04:cd:
         ad:98:a6:75:55:4a:af:4f:dc:d1:93:bf:aa:60:5b:a9:35:0b:
         e4:91:db:3a:ed:66:8c:1e:cf:d1:90:05:89:0d:ed:73:4e:73:
         82:67:14:61:09:75:99:77:30:14:9f:48:d5:50:27:c4:09:c5:
         20:f4:d6:87:d1:cb:20:b8:c8:5f:82:13:ef:b5:1c:c3:36:df:
         61:fb:97:66:7b:49:6f:c7:5d:3d:78:6f:f0:cb:75:9c:a6:5e:
         27:bc:56:38:64:40:48:96:f9:87:a0:d2:bf:c0:b0:24:52:17:
         d8:2a:a5:b3:1e:ca:ba:5c:89:1d:ee:17:8d:be:26:d7:1e:66:
         fc:0e:9e:31:e6:56:c5:41:ab:ae:af:10:4d:41:a7:b7:2e:60:
         67:82:01:c6:00:91:b5:3c:f4:5f:c6:25:ce:de:07:62:63:72:
         72:2e:f5:95:a2:4f:8e:94:f7:36:e4:a6:cd:fa:b3:e5:3f:95:
         bf:b6:d0:50:9e:e4:2d:e0:e5:8d:da:ca:63:ca:a9:51:85:4c:
         9d:1d:ef:45:62:8d:1a:99:f1:e4:7e:fe:29:f3:eb:76:44:2b:
         13:00:81:ae:fe:a5:33:d4:63:d6:1f:b3:0f:34:7b:04:37:45:
         3b:41:34:85:06:a0:29:de:60:7f:bd:b1:eb:df:d2:ac:2f:68:
         6f:2e:a5:fa:8a:9f:06:c6:00:3d:17:a9:e4:a7:62:1a:b4:17:
         36:42:63:93:39:0b:bc:a6:d0:b3:18:c3:07:55:a3:ed:4c:cf:
         51:9b:73:43:90:a4:d2:69:e9:05:78:38:42:cb:cf:99:f8:11:
         c3:ea:48:44:2f:73:6b:0c:1a:f9:a0:bc:07:33:f6:b8:e3:95:
         7b:4c:c9:71:97:7e:f3:b9:17:2d:76:6c:33:cb:5d:ba:53:82:
         34:4f:eb:38:ef:e5:4f:f8:99:1f:74:3f:7c:aa:63:1e:f9:dd:
         c3:e0:c1:8d:24:ff:1b:e4:13:07:f0:d1:2b:a3:10:96:b6:9d:
         fd:ec:4a:35:03:9a:bd:e6:1b:bc:12:67:56:ab:72:5a:08:3d:
         af:8b:c8:06:ca:d0:9d:62:01:ef:f9:f3:4b:39:4b:c1:cd:b6:
         db:3d:d6:59:2e:df:ef:63
-----BEGIN CERTIFICATE-----
MIIG2TCCBMGgAwIBAgICARswDQYJKoZIhvcNAQELBQAwcjELMAkGA1UEBhMCZnIx
DDAKBgNVBAgMA2lkZjEOMAwGA1UEBwwFcGFyaXMxDjAMBgNVBAoMBXZpdGFtMRQw
EgYDVQQLDAthdXRob3JpdGllczEfMB0GA1UEAwwWY2FfaW50ZXJtZWRpYXRlX3Nl
cnZlcjAeFw0yMTExMTAxNDM1NDRaFw0yNDExMDkxNDM1NDRaMGcxCzAJBgNVBAYT
AmZyMQwwCgYDVQQIDANpZGYxDjAMBgNVBAcMBXBhcmlzMQ4wDAYDVQQKDAV2aXRh
bTEqMCgGA1UEAwwhaWhtLWRlbW8uc2VydmljZS5mdWxsbG9jYWwuY29uc3VsMIIC
IjANBgkqhkiG9w0BAQEFAAOCAg8AMIICCgKCAgEAsXDBTWr1xjva9VYP6f0gDYX5
6YGhCGIrYEbfhgmOiMuX7QPuuvT1XyYlggYuJ7D7v9FwFbR5C7KrfHt+9CNP5HUf
m65tstApDpO5V70snyyES3+Ghpbl87upWN9WoP8JgUhxvy3PCFRgjoWbsuwvJ7nN
WmpfiTmCkWfLB31saOA2e97pahmM0BzZFuULniwQ7dGE5fakH8zA1TfDXqXnb7+U
M1FcChKPaBadWOQnxRoNKaxObPjtNfrPVaHbkSlSXpdXRMKVhNjIEF5QIRsfnzK/
N1oYiq0DaweybRCQKrRYPK1RCF+9dG2T0eiNb7nIfT+SpYb2Zt0WLNmd/yPSoRxj
yJnkwmxE2Ysj6H7ZFXkJnLPX3PXRX6DE8KBHHCZnWj2wQssfZNBNmym5ymfRMKw/
eEdi+JRMxDJPuDn4OX0w2ige9ref11oo3mCvDK+4Yorc8SSMGcL+tlNpy+2lNZ3Y
M/pUwznUOOrzHZLh2yY+WC82eZaR/NfxwO/QxabhjgjRJaAS5+5zvkqjttIRPHQq
uQIU6/7gd7AuflhEjmsOPONurmTz50XgIPts2xCNjEsWmJj6Pp0JHih3ZeNzQI/H
1T1HFZmnOuII8KKGs/nenkT2B2QoRBy+vb/IA7SMvCXCZDW0QA07Ay+EeIEwrdHc
/31mneV4RFrGbvHZo4cCAwEAAaOCAYIwggF+MCUGCWCGSAGG+EIBDQQYFhZDZXJ0
aWZpY2F0IFNlcnZldXIgU1NMMB0GA1UdDgQWBBQf2ANoJaFOPDMCzrq2O7H/RelQ
pzCBlQYDVR0jBIGNMIGKgBQfr3TUYdI5IH7C1mfCWWa76iYOn6FupGwwajELMAkG
A1UEBhMCZnIxDDAKBgNVBAgMA2lkZjEOMAwGA1UEBwwFcGFyaXMxDjAMBgNVBAoM
BXZpdGFtMRQwEgYDVQQLDAthdXRob3JpdGllczEXMBUGA1UEAwwOY2Ffcm9vdF9z
ZXJ2ZXKCAgEMMAkGA1UdEgQCMAAwUAYDVR0RBEkwR4IXaWhtLWRlbW8uc2Vydmlj
ZS5jb25zdWyCCWxvY2FsaG9zdIIhaWhtLWRlbW8uc2VydmljZS5mdWxsbG9jYWwu
Y29uc3VsMAwGA1UdEwEB/wQCMAAwCwYDVR0PBAQDAgWgMBEGCWCGSAGG+EIBAQQE
AwIGQDATBgNVHSUEDDAKBggrBgEFBQcDATANBgkqhkiG9w0BAQsFAAOCAgEATjc/
BCMCIEFG/TqfZL7f3s6P/x8Sr9caLr1PDmcY8KxWnvuwipLqAqRPkQKE+fRAyxN6
j98FbtUKk9Ejo8GMqANdjZyrfAP6REZ92KkS3AxlzdhC1NvcvwTNrZimdVVKr0/c
0ZO/qmBbqTUL5JHbOu1mjB7P0ZAFiQ3tc05zgmcUYQl1mXcwFJ9I1VAnxAnFIPTW
h9HLILjIX4IT77UcwzbfYfuXZntJb8ddPXhv8Mt1nKZeJ7xWOGRASJb5h6DSv8Cw
JFIX2Cqlsx7KulyJHe4Xjb4m1x5m/A6eMeZWxUGrrq8QTUGnty5gZ4IBxgCRtTz0
X8Ylzt4HYmNyci71laJPjpT3NuSmzfqz5T+Vv7bQUJ7kLeDljdrKY8qpUYVMnR3v
RWKNGpnx5H7+KfPrdkQrEwCBrv6lM9Rj1h+zDzR7BDdFO0E0hQagKd5gf72x69/S
rC9oby6l+oqfBsYAPRep5KdiGrQXNkJjkzkLvKbQsxjDB1Wj7UzPUZtzQ5Ck0mnp
BXg4QsvPmfgRw+pIRC9zawwa+aC8BzP2uOOVe0zJcZd+87kXLXZsM8tdulOCNE/r
OO/lT/iZH3Q/fKpjHvndw+DBjST/G+QTB/DRK6MQlrad/exKNQOaveYbvBJnVqty
Wgg9r4vIBsrQnWIB7/nzSzlLwc222z3WWS7f72M=
-----END CERTIFICATE-----
