Certificate:
    Data:
        Version: 3 (0x2)
        Serial Number: 212 (0xd4)
    Signature Algorithm: sha256WithRSAEncryption
        Issuer: C=fr, ST=idf, L=paris, O=vitam, OU=authorities, CN=ca_intermediate_server
        Validity
            Not Before: Aug  9 16:04:43 2017 GMT
            Not After : Aug  8 16:04:43 2020 GMT
        Subject: C=fr, ST=idf, L=paris, O=vitam, CN=ingest-external.service.consul
        Subject Public Key Info:
            Public Key Algorithm: rsaEncryption
                Public-Key: (4096 bit)
                Modulus:
                    00:f7:c3:07:97:a9:11:e4:10:8a:6f:90:82:2a:35:
                    4c:35:e5:c2:96:db:20:17:97:c2:4e:a9:10:4c:f6:
                    a8:e0:4c:82:f3:93:18:47:63:2c:36:9b:36:07:a0:
                    2e:1d:8a:d0:9f:76:99:fc:34:b6:14:31:d0:21:2b:
                    ef:41:3b:ac:7a:88:0a:bf:48:3b:98:72:4a:ca:19:
                    6d:58:a5:4d:05:32:71:b1:44:e6:6b:49:a3:c0:20:
                    ee:1b:b6:38:5c:21:a4:72:f4:ec:cc:b6:a1:55:ea:
                    f1:b4:74:39:df:7f:f0:50:d5:91:82:bd:58:5a:98:
                    7c:7e:27:2c:b0:8a:7f:fc:fa:37:a2:25:5a:ed:06:
                    80:8e:9f:e8:9c:70:8c:5a:4b:a6:d3:2c:c6:80:5d:
                    2d:4f:c6:7c:6f:52:af:03:97:aa:a8:e3:a8:be:59:
                    3a:74:d1:5e:db:5e:48:16:7c:db:ef:67:1a:c2:45:
                    c5:3c:5e:11:73:5b:19:bd:40:23:c9:8d:fc:85:b4:
                    fb:c5:c4:04:ec:86:0a:ad:98:e5:a3:55:9d:37:5d:
                    04:a9:f8:f6:ba:be:51:c4:c1:f5:16:6c:2e:30:eb:
                    23:80:bf:da:67:48:17:81:95:37:74:09:f2:0c:77:
                    63:97:37:7e:1a:11:86:be:c0:ab:a3:49:5b:20:9b:
                    c0:f8:82:25:40:37:60:88:8a:ba:c5:27:e2:5a:dd:
                    c4:8c:a4:33:e8:5f:c6:7d:71:c1:1d:56:10:77:40:
                    7c:2d:b8:b5:20:db:7a:c5:41:be:07:58:75:49:1c:
                    41:06:70:d9:e0:41:1e:5d:29:0b:0d:33:02:8a:b8:
                    88:e3:3f:d7:46:d9:3c:4c:f3:e2:c1:7e:1d:05:f8:
                    db:27:11:7e:04:70:f9:b5:e3:6e:a4:cc:d8:6d:8b:
                    45:11:d9:79:51:6c:8e:84:3f:6e:7d:19:20:26:99:
                    70:2d:7a:49:a4:a6:61:fa:3e:89:10:a1:ac:d8:ac:
                    ac:4b:ed:b2:16:23:4f:b2:9c:2e:ac:67:c7:59:b0:
                    42:18:69:fb:f3:47:56:66:70:08:db:1d:92:74:01:
                    0f:fe:ce:a2:8a:47:c2:70:e7:ea:2e:9f:c4:18:f3:
                    b8:fe:9a:ad:c1:32:27:7d:4d:22:09:df:93:3c:8f:
                    d3:09:30:d5:39:a9:7a:bf:8a:37:a3:16:08:3e:26:
                    3d:3d:6c:11:b0:6c:17:5a:63:5e:94:70:31:aa:2c:
                    34:19:89:dc:90:d8:45:58:5c:51:3d:f1:60:1e:06:
                    cc:17:56:e5:94:15:74:86:83:32:23:b4:36:39:16:
                    14:e9:bf:91:51:05:f7:bf:ef:a4:ea:79:81:db:0f:
                    63:83:3d
                Exponent: 65537 (0x10001)
        X509v3 extensions:
            Netscape Comment: 
                Certificat Serveur SSL
            X509v3 Subject Key Identifier: 
                26:70:FE:2E:33:6D:95:42:E7:A7:35:95:25:AF:00:65:83:7D:04:BF
            X509v3 Authority Key Identifier: 
                keyid:FD:29:CE:50:34:CD:B5:E2:30:E7:12:67:BA:2C:7D:5B:E0:D5:F2:2C
                DirName:/C=fr/ST=idf/L=paris/O=vitam/OU=authorities/CN=ca_root_server
                serial:D3

            X509v3 Issuer Alternative Name: 
                <EMPTY>

            X509v3 Subject Alternative Name: 
                DNS:ingest-external.service.consul, DNS:localhost
            X509v3 Basic Constraints: critical
                CA:FALSE
            X509v3 Key Usage: 
                Digital Signature, Non Repudiation, Key Encipherment
            Netscape Cert Type: 
                SSL Server
            X509v3 Extended Key Usage: 
                TLS Web Server Authentication
    Signature Algorithm: sha256WithRSAEncryption
         47:83:e7:92:11:26:9f:04:18:a3:f1:9f:2c:fb:95:b9:0c:ac:
         a7:51:c0:fc:ba:d6:92:36:cd:1d:b6:06:ec:96:c8:25:28:f0:
         35:d8:ef:52:43:51:c0:b5:50:67:b6:da:cb:e8:07:cf:79:60:
         a1:1f:67:4e:a4:0e:6e:d6:c2:c7:45:d1:83:93:02:d4:dd:69:
         04:b7:6c:73:41:14:49:65:2b:77:bd:fb:2f:5d:cf:8a:f0:5f:
         71:d8:b8:9d:76:e5:9b:18:20:48:c1:29:02:62:31:65:08:03:
         40:35:09:f3:0b:29:b3:10:26:93:6a:62:c3:da:51:eb:c8:35:
         c5:50:18:c6:74:52:4a:bd:b9:cf:af:ef:ef:9d:89:24:a5:a3:
         4e:d4:53:47:70:a9:53:91:8e:af:ea:2d:0f:bc:cf:94:6b:c6:
         0b:d3:2b:eb:3a:42:cd:76:06:ce:61:e8:96:8f:9c:96:8a:03:
         a1:5e:ef:85:89:d7:98:a7:18:99:c0:ea:d5:e7:0d:76:74:34:
         58:4b:d5:ff:d7:ae:38:03:0a:2f:da:fe:ec:aa:d2:44:d1:2d:
         a7:92:51:fd:ef:e6:24:76:7c:6f:af:52:cb:a7:b1:30:5c:cd:
         8e:27:80:8c:55:1e:92:77:ff:dc:85:fb:dc:82:a4:1b:a1:61:
         2a:a4:c9:2c:11:eb:66:b2:ac:f5:13:fb:5b:81:a6:4f:e5:a0:
         86:8c:95:e1:1e:8b:0a:eb:b2:7b:47:c8:e8:6c:4e:65:bb:40:
         9f:d9:e2:75:fd:55:42:6c:6b:bd:23:67:f9:5d:96:19:ce:2a:
         62:93:5b:13:e8:e1:27:66:7c:ac:57:cf:b4:7a:16:18:63:72:
         d0:ac:c3:13:84:78:10:6c:40:dc:cf:15:ba:d8:d7:d6:b5:a0:
         d8:44:31:43:8f:5b:23:85:e9:f5:f1:8f:96:95:84:0e:e5:72:
         1f:7d:6a:e1:65:27:22:5b:dd:fa:ad:4e:2e:8c:b1:f9:9c:03:
         e8:70:c6:10:e0:38:8b:00:90:21:b0:d8:ee:19:09:b6:8a:01:
         f8:7c:bd:42:e6:da:66:f7:3d:11:05:2a:d2:6d:3b:11:46:52:
         00:15:b9:c3:fc:29:ee:b5:02:68:b1:5a:0f:4c:f1:05:4a:24:
         f8:e7:50:34:c3:39:da:94:29:f1:2a:c1:5a:e9:e8:48:2b:52:
         d1:f8:f2:c3:69:b4:48:cf:ae:44:58:42:ab:08:f0:6d:f3:2b:
         31:d8:16:f6:2e:c6:2c:be:91:a7:78:f5:ab:72:e6:4a:49:e0:
         92:46:b4:62:69:f5:1b:7b:53:0f:af:8c:64:48:56:05:8a:c6:
         da:ce:d5:5b:bc:c6:39:88
-----BEGIN CERTIFICATE-----
MIIGujCCBKKgAwIBAgICANQwDQYJKoZIhvcNAQELBQAwcjELMAkGA1UEBhMCZnIx
DDAKBgNVBAgMA2lkZjEOMAwGA1UEBwwFcGFyaXMxDjAMBgNVBAoMBXZpdGFtMRQw
EgYDVQQLDAthdXRob3JpdGllczEfMB0GA1UEAwwWY2FfaW50ZXJtZWRpYXRlX3Nl
cnZlcjAeFw0xNzA4MDkxNjA0NDNaFw0yMDA4MDgxNjA0NDNaMGQxCzAJBgNVBAYT
AmZyMQwwCgYDVQQIDANpZGYxDjAMBgNVBAcMBXBhcmlzMQ4wDAYDVQQKDAV2aXRh
bTEnMCUGA1UEAwweaW5nZXN0LWV4dGVybmFsLnNlcnZpY2UuY29uc3VsMIICIjAN
BgkqhkiG9w0BAQEFAAOCAg8AMIICCgKCAgEA98MHl6kR5BCKb5CCKjVMNeXCltsg
F5fCTqkQTPao4EyC85MYR2MsNps2B6AuHYrQn3aZ/DS2FDHQISvvQTuseogKv0g7
mHJKyhltWKVNBTJxsUTma0mjwCDuG7Y4XCGkcvTszLahVerxtHQ533/wUNWRgr1Y
Wph8ficssIp//Po3oiVa7QaAjp/onHCMWkum0yzGgF0tT8Z8b1KvA5eqqOOovlk6
dNFe215IFnzb72cawkXFPF4Rc1sZvUAjyY38hbT7xcQE7IYKrZjlo1WdN10Eqfj2
ur5RxMH1FmwuMOsjgL/aZ0gXgZU3dAnyDHdjlzd+GhGGvsCro0lbIJvA+IIlQDdg
iIq6xSfiWt3EjKQz6F/GfXHBHVYQd0B8Lbi1INt6xUG+B1h1SRxBBnDZ4EEeXSkL
DTMCiriI4z/XRtk8TPPiwX4dBfjbJxF+BHD5teNupMzYbYtFEdl5UWyOhD9ufRkg
JplwLXpJpKZh+j6JEKGs2KysS+2yFiNPspwurGfHWbBCGGn780dWZnAI2x2SdAEP
/s6iikfCcOfqLp/EGPO4/pqtwTInfU0iCd+TPI/TCTDVOal6v4o3oxYIPiY9PWwR
sGwXWmNelHAxqiw0GYnckNhFWFxRPfFgHgbMF1bllBV0hoMyI7Q2ORYU6b+RUQX3
v++k6nmB2w9jgz0CAwEAAaOCAWYwggFiMCUGCWCGSAGG+EIBDQQYFhZDZXJ0aWZp
Y2F0IFNlcnZldXIgU1NMMB0GA1UdDgQWBBQmcP4uM22VQuenNZUlrwBlg30EvzCB
lQYDVR0jBIGNMIGKgBT9Kc5QNM214jDnEme6LH1b4NXyLKFupGwwajELMAkGA1UE
BhMCZnIxDDAKBgNVBAgMA2lkZjEOMAwGA1UEBwwFcGFyaXMxDjAMBgNVBAoMBXZp
dGFtMRQwEgYDVQQLDAthdXRob3JpdGllczEXMBUGA1UEAwwOY2Ffcm9vdF9zZXJ2
ZXKCAgDTMAkGA1UdEgQCMAAwNAYDVR0RBC0wK4IeaW5nZXN0LWV4dGVybmFsLnNl
cnZpY2UuY29uc3Vsgglsb2NhbGhvc3QwDAYDVR0TAQH/BAIwADALBgNVHQ8EBAMC
BeAwEQYJYIZIAYb4QgEBBAQDAgZAMBMGA1UdJQQMMAoGCCsGAQUFBwMBMA0GCSqG
SIb3DQEBCwUAA4ICAQBHg+eSESafBBij8Z8s+5W5DKynUcD8utaSNs0dtgbslsgl
KPA12O9SQ1HAtVBnttrL6AfPeWChH2dOpA5u1sLHRdGDkwLU3WkEt2xzQRRJZSt3
vfsvXc+K8F9x2LidduWbGCBIwSkCYjFlCANANQnzCymzECaTamLD2lHryDXFUBjG
dFJKvbnPr+/vnYkkpaNO1FNHcKlTkY6v6i0PvM+Ua8YL0yvrOkLNdgbOYeiWj5yW
igOhXu+FideYpxiZwOrV5w12dDRYS9X/1644Awov2v7sqtJE0S2nklH97+Ykdnxv
r1LLp7EwXM2OJ4CMVR6Sd//chfvcgqQboWEqpMksEetmsqz1E/tbgaZP5aCGjJXh
HosK67J7R8jobE5lu0Cf2eJ1/VVCbGu9I2f5XZYZzipik1sT6OEnZnysV8+0ehYY
Y3LQrMMThHgQbEDczxW62NfWtaDYRDFDj1sjhen18Y+WlYQO5XIffWrhZSciW936
rU4ujLH5nAPocMYQ4DiLAJAhsNjuGQm2igH4fL1C5tpm9z0RBSrSbTsRRlIAFbnD
/CnutQJosVoPTPEFSiT451A0wznalCnxKsFa6ehIK1LR+PLDabRIz65EWEKrCPBt
8ysx2Bb2LsYsvpGnePWrcuZKSeCSRrRiafUbe1MPr4xkSFYFisbaztVbvMY5iA==
-----END CERTIFICATE-----
