Certificate:
    Data:
        Version: 3 (0x2)
        Serial Number: 196 (0xc4)
    Signature Algorithm: sha256WithRSAEncryption
        Issuer: C=FR, ST=idf, L=paris, O=Vitam., CN=CA_server
        Validity
            Not Before: Mar 15 12:18:44 2017 GMT
            Not After : Mar 14 12:18:44 2020 GMT
        Subject: C=FR, ST=idf, L=paris, O=Vitam., CN=ingest-external.service.consul
        Subject Public Key Info:
            Public Key Algorithm: rsaEncryption
                Public-Key: (4096 bit)
                Modulus:
                    00:cd:1e:b8:36:e0:8c:0c:dd:9b:33:09:4b:e2:e9:
                    02:9e:93:55:30:aa:03:ea:fb:46:5f:5d:e2:67:16:
                    cd:b1:86:6c:78:7f:cb:22:c7:47:b3:54:5f:c8:c8:
                    d5:49:fb:a6:2f:78:28:39:41:60:50:17:a7:ca:57:
                    93:33:10:34:46:dd:95:e0:e1:7e:ef:a0:a1:2e:68:
                    d8:5c:13:1f:d3:0f:ee:a5:8a:ac:19:66:c7:36:65:
                    16:b2:ef:bd:03:65:13:87:1f:4a:c4:36:4c:10:b9:
                    5e:a1:3a:07:18:71:80:66:52:7a:87:dc:81:02:18:
                    52:99:31:ce:03:86:e0:21:b7:e2:85:22:7a:b0:35:
                    22:00:4c:b8:3b:f8:01:0a:e2:40:89:87:c8:23:21:
                    25:6d:c3:8f:95:b9:74:62:58:b1:bc:76:eb:81:1c:
                    78:6a:23:c2:75:dd:d5:4f:c5:d6:01:4b:54:0e:26:
                    b7:fe:88:b5:1a:d2:f7:70:0d:0c:1e:dc:52:84:19:
                    75:44:9b:09:d1:53:10:8e:fe:c4:b6:68:c6:97:49:
                    77:5d:59:4b:86:d7:b0:7c:bf:45:50:b1:2f:00:80:
                    09:b4:40:0f:5c:9c:13:49:91:a0:39:27:ae:c9:ff:
                    cb:89:fe:b0:2a:27:57:47:93:28:d0:92:64:02:0d:
                    56:d4:50:aa:ff:81:0f:fd:a2:15:ef:33:21:25:9e:
                    f5:5e:c1:75:3d:d9:59:30:59:ae:c0:d8:80:91:bf:
                    46:8f:a5:c4:ae:4c:aa:97:ee:cc:5e:34:db:68:c8:
                    47:05:b2:97:02:2f:45:d2:4f:0f:b6:0a:e9:c0:cd:
                    d6:c1:a2:5c:1a:9c:76:fd:3c:2f:9d:c7:bf:35:b1:
                    69:8a:c1:53:23:7f:6f:3f:22:d5:e8:59:16:ef:ee:
                    58:37:08:57:84:d3:4b:e6:fc:61:b4:8a:45:35:60:
                    a6:9c:ce:db:67:d4:ed:43:df:ce:5b:53:07:ea:2a:
                    a9:f9:43:37:6c:b6:d0:d9:14:67:37:7f:9e:b9:05:
                    44:ee:11:d9:11:7e:ac:f5:fa:8a:f5:cb:d4:f8:08:
                    5c:c5:5b:be:9b:ab:72:90:0b:4c:8c:53:c3:f6:63:
                    d0:89:ad:d3:d2:52:b2:10:59:e2:ef:9e:c4:02:1b:
                    73:88:04:dd:dd:4c:12:a7:1f:b4:12:93:24:bb:e6:
                    b1:59:57:64:a8:48:a8:59:cc:d2:75:f2:49:56:92:
                    f7:50:5f:bd:51:2c:36:cf:08:53:c3:5e:a3:fe:c6:
                    eb:58:ba:05:8c:0e:47:35:00:52:e0:1c:b8:72:ae:
                    23:ab:cc:fd:7a:ee:42:92:9d:f3:93:00:5e:85:07:
                    58:ea:3f
                Exponent: 65537 (0x10001)
        X509v3 extensions:
            Netscape Comment: 
                Certificat Serveur SSL
            X509v3 Subject Key Identifier: 
                82:B9:AD:56:D3:AA:3E:F2:85:C0:4C:C9:68:58:5A:98:04:00:5B:AF
            X509v3 Authority Key Identifier: 
                keyid:0F:DF:43:C3:C4:C2:8F:E7:DB:7B:5F:A7:FF:B7:ED:6D:B7:B0:0D:4B
                DirName:/C=FR/ST=idf/L=paris/O=Vitam./CN=CA_server
                serial:C3

            X509v3 Issuer Alternative Name: 
                <EMPTY>

            X509v3 Subject Alternative Name: 
                DNS:ingest-external.service.consul
            X509v3 Basic Constraints: critical
                CA:FALSE
            X509v3 Key Usage: 
                Digital Signature, Non Repudiation, Key Encipherment
            Netscape Cert Type: 
                SSL Server
            X509v3 Extended Key Usage: 
                TLS Web Server Authentication
    Signature Algorithm: sha256WithRSAEncryption
         5d:05:16:d2:44:3e:29:93:87:bf:93:41:10:9f:aa:08:52:97:
         c0:5f:e5:91:bc:24:7b:6c:aa:e8:b0:5c:30:ef:ef:ed:a6:ef:
         50:58:6f:e2:6f:6d:1d:43:18:30:a7:49:e6:51:4b:01:37:19:
         cb:d2:9b:d8:e1:5b:2d:6b:b5:43:42:fe:b2:ce:a7:3d:15:03:
         f8:ae:4b:ff:ff:9a:91:eb:2a:d2:7d:a3:60:50:04:9e:e9:4d:
         cb:1d:44:12:ce:29:4d:31:bc:8c:a5:1c:04:93:9f:1a:c8:a0:
         74:70:b8:b7:66:0f:76:40:81:a1:60:43:27:78:82:31:bb:b2:
         73:84:02:b9:68:f9:50:14:c4:4f:30:e0:30:3a:37:5c:e3:8d:
         1a:93:84:87:b1:95:6b:30:48:05:e0:02:18:14:68:e3:c5:33:
         a2:c1:82:e0:87:97:89:eb:ef:41:2f:c6:3d:15:27:05:f1:3d:
         a1:fa:90:d7:6d:37:3f:dc:11:dc:e0:2e:be:4a:d5:43:2d:b3:
         96:12:0c:ef:a8:e4:b4:03:c8:8a:e2:eb:22:ad:e5:6c:4f:d8:
         fd:3b:81:f3:57:35:96:db:da:eb:e6:67:84:2c:2f:61:af:b4:
         d0:97:65:57:b4:0b:a4:bf:c2:b1:e1:4c:24:67:c7:57:65:e6:
         e1:84:46:76:39:c0:5d:cd:d2:8e:61:f3:c7:d7:2e:ed:91:dc:
         07:fe:55:83:e0:b8:dc:63:98:22:48:22:5f:f7:dd:4e:18:6f:
         b4:8f:bd:c3:d7:31:83:f8:fc:21:72:c2:ea:9d:41:2c:de:e6:
         5f:4e:a8:d6:95:c8:df:c8:3c:cf:9a:81:62:4e:22:2e:c9:1c:
         0d:70:81:7c:eb:6f:39:56:45:ec:6a:c0:a6:bb:4a:91:c5:cb:
         f4:3b:97:6d:0d:2d:a8:a4:4a:41:39:c8:ca:ed:92:2b:e6:b4:
         fa:d3:fd:12:f4:15:ef:5d:e7:8b:c6:84:2b:95:3f:78:c3:76:
         a9:be:15:52:3a:6a:00:58:6e:56:2b:ff:36:8d:e9:64:c3:d6:
         b5:7b:a8:8b:eb:6d:f7:01:6c:1d:3c:5b:c4:78:af:dd:cd:42:
         21:58:c0:1f:c9:bb:c4:37:8a:21:3e:8f:92:4b:83:05:43:ac:
         08:ce:5c:ce:88:d0:a3:5d:80:e0:fa:d8:bd:11:51:46:67:06:
         f8:5b:b4:73:83:83:a0:da:b4:31:24:9e:44:c4:f4:99:30:96:
         2e:df:14:c9:1b:8c:f7:52:11:f7:12:fe:28:7e:d3:03:53:41:
         e5:ba:8c:e0:e8:aa:63:5a:ae:7a:40:b1:b4:73:88:27:3d:29:
         03:ef:b4:5d:aa:77:e2:8e
-----BEGIN CERTIFICATE-----
MIIGcTCCBFmgAwIBAgICAMQwDQYJKoZIhvcNAQELBQAwUDELMAkGA1UEBhMCRlIx
DDAKBgNVBAgTA2lkZjEOMAwGA1UEBxMFcGFyaXMxDzANBgNVBAoTBlZpdGFtLjES
MBAGA1UEAxQJQ0Ffc2VydmVyMB4XDTE3MDMxNTEyMTg0NFoXDTIwMDMxNDEyMTg0
NFowZTELMAkGA1UEBhMCRlIxDDAKBgNVBAgTA2lkZjEOMAwGA1UEBxMFcGFyaXMx
DzANBgNVBAoTBlZpdGFtLjEnMCUGA1UEAxMeaW5nZXN0LWV4dGVybmFsLnNlcnZp
Y2UuY29uc3VsMIICIjANBgkqhkiG9w0BAQEFAAOCAg8AMIICCgKCAgEAzR64NuCM
DN2bMwlL4ukCnpNVMKoD6vtGX13iZxbNsYZseH/LIsdHs1RfyMjVSfumL3goOUFg
UBenyleTMxA0Rt2V4OF+76ChLmjYXBMf0w/upYqsGWbHNmUWsu+9A2UThx9KxDZM
ELleoToHGHGAZlJ6h9yBAhhSmTHOA4bgIbfihSJ6sDUiAEy4O/gBCuJAiYfIIyEl
bcOPlbl0YlixvHbrgRx4aiPCdd3VT8XWAUtUDia3/oi1GtL3cA0MHtxShBl1RJsJ
0VMQjv7EtmjGl0l3XVlLhtewfL9FULEvAIAJtEAPXJwTSZGgOSeuyf/Lif6wKidX
R5Mo0JJkAg1W1FCq/4EP/aIV7zMhJZ71XsF1PdlZMFmuwNiAkb9Gj6XErkyql+7M
XjTbaMhHBbKXAi9F0k8PtgrpwM3WwaJcGpx2/Twvnce/NbFpisFTI39vPyLV6FkW
7+5YNwhXhNNL5vxhtIpFNWCmnM7bZ9TtQ9/OW1MH6iqp+UM3bLbQ2RRnN3+euQVE
7hHZEX6s9fqK9cvU+AhcxVu+m6tykAtMjFPD9mPQia3T0lKyEFni757EAhtziATd
3UwSpx+0EpMku+axWVdkqEioWczSdfJJVpL3UF+9USw2zwhTw16j/sbrWLoFjA5H
NQBS4By4cq4jq8z9eu5Ckp3zkwBehQdY6j8CAwEAAaOCAT4wggE6MCUGCWCGSAGG
+EIBDQQYFhZDZXJ0aWZpY2F0IFNlcnZldXIgU1NMMB0GA1UdDgQWBBSCua1W06o+
8oXATMloWFqYBABbrzB5BgNVHSMEcjBwgBQP30PDxMKP59t7X6f/t+1tt7ANS6FU
pFIwUDELMAkGA1UEBhMCRlIxDDAKBgNVBAgTA2lkZjEOMAwGA1UEBxMFcGFyaXMx
DzANBgNVBAoTBlZpdGFtLjESMBAGA1UEAxQJQ0Ffc2VydmVyggIAwzAJBgNVHRIE
AjAAMCkGA1UdEQQiMCCCHmluZ2VzdC1leHRlcm5hbC5zZXJ2aWNlLmNvbnN1bDAM
BgNVHRMBAf8EAjAAMAsGA1UdDwQEAwIF4DARBglghkgBhvhCAQEEBAMCBkAwEwYD
VR0lBAwwCgYIKwYBBQUHAwEwDQYJKoZIhvcNAQELBQADggIBAF0FFtJEPimTh7+T
QRCfqghSl8Bf5ZG8JHtsquiwXDDv7+2m71BYb+JvbR1DGDCnSeZRSwE3GcvSm9jh
Wy1rtUNC/rLOpz0VA/iuS///mpHrKtJ9o2BQBJ7pTcsdRBLOKU0xvIylHASTnxrI
oHRwuLdmD3ZAgaFgQyd4gjG7snOEArlo+VAUxE8w4DA6N1zjjRqThIexlWswSAXg
AhgUaOPFM6LBguCHl4nr70Evxj0VJwXxPaH6kNdtNz/cEdzgLr5K1UMts5YSDO+o
5LQDyIri6yKt5WxP2P07gfNXNZbb2uvmZ4QsL2GvtNCXZVe0C6S/wrHhTCRnx1dl
5uGERnY5wF3N0o5h88fXLu2R3Af+VYPguNxjmCJIIl/33U4Yb7SPvcPXMYP4/CFy
wuqdQSze5l9OqNaVyN/IPM+agWJOIi7JHA1wgXzrbzlWRexqwKa7SpHFy/Q7l20N
LaikSkE5yMrtkivmtPrT/RL0Fe9d54vGhCuVP3jDdqm+FVI6agBYblYr/zaN6WTD
1rV7qIvrbfcBbB08W8R4r93NQiFYwB/Ju8Q3iiE+j5JLgwVDrAjOXM6I0KNdgOD6
2L0RUUZnBvhbtHODg6DatDEknkTE9Jkwli7fFMkbjPdSEfcS/ih+0wNTQeW6jODo
qmNarnpAsbRziCc9KQPvtF2qd+KO
-----END CERTIFICATE-----
