Certificate:
    Data:
        Version: 3 (0x2)
        Serial Number: 255 (0xff)
    Signature Algorithm: sha256WithRSAEncryption
        Issuer: C=fr, ST=idf, L=paris, O=vitam, OU=authorities, CN=ca_intermediate_server
        Validity
            Not Before: Feb 22 16:36:52 2018 GMT
            Not After : Feb 21 16:36:52 2021 GMT
        Subject: C=fr, ST=idf, L=paris, O=vitam, CN=ingest-external.service.consul
        Subject Public Key Info:
            Public Key Algorithm: rsaEncryption
                Public-Key: (4096 bit)
                Modulus:
                    00:a2:68:68:7f:39:ab:e3:6d:a6:c9:f2:d4:80:52:
                    e1:e2:50:d9:55:d5:e5:fc:c6:0b:fb:56:c2:d7:c0:
                    30:ea:12:b5:6d:94:6d:66:0d:44:78:25:67:50:cf:
                    72:f8:2a:56:1b:fb:b7:8f:05:17:1b:f2:95:18:df:
                    68:27:96:8b:26:dc:e9:49:59:08:4d:13:8f:2b:23:
                    b3:04:94:d7:b4:e0:14:f4:cf:be:a1:53:f8:58:57:
                    1f:86:6d:d4:a0:c1:b1:fd:40:db:a5:d9:a4:ab:6a:
                    6a:a7:f6:8d:c7:b5:e9:4f:a6:2b:45:88:f1:26:85:
                    01:0a:c4:2e:ef:a2:dd:6d:b9:37:8b:3b:bd:42:71:
                    3d:01:31:08:75:37:cd:1b:32:3a:d8:1a:ad:5c:2a:
                    0f:18:44:9d:bb:07:67:ea:4d:24:73:85:a8:d9:ea:
                    8f:86:a4:95:e2:e2:e1:00:a0:34:ff:92:20:18:35:
                    ba:97:bb:a3:35:57:2f:6c:35:4e:02:8d:86:e4:49:
                    99:7b:94:8e:15:5e:d5:fc:f6:5b:68:17:89:6a:81:
                    7b:75:03:32:0c:02:de:4e:5f:81:42:b4:1b:b1:ba:
                    9a:ae:ef:7c:14:2d:0e:b8:2b:f5:79:c4:b3:d3:d5:
                    b8:f2:5c:dc:b3:bc:85:51:d8:a5:b9:14:ef:6d:d0:
                    ee:04:cc:29:84:86:24:0f:bb:b0:fe:48:65:e3:69:
                    85:c2:94:bb:3a:53:33:f2:aa:e3:64:51:fc:d9:73:
                    85:64:a4:ad:0e:d7:16:a8:93:64:2f:95:d0:98:df:
                    f6:c3:9e:f3:95:c8:63:68:cd:16:3c:7e:5b:c4:1c:
                    cb:fb:1a:1b:6e:6a:ea:ee:de:f1:e7:40:e8:c2:46:
                    2f:c2:65:58:d4:77:65:9d:c4:25:ec:f6:c1:3e:80:
                    be:60:55:8e:53:3c:e8:6e:78:bb:44:89:ba:80:78:
                    e7:9f:9a:17:30:e3:80:1d:f3:e8:87:b7:ee:35:d7:
                    7f:3f:c1:94:1a:bd:1c:ec:de:dc:56:6e:82:1d:58:
                    15:82:46:8d:d5:7e:6b:a5:29:44:69:7c:ac:4d:7f:
                    5b:6c:1a:1c:f5:56:9e:7b:5b:c3:86:36:6d:60:d7:
                    28:94:ae:84:e0:99:b5:d1:7b:2a:2f:22:47:79:b9:
                    af:b8:53:44:29:0b:34:d4:5c:d3:15:11:1e:cb:52:
                    1e:03:7a:99:31:07:4a:c6:e7:f8:86:5c:d3:65:cf:
                    f7:8f:43:72:55:08:57:6e:87:68:27:46:af:3c:f4:
                    85:e0:1e:fe:b8:c0:23:f3:ee:fa:bd:72:3a:a2:4f:
                    ea:50:7a:03:b4:d8:2a:be:85:45:0a:4d:2a:25:15:
                    87:67:c9
                Exponent: 65537 (0x10001)
        X509v3 extensions:
            Netscape Comment: 
                Certificat Serveur SSL
            X509v3 Subject Key Identifier: 
                CF:83:D0:72:F5:7F:B4:60:FE:A0:20:1E:9C:86:F6:D6:3B:B9:E4:CD
            X509v3 Authority Key Identifier: 
                keyid:6D:B1:F2:D5:CE:0E:93:60:CE:FD:D3:91:D2:23:ED:95:21:BB:D5:0C
                DirName:/C=fr/ST=idf/L=paris/O=vitam/OU=authorities/CN=ca_root_server
                serial:DB

            X509v3 Issuer Alternative Name: 
                <EMPTY>

            X509v3 Subject Alternative Name: 
                DNS:ingest-external.service.consul, DNS:localhost
            X509v3 Basic Constraints: critical
                CA:FALSE
            X509v3 Key Usage: 
                Digital Signature, Non Repudiation, Key Encipherment
            Netscape Cert Type: 
                SSL Server
            X509v3 Extended Key Usage: 
                TLS Web Server Authentication
    Signature Algorithm: sha256WithRSAEncryption
         1e:24:38:a9:30:90:ba:6b:51:26:84:c7:53:34:00:bd:22:ff:
         4c:e5:53:d1:62:66:17:b4:6f:cd:5e:32:b6:45:6a:30:fb:a1:
         5a:b3:f3:9b:50:5f:66:a5:1f:ee:bc:7f:d0:32:58:a2:b8:4d:
         74:0c:5b:e6:f0:e5:34:31:61:d9:e3:90:f0:27:e7:99:7e:76:
         4c:62:27:72:77:cd:de:6e:5e:3e:d7:ac:c2:dc:1a:cb:7d:a6:
         7c:1a:df:80:a4:98:06:48:ea:dd:7a:fe:b3:4b:c6:83:a5:1d:
         c7:2d:03:b8:17:37:7c:3a:4f:f7:7f:4f:df:b3:c9:1b:e8:6c:
         47:cf:7c:08:ab:48:49:94:53:0d:c0:b4:a6:9e:c7:4d:ac:e9:
         74:dd:a5:c5:0e:be:63:45:29:52:a5:49:ca:37:39:a3:74:12:
         c7:a9:40:b9:72:88:b5:e6:f9:b2:de:6e:6f:0a:87:f1:26:68:
         64:88:8b:e7:93:be:cf:53:a6:39:3f:04:db:60:bb:88:e6:5a:
         03:b5:29:a0:b4:b2:7e:a8:c0:60:93:fb:a1:60:83:54:f6:11:
         e5:5a:c2:0c:ce:07:a7:6a:8e:f2:d2:4b:25:cf:fd:52:bf:af:
         f1:4e:3b:8a:ca:91:cc:80:b8:c4:c1:58:cc:a5:aa:94:07:83:
         fd:41:e9:5b:10:5f:6b:39:0f:69:8e:2a:36:ac:99:34:58:38:
         80:49:bf:28:c5:85:48:36:e7:1f:6a:62:e3:5a:3b:2b:92:04:
         33:b4:56:d0:8e:3d:81:f3:79:17:77:c8:24:30:61:e9:ef:72:
         07:84:df:a1:dd:21:b6:e6:26:43:b6:eb:05:92:1c:8a:36:57:
         2d:89:a2:f8:bc:38:20:1d:a9:a1:49:e3:37:3d:ae:ce:1b:7c:
         62:63:10:fd:96:aa:9d:db:d7:46:90:4a:9d:fe:bf:27:06:43:
         c1:9e:7b:93:7c:05:72:e7:50:e5:de:30:c5:05:71:67:2b:13:
         42:52:c3:f2:46:52:b7:38:3f:41:5e:86:d3:df:0f:89:f8:88:
         3f:f2:20:c0:02:8c:4e:c8:4b:bf:a9:81:e9:b9:48:c0:fe:ea:
         38:c0:c1:8c:f5:dd:3a:06:8b:54:4d:0c:0d:3f:fb:fe:91:45:
         6f:15:ce:d4:23:51:dc:00:75:ea:25:60:c6:5b:52:78:e8:d8:
         b0:5a:2c:2d:41:ed:c2:4d:8a:05:db:a2:12:87:ca:ef:db:bd:
         6f:32:7f:99:f4:2a:e3:2b:11:6d:15:e7:47:a8:2c:1a:61:2d:
         15:7e:c5:47:2f:10:c4:13:0a:32:8a:37:4b:3f:54:fd:ba:2d:
         89:87:ca:a9:ed:2b:17:c2
-----BEGIN CERTIFICATE-----
MIIGujCCBKKgAwIBAgICAP8wDQYJKoZIhvcNAQELBQAwcjELMAkGA1UEBhMCZnIx
DDAKBgNVBAgMA2lkZjEOMAwGA1UEBwwFcGFyaXMxDjAMBgNVBAoMBXZpdGFtMRQw
EgYDVQQLDAthdXRob3JpdGllczEfMB0GA1UEAwwWY2FfaW50ZXJtZWRpYXRlX3Nl
cnZlcjAeFw0xODAyMjIxNjM2NTJaFw0yMTAyMjExNjM2NTJaMGQxCzAJBgNVBAYT
AmZyMQwwCgYDVQQIDANpZGYxDjAMBgNVBAcMBXBhcmlzMQ4wDAYDVQQKDAV2aXRh
bTEnMCUGA1UEAwweaW5nZXN0LWV4dGVybmFsLnNlcnZpY2UuY29uc3VsMIICIjAN
BgkqhkiG9w0BAQEFAAOCAg8AMIICCgKCAgEAomhofzmr422myfLUgFLh4lDZVdXl
/MYL+1bC18Aw6hK1bZRtZg1EeCVnUM9y+CpWG/u3jwUXG/KVGN9oJ5aLJtzpSVkI
TROPKyOzBJTXtOAU9M++oVP4WFcfhm3UoMGx/UDbpdmkq2pqp/aNx7XpT6YrRYjx
JoUBCsQu76Ldbbk3izu9QnE9ATEIdTfNGzI62BqtXCoPGESduwdn6k0kc4Wo2eqP
hqSV4uLhAKA0/5IgGDW6l7ujNVcvbDVOAo2G5EmZe5SOFV7V/PZbaBeJaoF7dQMy
DALeTl+BQrQbsbqaru98FC0OuCv1ecSz09W48lzcs7yFUdiluRTvbdDuBMwphIYk
D7uw/khl42mFwpS7OlMz8qrjZFH82XOFZKStDtcWqJNkL5XQmN/2w57zlchjaM0W
PH5bxBzL+xobbmrq7t7x50DowkYvwmVY1HdlncQl7PbBPoC+YFWOUzzobni7RIm6
gHjnn5oXMOOAHfPoh7fuNdd/P8GUGr0c7N7cVm6CHVgVgkaN1X5rpSlEaXysTX9b
bBoc9Vaee1vDhjZtYNcolK6E4Jm10XsqLyJHebmvuFNEKQs01FzTFREey1IeA3qZ
MQdKxuf4hlzTZc/3j0NyVQhXbodoJ0avPPSF4B7+uMAj8+76vXI6ok/qUHoDtNgq
voVFCk0qJRWHZ8kCAwEAAaOCAWYwggFiMCUGCWCGSAGG+EIBDQQYFhZDZXJ0aWZp
Y2F0IFNlcnZldXIgU1NMMB0GA1UdDgQWBBTPg9By9X+0YP6gIB6chvbWO7nkzTCB
lQYDVR0jBIGNMIGKgBRtsfLVzg6TYM7905HSI+2VIbvVDKFupGwwajELMAkGA1UE
BhMCZnIxDDAKBgNVBAgMA2lkZjEOMAwGA1UEBwwFcGFyaXMxDjAMBgNVBAoMBXZp
dGFtMRQwEgYDVQQLDAthdXRob3JpdGllczEXMBUGA1UEAwwOY2Ffcm9vdF9zZXJ2
ZXKCAgDbMAkGA1UdEgQCMAAwNAYDVR0RBC0wK4IeaW5nZXN0LWV4dGVybmFsLnNl
cnZpY2UuY29uc3Vsgglsb2NhbGhvc3QwDAYDVR0TAQH/BAIwADALBgNVHQ8EBAMC
BeAwEQYJYIZIAYb4QgEBBAQDAgZAMBMGA1UdJQQMMAoGCCsGAQUFBwMBMA0GCSqG
SIb3DQEBCwUAA4ICAQAeJDipMJC6a1EmhMdTNAC9Iv9M5VPRYmYXtG/NXjK2RWow
+6Fas/ObUF9mpR/uvH/QMliiuE10DFvm8OU0MWHZ45DwJ+eZfnZMYidyd83ebl4+
16zC3BrLfaZ8Gt+ApJgGSOrdev6zS8aDpR3HLQO4Fzd8Ok/3f0/fs8kb6GxHz3wI
q0hJlFMNwLSmnsdNrOl03aXFDr5jRSlSpUnKNzmjdBLHqUC5coi15vmy3m5vCofx
JmhkiIvnk77PU6Y5PwTbYLuI5loDtSmgtLJ+qMBgk/uhYINU9hHlWsIMzgenao7y
0kslz/1Sv6/xTjuKypHMgLjEwVjMpaqUB4P9QelbEF9rOQ9pjio2rJk0WDiASb8o
xYVINucfamLjWjsrkgQztFbQjj2B83kXd8gkMGHp73IHhN+h3SG25iZDtusFkhyK
NlctiaL4vDggHamhSeM3Pa7OG3xiYxD9lqqd29dGkEqd/r8nBkPBnnuTfAVy51Dl
3jDFBXFnKxNCUsPyRlK3OD9BXobT3w+J+Ig/8iDAAoxOyEu/qYHpuUjA/uo4wMGM
9d06BotUTQwNP/v+kUVvFc7UI1HcAHXqJWDGW1J46NiwWiwtQe3CTYoF26ISh8rv
271vMn+Z9CrjKxFtFedHqCwaYS0VfsVHLxDEEwoyijdLP1T9ui2Jh8qp7SsXwg==
-----END CERTIFICATE-----
