Certificate:
    Data:
        Version: 3 (0x2)
        Serial Number: 225 (0xe1)
    Signature Algorithm: sha256WithRSAEncryption
        Issuer: C=fr, ST=idf, L=paris, O=vitam, OU=authorities, CN=ca_intermediate_server
        Validity
            Not Before: Feb  5 12:57:11 2018 GMT
            Not After : Feb  4 12:57:11 2021 GMT
        Subject: C=fr, ST=idf, L=paris, O=vitam, CN=ingest-external.service.consul
        Subject Public Key Info:
            Public Key Algorithm: rsaEncryption
                Public-Key: (4096 bit)
                Modulus:
                    00:c1:ad:bf:00:60:9c:e9:13:55:1b:c7:17:97:8d:
                    1c:46:b4:6d:b8:d9:0e:20:12:36:7c:ce:5d:98:f6:
                    af:f5:4f:da:a8:e9:bf:ce:9d:f3:40:48:cc:6f:f8:
                    fe:f4:a2:11:e8:40:cb:4e:38:7c:18:3d:fe:dc:04:
                    b9:ee:5b:e1:06:7b:bc:a1:49:86:6f:bc:bd:d7:81:
                    b5:69:22:b1:12:00:39:ee:a7:98:dc:a1:81:bb:ea:
                    85:4d:c7:b3:7c:1d:50:8d:af:55:bd:7a:d7:90:a7:
                    34:11:c7:60:f7:ee:43:7f:e8:c9:3d:7a:4d:5b:80:
                    5b:6e:47:24:a0:12:f0:af:c7:17:e2:3a:5e:76:2d:
                    0f:e1:3f:0b:f6:46:9e:e9:4c:0d:51:cc:be:e2:73:
                    15:de:22:d8:fa:3d:04:19:2d:1c:f7:8d:43:c4:c7:
                    29:c2:29:d6:a2:9e:9a:ef:67:4b:f2:2d:7e:d6:7e:
                    e9:cb:2b:a6:50:bc:8a:58:5b:a1:ed:56:21:dc:06:
                    76:64:50:41:08:97:51:68:b4:79:1b:7f:93:9c:37:
                    04:2a:49:90:3b:72:ea:79:a6:80:9d:5d:33:45:10:
                    0e:3f:26:af:fa:6c:44:2b:61:fb:02:a8:28:a6:2c:
                    8c:b9:ec:16:9f:44:f9:bb:31:8f:a1:60:c8:c1:ed:
                    3d:bf:e3:09:03:38:b8:4a:4d:38:13:65:42:a3:ff:
                    42:0d:eb:4d:45:1e:76:a4:56:cd:4f:b7:73:ed:6e:
                    fd:3c:51:05:59:26:cd:8a:10:fb:cd:c1:6d:a0:b2:
                    62:a2:58:43:9b:d8:0f:05:8d:87:5d:1c:65:f5:12:
                    d6:08:5d:95:32:99:34:72:e8:8e:f7:41:e5:a0:5d:
                    58:4f:99:d5:c6:14:09:55:40:b0:53:97:c8:6f:98:
                    58:76:b3:33:a5:a3:a0:2d:3d:f5:92:ab:ce:09:2b:
                    89:89:55:84:8c:67:16:14:d1:1c:7b:ef:13:3b:fb:
                    78:47:1f:6c:7e:90:77:ec:01:2d:84:f9:47:e9:bc:
                    51:87:f5:a6:8f:2c:fd:32:93:2d:02:a5:fc:05:a4:
                    a3:ee:30:7b:41:c0:1c:80:3a:40:e2:e1:9f:c5:62:
                    7c:ec:84:6b:21:31:fa:9b:cd:98:0a:2d:a5:e8:d5:
                    a5:77:40:78:09:fe:69:4f:e4:3a:a5:cc:91:37:83:
                    02:5b:d8:6f:9a:3b:21:5e:ee:bd:12:38:ce:70:6c:
                    fd:d8:3d:0e:58:65:16:de:76:da:1b:bb:89:58:c7:
                    6f:09:f7:3c:2a:cb:02:08:47:4e:b1:60:fc:55:76:
                    89:3b:5f:f1:6a:8b:b3:9f:2d:4a:d3:a8:9a:1a:37:
                    44:c1:1f
                Exponent: 65537 (0x10001)
        X509v3 extensions:
            Netscape Comment: 
                Certificat Serveur SSL
            X509v3 Subject Key Identifier: 
                AB:25:05:FE:7C:8D:0A:60:3D:53:E2:19:BD:4E:D9:88:B5:8C:17:74
            X509v3 Authority Key Identifier: 
                keyid:5A:C7:76:2D:0B:CA:D2:5D:01:B1:16:A7:F9:F2:91:A2:20:E5:56:42
                DirName:/C=fr/ST=idf/L=paris/O=vitam/OU=authorities/CN=ca_root_server
                serial:DB

            X509v3 Issuer Alternative Name: 
                <EMPTY>

            X509v3 Subject Alternative Name: 
                DNS:ingest-external.service.consul, DNS:localhost
            X509v3 Basic Constraints: critical
                CA:FALSE
            X509v3 Key Usage: 
                Digital Signature, Non Repudiation, Key Encipherment
            Netscape Cert Type: 
                SSL Server
            X509v3 Extended Key Usage: 
                TLS Web Server Authentication
    Signature Algorithm: sha256WithRSAEncryption
         86:6e:53:28:fc:96:66:57:20:50:10:11:0d:33:38:21:e8:3b:
         af:21:44:4b:61:9c:81:4b:14:d2:f1:07:e4:8e:fd:70:dd:14:
         45:de:3d:34:c0:52:cb:ef:4e:41:0b:a9:34:99:8e:03:5a:0e:
         15:c1:6d:6c:b5:27:82:a4:86:cc:ad:9b:cb:1f:21:f7:5f:dd:
         ec:47:4c:0c:d9:a0:a5:62:3d:88:8d:cb:f1:84:c0:ae:30:3b:
         25:5f:cd:44:4b:1c:06:9b:c3:a1:b1:8f:25:92:9b:82:97:20:
         bf:e7:32:5b:bf:09:fd:62:02:49:7a:37:6d:be:26:bf:bd:39:
         fe:bd:13:98:45:73:2e:8d:75:9c:18:78:9d:59:be:32:e2:a3:
         a4:b4:50:b6:3e:98:2c:30:10:e2:2a:4d:0b:d7:09:3f:16:18:
         f1:0b:a8:a2:24:c5:c6:53:b8:37:cc:28:11:26:04:1c:b8:01:
         4c:9b:dd:7e:73:5e:98:f9:73:da:b8:7a:22:21:07:88:ac:ec:
         23:47:f0:f8:9d:17:96:8f:a7:43:9e:a7:fe:26:c1:5e:0a:62:
         ee:16:ed:ff:74:77:4a:57:8a:af:38:b9:37:22:5a:fc:5b:dc:
         a8:3b:9e:2d:72:75:34:6f:03:fb:be:ef:98:fd:96:9f:87:9e:
         0c:77:6f:78:c9:43:70:ee:b3:70:99:69:f3:00:23:ec:3d:9f:
         1e:2b:48:c1:f9:41:a3:0b:ae:ab:08:83:26:54:56:36:51:2e:
         68:03:15:ed:34:f2:65:32:b2:f0:f8:1c:a1:ab:88:df:59:c3:
         0c:b4:81:c1:b6:98:04:01:fa:43:06:dc:6e:91:ef:73:ba:4e:
         a2:d8:f6:0e:b1:38:c1:a9:0d:55:ef:52:8e:9c:ac:d1:69:99:
         e2:28:34:82:50:7f:98:55:1c:91:f0:db:02:48:1f:66:db:9e:
         96:a7:07:ef:7b:77:ae:24:0e:ee:30:37:8a:62:e9:e9:99:79:
         bf:1d:01:c0:e5:68:ff:ad:36:48:fb:39:c8:58:20:c9:b9:55:
         3e:bb:da:cc:ac:1d:01:de:10:ab:ab:2d:90:ae:02:ef:3d:10:
         6b:9b:47:3b:1a:1b:f7:bc:fb:46:b5:c7:e5:f6:bf:58:19:7c:
         58:2c:ae:2a:17:1e:6e:23:ec:90:f9:b5:e6:89:db:22:d6:11:
         e6:8a:b1:78:43:ee:43:f1:18:5b:35:6a:5b:9a:9c:4e:df:46:
         45:9e:a6:3a:47:68:1c:77:87:b2:ac:61:fd:29:49:c8:60:a9:
         2e:81:11:03:7d:be:84:92:cf:7c:bf:20:fe:89:21:2f:12:c3:
         01:c6:2f:19:8e:6c:07:58
-----BEGIN CERTIFICATE-----
MIIGujCCBKKgAwIBAgICAOEwDQYJKoZIhvcNAQELBQAwcjELMAkGA1UEBhMCZnIx
DDAKBgNVBAgMA2lkZjEOMAwGA1UEBwwFcGFyaXMxDjAMBgNVBAoMBXZpdGFtMRQw
EgYDVQQLDAthdXRob3JpdGllczEfMB0GA1UEAwwWY2FfaW50ZXJtZWRpYXRlX3Nl
cnZlcjAeFw0xODAyMDUxMjU3MTFaFw0yMTAyMDQxMjU3MTFaMGQxCzAJBgNVBAYT
AmZyMQwwCgYDVQQIDANpZGYxDjAMBgNVBAcMBXBhcmlzMQ4wDAYDVQQKDAV2aXRh
bTEnMCUGA1UEAwweaW5nZXN0LWV4dGVybmFsLnNlcnZpY2UuY29uc3VsMIICIjAN
BgkqhkiG9w0BAQEFAAOCAg8AMIICCgKCAgEAwa2/AGCc6RNVG8cXl40cRrRtuNkO
IBI2fM5dmPav9U/aqOm/zp3zQEjMb/j+9KIR6EDLTjh8GD3+3AS57lvhBnu8oUmG
b7y914G1aSKxEgA57qeY3KGBu+qFTcezfB1Qja9VvXrXkKc0Ecdg9+5Df+jJPXpN
W4BbbkckoBLwr8cX4jpedi0P4T8L9kae6UwNUcy+4nMV3iLY+j0EGS0c941DxMcp
winWop6a72dL8i1+1n7pyyumULyKWFuh7VYh3AZ2ZFBBCJdRaLR5G3+TnDcEKkmQ
O3LqeaaAnV0zRRAOPyav+mxEK2H7AqgopiyMuewWn0T5uzGPoWDIwe09v+MJAzi4
Sk04E2VCo/9CDetNRR52pFbNT7dz7W79PFEFWSbNihD7zcFtoLJiolhDm9gPBY2H
XRxl9RLWCF2VMpk0cuiO90HloF1YT5nVxhQJVUCwU5fIb5hYdrMzpaOgLT31kqvO
CSuJiVWEjGcWFNEce+8TO/t4Rx9sfpB37AEthPlH6bxRh/Wmjyz9MpMtAqX8BaSj
7jB7QcAcgDpA4uGfxWJ87IRrITH6m82YCi2l6NWld0B4Cf5pT+Q6pcyRN4MCW9hv
mjshXu69EjjOcGz92D0OWGUW3nbaG7uJWMdvCfc8KssCCEdOsWD8VXaJO1/xaouz
ny1K06iaGjdEwR8CAwEAAaOCAWYwggFiMCUGCWCGSAGG+EIBDQQYFhZDZXJ0aWZp
Y2F0IFNlcnZldXIgU1NMMB0GA1UdDgQWBBSrJQX+fI0KYD1T4hm9TtmItYwXdDCB
lQYDVR0jBIGNMIGKgBRax3YtC8rSXQGxFqf58pGiIOVWQqFupGwwajELMAkGA1UE
BhMCZnIxDDAKBgNVBAgMA2lkZjEOMAwGA1UEBwwFcGFyaXMxDjAMBgNVBAoMBXZp
dGFtMRQwEgYDVQQLDAthdXRob3JpdGllczEXMBUGA1UEAwwOY2Ffcm9vdF9zZXJ2
ZXKCAgDbMAkGA1UdEgQCMAAwNAYDVR0RBC0wK4IeaW5nZXN0LWV4dGVybmFsLnNl
cnZpY2UuY29uc3Vsgglsb2NhbGhvc3QwDAYDVR0TAQH/BAIwADALBgNVHQ8EBAMC
BeAwEQYJYIZIAYb4QgEBBAQDAgZAMBMGA1UdJQQMMAoGCCsGAQUFBwMBMA0GCSqG
SIb3DQEBCwUAA4ICAQCGblMo/JZmVyBQEBENMzgh6DuvIURLYZyBSxTS8Qfkjv1w
3RRF3j00wFLL705BC6k0mY4DWg4VwW1stSeCpIbMrZvLHyH3X93sR0wM2aClYj2I
jcvxhMCuMDslX81ESxwGm8OhsY8lkpuClyC/5zJbvwn9YgJJejdtvia/vTn+vROY
RXMujXWcGHidWb4y4qOktFC2PpgsMBDiKk0L1wk/FhjxC6iiJMXGU7g3zCgRJgQc
uAFMm91+c16Y+XPauHoiIQeIrOwjR/D4nReWj6dDnqf+JsFeCmLuFu3/dHdKV4qv
OLk3Ilr8W9yoO54tcnU0bwP7vu+Y/Zafh54Md294yUNw7rNwmWnzACPsPZ8eK0jB
+UGjC66rCIMmVFY2US5oAxXtNPJlMrLw+Byhq4jfWcMMtIHBtpgEAfpDBtxuke9z
uk6i2PYOsTjBqQ1V71KOnKzRaZniKDSCUH+YVRyR8NsCSB9m256Wpwfve3euJA7u
MDeKYunpmXm/HQHA5Wj/rTZI+znIWCDJuVU+u9rMrB0B3hCrqy2QrgLvPRBrm0c7
Ghv3vPtGtcfl9r9YGXxYLK4qFx5uI+yQ+bXmidsi1hHmirF4Q+5D8RhbNWpbmpxO
30ZFnqY6R2gcd4eyrGH9KUnIYKkugREDfb6Eks98vyD+iSEvEsMBxi8ZjmwHWA==
-----END CERTIFICATE-----
