Certificate:
    Data:
        Version: 3 (0x2)
        Serial Number: 201 (0xc9)
    Signature Algorithm: sha256WithRSAEncryption
        Issuer: C=fr, ST=idf, L=paris, O=vitam, OU=authorities, CN=ca_intermediate_server
        Validity
            Not Before: Jul 12 14:29:48 2017 GMT
            Not After : Jul 11 14:29:48 2020 GMT
        Subject: C=fr, ST=idf, L=paris, O=vitam, CN=ingest-external.service.consul
        Subject Public Key Info:
            Public Key Algorithm: rsaEncryption
                Public-Key: (4096 bit)
                Modulus:
                    00:da:8d:8d:5a:a9:61:c1:4f:0e:aa:64:50:2a:6b:
                    65:69:b0:a5:8d:85:b7:bc:eb:9e:c8:f4:60:83:ba:
                    5d:57:c8:94:e1:c6:2e:cc:0a:0f:bb:e7:e0:2c:87:
                    c8:ea:a5:6d:ff:44:84:62:e7:be:84:07:cc:8d:ff:
                    84:47:30:df:84:0e:e1:2a:25:c0:21:52:b5:c7:77:
                    e4:b8:a1:d6:c6:40:1d:a3:5d:38:9c:a0:aa:83:92:
                    51:1e:6b:ad:41:8a:2c:9e:36:b9:b2:09:5b:94:47:
                    56:8d:7f:19:2b:63:04:77:dc:4d:43:c8:84:43:9e:
                    4c:d7:c1:b4:fe:19:dc:26:67:64:0e:46:5f:38:a2:
                    16:ea:14:cb:b1:a9:79:0d:1a:01:8c:aa:82:f2:6a:
                    6f:e6:6c:66:05:65:b1:1a:ad:62:65:a1:df:52:dc:
                    0a:b8:07:16:19:41:60:c9:68:4e:19:eb:02:ce:d0:
                    5e:76:fe:ad:0a:78:6f:63:b3:a9:b3:20:b0:70:e5:
                    e9:df:f5:df:c4:bd:d3:c9:09:e0:80:bf:e9:6b:4b:
                    8c:4b:14:69:4e:9b:50:d5:17:a8:19:72:b7:03:34:
                    a9:37:38:9f:1f:37:78:86:7c:10:7f:69:1b:f7:0c:
                    f8:40:06:cf:a2:a7:bb:2a:cd:85:02:c1:7d:d4:b8:
                    69:d1:59:d7:70:a2:52:e7:ac:cd:14:d3:3a:e5:9b:
                    ca:57:41:83:ca:8e:2d:7d:b1:7b:a2:c6:26:38:e8:
                    b8:24:3d:50:5e:0c:0b:61:0f:59:c6:32:43:e5:d5:
                    fa:d8:c3:56:bd:27:dd:27:09:bb:b2:2a:07:48:4d:
                    c2:8b:88:26:e5:1b:83:ae:8b:2f:79:63:32:15:da:
                    a7:67:e8:76:93:f7:01:c8:36:38:3d:12:d8:3c:76:
                    52:40:8f:41:90:2a:9e:10:e0:2e:15:07:1f:f2:7c:
                    f6:82:8f:84:15:f8:36:90:05:62:98:50:89:e0:1f:
                    6f:55:df:d4:81:9d:32:7c:97:7d:5b:84:fa:7e:ed:
                    7b:57:60:4f:4f:01:5f:8b:0d:f3:21:78:3b:d3:95:
                    c5:38:03:4e:07:33:4c:95:82:90:80:e9:76:7c:3b:
                    ba:f0:c4:6d:43:67:81:34:03:f0:a9:d8:a4:4e:0c:
                    bd:2b:b7:84:87:48:08:2e:e3:5d:7c:12:ce:25:5f:
                    4e:4b:60:d6:76:dd:aa:0b:dd:02:3e:27:7c:af:ce:
                    49:35:99:54:58:d7:a8:45:e5:cf:e4:99:0a:03:69:
                    e4:83:1a:f1:49:c7:05:b9:44:5f:fb:5b:e8:11:a9:
                    9e:16:6b:1e:5d:9d:2a:55:06:62:d2:43:04:03:34:
                    ad:f9:73
                Exponent: 65537 (0x10001)
        X509v3 extensions:
            Netscape Comment: 
                Certificat Serveur SSL
            X509v3 Subject Key Identifier: 
                13:B9:22:8C:44:1F:BF:01:B8:D1:5B:8F:2A:58:DE:6B:0F:3C:36:3F
            X509v3 Authority Key Identifier: 
                keyid:80:0B:DF:DC:D5:21:B0:C8:E3:CC:91:21:8F:29:18:A0:6E:B4:C8:12
                DirName:/C=fr/ST=idf/L=paris/O=vitam/OU=authorities/CN=ca_root_server
                serial:C8

            X509v3 Issuer Alternative Name: 
                <EMPTY>

            X509v3 Subject Alternative Name: 
                DNS:ingest-external.service.consul, DNS:localhost
            X509v3 Basic Constraints: critical
                CA:FALSE
            X509v3 Key Usage: 
                Digital Signature, Non Repudiation, Key Encipherment
            Netscape Cert Type: 
                SSL Server
            X509v3 Extended Key Usage: 
                TLS Web Server Authentication
    Signature Algorithm: sha256WithRSAEncryption
         22:2e:4e:a6:5e:f9:df:03:e1:bf:33:bf:b5:70:07:0c:38:49:
         ed:5f:9d:c8:32:ef:20:d0:20:1b:ff:87:82:5f:c1:12:cf:2c:
         38:88:65:be:5f:27:09:88:b5:8b:53:c9:c9:15:eb:5b:77:61:
         6b:38:c0:1d:fe:75:3a:d4:8f:fe:5b:de:30:a5:11:31:01:f9:
         3b:d8:7d:23:93:9c:6b:f0:3b:2d:e2:1d:af:a7:1e:43:9a:5c:
         2e:1c:50:16:93:e5:fa:ce:bf:7b:11:06:b2:bd:8d:9b:ba:58:
         f7:c7:d1:ec:7a:52:91:95:31:e6:ee:83:1e:ac:2f:76:13:5f:
         62:05:60:10:f8:73:60:3c:3b:b8:0c:02:f9:e3:db:1d:6c:87:
         55:77:40:9a:f9:9e:91:e0:51:0d:50:a2:1d:e0:76:b9:60:e8:
         e4:31:d8:04:b3:b6:b3:57:d2:4b:4f:10:03:4c:fa:21:cb:32:
         46:b5:e8:5c:82:64:09:4b:27:0e:7c:aa:7a:be:2f:4a:0a:c5:
         58:af:21:9a:8a:52:73:f0:ff:ab:8f:d6:27:d2:d6:30:04:9f:
         c1:a3:20:63:98:0d:0f:6b:b6:d9:9d:72:0c:10:8c:ac:80:a1:
         7a:4f:a0:a5:a0:7d:8d:dc:d4:1a:48:2a:8a:4f:f8:ed:67:0b:
         2d:ce:32:35:b4:dd:bd:31:27:db:50:81:6d:a0:55:b0:b4:2a:
         07:cc:ea:bb:f3:a3:72:6e:c9:fc:d9:25:ad:b1:df:0b:7d:ec:
         87:75:65:c7:be:a5:f8:ae:46:d4:f4:ad:76:c2:4d:47:8d:da:
         9e:08:a1:f3:df:fa:c4:2d:2f:8b:cf:f6:9f:33:19:36:5f:6e:
         78:62:47:d4:09:7e:89:75:10:be:fe:ce:27:42:35:b2:2d:0f:
         10:2f:09:a8:e0:13:fb:cd:3f:fe:82:ef:c1:15:26:0f:24:89:
         ee:08:c6:bd:82:cb:82:2c:56:2b:80:61:da:89:15:89:d1:0c:
         d1:58:c5:c1:8b:7f:4d:d8:d9:1a:1b:06:46:26:38:c4:9f:fd:
         73:7a:53:16:35:11:69:2c:63:0d:4d:01:6a:38:82:ad:e5:f0:
         ff:08:ed:6d:e4:d4:13:08:80:17:46:d4:de:f7:83:08:58:8f:
         4a:e4:dd:72:95:8d:f5:e5:d6:37:45:ac:32:09:29:31:e8:1f:
         b9:81:98:d5:b8:bc:41:77:c6:6a:c0:f6:28:70:ac:a4:6f:e5:
         33:8b:cb:f9:d7:61:3e:bd:5e:d5:03:69:e2:5c:7a:f4:8e:eb:
         fb:bf:c5:b4:13:d6:e3:e7:76:c2:70:c4:71:c7:56:10:0c:c1:
         0b:68:3a:a5:21:2a:59:5d
-----BEGIN CERTIFICATE-----
MIIGujCCBKKgAwIBAgICAMkwDQYJKoZIhvcNAQELBQAwcjELMAkGA1UEBhMCZnIx
DDAKBgNVBAgMA2lkZjEOMAwGA1UEBwwFcGFyaXMxDjAMBgNVBAoMBXZpdGFtMRQw
EgYDVQQLDAthdXRob3JpdGllczEfMB0GA1UEAwwWY2FfaW50ZXJtZWRpYXRlX3Nl
cnZlcjAeFw0xNzA3MTIxNDI5NDhaFw0yMDA3MTExNDI5NDhaMGQxCzAJBgNVBAYT
AmZyMQwwCgYDVQQIDANpZGYxDjAMBgNVBAcMBXBhcmlzMQ4wDAYDVQQKDAV2aXRh
bTEnMCUGA1UEAwweaW5nZXN0LWV4dGVybmFsLnNlcnZpY2UuY29uc3VsMIICIjAN
BgkqhkiG9w0BAQEFAAOCAg8AMIICCgKCAgEA2o2NWqlhwU8OqmRQKmtlabCljYW3
vOueyPRgg7pdV8iU4cYuzAoPu+fgLIfI6qVt/0SEYue+hAfMjf+ERzDfhA7hKiXA
IVK1x3fkuKHWxkAdo104nKCqg5JRHmutQYosnja5sglblEdWjX8ZK2MEd9xNQ8iE
Q55M18G0/hncJmdkDkZfOKIW6hTLsal5DRoBjKqC8mpv5mxmBWWxGq1iZaHfUtwK
uAcWGUFgyWhOGesCztBedv6tCnhvY7OpsyCwcOXp3/XfxL3TyQnggL/pa0uMSxRp
TptQ1ReoGXK3AzSpNzifHzd4hnwQf2kb9wz4QAbPoqe7Ks2FAsF91Lhp0VnXcKJS
56zNFNM65ZvKV0GDyo4tfbF7osYmOOi4JD1QXgwLYQ9ZxjJD5dX62MNWvSfdJwm7
sioHSE3Ci4gm5RuDrosveWMyFdqnZ+h2k/cByDY4PRLYPHZSQI9BkCqeEOAuFQcf
8nz2go+EFfg2kAVimFCJ4B9vVd/UgZ0yfJd9W4T6fu17V2BPTwFfiw3zIXg705XF
OANOBzNMlYKQgOl2fDu68MRtQ2eBNAPwqdikTgy9K7eEh0gILuNdfBLOJV9OS2DW
dt2qC90CPid8r85JNZlUWNeoReXP5JkKA2nkgxrxSccFuURf+1voEameFmseXZ0q
VQZi0kMEAzSt+XMCAwEAAaOCAWYwggFiMCUGCWCGSAGG+EIBDQQYFhZDZXJ0aWZp
Y2F0IFNlcnZldXIgU1NMMB0GA1UdDgQWBBQTuSKMRB+/AbjRW48qWN5rDzw2PzCB
lQYDVR0jBIGNMIGKgBSAC9/c1SGwyOPMkSGPKRigbrTIEqFupGwwajELMAkGA1UE
BhMCZnIxDDAKBgNVBAgMA2lkZjEOMAwGA1UEBwwFcGFyaXMxDjAMBgNVBAoMBXZp
dGFtMRQwEgYDVQQLDAthdXRob3JpdGllczEXMBUGA1UEAwwOY2Ffcm9vdF9zZXJ2
ZXKCAgDIMAkGA1UdEgQCMAAwNAYDVR0RBC0wK4IeaW5nZXN0LWV4dGVybmFsLnNl
cnZpY2UuY29uc3Vsgglsb2NhbGhvc3QwDAYDVR0TAQH/BAIwADALBgNVHQ8EBAMC
BeAwEQYJYIZIAYb4QgEBBAQDAgZAMBMGA1UdJQQMMAoGCCsGAQUFBwMBMA0GCSqG
SIb3DQEBCwUAA4ICAQAiLk6mXvnfA+G/M7+1cAcMOEntX53IMu8g0CAb/4eCX8ES
zyw4iGW+XycJiLWLU8nJFetbd2FrOMAd/nU61I/+W94wpRExAfk72H0jk5xr8Dst
4h2vpx5DmlwuHFAWk+X6zr97EQayvY2bulj3x9HselKRlTHm7oMerC92E19iBWAQ
+HNgPDu4DAL549sdbIdVd0Ca+Z6R4FENUKId4Ha5YOjkMdgEs7azV9JLTxADTPoh
yzJGtehcgmQJSycOfKp6vi9KCsVYryGailJz8P+rj9Yn0tYwBJ/BoyBjmA0Pa7bZ
nXIMEIysgKF6T6CloH2N3NQaSCqKT/jtZwstzjI1tN29MSfbUIFtoFWwtCoHzOq7
86Nybsn82SWtsd8LfeyHdWXHvqX4rkbU9K12wk1HjdqeCKHz3/rELS+Lz/afMxk2
X254YkfUCX6JdRC+/s4nQjWyLQ8QLwmo4BP7zT/+gu/BFSYPJInuCMa9gsuCLFYr
gGHaiRWJ0QzRWMXBi39N2NkaGwZGJjjEn/1zelMWNRFpLGMNTQFqOIKt5fD/CO1t
5NQTCIAXRtTe94MIWI9K5N1ylY315dY3RawyCSkx6B+5gZjVuLxBd8ZqwPYocKyk
b+Uzi8v512E+vV7VA2niXHr0juv7v8W0E9bj53bCcMRxx1YQDMELaDqlISpZXQ==
-----END CERTIFICATE-----
