Certificate:
    Data:
        Version: 3 (0x2)
        Serial Number: 262 (0x106)
    Signature Algorithm: sha256WithRSAEncryption
        Issuer: C=fr, ST=idf, L=paris, O=vitam, OU=authorities, CN=ca_intermediate_server
        Validity
            Not Before: Oct 19 08:40:49 2018 GMT
            Not After : Oct 18 08:40:49 2021 GMT
        Subject: C=fr, ST=idf, L=paris, O=vitam, CN=ingest-external.service.consul
        Subject Public Key Info:
            Public Key Algorithm: rsaEncryption
                Public-Key: (4096 bit)
                Modulus:
                    00:be:cf:ac:9c:2e:23:e1:c9:eb:da:f3:71:d7:f0:
                    9f:f6:fd:4e:89:3b:ff:7a:28:a0:ce:20:6b:0c:8f:
                    4e:63:18:4a:7f:26:a5:aa:fe:be:60:6b:49:99:62:
                    8c:14:7f:df:59:d5:ad:11:2f:7a:08:0f:cf:96:5f:
                    ff:b0:96:0a:d2:f2:e4:5e:12:55:1f:cc:e7:07:f6:
                    8a:c5:c8:da:49:23:3e:06:e3:83:93:a5:6d:5a:15:
                    58:cc:a2:ca:fe:1a:dd:08:a6:07:d2:7b:bc:13:f7:
                    2a:2b:a9:16:67:7b:7e:23:24:90:68:db:59:cd:a3:
                    6c:14:36:ea:85:30:79:89:e3:10:d4:c4:df:6f:a6:
                    49:03:a0:94:5c:de:41:4a:df:a3:b0:6a:b3:01:74:
                    5f:e1:40:42:df:47:a9:e8:28:63:73:2d:f1:d0:1e:
                    95:4f:c0:3b:eb:32:93:29:b9:68:67:d0:3a:f5:6b:
                    58:42:12:69:ba:66:cf:36:45:93:80:77:13:3c:bc:
                    df:5a:fe:16:4a:24:ba:1d:cb:e6:d4:97:fb:ab:51:
                    4a:94:7b:3f:7c:8e:56:bf:c1:2b:ae:f1:da:ec:dc:
                    3d:aa:28:7e:46:82:73:8e:83:e4:a8:ad:de:02:1c:
                    50:91:5e:4f:7d:28:23:6f:3f:9d:78:21:e8:8a:c2:
                    c4:b9:f4:44:ba:0f:c8:7c:5c:4d:1a:b0:b5:06:5f:
                    4d:66:34:4c:3e:93:bf:21:cc:db:a0:53:c0:d4:51:
                    07:07:a5:24:ef:89:78:06:c4:90:4b:d4:c2:65:9a:
                    05:10:6d:5c:ab:f0:cd:89:95:d4:43:ad:40:96:88:
                    97:34:6e:e0:49:00:21:73:45:76:ba:ce:63:c1:ec:
                    30:e9:4b:74:dc:2d:5c:b6:d9:37:0d:3c:5b:0e:c5:
                    ca:a2:17:84:22:b8:6f:b2:f0:d0:d1:f0:00:f2:90:
                    9c:2f:ac:69:0c:29:a5:91:f7:67:83:07:1f:b0:6b:
                    a6:3e:38:7d:6b:63:1a:99:8e:73:d6:f3:e3:0d:77:
                    71:9e:88:f8:94:15:3b:b1:32:71:1e:2e:00:7d:32:
                    23:5a:13:96:7d:e1:a8:28:ff:5c:c8:ac:28:a2:f8:
                    55:99:42:f4:55:21:05:cc:f0:39:2a:9f:3a:cb:d9:
                    fc:67:71:1f:7e:fb:ed:68:7c:96:97:8d:51:ce:1c:
                    18:78:80:9b:1a:4e:5f:b7:5d:f8:79:b7:77:65:3e:
                    19:83:04:60:00:8d:b2:44:cc:af:ce:8f:d3:f4:95:
                    7f:d8:aa:e6:eb:4d:a7:e8:25:21:fd:46:53:a1:58:
                    5f:a2:e7:b3:43:97:07:3c:86:f6:fe:ed:e1:c0:16:
                    9b:a9:ad
                Exponent: 65537 (0x10001)
        X509v3 extensions:
            Netscape Comment: 
                Certificat Serveur SSL
            X509v3 Subject Key Identifier: 
                FB:5A:BF:60:18:B2:64:8A:57:D0:4F:95:DA:30:47:E3:57:3A:02:02
            X509v3 Authority Key Identifier: 
                keyid:8E:45:CA:B9:5E:F2:8A:F9:A0:3A:C0:5C:78:C2:FC:E5:E8:6E:29:D9
                DirName:/C=fr/ST=idf/L=paris/O=vitam/OU=authorities/CN=ca_root_server
                serial:01:05

            X509v3 Issuer Alternative Name: 
                <EMPTY>

            X509v3 Subject Alternative Name: 
                DNS:ingest-external.service.consul, DNS:localhost
            X509v3 Basic Constraints: critical
                CA:FALSE
            X509v3 Key Usage: 
                Digital Signature, Key Encipherment
            Netscape Cert Type: 
                SSL Server
            X509v3 Extended Key Usage: 
                TLS Web Server Authentication
    Signature Algorithm: sha256WithRSAEncryption
         ab:53:47:3e:23:53:34:48:8e:7c:45:ca:9c:a6:2c:4d:c1:e7:
         af:4a:83:16:3c:a9:20:60:90:1e:ab:ed:5f:4c:6e:f2:9f:f9:
         9d:59:b4:85:8f:6c:61:1e:1c:02:2b:ee:2b:c8:15:38:af:e9:
         65:92:16:e3:09:48:a9:d3:47:15:95:9d:51:0a:bc:b1:2c:57:
         04:b7:78:f0:c5:1b:40:48:c5:91:f2:5e:90:c0:b8:54:26:ec:
         f9:46:c7:37:16:b9:f2:10:c1:31:57:6c:44:ec:28:02:1f:67:
         60:45:40:aa:85:ed:a9:5e:d4:35:f0:1a:2e:6e:ef:df:1d:94:
         47:23:20:f0:d6:b4:7a:13:d6:26:44:72:a6:ee:85:c0:c3:69:
         f5:f5:53:78:c7:fe:ab:e4:f7:9b:2c:93:88:71:af:34:78:27:
         7e:18:40:5b:75:09:8d:91:b5:5b:0e:88:cf:48:95:37:02:4e:
         51:a9:61:bb:1e:cf:92:bb:f3:41:eb:0c:5b:e3:fc:d7:11:1c:
         92:d2:fe:f4:de:6f:02:f0:f5:c7:af:0d:58:f0:a5:1b:97:0f:
         c0:e8:57:e7:f5:3e:ba:b5:d9:5a:46:85:a5:bd:77:43:37:ea:
         af:81:0e:60:e4:3e:fa:81:db:66:4f:a1:e9:7a:99:08:f7:7e:
         07:f2:62:7c:50:dc:aa:7e:0f:94:80:c6:35:03:78:5f:02:62:
         b2:05:91:d1:8c:f3:e9:80:2f:a2:84:e3:45:08:38:c6:48:c4:
         c7:27:e8:40:11:16:66:8e:94:78:b3:21:9a:d6:78:05:e4:52:
         a7:1c:76:c6:78:de:e8:ee:82:c7:73:f2:7f:d8:c2:88:c2:08:
         52:e0:4a:68:4e:37:ab:a6:8d:84:16:a9:9d:22:02:7c:88:e4:
         f2:c1:8c:77:f6:1e:31:2b:b1:bc:18:cd:12:11:44:bf:9f:c2:
         ba:d0:54:52:de:05:54:b5:c0:1b:a2:bb:5e:ce:ef:7c:2a:24:
         dd:11:c3:6c:2e:2a:67:f5:97:1c:36:60:cc:e8:a6:5a:17:23:
         0f:d8:2c:e8:19:56:49:24:61:5d:78:a3:4f:46:bb:f2:bc:fe:
         87:62:8f:58:ee:7f:de:4c:da:a9:6c:44:88:39:35:ec:6a:8c:
         ce:8c:d8:f6:a8:3b:90:35:9f:05:e1:fb:0e:c6:aa:2c:6f:c3:
         d7:38:5f:4b:b2:8d:73:f9:6f:91:bb:66:c1:be:67:51:89:b3:
         03:c1:bb:d3:04:c1:7d:bc:0c:87:ee:c7:f1:f9:b4:1d:ba:1c:
         57:73:22:c9:b6:56:37:80:83:65:b5:07:07:0c:b4:9e:fd:33:
         37:3c:f7:25:4f:32:b4:93
-----BEGIN CERTIFICATE-----
MIIGujCCBKKgAwIBAgICAQYwDQYJKoZIhvcNAQELBQAwcjELMAkGA1UEBhMCZnIx
DDAKBgNVBAgMA2lkZjEOMAwGA1UEBwwFcGFyaXMxDjAMBgNVBAoMBXZpdGFtMRQw
EgYDVQQLDAthdXRob3JpdGllczEfMB0GA1UEAwwWY2FfaW50ZXJtZWRpYXRlX3Nl
cnZlcjAeFw0xODEwMTkwODQwNDlaFw0yMTEwMTgwODQwNDlaMGQxCzAJBgNVBAYT
AmZyMQwwCgYDVQQIDANpZGYxDjAMBgNVBAcMBXBhcmlzMQ4wDAYDVQQKDAV2aXRh
bTEnMCUGA1UEAwweaW5nZXN0LWV4dGVybmFsLnNlcnZpY2UuY29uc3VsMIICIjAN
BgkqhkiG9w0BAQEFAAOCAg8AMIICCgKCAgEAvs+snC4j4cnr2vNx1/Cf9v1OiTv/
eiigziBrDI9OYxhKfyalqv6+YGtJmWKMFH/fWdWtES96CA/Pll//sJYK0vLkXhJV
H8znB/aKxcjaSSM+BuODk6VtWhVYzKLK/hrdCKYH0nu8E/cqK6kWZ3t+IySQaNtZ
zaNsFDbqhTB5ieMQ1MTfb6ZJA6CUXN5BSt+jsGqzAXRf4UBC30ep6Chjcy3x0B6V
T8A76zKTKbloZ9A69WtYQhJpumbPNkWTgHcTPLzfWv4WSiS6Hcvm1Jf7q1FKlHs/
fI5Wv8ErrvHa7Nw9qih+RoJzjoPkqK3eAhxQkV5PfSgjbz+deCHoisLEufREug/I
fFxNGrC1Bl9NZjRMPpO/IczboFPA1FEHB6Uk74l4BsSQS9TCZZoFEG1cq/DNiZXU
Q61AloiXNG7gSQAhc0V2us5jweww6Ut03C1cttk3DTxbDsXKoheEIrhvsvDQ0fAA
8pCcL6xpDCmlkfdngwcfsGumPjh9a2MamY5z1vPjDXdxnoj4lBU7sTJxHi4AfTIj
WhOWfeGoKP9cyKwoovhVmUL0VSEFzPA5Kp86y9n8Z3EffvvtaHyWl41RzhwYeICb
Gk5ft134ebd3ZT4ZgwRgAI2yRMyvzo/T9JV/2Krm602n6CUh/UZToVhfouezQ5cH
PIb2/u3hwBabqa0CAwEAAaOCAWYwggFiMCUGCWCGSAGG+EIBDQQYFhZDZXJ0aWZp
Y2F0IFNlcnZldXIgU1NMMB0GA1UdDgQWBBT7Wr9gGLJkilfQT5XaMEfjVzoCAjCB
lQYDVR0jBIGNMIGKgBSORcq5XvKK+aA6wFx4wvzl6G4p2aFupGwwajELMAkGA1UE
BhMCZnIxDDAKBgNVBAgMA2lkZjEOMAwGA1UEBwwFcGFyaXMxDjAMBgNVBAoMBXZp
dGFtMRQwEgYDVQQLDAthdXRob3JpdGllczEXMBUGA1UEAwwOY2Ffcm9vdF9zZXJ2
ZXKCAgEFMAkGA1UdEgQCMAAwNAYDVR0RBC0wK4IeaW5nZXN0LWV4dGVybmFsLnNl
cnZpY2UuY29uc3Vsgglsb2NhbGhvc3QwDAYDVR0TAQH/BAIwADALBgNVHQ8EBAMC
BaAwEQYJYIZIAYb4QgEBBAQDAgZAMBMGA1UdJQQMMAoGCCsGAQUFBwMBMA0GCSqG
SIb3DQEBCwUAA4ICAQCrU0c+I1M0SI58RcqcpixNweevSoMWPKkgYJAeq+1fTG7y
n/mdWbSFj2xhHhwCK+4ryBU4r+llkhbjCUip00cVlZ1RCryxLFcEt3jwxRtASMWR
8l6QwLhUJuz5Rsc3FrnyEMExV2xE7CgCH2dgRUCqhe2pXtQ18Boubu/fHZRHIyDw
1rR6E9YmRHKm7oXAw2n19VN4x/6r5PebLJOIca80eCd+GEBbdQmNkbVbDojPSJU3
Ak5RqWG7Hs+Su/NB6wxb4/zXERyS0v703m8C8PXHrw1Y8KUblw/A6Ffn9T66tdla
RoWlvXdDN+qvgQ5g5D76gdtmT6HpepkI934H8mJ8UNyqfg+UgMY1A3hfAmKyBZHR
jPPpgC+ihONFCDjGSMTHJ+hAERZmjpR4syGa1ngF5FKnHHbGeN7o7oLHc/J/2MKI
wghS4EpoTjerpo2EFqmdIgJ8iOTywYx39h4xK7G8GM0SEUS/n8K60FRS3gVUtcAb
ortezu98KiTdEcNsLipn9ZccNmDM6KZaFyMP2CzoGVZJJGFdeKNPRrvyvP6HYo9Y
7n/eTNqpbESIOTXsaozOjNj2qDuQNZ8F4fsOxqosb8PXOF9Lso1z+W+Ru2bBvmdR
ibMDwbvTBMF9vAyH7sfx+bQduhxXcyLJtlY3gINltQcHDLSe/TM3PPclTzK0kw==
-----END CERTIFICATE-----
