Certificate:
    Data:
        Version: 3 (0x2)
        Serial Number: 279 (0x117)
        Signature Algorithm: sha256WithRSAEncryption
        Issuer: C=fr, ST=idf, L=paris, O=vitam, OU=authorities, CN=ca_intermediate_server
        Validity
            Not Before: Nov 10 14:35:35 2021 GMT
            Not After : Nov  9 14:35:35 2024 GMT
        Subject: C=fr, ST=idf, L=paris, O=vitam, CN=ingest-external.service.fulllocal.consul
        Subject Public Key Info:
            Public Key Algorithm: rsaEncryption
                RSA Public-Key: (4096 bit)
                Modulus:
                    00:c7:e9:1c:42:ee:9a:e4:32:05:da:e8:b4:58:13:
                    68:db:96:7e:0a:06:94:9e:38:de:fe:fb:e7:00:52:
                    c4:8d:97:83:91:80:5f:7d:a1:21:10:38:4f:48:0f:
                    42:5b:de:89:4d:65:01:a6:a8:03:f6:a8:ef:59:7f:
                    a7:d3:7a:92:b4:96:5d:ac:c2:54:9b:3f:5f:4e:95:
                    3e:7b:68:e5:dd:b5:4e:ab:6c:4f:e4:31:1b:28:a2:
                    56:8f:57:45:ab:41:29:82:70:48:61:b2:bd:49:e6:
                    e0:05:2f:9f:96:96:ef:c3:74:67:e3:b0:c8:cf:11:
                    ae:07:39:1e:e1:e5:34:d3:57:2f:72:c8:0f:a1:39:
                    fa:a8:54:46:34:60:5a:0a:72:8b:b6:44:e6:da:26:
                    5e:c2:96:d0:e1:e5:68:23:42:a1:85:a7:1f:2c:55:
                    7c:12:dc:92:37:02:a1:54:1c:55:27:4b:df:4f:19:
                    74:1f:b7:e9:06:db:f9:4b:aa:de:f9:09:46:1c:0f:
                    ac:98:d4:89:3e:48:42:7f:b5:19:b2:0d:d6:a3:31:
                    67:a1:69:a4:fb:3c:69:09:b3:df:85:0a:14:3d:89:
                    a1:3d:9f:ab:c7:89:a6:8b:b5:6e:1c:29:57:6c:f7:
                    c8:b4:ef:ad:8c:3c:26:4a:cb:0b:56:1e:24:c1:0b:
                    35:0f:be:74:f4:99:89:48:06:99:88:19:7d:1e:e3:
                    75:d1:54:00:f3:9d:f0:f7:f7:9b:3e:ea:0c:e1:71:
                    f3:65:a6:ad:32:72:2a:01:25:22:56:10:14:e4:9b:
                    f1:98:77:02:f7:16:6e:62:c6:ab:1b:a0:47:c8:61:
                    09:07:09:90:48:09:ba:a7:66:56:9f:d8:d4:a6:44:
                    31:c6:de:1c:3f:85:20:00:59:1e:e4:ce:b0:2f:fc:
                    27:0a:e0:65:08:8e:99:13:48:3d:4b:34:bd:18:54:
                    85:f9:2d:f4:50:e5:6b:39:53:65:6e:ab:68:a9:83:
                    6b:8c:ea:a1:b5:15:c1:a0:7c:2c:b7:e3:44:ea:f8:
                    fa:76:89:8b:61:d0:49:a0:d9:38:f4:fb:57:13:b1:
                    a7:16:ce:08:f9:b8:59:c2:5a:34:11:60:f7:0c:23:
                    52:5f:fb:5a:7d:ef:fc:fd:b4:a1:3c:57:94:44:7f:
                    ce:80:ae:2f:32:d8:5d:ac:98:79:21:26:f2:17:f9:
                    d4:36:13:43:27:53:e6:28:50:35:c6:51:b3:af:27:
                    4e:77:36:02:27:97:8d:72:98:63:47:17:88:37:11:
                    e6:b6:e4:3c:91:ac:e1:3a:c2:5b:36:20:4d:b5:ae:
                    4b:93:71:eb:6d:4f:b1:b7:16:0b:9c:73:33:9d:53:
                    bb:4e:ed
                Exponent: 65537 (0x10001)
        X509v3 extensions:
            Netscape Comment: 
                Certificat Serveur SSL
            X509v3 Subject Key Identifier: 
                1E:FE:40:94:A6:8A:47:DF:4A:8D:C8:2E:53:3F:70:5C:F3:64:8E:B4
            X509v3 Authority Key Identifier: 
                keyid:1F:AF:74:D4:61:D2:39:20:7E:C2:D6:67:C2:59:66:BB:EA:26:0E:9F
                DirName:/C=fr/ST=idf/L=paris/O=vitam/OU=authorities/CN=ca_root_server
                serial:01:0C

            X509v3 Issuer Alternative Name: 
                <EMPTY>

            X509v3 Subject Alternative Name: 
                DNS:ingest-external.service.consul, DNS:localhost, DNS:ingest-external.service.fulllocal.consul
            X509v3 Basic Constraints: critical
                CA:FALSE
            X509v3 Key Usage: 
                Digital Signature, Key Encipherment
            Netscape Cert Type: 
                SSL Server
            X509v3 Extended Key Usage: 
                TLS Web Server Authentication
    Signature Algorithm: sha256WithRSAEncryption
         39:94:d7:cf:9f:47:2f:5e:46:c1:61:c6:8d:f4:ee:60:90:2e:
         a1:42:f0:a7:26:22:3a:f9:6c:e8:b2:be:2d:1c:e8:4b:cd:96:
         39:b9:02:da:1d:40:8c:2e:56:e6:50:eb:8b:25:7b:ba:2c:ed:
         5d:fc:97:93:18:b8:15:a1:4d:48:91:43:d2:f0:49:29:94:bd:
         69:da:fd:67:ff:12:4b:53:ca:cc:b8:c4:a8:29:8b:24:b2:60:
         ee:27:c6:f4:4c:d6:6a:78:e9:b2:64:f5:97:27:f0:d4:aa:dc:
         5a:29:9a:a6:b5:09:2e:ae:3f:f0:f6:a0:99:c0:2f:6a:90:d6:
         36:57:78:cc:26:73:4d:95:59:32:ff:2c:ba:ff:9f:fd:30:21:
         bc:76:91:9f:75:8a:83:41:22:d1:ee:ec:5a:f4:83:ca:9b:4f:
         16:92:32:7f:9a:b6:1a:73:9d:c3:d1:c8:53:d5:25:ed:d0:de:
         14:0a:a8:87:ec:02:d4:d1:0f:f6:44:38:d8:b1:0e:f3:8d:c1:
         a3:4b:31:5f:95:be:69:ec:81:05:66:bd:11:eb:e1:c7:6f:f9:
         74:94:b4:64:07:ab:7b:e3:dd:55:f6:ac:22:20:c5:84:69:44:
         f6:70:63:e7:40:26:91:d0:bf:08:96:23:67:f9:b2:1c:b6:43:
         98:07:dc:9b:b6:f3:5d:30:d0:6b:27:30:9f:6a:48:43:67:30:
         3f:80:c3:78:b7:ec:39:31:c5:40:da:15:dc:a9:7c:9b:2b:10:
         97:d0:89:81:d9:99:03:4e:f0:21:d7:4d:82:30:c9:ec:30:24:
         dd:9e:d3:f3:f1:51:67:ed:8f:f2:e8:5c:2d:82:a1:26:d8:42:
         24:da:75:ae:6e:46:e4:30:1c:01:b3:8f:0b:4d:15:06:f0:30:
         13:e6:8e:4d:8f:68:8d:c3:09:f2:91:90:89:ce:b2:06:d5:f5:
         dc:a1:dd:7f:6b:48:82:d8:7b:eb:9b:23:7d:46:ad:22:4c:ce:
         3f:01:74:e7:53:4b:87:e2:54:4d:de:15:f5:b2:3b:fe:6e:06:
         02:64:0b:95:bd:3d:99:e4:2f:ff:4d:90:89:a0:af:85:c1:53:
         9f:0c:cf:6d:8b:40:d6:9e:10:15:9b:46:e2:19:ae:d4:71:7e:
         89:3f:28:a2:63:25:d5:3d:fc:e5:09:78:4b:d8:8d:f0:69:39:
         93:39:2d:ba:12:63:9e:5d:7a:81:5e:e7:5e:39:5a:75:53:13:
         01:9b:92:bb:c5:fe:2a:bb:f6:1e:d7:e2:ec:5a:16:b8:2e:70:
         a8:68:23:be:e6:a4:11:da:37:7a:a2:56:37:90:73:56:e9:1b:
         68:90:18:f2:29:57:11:08
-----BEGIN CERTIFICATE-----
MIIG7jCCBNagAwIBAgICARcwDQYJKoZIhvcNAQELBQAwcjELMAkGA1UEBhMCZnIx
DDAKBgNVBAgMA2lkZjEOMAwGA1UEBwwFcGFyaXMxDjAMBgNVBAoMBXZpdGFtMRQw
EgYDVQQLDAthdXRob3JpdGllczEfMB0GA1UEAwwWY2FfaW50ZXJtZWRpYXRlX3Nl
cnZlcjAeFw0yMTExMTAxNDM1MzVaFw0yNDExMDkxNDM1MzVaMG4xCzAJBgNVBAYT
AmZyMQwwCgYDVQQIDANpZGYxDjAMBgNVBAcMBXBhcmlzMQ4wDAYDVQQKDAV2aXRh
bTExMC8GA1UEAwwoaW5nZXN0LWV4dGVybmFsLnNlcnZpY2UuZnVsbGxvY2FsLmNv
bnN1bDCCAiIwDQYJKoZIhvcNAQEBBQADggIPADCCAgoCggIBAMfpHELumuQyBdro
tFgTaNuWfgoGlJ443v775wBSxI2Xg5GAX32hIRA4T0gPQlveiU1lAaaoA/ao71l/
p9N6krSWXazCVJs/X06VPnto5d21TqtsT+QxGyiiVo9XRatBKYJwSGGyvUnm4AUv
n5aW78N0Z+OwyM8Rrgc5HuHlNNNXL3LID6E5+qhURjRgWgpyi7ZE5tomXsKW0OHl
aCNCoYWnHyxVfBLckjcCoVQcVSdL308ZdB+36Qbb+Uuq3vkJRhwPrJjUiT5IQn+1
GbIN1qMxZ6FppPs8aQmz34UKFD2JoT2fq8eJpou1bhwpV2z3yLTvrYw8JkrLC1Ye
JMELNQ++dPSZiUgGmYgZfR7jddFUAPOd8Pf3mz7qDOFx82WmrTJyKgElIlYQFOSb
8Zh3AvcWbmLGqxugR8hhCQcJkEgJuqdmVp/Y1KZEMcbeHD+FIABZHuTOsC/8Jwrg
ZQiOmRNIPUs0vRhUhfkt9FDlazlTZW6raKmDa4zqobUVwaB8LLfjROr4+naJi2HQ
SaDZOPT7VxOxpxbOCPm4WcJaNBFg9wwjUl/7Wn3v/P20oTxXlER/zoCuLzLYXayY
eSEm8hf51DYTQydT5ihQNcZRs68nTnc2AieXjXKYY0cXiDcR5rbkPJGs4TrCWzYg
TbWuS5Nx621PsbcWC5xzM51Tu07tAgMBAAGjggGQMIIBjDAlBglghkgBhvhCAQ0E
GBYWQ2VydGlmaWNhdCBTZXJ2ZXVyIFNTTDAdBgNVHQ4EFgQUHv5AlKaKR99Kjcgu
Uz9wXPNkjrQwgZUGA1UdIwSBjTCBioAUH6901GHSOSB+wtZnwllmu+omDp+hbqRs
MGoxCzAJBgNVBAYTAmZyMQwwCgYDVQQIDANpZGYxDjAMBgNVBAcMBXBhcmlzMQ4w
DAYDVQQKDAV2aXRhbTEUMBIGA1UECwwLYXV0aG9yaXRpZXMxFzAVBgNVBAMMDmNh
X3Jvb3Rfc2VydmVyggIBDDAJBgNVHRIEAjAAMF4GA1UdEQRXMFWCHmluZ2VzdC1l
eHRlcm5hbC5zZXJ2aWNlLmNvbnN1bIIJbG9jYWxob3N0gihpbmdlc3QtZXh0ZXJu
YWwuc2VydmljZS5mdWxsbG9jYWwuY29uc3VsMAwGA1UdEwEB/wQCMAAwCwYDVR0P
BAQDAgWgMBEGCWCGSAGG+EIBAQQEAwIGQDATBgNVHSUEDDAKBggrBgEFBQcDATAN
BgkqhkiG9w0BAQsFAAOCAgEAOZTXz59HL15GwWHGjfTuYJAuoULwpyYiOvls6LK+
LRzoS82WObkC2h1AjC5W5lDriyV7uiztXfyXkxi4FaFNSJFD0vBJKZS9adr9Z/8S
S1PKzLjEqCmLJLJg7ifG9EzWanjpsmT1lyfw1KrcWimaprUJLq4/8PagmcAvapDW
Nld4zCZzTZVZMv8suv+f/TAhvHaRn3WKg0Ei0e7sWvSDyptPFpIyf5q2GnOdw9HI
U9Ul7dDeFAqoh+wC1NEP9kQ42LEO843Bo0sxX5W+aeyBBWa9Eevhx2/5dJS0ZAer
e+PdVfasIiDFhGlE9nBj50AmkdC/CJYjZ/myHLZDmAfcm7bzXTDQaycwn2pIQ2cw
P4DDeLfsOTHFQNoV3Kl8mysQl9CJgdmZA07wIddNgjDJ7DAk3Z7T8/FRZ+2P8uhc
LYKhJthCJNp1rm5G5DAcAbOPC00VBvAwE+aOTY9ojcMJ8pGQic6yBtX13KHdf2tI
gth765sjfUatIkzOPwF051NLh+JUTd4V9bI7/m4GAmQLlb09meQv/02QiaCvhcFT
nwzPbYtA1p4QFZtG4hmu1HF+iT8oomMl1T385Ql4S9iN8Gk5kzktuhJjnl16gV7n
XjladVMTAZuSu8X+Krv2Htfi7FoWuC5wqGgjvuakEdo3eqJWN5BzVukbaJAY8ilX
EQg=
-----END CERTIFICATE-----
