Certificate:
    Data:
        Version: 3 (0x2)
        Serial Number: 269 (0x10d)
        Signature Algorithm: sha256WithRSAEncryption
        Issuer: C=fr, ST=idf, L=paris, O=vitam, OU=authorities, CN=ca_intermediate_server
        Validity
            Not Before: Sep 15 13:00:59 2020 GMT
            Not After : Dec 31 23:59:59 9999 GMT
        Subject: C=fr, ST=idf, L=paris, O=vitam, CN=ingest-external.service.local.consul
        Subject Public Key Info:
            Public Key Algorithm: rsaEncryption
                RSA Public-Key: (4096 bit)
                Modulus:
                    00:ab:97:2c:f6:ca:fe:d6:f9:51:36:48:72:43:16:
                    09:dc:7b:2f:8d:22:f5:32:b5:9d:b3:a6:aa:ca:aa:
                    e3:7e:95:6b:16:c6:ec:4f:bc:b8:12:07:41:ef:3f:
                    08:dd:05:73:42:dd:dd:1c:41:10:7a:0b:5f:2d:71:
                    fa:45:eb:04:48:e1:ad:e4:f4:fd:49:36:2c:36:95:
                    6a:76:48:bc:b2:36:86:ba:58:9b:f2:e5:6a:6f:a7:
                    e2:48:88:f2:7e:0b:4f:22:83:3d:8d:7e:b0:ef:dc:
                    0c:e2:ff:7f:d7:90:f7:5a:45:0b:4f:16:bd:ab:42:
                    c1:04:27:63:87:d4:b6:11:cf:4c:f3:1c:e2:4b:36:
                    6c:02:e7:05:a7:65:35:55:c2:80:23:4d:ba:75:80:
                    29:e8:08:be:df:d3:df:2e:f9:97:de:a5:ab:7f:55:
                    4c:30:b2:92:9d:31:43:27:52:d6:2e:f2:07:76:7a:
                    d3:02:65:67:41:eb:c4:3e:20:1e:6a:9e:d4:a5:09:
                    3e:39:fe:68:db:a6:a5:82:cc:be:c2:37:54:93:36:
                    c5:f0:95:87:11:18:1b:20:69:5b:bd:65:ca:5c:f5:
                    4c:b0:3f:32:2f:09:65:22:ee:ec:f7:11:30:85:7f:
                    1d:24:41:d8:8e:a0:83:98:ed:85:3f:86:1c:e1:88:
                    7f:87:d7:1b:3f:fa:8b:63:93:b3:8f:c8:72:2e:60:
                    55:e0:30:a2:4c:50:2a:b5:6f:70:e9:e9:be:3f:f8:
                    07:9e:af:ab:e8:ae:25:21:b6:e4:b8:8c:61:43:d5:
                    0c:39:92:9b:86:fc:b5:7f:f6:a6:d0:e2:d3:ff:4e:
                    db:78:29:b5:33:b1:6a:6d:20:28:f2:e9:d4:e0:1d:
                    45:9d:c4:34:70:45:51:93:d2:ce:05:8f:df:09:ac:
                    5c:a2:a8:e5:29:b2:40:8e:8d:3b:89:f4:2f:a7:0f:
                    43:7f:26:46:e0:4c:2a:12:74:c4:cc:15:4e:f0:dd:
                    f9:87:c1:03:81:d0:11:d2:30:cd:43:2a:ac:03:6c:
                    d4:3c:81:9c:48:91:5e:ae:93:58:1f:1f:4b:7d:e6:
                    fc:fc:7b:69:86:3c:47:e7:a9:2d:9d:e2:ef:a0:4f:
                    d3:21:97:f6:9f:33:41:e8:fa:76:ad:00:6e:2d:4a:
                    15:ee:a4:39:b1:e8:11:8f:8b:25:e5:80:8b:94:c3:
                    69:81:6b:78:19:89:9d:b2:ee:de:42:11:67:5c:93:
                    1b:59:92:a4:36:7b:4e:33:5c:2e:1f:e5:39:da:45:
                    1c:95:6e:fd:31:6d:74:68:61:92:98:c6:c1:7f:3e:
                    84:c7:50:be:cd:75:00:ed:3d:34:5e:b4:69:33:e7:
                    a4:be:b5
                Exponent: 65537 (0x10001)
        X509v3 extensions:
            Netscape Comment: 
                Certificat Serveur SSL
            X509v3 Subject Key Identifier: 
                60:E4:CC:4B:EC:78:0D:64:4A:81:37:16:73:39:22:CF:FE:AE:94:E3
            X509v3 Authority Key Identifier: 
                keyid:1F:AF:74:D4:61:D2:39:20:7E:C2:D6:67:C2:59:66:BB:EA:26:0E:9F
                DirName:/C=fr/ST=idf/L=paris/O=vitam/OU=authorities/CN=ca_root_server
                serial:01:0C

            X509v3 Issuer Alternative Name: 
                <EMPTY>

            X509v3 Subject Alternative Name: 
                DNS:ingest-external.service.consul, DNS:localhost, DNS:ingest-external.service.local.consul
            X509v3 Basic Constraints: critical
                CA:FALSE
            X509v3 Key Usage: 
                Digital Signature, Key Encipherment
            Netscape Cert Type: 
                SSL Server
            X509v3 Extended Key Usage: 
                TLS Web Server Authentication
    Signature Algorithm: sha256WithRSAEncryption
         03:bc:c1:ca:b1:32:f8:bd:ed:9e:71:7e:24:f2:2a:e0:84:90:
         67:3f:6d:84:db:ae:c8:6e:86:22:cc:34:4e:bf:07:18:70:f4:
         05:7f:97:92:1f:1d:2b:d7:6f:61:7d:70:aa:5b:e8:9e:2b:ed:
         83:31:6c:94:3f:c6:28:d5:ee:43:a0:80:67:9c:d2:91:78:12:
         f3:6b:85:16:19:ae:d4:cb:65:eb:b7:15:6c:f4:2e:fd:b5:9e:
         3a:d1:1f:c2:c9:30:b9:25:9c:87:80:f7:ff:67:c2:44:ca:bf:
         b2:5a:bc:66:3a:4b:a2:e0:57:fa:ca:df:d7:0b:36:fb:53:06:
         39:f6:73:e3:51:6f:4b:20:7e:b7:b9:8c:99:00:3f:b7:c9:16:
         49:83:08:d4:d1:d5:40:95:bd:40:e6:c6:77:c2:b0:52:0a:4f:
         05:a7:c9:ec:37:49:21:f0:fb:ed:ef:aa:3f:99:a2:21:58:dc:
         56:0d:02:b7:d9:74:45:28:44:53:4a:b6:1f:ed:b1:90:5b:5a:
         3f:8d:16:92:87:4e:44:69:45:1a:1f:f6:dd:0a:30:99:c8:22:
         7b:a3:b1:e1:bc:38:57:f1:7b:2a:c3:1e:bc:75:bf:38:84:4c:
         6e:bb:d4:7b:f4:dc:a7:99:ad:16:f4:05:a8:25:c6:35:42:68:
         25:65:33:00:af:fe:05:2b:7c:ff:6a:bb:ad:d7:b6:bb:90:10:
         f3:2d:02:f3:d8:d4:0f:8e:56:f2:81:d7:95:07:25:e1:99:cc:
         0d:49:ac:09:9b:1b:75:a7:3a:ad:14:3b:9e:7c:8e:46:20:37:
         e3:2e:23:91:44:27:ad:44:20:0e:32:24:53:67:78:22:38:7f:
         26:08:f3:3e:99:d4:ff:40:3e:d1:40:35:4b:67:87:de:a9:8e:
         da:72:0a:4d:61:ba:1b:a9:52:60:25:01:bb:15:37:9c:a9:1f:
         51:a7:42:a3:a3:24:8f:7a:eb:54:d4:a1:c2:b1:1f:51:89:3e:
         73:c7:cf:f0:9b:f1:5b:1e:bf:5b:40:99:ca:df:3e:7b:b2:a0:
         25:65:f1:21:e2:6a:d9:5f:ce:3d:c2:0c:3e:4f:71:2a:1b:80:
         e7:62:04:cb:0d:67:01:32:19:86:8f:ab:a6:d9:ba:f5:77:39:
         97:a6:ba:1b:01:9b:8b:7f:f1:40:bd:50:85:47:91:a8:10:27:
         b9:c4:d1:1e:29:88:96:07:95:2d:ed:56:4f:cb:3f:dc:b9:61:
         0e:75:ea:4f:8f:6b:ee:fa:a9:60:ad:25:c0:ed:21:f4:46:eb:
         39:3d:00:5c:38:a4:10:31:40:e0:cc:aa:1b:d2:9f:46:6b:18:
         67:da:e3:b6:2a:c3:03:48
-----BEGIN CERTIFICATE-----
MIIG6DCCBNCgAwIBAgICAQ0wDQYJKoZIhvcNAQELBQAwcjELMAkGA1UEBhMCZnIx
DDAKBgNVBAgMA2lkZjEOMAwGA1UEBwwFcGFyaXMxDjAMBgNVBAoMBXZpdGFtMRQw
EgYDVQQLDAthdXRob3JpdGllczEfMB0GA1UEAwwWY2FfaW50ZXJtZWRpYXRlX3Nl
cnZlcjAgFw0yMDA5MTUxMzAwNTlaGA85OTk5MTIzMTIzNTk1OVowajELMAkGA1UE
BhMCZnIxDDAKBgNVBAgMA2lkZjEOMAwGA1UEBwwFcGFyaXMxDjAMBgNVBAoMBXZp
dGFtMS0wKwYDVQQDDCRpbmdlc3QtZXh0ZXJuYWwuc2VydmljZS5sb2NhbC5jb25z
dWwwggIiMA0GCSqGSIb3DQEBAQUAA4ICDwAwggIKAoICAQCrlyz2yv7W+VE2SHJD
Fgncey+NIvUytZ2zpqrKquN+lWsWxuxPvLgSB0HvPwjdBXNC3d0cQRB6C18tcfpF
6wRI4a3k9P1JNiw2lWp2SLyyNoa6WJvy5Wpvp+JIiPJ+C08igz2NfrDv3Azi/3/X
kPdaRQtPFr2rQsEEJ2OH1LYRz0zzHOJLNmwC5wWnZTVVwoAjTbp1gCnoCL7f098u
+Zfepat/VUwwspKdMUMnUtYu8gd2etMCZWdB68Q+IB5qntSlCT45/mjbpqWCzL7C
N1STNsXwlYcRGBsgaVu9Zcpc9UywPzIvCWUi7uz3ETCFfx0kQdiOoIOY7YU/hhzh
iH+H1xs/+otjk7OPyHIuYFXgMKJMUCq1b3Dp6b4/+Aeer6voriUhtuS4jGFD1Qw5
kpuG/LV/9qbQ4tP/Ttt4KbUzsWptICjy6dTgHUWdxDRwRVGT0s4Fj98JrFyiqOUp
skCOjTuJ9C+nD0N/JkbgTCoSdMTMFU7w3fmHwQOB0BHSMM1DKqwDbNQ8gZxIkV6u
k1gfH0t95vz8e2mGPEfnqS2d4u+gT9Mhl/afM0Ho+natAG4tShXupDmx6BGPiyXl
gIuUw2mBa3gZiZ2y7t5CEWdckxtZkqQ2e04zXC4f5TnaRRyVbv0xbXRoYZKYxsF/
PoTHUL7NdQDtPTRetGkz56S+tQIDAQABo4IBjDCCAYgwJQYJYIZIAYb4QgENBBgW
FkNlcnRpZmljYXQgU2VydmV1ciBTU0wwHQYDVR0OBBYEFGDkzEvseA1kSoE3FnM5
Is/+rpTjMIGVBgNVHSMEgY0wgYqAFB+vdNRh0jkgfsLWZ8JZZrvqJg6foW6kbDBq
MQswCQYDVQQGEwJmcjEMMAoGA1UECAwDaWRmMQ4wDAYDVQQHDAVwYXJpczEOMAwG
A1UECgwFdml0YW0xFDASBgNVBAsMC2F1dGhvcml0aWVzMRcwFQYDVQQDDA5jYV9y
b290X3NlcnZlcoICAQwwCQYDVR0SBAIwADBaBgNVHREEUzBRgh5pbmdlc3QtZXh0
ZXJuYWwuc2VydmljZS5jb25zdWyCCWxvY2FsaG9zdIIkaW5nZXN0LWV4dGVybmFs
LnNlcnZpY2UubG9jYWwuY29uc3VsMAwGA1UdEwEB/wQCMAAwCwYDVR0PBAQDAgWg
MBEGCWCGSAGG+EIBAQQEAwIGQDATBgNVHSUEDDAKBggrBgEFBQcDATANBgkqhkiG
9w0BAQsFAAOCAgEAA7zByrEy+L3tnnF+JPIq4ISQZz9thNuuyG6GIsw0Tr8HGHD0
BX+Xkh8dK9dvYX1wqlvonivtgzFslD/GKNXuQ6CAZ5zSkXgS82uFFhmu1Mtl67cV
bPQu/bWeOtEfwskwuSWch4D3/2fCRMq/slq8ZjpLouBX+srf1ws2+1MGOfZz41Fv
SyB+t7mMmQA/t8kWSYMI1NHVQJW9QObGd8KwUgpPBafJ7DdJIfD77e+qP5miIVjc
Vg0Ct9l0RShEU0q2H+2xkFtaP40WkodORGlFGh/23Qowmcgie6Ox4bw4V/F7KsMe
vHW/OIRMbrvUe/Tcp5mtFvQFqCXGNUJoJWUzAK/+BSt8/2q7rde2u5AQ8y0C89jU
D45W8oHXlQcl4ZnMDUmsCZsbdac6rRQ7nnyORiA34y4jkUQnrUQgDjIkU2d4Ijh/
JgjzPpnU/0A+0UA1S2eH3qmO2nIKTWG6G6lSYCUBuxU3nKkfUadCo6Mkj3rrVNSh
wrEfUYk+c8fP8JvxWx6/W0CZyt8+e7KgJWXxIeJq2V/OPcIMPk9xKhuA52IEyw1n
ATIZho+rptm69Xc5l6a6GwGbi3/xQL1QhUeRqBAnucTRHimIlgeVLe1WT8s/3Llh
DnXqT49r7vqpYK0lwO0h9EbrOT0AXDikEDFA4MyqG9KfRmsYZ9rjtirDA0g=
-----END CERTIFICATE-----
