Certificate:
    Data:
        Version: 3 (0x2)
        Serial Number: 285 (0x11d)
        Signature Algorithm: sha256WithRSAEncryption
        Issuer: C=fr, ST=idf, L=paris, O=vitam, OU=authorities, CN=ca_intermediate_server
        Validity
            Not Before: Jan 12 16:12:43 2022 GMT
            Not After : Jan 11 16:12:43 2025 GMT
        Subject: C=fr, ST=idf, L=paris, O=vitam, CN=ingest-external.service.fulllocal.consul
        Subject Public Key Info:
            Public Key Algorithm: rsaEncryption
                RSA Public-Key: (4096 bit)
                Modulus:
                    00:b0:25:38:2e:a0:1f:db:33:07:3a:08:ef:ea:9c:
                    b6:f2:fb:06:11:58:91:9a:ee:84:b7:3c:e0:b2:80:
                    4e:86:a8:54:a7:77:96:57:58:17:ee:13:dc:2d:2d:
                    53:77:4f:e0:2c:40:46:aa:b7:96:27:61:a7:17:61:
                    6b:1b:46:b7:34:90:f0:b4:ca:75:1c:ae:a5:17:e4:
                    77:b6:66:a1:0e:9f:22:4f:43:56:a6:35:3a:08:42:
                    18:84:a5:09:92:8c:60:dd:83:a4:64:d2:07:58:a5:
                    b7:f8:c4:a0:a8:a6:c6:d6:5a:d7:e3:5f:bd:10:84:
                    d4:51:53:44:61:b2:9b:d7:3c:24:24:a7:59:80:e9:
                    69:68:64:86:1d:5e:a9:12:5f:2e:4a:b1:07:39:3e:
                    b9:81:f3:f9:bb:ca:8b:13:f7:7a:ab:6c:f8:c3:bd:
                    0d:75:2a:3f:e2:7c:c6:47:dc:33:c3:98:06:35:c8:
                    99:6e:94:2c:8c:75:d2:5c:af:06:b9:ac:98:7c:2a:
                    ea:67:05:ba:27:9b:5e:8f:e1:d2:87:8e:9b:da:ee:
                    9f:1b:89:c4:51:1b:4e:2c:d5:48:4c:47:88:5a:18:
                    47:52:86:5b:77:d6:ee:25:84:c1:34:fa:75:8f:76:
                    e7:ba:f8:61:bb:df:66:4a:d4:57:52:84:24:49:75:
                    51:04:46:47:e7:32:c7:45:00:cb:e5:7a:7d:b3:51:
                    26:91:85:34:b4:20:32:9e:27:e2:17:88:83:e9:c6:
                    6b:54:d0:5b:36:ad:d2:1a:48:44:98:cc:46:84:0e:
                    ba:b5:fa:68:c3:ab:19:e9:f9:25:49:ec:0f:b4:17:
                    b7:55:14:aa:30:7d:08:82:11:0a:81:6d:57:8f:30:
                    18:5b:91:1c:ed:73:cf:43:e6:fb:12:f2:48:69:a7:
                    71:7d:78:e7:9a:79:37:b6:ba:04:31:b5:54:e3:a2:
                    df:13:8e:3a:73:9e:86:db:10:ec:f0:dd:42:1c:5b:
                    1a:4d:54:70:93:2a:70:eb:47:3d:3b:b7:9d:bf:18:
                    52:25:a9:df:d4:34:78:b0:00:2e:6b:69:17:99:a8:
                    8b:4b:cd:40:89:d1:54:67:f1:02:11:86:da:21:b7:
                    7b:81:ad:47:73:eb:5a:06:c9:eb:20:60:1c:7d:3b:
                    8d:bf:9d:83:bd:38:ef:6e:a0:26:7e:73:b1:31:b0:
                    76:ea:66:0e:67:d1:e7:b9:37:82:30:6e:fb:76:6d:
                    70:e1:8c:dc:3a:3f:14:a2:39:60:93:c3:cf:5b:26:
                    51:ca:c7:56:05:90:62:37:76:06:61:86:3d:2b:1b:
                    98:83:88:a4:b1:ce:af:fd:bc:04:5f:28:79:cd:99:
                    63:27:03
                Exponent: 65537 (0x10001)
        X509v3 extensions:
            Netscape Comment: 
                Certificat Serveur SSL
            X509v3 Subject Key Identifier: 
                17:95:34:9C:7F:12:7B:F4:F2:BE:AB:57:40:BD:C3:2A:F5:D8:CF:6A
            X509v3 Authority Key Identifier: 
                keyid:1F:AF:74:D4:61:D2:39:20:7E:C2:D6:67:C2:59:66:BB:EA:26:0E:9F
                DirName:/C=fr/ST=idf/L=paris/O=vitam/OU=authorities/CN=ca_root_server
                serial:01:0C

            X509v3 Issuer Alternative Name: 
                <EMPTY>

            X509v3 Subject Alternative Name: 
                DNS:ingest-external.service.consul, DNS:localhost, DNS:ingest-external.service.fulllocal.consul
            X509v3 Basic Constraints: critical
                CA:FALSE
            X509v3 Key Usage: 
                Digital Signature, Key Encipherment
            Netscape Cert Type: 
                SSL Server
            X509v3 Extended Key Usage: 
                TLS Web Server Authentication
    Signature Algorithm: sha256WithRSAEncryption
         cd:09:b6:f7:de:78:f9:e2:26:62:f8:15:a8:eb:00:25:a1:4c:
         3e:9e:1d:8a:c8:0a:0e:dd:a6:8c:ea:73:9e:9e:fa:cc:81:ba:
         dc:a3:6f:b3:33:0e:5e:d6:e2:29:49:69:f2:41:4e:ac:5e:ec:
         65:4c:bc:9e:36:b1:64:09:94:dc:f8:26:6e:57:ae:a7:4d:51:
         93:b4:6e:13:00:ee:f9:9a:b1:1d:e1:31:c4:f4:f7:0a:78:8e:
         4b:e8:10:29:a3:48:80:e6:6e:92:f4:23:44:10:5c:a1:ac:1b:
         34:98:44:53:a1:34:52:7c:ad:65:ca:a2:21:27:01:00:e4:68:
         2d:2e:54:cf:c1:d5:5d:7e:13:51:cf:87:54:fe:85:4b:a7:6e:
         c5:7b:0d:83:50:cb:89:38:ff:05:c9:ff:50:71:11:9b:f9:2e:
         10:a8:81:4d:3e:27:04:1b:97:15:21:f1:95:57:75:2f:06:fc:
         14:fa:d0:3c:6c:7f:97:f4:76:51:8a:6c:38:b1:a7:0c:ba:32:
         63:b3:c6:6b:bb:97:08:15:e9:1a:b1:f1:a8:64:8b:36:dc:45:
         39:80:c1:96:38:ba:9e:eb:c8:84:63:31:75:d1:54:c3:d5:99:
         af:8b:6a:f6:11:e2:d9:1c:54:6b:2a:b3:6b:20:91:bc:fa:b3:
         76:44:dc:7d:35:2f:fa:65:91:cb:c6:ca:cd:d4:45:c3:66:45:
         05:2f:bb:f8:be:85:e9:2f:b8:8b:7f:c1:11:83:71:ef:82:61:
         04:5e:0c:a8:50:d4:46:f1:51:e6:91:ad:d4:2b:3b:33:dc:66:
         9b:55:fd:bd:2d:e5:b9:94:2f:b0:79:ec:41:a3:e8:ac:ff:92:
         95:1e:60:08:99:bc:75:81:31:56:02:28:00:55:97:c1:b0:1a:
         a9:84:d6:2a:47:bb:78:8d:85:7a:b0:32:6a:7f:b6:db:33:ac:
         b0:74:5a:28:1f:ee:2f:ba:6e:d5:36:49:3a:58:96:fd:96:a4:
         f4:83:ec:97:9e:6d:8c:be:97:61:b9:7b:43:06:60:1e:71:eb:
         c8:9c:64:cb:e4:9b:88:5b:13:ec:ca:d6:a6:34:60:ab:c3:21:
         26:6e:50:49:d4:77:0d:e1:ce:d7:18:f3:21:5e:82:b4:47:3f:
         d1:f3:e8:32:b7:fa:eb:c7:3b:55:45:d8:a6:89:69:79:ed:45:
         8c:0f:9a:e7:9a:1f:3c:43:02:a0:bb:6c:c9:32:81:e6:2f:c0:
         0f:97:0c:be:4b:1f:ae:67:c9:6a:fc:bb:01:06:c7:ab:a2:22:
         55:02:6c:56:d4:e7:a4:6e:cb:2b:9c:1e:45:ec:ad:01:e4:01:
         d7:2b:01:1d:f2:0e:94:f6
-----BEGIN CERTIFICATE-----
MIIG7jCCBNagAwIBAgICAR0wDQYJKoZIhvcNAQELBQAwcjELMAkGA1UEBhMCZnIx
DDAKBgNVBAgMA2lkZjEOMAwGA1UEBwwFcGFyaXMxDjAMBgNVBAoMBXZpdGFtMRQw
EgYDVQQLDAthdXRob3JpdGllczEfMB0GA1UEAwwWY2FfaW50ZXJtZWRpYXRlX3Nl
cnZlcjAeFw0yMjAxMTIxNjEyNDNaFw0yNTAxMTExNjEyNDNaMG4xCzAJBgNVBAYT
AmZyMQwwCgYDVQQIDANpZGYxDjAMBgNVBAcMBXBhcmlzMQ4wDAYDVQQKDAV2aXRh
bTExMC8GA1UEAwwoaW5nZXN0LWV4dGVybmFsLnNlcnZpY2UuZnVsbGxvY2FsLmNv
bnN1bDCCAiIwDQYJKoZIhvcNAQEBBQADggIPADCCAgoCggIBALAlOC6gH9szBzoI
7+qctvL7BhFYkZruhLc84LKAToaoVKd3lldYF+4T3C0tU3dP4CxARqq3lidhpxdh
axtGtzSQ8LTKdRyupRfkd7ZmoQ6fIk9DVqY1OghCGISlCZKMYN2DpGTSB1ilt/jE
oKimxtZa1+NfvRCE1FFTRGGym9c8JCSnWYDpaWhkhh1eqRJfLkqxBzk+uYHz+bvK
ixP3eqts+MO9DXUqP+J8xkfcM8OYBjXImW6ULIx10lyvBrmsmHwq6mcFuiebXo/h
0oeOm9runxuJxFEbTizVSExHiFoYR1KGW3fW7iWEwTT6dY9257r4YbvfZkrUV1KE
JEl1UQRGR+cyx0UAy+V6fbNRJpGFNLQgMp4n4heIg+nGa1TQWzat0hpIRJjMRoQO
urX6aMOrGen5JUnsD7QXt1UUqjB9CIIRCoFtV48wGFuRHO1zz0Pm+xLySGmncX14
55p5N7a6BDG1VOOi3xOOOnOehtsQ7PDdQhxbGk1UcJMqcOtHPTu3nb8YUiWp39Q0
eLAALmtpF5moi0vNQInRVGfxAhGG2iG3e4GtR3PrWgbJ6yBgHH07jb+dg704726g
Jn5zsTGwdupmDmfR57k3gjBu+3ZtcOGM3Do/FKI5YJPDz1smUcrHVgWQYjd2BmGG
PSsbmIOIpLHOr/28BF8oec2ZYycDAgMBAAGjggGQMIIBjDAlBglghkgBhvhCAQ0E
GBYWQ2VydGlmaWNhdCBTZXJ2ZXVyIFNTTDAdBgNVHQ4EFgQUF5U0nH8Se/TyvqtX
QL3DKvXYz2owgZUGA1UdIwSBjTCBioAUH6901GHSOSB+wtZnwllmu+omDp+hbqRs
MGoxCzAJBgNVBAYTAmZyMQwwCgYDVQQIDANpZGYxDjAMBgNVBAcMBXBhcmlzMQ4w
DAYDVQQKDAV2aXRhbTEUMBIGA1UECwwLYXV0aG9yaXRpZXMxFzAVBgNVBAMMDmNh
X3Jvb3Rfc2VydmVyggIBDDAJBgNVHRIEAjAAMF4GA1UdEQRXMFWCHmluZ2VzdC1l
eHRlcm5hbC5zZXJ2aWNlLmNvbnN1bIIJbG9jYWxob3N0gihpbmdlc3QtZXh0ZXJu
YWwuc2VydmljZS5mdWxsbG9jYWwuY29uc3VsMAwGA1UdEwEB/wQCMAAwCwYDVR0P
BAQDAgWgMBEGCWCGSAGG+EIBAQQEAwIGQDATBgNVHSUEDDAKBggrBgEFBQcDATAN
BgkqhkiG9w0BAQsFAAOCAgEAzQm29954+eImYvgVqOsAJaFMPp4disgKDt2mjOpz
np76zIG63KNvszMOXtbiKUlp8kFOrF7sZUy8njaxZAmU3Pgmbleup01Rk7RuEwDu
+ZqxHeExxPT3CniOS+gQKaNIgOZukvQjRBBcoawbNJhEU6E0UnytZcqiIScBAORo
LS5Uz8HVXX4TUc+HVP6FS6duxXsNg1DLiTj/Bcn/UHERm/kuEKiBTT4nBBuXFSHx
lVd1Lwb8FPrQPGx/l/R2UYpsOLGnDLoyY7PGa7uXCBXpGrHxqGSLNtxFOYDBlji6
nuvIhGMxddFUw9WZr4tq9hHi2RxUayqzayCRvPqzdkTcfTUv+mWRy8bKzdRFw2ZF
BS+7+L6F6S+4i3/BEYNx74JhBF4MqFDURvFR5pGt1Cs7M9xmm1X9vS3luZQvsHns
QaPorP+SlR5gCJm8dYExVgIoAFWXwbAaqYTWKke7eI2FerAyan+22zOssHRaKB/u
L7pu1TZJOliW/Zak9IPsl55tjL6XYbl7QwZgHnHryJxky+SbiFsT7MrWpjRgq8Mh
Jm5QSdR3DeHO1xjzIV6CtEc/0fPoMrf668c7VUXYpolpee1FjA+a55ofPEMCoLts
yTKB5i/AD5cMvksfrmfJavy7AQbHq6IiVQJsVtTnpG7LK5weReytAeQB1ysBHfIO
lPY=
-----END CERTIFICATE-----
