Certificate:
    Data:
        Version: 3 (0x2)
        Serial Number: 281 (0x119)
        Signature Algorithm: sha256WithRSAEncryption
        Issuer: C=fr, ST=idf, L=paris, O=vitam, OU=authorities, CN=ca_intermediate_server
        Validity
            Not Before: Nov 10 14:35:39 2021 GMT
            Not After : Nov  9 14:35:39 2024 GMT
        Subject: C=fr, ST=idf, L=paris, O=vitam, CN=offer-fs-1.service.fulllocal.consul
        Subject Public Key Info:
            Public Key Algorithm: rsaEncryption
                RSA Public-Key: (4096 bit)
                Modulus:
                    00:c0:3d:40:73:e1:4e:c2:a3:8b:36:9b:c8:c5:07:
                    94:33:d4:e1:fb:ae:8b:8a:d7:c6:af:8b:4e:06:99:
                    2b:17:3b:d7:20:ee:d3:f9:9c:20:e5:7b:dd:b6:ea:
                    a6:17:f0:21:cd:4e:01:3d:5a:1b:39:59:5c:39:57:
                    68:7e:c6:dd:b4:0d:25:7e:a3:82:73:4e:83:10:ad:
                    a9:5d:32:42:c8:f8:bf:a1:56:f8:b5:f3:b9:a8:e1:
                    4a:e4:4a:3a:b0:a5:f2:ad:68:9a:2c:d5:cc:89:bb:
                    33:a1:bf:7a:3f:b9:5e:c9:ee:1a:8d:49:46:12:23:
                    e5:e6:64:38:10:87:3a:22:a2:33:ea:72:82:51:72:
                    e3:5c:bc:cb:17:7d:72:63:16:e8:4a:84:cc:61:9b:
                    e9:5e:ba:00:46:3a:d1:9a:20:4d:e8:5a:36:67:25:
                    60:96:97:b2:54:83:58:5d:f8:3c:04:22:54:36:bc:
                    d7:09:98:81:2b:43:7e:61:6f:08:e1:af:de:95:b3:
                    62:9c:22:9f:62:61:0b:90:d2:8a:3e:74:51:89:a5:
                    fd:ef:3c:0d:0a:50:f9:7f:9e:76:d6:42:e9:aa:e0:
                    2e:11:f4:bb:4a:5a:78:80:6f:95:f5:98:d2:8f:be:
                    c8:95:c6:aa:b5:92:eb:99:e0:b6:94:6b:6d:17:b7:
                    24:aa:30:fa:77:f2:78:65:89:92:98:77:1f:1c:be:
                    6a:9a:60:54:92:ab:75:f3:68:ed:b0:1e:10:17:d5:
                    df:b1:89:3c:c7:df:33:81:8b:6f:c5:ce:05:27:84:
                    b5:23:33:76:06:a5:28:88:45:46:9a:87:aa:49:e3:
                    a8:3b:de:36:23:13:e1:6b:a9:90:d1:dc:ee:ac:57:
                    b3:d2:14:ec:07:d2:62:69:74:b3:5c:b8:87:97:6f:
                    ef:ae:6c:ed:e0:e6:7d:35:8e:b3:66:75:c4:e1:4a:
                    56:54:4d:9f:e4:a4:58:ed:e8:9c:65:13:d6:c1:48:
                    c4:33:44:fd:86:0a:f6:f4:cb:64:62:81:d3:21:db:
                    5d:07:d8:a8:ba:86:09:8b:47:1a:72:90:43:33:48:
                    fa:e0:86:b7:3e:07:14:56:d8:a8:4f:fc:ef:0b:8a:
                    2f:f0:37:92:0b:b9:3c:c6:c0:fc:d3:5a:c7:0d:3b:
                    75:58:65:6d:9c:6e:46:e5:ea:df:05:d1:0b:dc:9f:
                    29:6a:e8:bf:9b:51:60:ae:0e:57:5f:8f:d1:36:23:
                    0f:05:7c:da:78:8e:12:8c:4f:55:cb:a0:ce:26:f5:
                    d1:51:bc:48:cf:bf:43:3f:9b:62:c8:ba:e2:2e:77:
                    79:0f:7b:e3:56:40:99:9c:83:87:ca:4d:dc:c4:dc:
                    49:4a:3f
                Exponent: 65537 (0x10001)
        X509v3 extensions:
            Netscape Comment: 
                Certificat Serveur SSL
            X509v3 Subject Key Identifier: 
                87:08:13:C4:98:AC:D0:07:39:BE:72:1A:0B:FE:D2:14:B1:F1:1A:B7
            X509v3 Authority Key Identifier: 
                keyid:1F:AF:74:D4:61:D2:39:20:7E:C2:D6:67:C2:59:66:BB:EA:26:0E:9F
                DirName:/C=fr/ST=idf/L=paris/O=vitam/OU=authorities/CN=ca_root_server
                serial:01:0C

            X509v3 Issuer Alternative Name: 
                <EMPTY>

            X509v3 Subject Alternative Name: 
                DNS:offer-fs-1.service.consul, DNS:localhost, DNS:offer-fs-1.service.fulllocal.consul
            X509v3 Basic Constraints: critical
                CA:FALSE
            X509v3 Key Usage: 
                Digital Signature, Key Encipherment
            Netscape Cert Type: 
                SSL Server
            X509v3 Extended Key Usage: 
                TLS Web Server Authentication
    Signature Algorithm: sha256WithRSAEncryption
         c8:44:5e:ac:29:20:2a:c3:c9:7f:49:3b:24:23:1b:21:26:83:
         06:58:3e:0b:8e:c3:95:15:2f:83:6d:00:8c:2f:43:64:2f:3d:
         31:97:97:4f:b9:9b:be:fe:58:f3:2e:ae:a8:06:a2:f5:40:03:
         64:42:e9:53:3d:d6:94:75:16:5f:77:b5:84:72:5f:1c:ac:d4:
         8b:c7:62:a0:21:e4:69:09:ac:81:2c:3f:0b:89:3c:b3:c5:30:
         b5:97:93:2b:f9:1d:3e:65:9d:68:c9:ae:cd:76:4c:e4:3c:a0:
         da:6d:26:23:7a:01:3a:a7:79:20:39:77:4f:e0:b2:7f:4a:b9:
         0a:83:14:49:9a:43:54:ed:1c:c9:5b:75:25:84:9b:9f:46:b3:
         b5:18:43:38:85:6e:54:be:d7:5e:70:ee:21:96:ed:b9:d7:9e:
         8a:1b:bd:7c:56:a1:d6:9b:cb:49:7f:95:14:8d:dc:4b:8b:8e:
         cb:20:ec:37:9a:9c:07:b2:25:07:58:cf:8d:e3:59:7b:aa:62:
         41:23:a3:0e:ad:f7:2b:02:17:3f:f5:c9:67:82:68:63:7a:1f:
         08:e1:25:6b:76:bd:b7:9d:17:75:07:3f:1b:96:17:d6:38:04:
         82:59:36:72:a8:a8:5b:30:80:02:55:40:6b:2b:6c:93:75:a7:
         3c:49:69:95:27:ef:f1:4f:75:b3:f4:9f:34:3e:fb:b0:af:76:
         2c:05:08:86:04:8b:69:52:74:a1:b6:17:43:4b:a7:9b:b3:39:
         9a:36:4b:68:37:1f:8b:8f:c7:5a:49:94:b4:28:e2:82:bb:0d:
         78:b3:58:40:cf:66:62:9d:df:d6:fb:cf:2e:84:d5:75:1b:17:
         31:1d:23:6d:5b:ef:83:28:37:aa:f4:24:64:18:cc:1b:d5:77:
         6b:4e:d6:06:91:cc:d7:02:69:fe:ef:5c:46:f2:b8:9e:99:45:
         e3:75:48:af:89:46:42:eb:bf:39:dd:e0:f8:f8:50:9c:db:5c:
         01:5c:1d:58:38:4e:a2:d7:10:16:5d:13:36:08:80:86:32:3b:
         e5:f9:ab:a3:cb:f9:c8:cd:39:2a:4a:85:4d:ba:04:5c:d4:7d:
         70:61:dd:92:4b:a8:1a:fb:de:a5:2d:93:81:db:ec:ba:24:ac:
         d3:c0:2d:9f:39:9a:14:c9:dd:00:52:c1:15:7e:d3:e5:44:7c:
         74:70:03:48:bc:8b:0c:72:a1:0c:c2:66:c6:f6:84:26:00:7e:
         fb:61:73:cd:bd:56:fd:6c:d7:c7:04:11:54:26:34:3a:41:61:
         8a:a8:fa:1f:c5:c3:a5:57:71:dc:9c:1d:17:4e:70:c6:a4:b4:
         67:b4:09:93:d4:3e:31:e4
-----BEGIN CERTIFICATE-----
MIIG3zCCBMegAwIBAgICARkwDQYJKoZIhvcNAQELBQAwcjELMAkGA1UEBhMCZnIx
DDAKBgNVBAgMA2lkZjEOMAwGA1UEBwwFcGFyaXMxDjAMBgNVBAoMBXZpdGFtMRQw
EgYDVQQLDAthdXRob3JpdGllczEfMB0GA1UEAwwWY2FfaW50ZXJtZWRpYXRlX3Nl
cnZlcjAeFw0yMTExMTAxNDM1MzlaFw0yNDExMDkxNDM1MzlaMGkxCzAJBgNVBAYT
AmZyMQwwCgYDVQQIDANpZGYxDjAMBgNVBAcMBXBhcmlzMQ4wDAYDVQQKDAV2aXRh
bTEsMCoGA1UEAwwjb2ZmZXItZnMtMS5zZXJ2aWNlLmZ1bGxsb2NhbC5jb25zdWww
ggIiMA0GCSqGSIb3DQEBAQUAA4ICDwAwggIKAoICAQDAPUBz4U7Co4s2m8jFB5Qz
1OH7rouK18avi04GmSsXO9cg7tP5nCDle9226qYX8CHNTgE9Whs5WVw5V2h+xt20
DSV+o4JzToMQraldMkLI+L+hVvi187mo4UrkSjqwpfKtaJos1cyJuzOhv3o/uV7J
7hqNSUYSI+XmZDgQhzoiojPqcoJRcuNcvMsXfXJjFuhKhMxhm+leugBGOtGaIE3o
WjZnJWCWl7JUg1hd+DwEIlQ2vNcJmIErQ35hbwjhr96Vs2KcIp9iYQuQ0oo+dFGJ
pf3vPA0KUPl/nnbWQumq4C4R9LtKWniAb5X1mNKPvsiVxqq1kuuZ4LaUa20XtySq
MPp38nhliZKYdx8cvmqaYFSSq3XzaO2wHhAX1d+xiTzH3zOBi2/FzgUnhLUjM3YG
pSiIRUaah6pJ46g73jYjE+FrqZDR3O6sV7PSFOwH0mJpdLNcuIeXb++ubO3g5n01
jrNmdcThSlZUTZ/kpFjt6JxlE9bBSMQzRP2GCvb0y2RigdMh210H2Ki6hgmLRxpy
kEMzSPrghrc+BxRW2KhP/O8Lii/wN5ILuTzGwPzTWscNO3VYZW2cbkbl6t8F0Qvc
nylq6L+bUWCuDldfj9E2Iw8FfNp4jhKMT1XLoM4m9dFRvEjPv0M/m2LIuuIud3kP
e+NWQJmcg4fKTdzE3ElKPwIDAQABo4IBhjCCAYIwJQYJYIZIAYb4QgENBBgWFkNl
cnRpZmljYXQgU2VydmV1ciBTU0wwHQYDVR0OBBYEFIcIE8SYrNAHOb5yGgv+0hSx
8Rq3MIGVBgNVHSMEgY0wgYqAFB+vdNRh0jkgfsLWZ8JZZrvqJg6foW6kbDBqMQsw
CQYDVQQGEwJmcjEMMAoGA1UECAwDaWRmMQ4wDAYDVQQHDAVwYXJpczEOMAwGA1UE
CgwFdml0YW0xFDASBgNVBAsMC2F1dGhvcml0aWVzMRcwFQYDVQQDDA5jYV9yb290
X3NlcnZlcoICAQwwCQYDVR0SBAIwADBUBgNVHREETTBLghlvZmZlci1mcy0xLnNl
cnZpY2UuY29uc3Vsgglsb2NhbGhvc3SCI29mZmVyLWZzLTEuc2VydmljZS5mdWxs
bG9jYWwuY29uc3VsMAwGA1UdEwEB/wQCMAAwCwYDVR0PBAQDAgWgMBEGCWCGSAGG
+EIBAQQEAwIGQDATBgNVHSUEDDAKBggrBgEFBQcDATANBgkqhkiG9w0BAQsFAAOC
AgEAyERerCkgKsPJf0k7JCMbISaDBlg+C47DlRUvg20AjC9DZC89MZeXT7mbvv5Y
8y6uqAai9UADZELpUz3WlHUWX3e1hHJfHKzUi8dioCHkaQmsgSw/C4k8s8UwtZeT
K/kdPmWdaMmuzXZM5Dyg2m0mI3oBOqd5IDl3T+Cyf0q5CoMUSZpDVO0cyVt1JYSb
n0aztRhDOIVuVL7XXnDuIZbtudeeihu9fFah1pvLSX+VFI3cS4uOyyDsN5qcB7Il
B1jPjeNZe6piQSOjDq33KwIXP/XJZ4JoY3ofCOEla3a9t50XdQc/G5YX1jgEglk2
cqioWzCAAlVAaytsk3WnPElplSfv8U91s/SfND77sK92LAUIhgSLaVJ0obYXQ0un
m7M5mjZLaDcfi4/HWkmUtCjigrsNeLNYQM9mYp3f1vvPLoTVdRsXMR0jbVvvgyg3
qvQkZBjMG9V3a07WBpHM1wJp/u9cRvK4nplF43VIr4lGQuu/Od3g+PhQnNtcAVwd
WDhOotcQFl0TNgiAhjI75fmro8v5yM05KkqFTboEXNR9cGHdkkuoGvvepS2Tgdvs
uiSs08AtnzmaFMndAFLBFX7T5UR8dHADSLyLDHKhDMJmxvaEJgB++2Fzzb1W/WzX
xwQRVCY0OkFhiqj6H8XDpVdx3JwdF05wxqS0Z7QJk9Q+MeQ=
-----END CERTIFICATE-----
