Certificate:
    Data:
        Version: 3 (0x2)
        Serial Number: 264 (0x108)
    Signature Algorithm: sha256WithRSAEncryption
        Issuer: C=fr, ST=idf, L=paris, O=vitam, OU=authorities, CN=ca_intermediate_server
        Validity
            Not Before: Oct 19 08:40:53 2018 GMT
            Not After : Oct 18 08:40:53 2021 GMT
        Subject: C=fr, ST=idf, L=paris, O=vitam, CN=offer.service.consul
        Subject Public Key Info:
            Public Key Algorithm: rsaEncryption
                Public-Key: (4096 bit)
                Modulus:
                    00:bc:b8:66:c9:9c:7a:4c:41:45:e2:95:5f:08:82:
                    b6:07:7e:e1:f7:65:ea:0d:35:86:eb:94:3d:c8:d2:
                    54:40:19:5e:7e:4b:54:8c:97:fa:17:07:5c:41:a5:
                    f5:e8:4a:c6:47:10:11:8f:ce:64:4b:9e:e1:f1:6f:
                    b0:1f:6a:82:3b:e2:73:3d:ae:5d:66:dc:6a:39:3e:
                    8b:34:4b:0e:5c:d2:07:cf:29:58:8d:07:9d:a8:ac:
                    6c:fd:8d:9d:42:2b:4a:05:44:ad:b7:f0:4b:f6:18:
                    6f:84:de:d4:1f:12:6e:28:42:9a:38:56:7a:1e:77:
                    0f:36:52:5c:d1:95:28:ba:36:b9:c9:85:12:c9:b0:
                    35:c9:23:9f:b2:ea:d4:07:3d:26:48:23:28:9a:0c:
                    ed:85:61:ae:3d:19:35:11:84:4c:3b:4b:66:37:87:
                    9b:a0:4a:aa:ce:0c:69:d3:0f:07:ae:d8:e8:1a:50:
                    ae:60:5e:4e:de:c6:4d:3d:07:c6:6b:8d:ce:d2:08:
                    13:19:59:6f:66:5a:82:7f:fd:4d:5b:a3:40:86:22:
                    0d:f0:03:6c:21:af:2c:eb:bd:b4:98:a0:0e:da:3e:
                    4d:60:0b:35:96:36:05:40:32:4b:41:d7:15:f1:2c:
                    2c:21:d0:96:dd:42:ea:f1:ea:1e:cb:42:0b:1c:5e:
                    27:21:da:44:49:b2:ca:68:1c:8e:48:f8:fb:2d:5a:
                    01:8d:b2:a2:98:b9:2d:71:bd:b1:60:1d:ed:78:57:
                    06:23:6a:60:9e:59:55:94:d8:9d:bd:b6:47:67:4f:
                    b7:fa:ea:74:a2:be:c1:01:e0:a9:0a:a5:ec:de:3f:
                    b3:ff:3d:1b:7d:29:49:01:f5:bd:8f:37:d1:3d:c7:
                    03:b7:47:cd:07:7d:c9:46:61:ca:6c:ce:f4:7c:5a:
                    07:f8:34:7f:97:2b:dc:dd:ae:d3:7b:3e:97:c7:87:
                    58:6a:f5:e7:e6:fd:35:d9:d4:27:73:78:ef:04:63:
                    4b:2d:94:f4:d3:c1:08:ff:b4:88:65:50:78:9b:12:
                    74:ce:e2:2e:34:71:a1:cf:f3:7a:9e:9b:77:6c:31:
                    1e:bb:18:8b:c1:7b:cb:fd:74:e9:91:96:88:89:ff:
                    08:ec:3b:bb:a5:99:05:0b:b8:f7:52:e6:02:cd:d3:
                    3f:4b:0f:b5:d3:d7:b1:54:8f:9f:c5:0b:bb:34:0f:
                    e9:38:47:a4:d0:9b:7f:40:da:09:4d:c7:ba:46:fc:
                    66:96:d5:d4:be:da:ea:1e:c4:48:de:86:73:ce:2f:
                    93:f7:4c:55:3a:77:1c:8d:8b:70:4e:70:61:19:0f:
                    90:26:11:dd:fe:28:68:92:39:ca:1e:58:ab:17:48:
                    98:6e:63
                Exponent: 65537 (0x10001)
        X509v3 extensions:
            Netscape Comment: 
                Certificat Serveur SSL
            X509v3 Subject Key Identifier: 
                AD:CC:3D:0D:E5:13:08:04:C3:EA:3B:BB:BB:3E:15:FE:C2:8F:5A:56
            X509v3 Authority Key Identifier: 
                keyid:8E:45:CA:B9:5E:F2:8A:F9:A0:3A:C0:5C:78:C2:FC:E5:E8:6E:29:D9
                DirName:/C=fr/ST=idf/L=paris/O=vitam/OU=authorities/CN=ca_root_server
                serial:01:05

            X509v3 Issuer Alternative Name: 
                <EMPTY>

            X509v3 Subject Alternative Name: 
                DNS:offer.service.consul, DNS:localhost
            X509v3 Basic Constraints: critical
                CA:FALSE
            X509v3 Key Usage: 
                Digital Signature, Key Encipherment
            Netscape Cert Type: 
                SSL Server
            X509v3 Extended Key Usage: 
                TLS Web Server Authentication
    Signature Algorithm: sha256WithRSAEncryption
         e5:72:2d:d1:f7:5e:2a:6c:52:d9:d7:57:5e:35:9e:10:ae:8f:
         7d:fc:c9:3c:13:3c:0e:f3:8c:ae:b0:5a:c4:e4:ad:7e:15:63:
         a9:d0:90:55:bd:fb:0e:fe:4b:35:bf:cf:fb:e9:4a:d7:39:f8:
         8c:f2:6b:83:16:70:89:cd:ff:96:90:e1:0d:3e:06:8c:0f:3f:
         82:85:5a:5c:5c:ce:a6:34:5e:67:11:1c:93:8d:14:3c:dc:3d:
         9a:c9:ba:bc:d4:6d:31:2c:a7:5d:a3:6b:61:a4:08:f0:63:4c:
         ba:28:c0:fb:6f:ab:6a:30:c6:3a:b2:a5:77:de:25:38:2b:9d:
         b0:d3:db:cd:8c:e6:2f:62:1d:99:03:81:45:b4:38:c7:ea:a8:
         38:83:77:ff:71:76:5c:cf:96:5f:c0:3a:47:ae:7e:15:04:44:
         17:d0:e2:37:7a:8c:78:59:d3:fc:9d:f9:4a:9b:f3:d2:e0:a0:
         95:58:51:6f:22:fc:ec:4c:f5:36:e7:bf:35:a2:b0:24:11:b5:
         6f:2f:fb:06:a6:96:cd:ed:46:82:c3:43:ea:3d:42:c4:92:90:
         7c:1f:37:f8:f2:23:10:7d:ed:97:0b:74:a1:78:2b:a5:8c:0c:
         0c:33:9b:33:d4:0f:dc:67:a7:eb:1b:e1:6d:73:cb:3e:0b:5d:
         d5:36:d2:dd:43:be:f3:f1:19:a9:9b:29:71:ac:c4:3a:9f:e3:
         c6:34:f8:c0:a0:7c:54:25:29:52:a8:61:86:05:24:15:37:eb:
         1d:42:69:8c:72:ec:0b:26:c3:a4:cd:4b:ec:6b:05:58:d0:da:
         28:05:20:9a:18:f4:d2:83:57:89:ea:a5:3a:bf:d6:0d:f0:9a:
         26:35:1d:8c:53:40:9f:80:8e:ed:a8:c4:7d:99:13:7e:65:9d:
         24:46:1b:ca:0d:2f:a7:86:5f:68:30:7f:6f:06:26:f1:dd:64:
         9f:2e:4e:9f:0c:11:7f:ba:40:3c:b6:2a:96:78:24:db:d6:2b:
         10:60:fd:c8:f2:b1:04:a1:fb:55:67:fb:fd:d8:ed:eb:4b:37:
         87:eb:e8:4a:3d:25:4e:78:34:a5:9c:0d:2a:80:57:8c:d5:c2:
         40:37:f9:48:55:29:b2:37:77:50:79:75:9c:bf:57:d0:89:34:
         4b:c7:48:84:77:78:aa:fc:21:83:66:d5:9e:9e:cb:d1:21:34:
         d5:fe:90:f4:34:89:fc:08:70:1b:7d:15:ec:73:57:d3:fa:5e:
         8a:15:eb:17:bc:86:42:24:ac:83:8b:63:e0:9b:26:ed:a6:c1:
         8f:66:12:d6:0f:27:fc:02:9b:3a:56:a6:2f:b2:89:f8:fa:5e:
         c4:61:c0:08:da:4b:44:5b
-----BEGIN CERTIFICATE-----
MIIGpjCCBI6gAwIBAgICAQgwDQYJKoZIhvcNAQELBQAwcjELMAkGA1UEBhMCZnIx
DDAKBgNVBAgMA2lkZjEOMAwGA1UEBwwFcGFyaXMxDjAMBgNVBAoMBXZpdGFtMRQw
EgYDVQQLDAthdXRob3JpdGllczEfMB0GA1UEAwwWY2FfaW50ZXJtZWRpYXRlX3Nl
cnZlcjAeFw0xODEwMTkwODQwNTNaFw0yMTEwMTgwODQwNTNaMFoxCzAJBgNVBAYT
AmZyMQwwCgYDVQQIDANpZGYxDjAMBgNVBAcMBXBhcmlzMQ4wDAYDVQQKDAV2aXRh
bTEdMBsGA1UEAwwUb2ZmZXIuc2VydmljZS5jb25zdWwwggIiMA0GCSqGSIb3DQEB
AQUAA4ICDwAwggIKAoICAQC8uGbJnHpMQUXilV8IgrYHfuH3ZeoNNYbrlD3I0lRA
GV5+S1SMl/oXB1xBpfXoSsZHEBGPzmRLnuHxb7AfaoI74nM9rl1m3Go5Pos0Sw5c
0gfPKViNB52orGz9jZ1CK0oFRK238Ev2GG+E3tQfEm4oQpo4Vnoedw82UlzRlSi6
NrnJhRLJsDXJI5+y6tQHPSZIIyiaDO2FYa49GTURhEw7S2Y3h5ugSqrODGnTDweu
2OgaUK5gXk7exk09B8Zrjc7SCBMZWW9mWoJ//U1bo0CGIg3wA2whryzrvbSYoA7a
Pk1gCzWWNgVAMktB1xXxLCwh0JbdQurx6h7LQgscXich2kRJsspoHI5I+PstWgGN
sqKYuS1xvbFgHe14VwYjamCeWVWU2J29tkdnT7f66nSivsEB4KkKpezeP7P/PRt9
KUkB9b2PN9E9xwO3R80HfclGYcpszvR8Wgf4NH+XK9zdrtN7PpfHh1hq9efm/TXZ
1CdzeO8EY0stlPTTwQj/tIhlUHibEnTO4i40caHP83qem3dsMR67GIvBe8v9dOmR
loiJ/wjsO7ulmQULuPdS5gLN0z9LD7XT17FUj5/FC7s0D+k4R6TQm39A2glNx7pG
/GaW1dS+2uoexEjehnPOL5P3TFU6dxyNi3BOcGEZD5AmEd3+KGiSOcoeWKsXSJhu
YwIDAQABo4IBXDCCAVgwJQYJYIZIAYb4QgENBBgWFkNlcnRpZmljYXQgU2VydmV1
ciBTU0wwHQYDVR0OBBYEFK3MPQ3lEwgEw+o7u7s+Ff7Cj1pWMIGVBgNVHSMEgY0w
gYqAFI5Fyrle8or5oDrAXHjC/OXobinZoW6kbDBqMQswCQYDVQQGEwJmcjEMMAoG
A1UECAwDaWRmMQ4wDAYDVQQHDAVwYXJpczEOMAwGA1UECgwFdml0YW0xFDASBgNV
BAsMC2F1dGhvcml0aWVzMRcwFQYDVQQDDA5jYV9yb290X3NlcnZlcoICAQUwCQYD
VR0SBAIwADAqBgNVHREEIzAhghRvZmZlci5zZXJ2aWNlLmNvbnN1bIIJbG9jYWxo
b3N0MAwGA1UdEwEB/wQCMAAwCwYDVR0PBAQDAgWgMBEGCWCGSAGG+EIBAQQEAwIG
QDATBgNVHSUEDDAKBggrBgEFBQcDATANBgkqhkiG9w0BAQsFAAOCAgEA5XIt0fde
KmxS2ddXXjWeEK6PffzJPBM8DvOMrrBaxOStfhVjqdCQVb37Dv5LNb/P++lK1zn4
jPJrgxZwic3/lpDhDT4GjA8/goVaXFzOpjReZxEck40UPNw9msm6vNRtMSynXaNr
YaQI8GNMuijA+2+rajDGOrKld94lOCudsNPbzYzmL2IdmQOBRbQ4x+qoOIN3/3F2
XM+WX8A6R65+FQREF9DiN3qMeFnT/J35Spvz0uCglVhRbyL87Ez1Nue/NaKwJBG1
by/7BqaWze1GgsND6j1CxJKQfB83+PIjEH3tlwt0oXgrpYwMDDObM9QP3Gen6xvh
bXPLPgtd1TbS3UO+8/EZqZspcazEOp/jxjT4wKB8VCUpUqhhhgUkFTfrHUJpjHLs
CybDpM1L7GsFWNDaKAUgmhj00oNXieqlOr/WDfCaJjUdjFNAn4CO7ajEfZkTfmWd
JEYbyg0vp4ZfaDB/bwYm8d1kny5OnwwRf7pAPLYqlngk29YrEGD9yPKxBKH7VWf7
/djt60s3h+voSj0lTng0pZwNKoBXjNXCQDf5SFUpsjd3UHl1nL9X0Ik0S8dIhHd4
qvwhg2bVnp7L0SE01f6Q9DSJ/AhwG30V7HNX0/peihXrF7yGQiSsg4tj4Jsm7abB
j2YS1g8n/AKbOlamL7KJ+PpexGHACNpLRFs=
-----END CERTIFICATE-----
