Certificate:
    Data:
        Version: 3 (0x2)
        Serial Number: 203 (0xcb)
    Signature Algorithm: sha256WithRSAEncryption
        Issuer: C=fr, ST=idf, L=paris, O=vitam, OU=authorities, CN=ca_intermediate_server
        Validity
            Not Before: Jul 12 14:29:52 2017 GMT
            Not After : Jul 11 14:29:52 2020 GMT
        Subject: C=fr, ST=idf, L=paris, O=vitam, CN=offer.service.consul
        Subject Public Key Info:
            Public Key Algorithm: rsaEncryption
                Public-Key: (4096 bit)
                Modulus:
                    00:d6:b3:0d:2f:32:72:1f:a8:28:43:6d:c8:89:08:
                    90:e5:ca:7f:6c:cb:05:2c:bc:a7:93:6f:50:66:97:
                    ac:62:04:f0:b8:97:fd:21:82:4c:d3:ab:4e:a0:7e:
                    eb:71:1a:c1:d6:cf:e7:6d:24:19:a0:fe:54:3d:0a:
                    95:53:d9:95:7e:59:c2:bc:11:35:04:39:9a:c1:c6:
                    d7:53:8f:81:d0:d6:25:8c:50:71:61:6f:01:ec:e5:
                    28:d3:da:e5:87:10:67:5d:0e:a4:74:c1:9d:3f:29:
                    e6:2c:b5:f9:dd:1c:3f:f4:eb:ae:de:f6:66:97:37:
                    a5:e7:46:05:8b:85:dd:33:f2:19:98:50:33:72:85:
                    87:87:d2:7c:51:e1:7f:3e:b8:f2:29:89:1e:6e:e6:
                    00:ab:d3:28:45:58:e5:f1:04:08:ab:66:db:2c:01:
                    e9:7c:14:2f:d3:42:26:16:f5:7f:6e:46:40:ca:5e:
                    13:0b:78:3f:37:3d:14:cc:0f:b6:79:96:6d:62:34:
                    1a:42:e4:a1:86:12:d3:36:c8:32:2b:e0:94:a1:36:
                    45:fd:a1:60:8b:fc:85:df:2e:c2:c8:04:02:b0:f7:
                    3f:23:23:e0:a1:33:cb:2b:a6:c2:77:63:80:3f:77:
                    35:2b:e7:5e:30:31:3e:db:36:55:57:1a:a1:0b:eb:
                    cb:46:11:62:3b:4c:86:3a:01:ed:36:6d:1d:bc:54:
                    32:99:9f:55:d6:b4:1c:65:ad:1a:a3:38:7e:b4:7b:
                    94:b2:2c:6a:a9:c6:57:01:a6:37:43:0b:dc:db:1b:
                    bf:a1:9c:a9:08:87:ae:66:69:c9:60:c9:86:10:4e:
                    45:b9:df:30:4b:0a:70:40:5b:79:28:bb:46:83:2e:
                    e4:ef:fb:66:64:5c:51:23:31:db:fc:c4:f8:2a:ad:
                    8e:c2:ab:46:30:d5:16:8c:fa:0d:f7:e3:cc:c6:d4:
                    94:0d:a6:49:05:ff:ec:0e:c4:cb:ab:58:19:c9:7d:
                    f2:9d:c3:51:4c:60:90:4b:ac:f2:fd:cd:03:39:27:
                    d9:63:1a:85:79:e6:41:3d:98:24:92:b5:33:9e:63:
                    e0:90:aa:4c:3f:a2:50:d9:3d:2c:8e:21:29:22:b5:
                    aa:2b:23:78:57:6f:fb:3f:0e:62:f4:da:39:16:98:
                    40:13:c3:9b:97:71:46:49:87:43:cc:71:5a:03:81:
                    3d:c2:e8:9f:fa:7f:ea:74:ff:8e:3c:79:ca:c2:2f:
                    c2:f4:a7:55:04:34:e6:bf:33:fe:85:da:c7:78:7a:
                    46:02:2f:07:f4:70:71:93:52:25:41:6f:0b:33:61:
                    c4:58:d2:5f:95:55:34:f1:32:85:d9:47:c4:be:07:
                    ee:43:fd
                Exponent: 65537 (0x10001)
        X509v3 extensions:
            Netscape Comment: 
                Certificat Serveur SSL
            X509v3 Subject Key Identifier: 
                E7:F6:9B:A0:F0:EA:E4:05:6E:9C:37:86:B3:74:A7:EA:10:92:11:7E
            X509v3 Authority Key Identifier: 
                keyid:80:0B:DF:DC:D5:21:B0:C8:E3:CC:91:21:8F:29:18:A0:6E:B4:C8:12
                DirName:/C=fr/ST=idf/L=paris/O=vitam/OU=authorities/CN=ca_root_server
                serial:C8

            X509v3 Issuer Alternative Name: 
                <EMPTY>

            X509v3 Subject Alternative Name: 
                DNS:offer.service.consul, DNS:localhost
            X509v3 Basic Constraints: critical
                CA:FALSE
            X509v3 Key Usage: 
                Digital Signature, Non Repudiation, Key Encipherment
            Netscape Cert Type: 
                SSL Server
            X509v3 Extended Key Usage: 
                TLS Web Server Authentication
    Signature Algorithm: sha256WithRSAEncryption
         4f:30:92:99:33:d1:e1:3e:c3:61:c1:10:b4:f0:d7:8b:32:6c:
         02:30:66:c0:33:8f:30:86:38:ea:29:69:52:ee:af:04:5a:b9:
         f1:15:25:65:72:75:ea:66:28:b6:fd:95:c7:ba:f6:e2:42:a9:
         3f:38:73:92:95:92:dd:31:1f:d8:1b:a2:c9:29:a6:83:70:18:
         f3:80:5c:fb:8e:93:ae:f4:eb:83:c6:36:ab:d9:64:94:9e:16:
         83:27:a7:84:43:1a:92:40:8b:ff:b3:4c:75:2f:f4:5e:38:f1:
         90:d0:d5:f4:43:77:25:91:ad:fc:dc:fb:51:60:15:5c:6e:f8:
         72:c6:ea:6a:71:cf:9e:c2:f6:1a:e6:1e:86:0c:77:db:e2:51:
         aa:72:d4:91:54:44:8f:32:da:a6:bc:68:d7:d9:09:55:c6:68:
         ee:c4:34:65:04:3d:26:83:33:92:2d:c4:96:36:76:75:04:55:
         ef:dc:be:0c:78:fe:6d:f5:b4:c2:c6:d8:0d:36:f4:66:9c:42:
         cb:38:d7:96:1b:aa:41:6d:1f:72:d6:5d:52:21:94:36:90:4f:
         50:b5:cd:02:2c:ac:17:c2:4b:47:41:a4:1a:94:5b:cd:98:aa:
         ca:bb:ba:2d:c7:52:1f:62:ef:6e:49:51:d5:ab:35:75:d1:7d:
         cf:ad:b9:17:46:0e:42:27:21:a8:81:24:4c:20:8c:32:f0:4b:
         e9:d3:c9:fa:ff:45:ba:eb:52:12:31:39:a8:43:3f:96:8c:0e:
         96:0e:62:41:a4:1b:dc:60:45:27:ca:2a:b2:35:81:f6:42:24:
         e8:d1:3d:8a:12:f7:38:35:73:5d:6a:6f:67:02:4b:65:53:c5:
         63:c3:f1:44:cc:2b:7a:1b:8b:6c:06:a2:77:39:03:0b:f5:75:
         dc:1f:09:8b:7f:65:64:a6:1d:bd:e4:54:87:48:e6:a6:0c:3f:
         44:82:94:03:71:bc:3f:76:d7:56:3d:c5:7e:ab:19:1e:be:0c:
         e0:1f:75:53:14:47:61:0f:5e:5c:4a:b1:e8:32:1c:b8:5a:6f:
         18:32:3a:bb:69:10:d5:a0:c0:9d:70:b7:90:2b:cf:11:c9:c8:
         9d:ac:a4:fe:84:91:ef:14:e4:85:ed:0b:3e:a5:5e:aa:02:1b:
         b0:f4:7c:8b:c4:52:f4:3a:eb:71:6e:92:ab:c9:ad:11:4e:ed:
         84:3c:71:60:45:89:6c:f0:cc:b1:90:13:5b:89:41:f3:0c:91:
         44:98:69:6e:83:4e:15:82:94:7a:df:00:41:d6:b1:b0:59:70:
         e6:80:be:f8:06:ba:c3:87:08:13:84:50:40:9a:9d:6b:4a:81:
         15:00:cb:7d:b4:ee:d1:53
-----BEGIN CERTIFICATE-----
MIIGpjCCBI6gAwIBAgICAMswDQYJKoZIhvcNAQELBQAwcjELMAkGA1UEBhMCZnIx
DDAKBgNVBAgMA2lkZjEOMAwGA1UEBwwFcGFyaXMxDjAMBgNVBAoMBXZpdGFtMRQw
EgYDVQQLDAthdXRob3JpdGllczEfMB0GA1UEAwwWY2FfaW50ZXJtZWRpYXRlX3Nl
cnZlcjAeFw0xNzA3MTIxNDI5NTJaFw0yMDA3MTExNDI5NTJaMFoxCzAJBgNVBAYT
AmZyMQwwCgYDVQQIDANpZGYxDjAMBgNVBAcMBXBhcmlzMQ4wDAYDVQQKDAV2aXRh
bTEdMBsGA1UEAwwUb2ZmZXIuc2VydmljZS5jb25zdWwwggIiMA0GCSqGSIb3DQEB
AQUAA4ICDwAwggIKAoICAQDWsw0vMnIfqChDbciJCJDlyn9sywUsvKeTb1Bml6xi
BPC4l/0hgkzTq06gfutxGsHWz+dtJBmg/lQ9CpVT2ZV+WcK8ETUEOZrBxtdTj4HQ
1iWMUHFhbwHs5SjT2uWHEGddDqR0wZ0/KeYstfndHD/0667e9maXN6XnRgWLhd0z
8hmYUDNyhYeH0nxR4X8+uPIpiR5u5gCr0yhFWOXxBAirZtssAel8FC/TQiYW9X9u
RkDKXhMLeD83PRTMD7Z5lm1iNBpC5KGGEtM2yDIr4JShNkX9oWCL/IXfLsLIBAKw
9z8jI+ChM8srpsJ3Y4A/dzUr514wMT7bNlVXGqEL68tGEWI7TIY6Ae02bR28VDKZ
n1XWtBxlrRqjOH60e5SyLGqpxlcBpjdDC9zbG7+hnKkIh65maclgyYYQTkW53zBL
CnBAW3kou0aDLuTv+2ZkXFEjMdv8xPgqrY7Cq0Yw1RaM+g3348zG1JQNpkkF/+wO
xMurWBnJffKdw1FMYJBLrPL9zQM5J9ljGoV55kE9mCSStTOeY+CQqkw/olDZPSyO
ISkitaorI3hXb/s/DmL02jkWmEATw5uXcUZJh0PMcVoDgT3C6J/6f+p0/448ecrC
L8L0p1UENOa/M/6F2sd4ekYCLwf0cHGTUiVBbwszYcRY0l+VVTTxMoXZR8S+B+5D
/QIDAQABo4IBXDCCAVgwJQYJYIZIAYb4QgENBBgWFkNlcnRpZmljYXQgU2VydmV1
ciBTU0wwHQYDVR0OBBYEFOf2m6Dw6uQFbpw3hrN0p+oQkhF+MIGVBgNVHSMEgY0w
gYqAFIAL39zVIbDI48yRIY8pGKButMgSoW6kbDBqMQswCQYDVQQGEwJmcjEMMAoG
A1UECAwDaWRmMQ4wDAYDVQQHDAVwYXJpczEOMAwGA1UECgwFdml0YW0xFDASBgNV
BAsMC2F1dGhvcml0aWVzMRcwFQYDVQQDDA5jYV9yb290X3NlcnZlcoICAMgwCQYD
VR0SBAIwADAqBgNVHREEIzAhghRvZmZlci5zZXJ2aWNlLmNvbnN1bIIJbG9jYWxo
b3N0MAwGA1UdEwEB/wQCMAAwCwYDVR0PBAQDAgXgMBEGCWCGSAGG+EIBAQQEAwIG
QDATBgNVHSUEDDAKBggrBgEFBQcDATANBgkqhkiG9w0BAQsFAAOCAgEATzCSmTPR
4T7DYcEQtPDXizJsAjBmwDOPMIY46ilpUu6vBFq58RUlZXJ16mYotv2Vx7r24kKp
PzhzkpWS3TEf2BuiySmmg3AY84Bc+46TrvTrg8Y2q9lklJ4WgyenhEMakkCL/7NM
dS/0XjjxkNDV9EN3JZGt/Nz7UWAVXG74csbqanHPnsL2GuYehgx32+JRqnLUkVRE
jzLaprxo19kJVcZo7sQ0ZQQ9JoMzki3EljZ2dQRV79y+DHj+bfW0wsbYDTb0ZpxC
yzjXlhuqQW0fctZdUiGUNpBPULXNAiysF8JLR0GkGpRbzZiqyru6LcdSH2LvbklR
1as1ddF9z625F0YOQichqIEkTCCMMvBL6dPJ+v9FuutSEjE5qEM/lowOlg5iQaQb
3GBFJ8oqsjWB9kIk6NE9ihL3ODVzXWpvZwJLZVPFY8PxRMwrehuLbAaidzkDC/V1
3B8Ji39lZKYdveRUh0jmpgw/RIKUA3G8P3bXVj3FfqsZHr4M4B91UxRHYQ9eXEqx
6DIcuFpvGDI6u2kQ1aDAnXC3kCvPEcnInayk/oSR7xTkhe0LPqVeqgIbsPR8i8RS
9DrrcW6Sq8mtEU7thDxxYEWJbPDMsZATW4lB8wyRRJhpboNOFYKUet8AQdaxsFlw
5oC++Aa6w4cIE4RQQJqda0qBFQDLfbTu0VM=
-----END CERTIFICATE-----
