Certificate:
    Data:
        Version: 3 (0x2)
        Serial Number: 287 (0x11f)
        Signature Algorithm: sha256WithRSAEncryption
        Issuer: C=fr, ST=idf, L=paris, O=vitam, OU=authorities, CN=ca_intermediate_server
        Validity
            Not Before: Jan 12 16:12:48 2022 GMT
            Not After : Jan 11 16:12:48 2025 GMT
        Subject: C=fr, ST=idf, L=paris, O=vitam, CN=offer-fs-1.service.fulllocal.consul
        Subject Public Key Info:
            Public Key Algorithm: rsaEncryption
                RSA Public-Key: (4096 bit)
                Modulus:
                    00:9c:cd:25:0d:12:f5:35:70:d8:ea:81:b4:df:55:
                    6f:41:45:3d:02:e4:c3:e7:c3:b9:01:ee:35:74:0e:
                    58:f7:ec:43:ee:7d:dc:d2:7b:dd:1d:3f:ca:ef:bf:
                    34:a9:71:df:e2:ab:3f:af:48:5f:6a:69:66:cf:c7:
                    01:a4:1a:a6:cd:ae:b0:a4:ec:4b:c0:46:da:d5:fe:
                    90:36:f8:01:c0:bf:20:c5:32:cd:57:2a:6f:0e:61:
                    38:e1:bc:57:ac:3a:2d:81:f1:9c:67:c1:ad:7c:0c:
                    1b:b2:5b:7a:a8:9d:af:a9:82:26:f7:52:63:87:36:
                    c3:2d:89:c7:6b:73:0a:3e:16:88:92:33:db:96:b6:
                    f6:23:3c:aa:a0:30:eb:9c:64:38:a7:8d:ce:be:9d:
                    00:72:16:1c:4a:86:4c:74:b2:82:bf:7e:1b:41:65:
                    66:09:fd:4a:9d:02:2d:1d:6e:46:18:22:30:28:f5:
                    1f:92:d2:ca:6b:d6:de:21:bc:75:23:34:a7:0b:14:
                    58:9b:3b:9e:07:5a:62:3f:06:3d:25:b1:76:9e:a2:
                    72:62:b5:b1:f9:fb:92:55:0e:b0:e4:f9:67:78:3b:
                    c7:64:b0:b5:08:2b:f2:67:45:11:dc:04:54:2e:93:
                    fe:76:93:c6:7e:07:f5:ba:a7:70:8f:1b:c5:67:dd:
                    b7:2a:99:25:24:40:09:d1:75:86:88:84:49:a6:73:
                    7f:54:90:d1:cc:ea:44:5b:9b:94:5e:47:b4:76:89:
                    5a:c8:89:64:35:36:d2:b8:9d:01:de:19:d0:d7:f4:
                    0d:6d:58:50:53:f4:7f:2f:0b:91:cd:ea:f0:ef:f1:
                    12:35:05:16:ce:8a:fd:16:b0:e6:f0:8a:f3:14:61:
                    47:77:52:2e:06:c9:9d:de:77:c2:7d:0d:53:b4:9f:
                    86:0a:c5:b7:1a:d7:7e:6f:b4:ec:80:c9:db:e7:6b:
                    6d:03:f0:53:0d:84:11:f7:4b:7c:75:df:10:8c:71:
                    ad:0a:bd:a3:ac:82:98:b2:90:a4:29:c7:a2:d1:33:
                    13:93:74:4d:d1:2d:5b:65:db:26:4d:9e:b3:7c:39:
                    98:82:d4:72:a9:4e:ab:7b:f4:60:6d:01:d5:f8:60:
                    bf:42:b7:bb:3c:2e:a8:0b:27:10:7b:56:8a:38:b0:
                    e6:90:4e:3d:52:31:4a:ab:3d:d4:a4:30:25:1b:1d:
                    75:a8:db:36:f9:af:61:ca:92:c7:94:92:b0:ae:b8:
                    81:d0:58:72:48:6a:d8:4b:ec:8b:09:47:a8:1d:a0:
                    ce:cb:ec:33:b8:40:b7:bf:6d:1b:93:f9:8e:69:90:
                    69:ab:d9:96:aa:12:d4:5a:aa:93:0c:2a:30:e9:3f:
                    37:09:c5
                Exponent: 65537 (0x10001)
        X509v3 extensions:
            Netscape Comment: 
                Certificat Serveur SSL
            X509v3 Subject Key Identifier: 
                62:EE:17:CB:B1:94:67:75:DD:C3:E5:9E:76:B4:ED:9C:7F:A2:82:8C
            X509v3 Authority Key Identifier: 
                keyid:1F:AF:74:D4:61:D2:39:20:7E:C2:D6:67:C2:59:66:BB:EA:26:0E:9F
                DirName:/C=fr/ST=idf/L=paris/O=vitam/OU=authorities/CN=ca_root_server
                serial:01:0C

            X509v3 Issuer Alternative Name: 
                <EMPTY>

            X509v3 Subject Alternative Name: 
                DNS:offer-fs-1.service.consul, DNS:localhost, DNS:offer-fs-1.service.fulllocal.consul
            X509v3 Basic Constraints: critical
                CA:FALSE
            X509v3 Key Usage: 
                Digital Signature, Key Encipherment
            Netscape Cert Type: 
                SSL Server
            X509v3 Extended Key Usage: 
                TLS Web Server Authentication
    Signature Algorithm: sha256WithRSAEncryption
         74:c0:72:99:fd:11:3b:e6:01:42:8e:67:bd:d3:ab:7c:7b:f3:
         db:d9:16:a2:b1:8f:47:21:07:37:49:1a:1e:da:35:4c:3c:4b:
         04:6e:49:b7:0b:d0:81:a2:92:54:1b:ca:eb:e1:c6:7e:4e:87:
         f8:24:85:7a:22:73:c7:fe:47:dc:53:83:61:b6:04:18:72:8d:
         d4:bc:70:6a:f2:4c:0f:49:3f:af:f3:e7:f9:72:39:69:e5:78:
         b5:2f:be:15:53:03:81:9b:ba:e6:76:7d:a5:20:bc:bb:d1:46:
         ba:2e:40:f2:b8:ab:07:8c:88:2c:20:d1:a1:0c:5d:5d:14:e3:
         cd:f0:df:59:76:79:31:ba:7f:c0:16:8d:25:55:5c:09:2e:17:
         39:41:80:68:e0:1b:ff:de:55:e8:c5:e9:48:88:a0:1d:ae:1e:
         66:66:72:64:d2:82:57:b7:8b:26:fd:92:a2:6e:c7:68:8f:ca:
         2c:eb:74:61:09:32:f4:47:3b:c7:9c:f5:d4:de:59:e8:66:6f:
         d9:ae:10:b6:3c:bb:ac:f0:83:cb:3c:71:ae:90:2e:c2:a6:95:
         07:93:50:f9:e5:60:e4:e2:1f:ad:25:47:61:d9:13:ae:9c:52:
         3b:ac:8c:69:2f:7e:96:85:98:37:ff:23:1b:3c:4b:be:d6:e2:
         10:9a:66:cc:e8:c2:a2:38:39:77:56:cf:13:3b:36:75:a6:5c:
         e7:a5:9d:22:57:5c:08:32:f4:6b:3b:04:ec:4b:ac:9c:05:49:
         8c:d1:78:22:45:74:79:77:67:22:28:0b:e9:1b:20:33:a1:7c:
         5c:69:0b:b2:03:90:44:33:35:0c:5e:50:e2:b5:57:09:32:59:
         65:cb:38:b5:04:95:41:41:ab:9c:65:8a:98:82:58:8f:0c:05:
         6f:7b:34:19:35:9b:f7:ac:d0:4d:ae:b4:ba:60:07:ff:d7:60:
         04:4c:f3:5e:f1:da:df:34:b7:5e:d7:13:7f:0c:8d:0b:8d:f9:
         9b:8a:fb:96:79:4d:55:89:29:cb:af:5f:59:a5:c7:e5:4c:43:
         79:56:ce:ee:4f:73:39:20:86:85:df:66:e9:69:19:16:f4:32:
         2f:5f:1d:c0:45:41:4c:31:b9:bc:f3:1d:92:68:4c:bb:78:34:
         07:d5:b6:bf:57:d0:41:90:ea:31:60:a2:7b:79:89:d7:8e:61:
         de:5c:00:4b:20:b6:a9:8c:97:f5:4e:5f:fe:f2:9f:5c:1e:3a:
         2c:a5:d6:4c:5d:9e:d0:2b:b6:04:82:d3:62:f3:85:70:1f:f0:
         a9:b8:9c:7d:6f:2e:6a:51:2e:fa:54:17:6b:2e:aa:d1:a2:70:
         f1:5b:ea:be:12:78:f9:96
-----BEGIN CERTIFICATE-----
MIIG3zCCBMegAwIBAgICAR8wDQYJKoZIhvcNAQELBQAwcjELMAkGA1UEBhMCZnIx
DDAKBgNVBAgMA2lkZjEOMAwGA1UEBwwFcGFyaXMxDjAMBgNVBAoMBXZpdGFtMRQw
EgYDVQQLDAthdXRob3JpdGllczEfMB0GA1UEAwwWY2FfaW50ZXJtZWRpYXRlX3Nl
cnZlcjAeFw0yMjAxMTIxNjEyNDhaFw0yNTAxMTExNjEyNDhaMGkxCzAJBgNVBAYT
AmZyMQwwCgYDVQQIDANpZGYxDjAMBgNVBAcMBXBhcmlzMQ4wDAYDVQQKDAV2aXRh
bTEsMCoGA1UEAwwjb2ZmZXItZnMtMS5zZXJ2aWNlLmZ1bGxsb2NhbC5jb25zdWww
ggIiMA0GCSqGSIb3DQEBAQUAA4ICDwAwggIKAoICAQCczSUNEvU1cNjqgbTfVW9B
RT0C5MPnw7kB7jV0Dlj37EPufdzSe90dP8rvvzSpcd/iqz+vSF9qaWbPxwGkGqbN
rrCk7EvARtrV/pA2+AHAvyDFMs1XKm8OYTjhvFesOi2B8Zxnwa18DBuyW3qona+p
gib3UmOHNsMticdrcwo+FoiSM9uWtvYjPKqgMOucZDinjc6+nQByFhxKhkx0soK/
fhtBZWYJ/UqdAi0dbkYYIjAo9R+S0spr1t4hvHUjNKcLFFibO54HWmI/Bj0lsXae
onJitbH5+5JVDrDk+Wd4O8dksLUIK/JnRRHcBFQuk/52k8Z+B/W6p3CPG8Vn3bcq
mSUkQAnRdYaIhEmmc39UkNHM6kRbm5ReR7R2iVrIiWQ1NtK4nQHeGdDX9A1tWFBT
9H8vC5HN6vDv8RI1BRbOiv0WsObwivMUYUd3Ui4GyZ3ed8J9DVO0n4YKxbca135v
tOyAydvna20D8FMNhBH3S3x13xCMca0KvaOsgpiykKQpx6LRMxOTdE3RLVtl2yZN
nrN8OZiC1HKpTqt79GBtAdX4YL9Ct7s8LqgLJxB7Voo4sOaQTj1SMUqrPdSkMCUb
HXWo2zb5r2HKkseUkrCuuIHQWHJIathL7IsJR6gdoM7L7DO4QLe/bRuT+Y5pkGmr
2ZaqEtRaqpMMKjDpPzcJxQIDAQABo4IBhjCCAYIwJQYJYIZIAYb4QgENBBgWFkNl
cnRpZmljYXQgU2VydmV1ciBTU0wwHQYDVR0OBBYEFGLuF8uxlGd13cPlnna07Zx/
ooKMMIGVBgNVHSMEgY0wgYqAFB+vdNRh0jkgfsLWZ8JZZrvqJg6foW6kbDBqMQsw
CQYDVQQGEwJmcjEMMAoGA1UECAwDaWRmMQ4wDAYDVQQHDAVwYXJpczEOMAwGA1UE
CgwFdml0YW0xFDASBgNVBAsMC2F1dGhvcml0aWVzMRcwFQYDVQQDDA5jYV9yb290
X3NlcnZlcoICAQwwCQYDVR0SBAIwADBUBgNVHREETTBLghlvZmZlci1mcy0xLnNl
cnZpY2UuY29uc3Vsgglsb2NhbGhvc3SCI29mZmVyLWZzLTEuc2VydmljZS5mdWxs
bG9jYWwuY29uc3VsMAwGA1UdEwEB/wQCMAAwCwYDVR0PBAQDAgWgMBEGCWCGSAGG
+EIBAQQEAwIGQDATBgNVHSUEDDAKBggrBgEFBQcDATANBgkqhkiG9w0BAQsFAAOC
AgEAdMBymf0RO+YBQo5nvdOrfHvz29kWorGPRyEHN0kaHto1TDxLBG5JtwvQgaKS
VBvK6+HGfk6H+CSFeiJzx/5H3FODYbYEGHKN1LxwavJMD0k/r/Pn+XI5aeV4tS++
FVMDgZu65nZ9pSC8u9FGui5A8rirB4yILCDRoQxdXRTjzfDfWXZ5Mbp/wBaNJVVc
CS4XOUGAaOAb/95V6MXpSIigHa4eZmZyZNKCV7eLJv2Som7HaI/KLOt0YQky9Ec7
x5z11N5Z6GZv2a4Qtjy7rPCDyzxxrpAuwqaVB5NQ+eVg5OIfrSVHYdkTrpxSO6yM
aS9+loWYN/8jGzxLvtbiEJpmzOjCojg5d1bPEzs2daZc56WdIldcCDL0azsE7Eus
nAVJjNF4IkV0eXdnIigL6RsgM6F8XGkLsgOQRDM1DF5Q4rVXCTJZZcs4tQSVQUGr
nGWKmIJYjwwFb3s0GTWb96zQTa60umAH/9dgBEzzXvHa3zS3XtcTfwyNC435m4r7
lnlNVYkpy69fWaXH5UxDeVbO7k9zOSCGhd9m6WkZFvQyL18dwEVBTDG5vPMdkmhM
u3g0B9W2v1fQQZDqMWCie3mJ145h3lwASyC2qYyX9U5f/vKfXB46LKXWTF2e0Cu2
BILTYvOFcB/wqbicfW8ualEu+lQXay6q0aJw8VvqvhJ4+ZY=
-----END CERTIFICATE-----
