Certificate:
    Data:
        Version: 3 (0x2)
        Serial Number: 257 (0x101)
    Signature Algorithm: sha256WithRSAEncryption
        Issuer: C=fr, ST=idf, L=paris, O=vitam, OU=authorities, CN=ca_intermediate_server
        Validity
            Not Before: Feb 22 16:36:56 2018 GMT
            Not After : Feb 21 16:36:56 2021 GMT
        Subject: C=fr, ST=idf, L=paris, O=vitam, CN=offer.service.consul
        Subject Public Key Info:
            Public Key Algorithm: rsaEncryption
                Public-Key: (4096 bit)
                Modulus:
                    00:bc:45:59:b6:48:7c:b2:88:82:53:42:9b:e1:d0:
                    ff:ff:6f:f3:8c:b5:ea:d2:a2:92:80:9b:d3:6b:21:
                    95:23:d3:0e:0b:76:a9:82:ba:33:0d:f8:b8:d6:c3:
                    9b:01:f6:df:28:85:13:f5:c7:ae:3a:f3:29:3e:83:
                    1c:e8:d1:51:eb:6f:d1:60:96:ab:db:6f:4d:97:02:
                    1f:27:79:b9:10:cf:1a:3f:91:cc:40:5d:4c:13:a5:
                    8d:41:6c:e2:80:f2:ab:aa:3d:20:a1:4c:30:f0:67:
                    fe:3b:a3:1a:da:6e:74:f1:f3:a7:36:35:75:26:19:
                    c5:eb:da:0d:1a:22:73:5b:6e:55:a0:8a:9b:da:70:
                    e2:48:55:1c:bf:1c:03:11:c7:9b:68:b7:0c:03:44:
                    06:d1:13:02:0b:c3:1e:40:a1:55:3a:4c:02:6c:11:
                    5a:1f:de:74:13:14:50:37:b8:52:42:c2:10:ba:fc:
                    3f:e5:b7:98:e4:07:1c:78:5d:a6:52:1a:10:6c:8b:
                    07:d5:cc:27:16:e6:cd:ef:ea:fc:c7:b5:89:ef:7c:
                    32:99:5b:ef:00:b5:e5:b3:27:e7:39:a4:27:58:aa:
                    4a:90:da:d1:13:5e:3e:60:fc:fb:9f:53:1f:4b:a4:
                    c4:c1:a7:af:21:22:43:1d:5b:a2:6a:13:bd:5a:6c:
                    9a:52:d3:cd:00:39:89:9b:57:bd:97:78:07:a0:22:
                    91:cc:b4:fc:52:aa:89:14:e7:5d:29:85:93:ca:70:
                    b3:e6:2c:76:46:24:6e:c6:33:ec:68:c3:af:63:fa:
                    6f:97:1c:4c:6f:b8:9a:3d:8b:e6:b1:5b:fa:d8:d6:
                    d5:e6:1d:2e:13:3b:90:dd:8c:bd:6e:24:2d:df:4e:
                    a0:84:41:77:ef:be:6e:08:26:3b:3d:68:fe:e6:2f:
                    b5:80:c3:e3:ed:06:b6:7e:45:2f:aa:dd:1c:79:ce:
                    d1:35:6b:52:b9:7a:d2:34:10:29:2b:49:63:56:4c:
                    38:f1:8b:0d:78:2e:b1:7e:78:fa:19:2b:df:cd:22:
                    87:75:db:dc:66:b3:cd:78:ff:3a:f2:83:e5:dd:34:
                    45:9c:0f:37:e0:73:d5:c8:af:53:d4:d7:68:85:b0:
                    cd:de:b7:18:51:74:86:36:2b:dd:1a:32:08:1a:4e:
                    9a:c6:0e:17:50:be:79:51:e6:3e:c0:fd:d7:11:35:
                    35:10:42:d8:24:37:d3:8b:8d:da:5d:37:95:04:0a:
                    90:2a:8d:08:94:0a:71:e6:0c:ee:3d:5c:c3:4e:02:
                    bd:57:6e:11:84:f9:6b:4d:61:c9:2d:f6:8c:6b:f4:
                    f7:b4:b2:c8:ea:72:a2:09:32:d0:ad:20:90:d4:f0:
                    3a:d1:71
                Exponent: 65537 (0x10001)
        X509v3 extensions:
            Netscape Comment: 
                Certificat Serveur SSL
            X509v3 Subject Key Identifier: 
                28:A7:31:C5:68:E9:A4:4F:00:30:97:AF:42:CB:EC:44:E3:21:71:BC
            X509v3 Authority Key Identifier: 
                keyid:6D:B1:F2:D5:CE:0E:93:60:CE:FD:D3:91:D2:23:ED:95:21:BB:D5:0C
                DirName:/C=fr/ST=idf/L=paris/O=vitam/OU=authorities/CN=ca_root_server
                serial:DB

            X509v3 Issuer Alternative Name: 
                <EMPTY>

            X509v3 Subject Alternative Name: 
                DNS:offer.service.consul, DNS:localhost
            X509v3 Basic Constraints: critical
                CA:FALSE
            X509v3 Key Usage: 
                Digital Signature, Non Repudiation, Key Encipherment
            Netscape Cert Type: 
                SSL Server
            X509v3 Extended Key Usage: 
                TLS Web Server Authentication
    Signature Algorithm: sha256WithRSAEncryption
         11:43:ca:a5:a8:cd:e0:d7:5e:d8:e9:a0:b8:cd:79:dd:11:42:
         1b:5f:b8:9b:75:ab:8a:fd:d5:ca:02:93:ba:8a:b5:71:30:41:
         c0:f9:fd:3a:6b:d2:b7:26:13:ae:f0:76:05:e9:71:6b:75:3f:
         8d:81:36:72:29:26:5b:e6:30:fd:c9:cd:50:7a:17:41:69:61:
         b3:0f:06:53:bd:87:12:09:01:62:e1:1f:47:29:18:3c:12:f6:
         8a:92:7b:02:03:c0:26:84:66:6f:df:55:28:f2:a2:66:b7:c7:
         c7:6e:1e:7f:a6:8f:9e:5f:8a:8a:b9:34:6a:57:cf:93:50:e5:
         a5:78:4e:1c:cc:ee:9b:86:be:ce:ef:30:58:a6:cb:e3:d8:3c:
         aa:72:db:6e:a7:2c:26:4b:a5:1b:75:1b:ec:ff:1e:f6:ba:c0:
         1a:66:66:4e:89:4e:7b:88:f9:97:aa:09:a6:29:f4:db:73:ab:
         b0:96:68:d8:f5:d5:67:a5:77:d3:7c:66:57:cb:3b:e4:b1:f0:
         3c:8a:ed:a1:da:e4:c6:3c:54:0e:5a:d2:c4:9e:fe:75:dc:28:
         8c:5f:18:a0:36:97:0f:93:0f:d1:db:dc:6b:98:3b:7f:b8:e9:
         41:c8:12:58:6f:a8:aa:cc:ce:81:3d:26:34:09:1d:19:90:cd:
         f5:cb:d9:dc:dc:77:c4:58:a7:e9:58:b2:21:db:ab:24:cc:c2:
         a8:be:9e:86:d3:16:d7:36:73:c7:88:09:2a:f4:6f:55:45:b9:
         6f:ec:1a:af:76:cf:42:fa:bf:c3:88:b8:48:94:7c:d5:8a:b2:
         67:6d:20:c7:23:44:6b:89:2e:d3:8a:cf:16:e0:23:fd:a9:62:
         4c:c3:bf:25:e4:e3:4e:55:2a:57:65:11:b3:aa:35:e8:c2:3b:
         a0:99:b3:df:49:5f:1e:f6:7d:46:1c:56:22:07:fc:99:e0:43:
         26:9e:cc:17:01:72:1e:57:95:40:51:2f:34:a0:ca:d1:31:1d:
         8f:d3:20:9d:46:75:7d:a3:80:06:c9:c7:f2:2a:f3:f6:cb:c6:
         0b:5e:1b:79:09:8f:f5:c5:22:11:67:3f:13:ee:72:4c:14:41:
         fe:09:b5:3d:d0:bb:92:8f:86:46:76:7e:5c:0d:fd:af:23:ad:
         79:0e:ae:6e:b5:76:e9:00:f0:de:66:af:4e:06:a4:e3:91:82:
         c7:df:8b:eb:80:c0:8f:d3:24:b8:f2:a4:a0:c6:87:15:de:05:
         69:e4:a8:69:d0:51:9a:ac:56:8a:75:ec:bb:7b:7d:6c:22:9b:
         b3:26:ee:08:ae:5d:77:c8:be:98:cc:fd:01:b3:9c:62:ff:85:
         18:3a:13:af:35:9c:bd:d5
-----BEGIN CERTIFICATE-----
MIIGpjCCBI6gAwIBAgICAQEwDQYJKoZIhvcNAQELBQAwcjELMAkGA1UEBhMCZnIx
DDAKBgNVBAgMA2lkZjEOMAwGA1UEBwwFcGFyaXMxDjAMBgNVBAoMBXZpdGFtMRQw
EgYDVQQLDAthdXRob3JpdGllczEfMB0GA1UEAwwWY2FfaW50ZXJtZWRpYXRlX3Nl
cnZlcjAeFw0xODAyMjIxNjM2NTZaFw0yMTAyMjExNjM2NTZaMFoxCzAJBgNVBAYT
AmZyMQwwCgYDVQQIDANpZGYxDjAMBgNVBAcMBXBhcmlzMQ4wDAYDVQQKDAV2aXRh
bTEdMBsGA1UEAwwUb2ZmZXIuc2VydmljZS5jb25zdWwwggIiMA0GCSqGSIb3DQEB
AQUAA4ICDwAwggIKAoICAQC8RVm2SHyyiIJTQpvh0P//b/OMterSopKAm9NrIZUj
0w4LdqmCujMN+LjWw5sB9t8ohRP1x6468yk+gxzo0VHrb9Fglqvbb02XAh8nebkQ
zxo/kcxAXUwTpY1BbOKA8quqPSChTDDwZ/47oxrabnTx86c2NXUmGcXr2g0aInNb
blWgipvacOJIVRy/HAMRx5totwwDRAbREwILwx5AoVU6TAJsEVof3nQTFFA3uFJC
whC6/D/lt5jkBxx4XaZSGhBsiwfVzCcW5s3v6vzHtYnvfDKZW+8AteWzJ+c5pCdY
qkqQ2tETXj5g/PufUx9LpMTBp68hIkMdW6JqE71abJpS080AOYmbV72XeAegIpHM
tPxSqokU510phZPKcLPmLHZGJG7GM+xow69j+m+XHExvuJo9i+axW/rY1tXmHS4T
O5DdjL1uJC3fTqCEQXfvvm4IJjs9aP7mL7WAw+PtBrZ+RS+q3Rx5ztE1a1K5etI0
ECkrSWNWTDjxiw14LrF+ePoZK9/NIod129xms814/zryg+XdNEWcDzfgc9XIr1PU
12iFsM3etxhRdIY2K90aMggaTprGDhdQvnlR5j7A/dcRNTUQQtgkN9OLjdpdN5UE
CpAqjQiUCnHmDO49XMNOAr1XbhGE+WtNYckt9oxr9Pe0ssjqcqIJMtCtIJDU8DrR
cQIDAQABo4IBXDCCAVgwJQYJYIZIAYb4QgENBBgWFkNlcnRpZmljYXQgU2VydmV1
ciBTU0wwHQYDVR0OBBYEFCinMcVo6aRPADCXr0LL7ETjIXG8MIGVBgNVHSMEgY0w
gYqAFG2x8tXODpNgzv3TkdIj7ZUhu9UMoW6kbDBqMQswCQYDVQQGEwJmcjEMMAoG
A1UECAwDaWRmMQ4wDAYDVQQHDAVwYXJpczEOMAwGA1UECgwFdml0YW0xFDASBgNV
BAsMC2F1dGhvcml0aWVzMRcwFQYDVQQDDA5jYV9yb290X3NlcnZlcoICANswCQYD
VR0SBAIwADAqBgNVHREEIzAhghRvZmZlci5zZXJ2aWNlLmNvbnN1bIIJbG9jYWxo
b3N0MAwGA1UdEwEB/wQCMAAwCwYDVR0PBAQDAgXgMBEGCWCGSAGG+EIBAQQEAwIG
QDATBgNVHSUEDDAKBggrBgEFBQcDATANBgkqhkiG9w0BAQsFAAOCAgEAEUPKpajN
4Nde2OmguM153RFCG1+4m3Wriv3VygKTuoq1cTBBwPn9OmvStyYTrvB2Belxa3U/
jYE2cikmW+Yw/cnNUHoXQWlhsw8GU72HEgkBYuEfRykYPBL2ipJ7AgPAJoRmb99V
KPKiZrfHx24ef6aPnl+Kirk0alfPk1DlpXhOHMzum4a+zu8wWKbL49g8qnLbbqcs
JkulG3Ub7P8e9rrAGmZmTolOe4j5l6oJpin023OrsJZo2PXVZ6V303xmV8s75LHw
PIrtodrkxjxUDlrSxJ7+ddwojF8YoDaXD5MP0dvca5g7f7jpQcgSWG+oqszOgT0m
NAkdGZDN9cvZ3Nx3xFin6ViyIdurJMzCqL6ehtMW1zZzx4gJKvRvVUW5b+war3bP
Qvq/w4i4SJR81YqyZ20gxyNEa4ku04rPFuAj/aliTMO/JeTjTlUqV2URs6o16MI7
oJmz30lfHvZ9RhxWIgf8meBDJp7MFwFyHleVQFEvNKDK0TEdj9MgnUZ1faOABsnH
8irz9svGC14beQmP9cUiEWc/E+5yTBRB/gm1PdC7ko+GRnZ+XA39ryOteQ6ubrV2
6QDw3mavTgak45GCx9+L64DAj9MkuPKkoMaHFd4FaeSoadBRmqxWinXsu3t9bCKb
sybuCK5dd8i+mMz9AbOcYv+FGDoTrzWcvdU=
-----END CERTIFICATE-----
