Certificate:
    Data:
        Version: 3 (0x2)
        Serial Number: 227 (0xe3)
    Signature Algorithm: sha256WithRSAEncryption
        Issuer: C=fr, ST=idf, L=paris, O=vitam, OU=authorities, CN=ca_intermediate_server
        Validity
            Not Before: Feb  5 12:57:18 2018 GMT
            Not After : Feb  4 12:57:18 2021 GMT
        Subject: C=fr, ST=idf, L=paris, O=vitam, CN=offer.service.consul
        Subject Public Key Info:
            Public Key Algorithm: rsaEncryption
                Public-Key: (4096 bit)
                Modulus:
                    00:9f:a5:4e:35:79:0b:5f:12:fa:3e:bd:c1:91:78:
                    fc:b5:ac:b3:93:a7:7c:49:9c:bc:8c:86:e1:fc:76:
                    7e:24:1d:7a:46:e3:29:ae:05:d2:5c:10:37:e5:bd:
                    e8:55:d7:0c:de:00:e5:84:35:f8:76:70:31:80:6f:
                    8e:fb:ea:3a:bb:9b:03:8b:04:9d:ea:bb:87:f4:f4:
                    a2:ce:4b:28:94:61:b9:c8:c3:2b:5c:0f:be:63:2d:
                    78:81:1a:f2:3e:18:63:d0:8f:1f:44:99:53:f2:3c:
                    3f:41:4c:77:c6:bc:62:39:86:09:aa:cf:77:f4:31:
                    75:92:27:5c:68:0a:1e:26:3e:bc:32:f0:ed:f2:ee:
                    ca:54:19:ff:ed:ce:c8:7a:48:89:1d:23:a1:63:87:
                    09:58:0b:c5:c1:93:ea:eb:32:ff:ff:93:e7:e9:9b:
                    84:89:c5:9b:c8:89:35:5b:4b:14:0b:29:e7:bb:f7:
                    b3:d0:2f:1e:61:9a:36:f6:f5:b1:e3:87:ca:d0:65:
                    a3:c4:86:e0:a2:65:cd:56:5e:fd:1b:b2:1a:84:c1:
                    33:e9:6c:42:63:18:89:b9:bc:83:7c:bc:1e:9f:ae:
                    bf:85:24:88:1a:c5:db:2f:63:49:e8:58:49:f5:a1:
                    12:b2:c3:fc:c2:c3:ee:1b:14:d9:5d:19:6f:57:62:
                    18:51:99:62:28:f2:81:38:8a:29:08:75:53:b0:57:
                    5a:04:19:ba:b6:13:b1:78:ab:19:4e:17:a5:11:85:
                    1c:58:33:00:43:d5:a3:f9:31:22:53:86:30:10:8f:
                    b3:5d:8c:d0:10:88:2b:28:66:31:91:00:b8:23:0e:
                    e8:03:6b:f9:93:11:7c:83:c1:da:11:d9:d6:d9:ee:
                    0c:15:ca:a2:74:3f:d0:fd:a4:35:4e:f6:90:2b:c4:
                    ac:86:f6:59:6e:4d:ce:5a:c8:0c:cd:1c:f0:71:a7:
                    35:21:d1:09:28:b0:d3:04:b6:7c:c5:56:6d:5b:fe:
                    74:7f:b3:ae:ee:04:fd:34:7e:92:34:d9:1a:ef:9d:
                    0b:24:5f:e2:17:50:18:12:69:9f:e0:c7:e1:c1:f3:
                    8e:b6:b5:4f:d7:9c:66:4d:5b:14:a4:9c:6a:f7:f5:
                    8e:75:0b:39:f5:fa:37:39:c9:c8:c9:b6:bd:b5:77:
                    f3:9f:13:ce:b6:bd:dc:45:7b:82:b4:8f:ea:9f:1e:
                    4b:06:74:df:44:2a:5e:52:5c:4d:4d:9e:c6:a3:a6:
                    22:b2:00:6b:a1:a4:b0:f2:fd:d7:fa:1a:df:8d:30:
                    51:ab:5d:cd:86:a0:9c:17:06:ea:6e:58:28:ca:0e:
                    75:68:c9:1b:11:c7:08:cc:48:c2:17:6b:c8:02:28:
                    b2:fb:4d
                Exponent: 65537 (0x10001)
        X509v3 extensions:
            Netscape Comment: 
                Certificat Serveur SSL
            X509v3 Subject Key Identifier: 
                05:2E:C8:D5:91:A2:46:DF:0E:82:42:D1:15:14:65:AE:09:F2:04:32
            X509v3 Authority Key Identifier: 
                keyid:5A:C7:76:2D:0B:CA:D2:5D:01:B1:16:A7:F9:F2:91:A2:20:E5:56:42
                DirName:/C=fr/ST=idf/L=paris/O=vitam/OU=authorities/CN=ca_root_server
                serial:DB

            X509v3 Issuer Alternative Name: 
                <EMPTY>

            X509v3 Subject Alternative Name: 
                DNS:offer.service.consul, DNS:localhost
            X509v3 Basic Constraints: critical
                CA:FALSE
            X509v3 Key Usage: 
                Digital Signature, Non Repudiation, Key Encipherment
            Netscape Cert Type: 
                SSL Server
            X509v3 Extended Key Usage: 
                TLS Web Server Authentication
    Signature Algorithm: sha256WithRSAEncryption
         76:d6:f0:0b:50:3d:7d:4f:42:ee:1a:70:67:d5:5a:f1:7b:1c:
         28:60:e0:4f:9c:0d:1c:40:a4:0b:3a:c1:f7:ff:0a:8d:9f:14:
         6e:24:ef:9f:a1:b5:3c:09:ef:bc:73:fe:0b:b2:04:c9:0f:60:
         76:c5:a2:24:c7:ab:74:a0:68:ab:e7:ca:22:a2:07:bd:ea:38:
         61:20:91:0a:db:5f:b0:e6:51:d8:1f:c4:cb:21:a6:1d:90:42:
         7d:83:bc:8f:cc:e4:84:b5:37:ef:ca:00:c4:42:7b:91:2a:11:
         1c:4d:25:88:d5:94:41:8e:50:52:fa:7c:27:dc:8a:9f:03:a9:
         46:ce:9f:ac:c1:55:16:f1:b2:50:c4:dd:be:b4:df:32:28:a1:
         24:7a:b5:6d:2d:81:ea:a5:d8:10:16:e9:aa:87:0d:c0:bd:a3:
         8f:21:07:77:8e:63:00:1c:77:89:da:74:12:20:df:e0:46:2b:
         09:ac:57:a3:40:89:52:63:01:4b:98:84:9b:41:e8:ae:72:28:
         17:f8:3e:34:f1:4a:c5:1f:2b:43:22:38:9d:d8:34:d5:8b:99:
         76:2e:01:2f:52:9d:2c:ee:4b:3f:61:c9:c7:ce:ed:e9:1e:68:
         c7:0e:6c:20:3e:63:81:a3:40:76:59:7e:66:fc:27:0e:35:30:
         4d:46:86:90:ee:37:7a:10:2a:5b:5b:08:d9:59:c3:39:92:02:
         c8:c2:81:c1:16:9d:45:7e:68:16:40:92:b3:3b:48:cb:70:81:
         a8:df:f6:65:33:db:14:bb:f0:f3:3f:08:ab:e5:af:0e:b2:7b:
         fd:85:72:cc:7f:95:cd:86:48:e2:03:ad:6c:91:01:8f:98:03:
         2e:d6:01:62:0c:b2:e8:29:ff:df:8e:c1:73:a9:d6:25:39:f3:
         c3:f5:70:ed:47:e2:57:b1:1b:cc:c5:eb:4e:74:23:8e:39:49:
         26:34:3a:77:2c:52:60:27:a0:28:0c:99:f6:50:95:33:f7:d0:
         ff:2b:ab:66:d0:e7:f4:dc:79:81:d3:b3:c0:a0:91:d7:c2:34:
         a1:e0:c7:1e:1e:90:ac:f9:83:15:83:32:86:89:fe:56:9a:1e:
         e4:e7:cf:a8:60:a4:5c:b6:de:e8:2b:21:21:d1:a0:c9:31:c7:
         f9:c7:eb:86:21:10:6c:f7:0c:94:13:cb:35:4a:3e:26:36:ab:
         24:1d:5d:5b:a0:b7:cc:9f:e9:c6:f7:98:59:79:fc:1f:a8:4d:
         e5:a0:d0:60:8b:9a:86:7e:cd:fa:d1:09:8a:da:7c:e4:a7:fc:
         3b:91:6a:8d:a6:ab:e5:a3:f4:51:ae:3d:ba:62:5a:b5:a3:b6:
         b2:60:d9:91:d8:96:40:8a
-----BEGIN CERTIFICATE-----
MIIGpjCCBI6gAwIBAgICAOMwDQYJKoZIhvcNAQELBQAwcjELMAkGA1UEBhMCZnIx
DDAKBgNVBAgMA2lkZjEOMAwGA1UEBwwFcGFyaXMxDjAMBgNVBAoMBXZpdGFtMRQw
EgYDVQQLDAthdXRob3JpdGllczEfMB0GA1UEAwwWY2FfaW50ZXJtZWRpYXRlX3Nl
cnZlcjAeFw0xODAyMDUxMjU3MThaFw0yMTAyMDQxMjU3MThaMFoxCzAJBgNVBAYT
AmZyMQwwCgYDVQQIDANpZGYxDjAMBgNVBAcMBXBhcmlzMQ4wDAYDVQQKDAV2aXRh
bTEdMBsGA1UEAwwUb2ZmZXIuc2VydmljZS5jb25zdWwwggIiMA0GCSqGSIb3DQEB
AQUAA4ICDwAwggIKAoICAQCfpU41eQtfEvo+vcGRePy1rLOTp3xJnLyMhuH8dn4k
HXpG4ymuBdJcEDflvehV1wzeAOWENfh2cDGAb4776jq7mwOLBJ3qu4f09KLOSyiU
YbnIwytcD75jLXiBGvI+GGPQjx9EmVPyPD9BTHfGvGI5hgmqz3f0MXWSJ1xoCh4m
Prwy8O3y7spUGf/tzsh6SIkdI6FjhwlYC8XBk+rrMv//k+fpm4SJxZvIiTVbSxQL
Kee797PQLx5hmjb29bHjh8rQZaPEhuCiZc1WXv0bshqEwTPpbEJjGIm5vIN8vB6f
rr+FJIgaxdsvY0noWEn1oRKyw/zCw+4bFNldGW9XYhhRmWIo8oE4iikIdVOwV1oE
Gbq2E7F4qxlOF6URhRxYMwBD1aP5MSJThjAQj7NdjNAQiCsoZjGRALgjDugDa/mT
EXyDwdoR2dbZ7gwVyqJ0P9D9pDVO9pArxKyG9lluTc5ayAzNHPBxpzUh0QkosNME
tnzFVm1b/nR/s67uBP00fpI02RrvnQskX+IXUBgSaZ/gx+HB8462tU/XnGZNWxSk
nGr39Y51Czn1+jc5ycjJtr21d/OfE862vdxFe4K0j+qfHksGdN9EKl5SXE1Nnsaj
piKyAGuhpLDy/df6Gt+NMFGrXc2GoJwXBupuWCjKDnVoyRsRxwjMSMIXa8gCKLL7
TQIDAQABo4IBXDCCAVgwJQYJYIZIAYb4QgENBBgWFkNlcnRpZmljYXQgU2VydmV1
ciBTU0wwHQYDVR0OBBYEFAUuyNWRokbfDoJC0RUUZa4J8gQyMIGVBgNVHSMEgY0w
gYqAFFrHdi0LytJdAbEWp/nykaIg5VZCoW6kbDBqMQswCQYDVQQGEwJmcjEMMAoG
A1UECAwDaWRmMQ4wDAYDVQQHDAVwYXJpczEOMAwGA1UECgwFdml0YW0xFDASBgNV
BAsMC2F1dGhvcml0aWVzMRcwFQYDVQQDDA5jYV9yb290X3NlcnZlcoICANswCQYD
VR0SBAIwADAqBgNVHREEIzAhghRvZmZlci5zZXJ2aWNlLmNvbnN1bIIJbG9jYWxo
b3N0MAwGA1UdEwEB/wQCMAAwCwYDVR0PBAQDAgXgMBEGCWCGSAGG+EIBAQQEAwIG
QDATBgNVHSUEDDAKBggrBgEFBQcDATANBgkqhkiG9w0BAQsFAAOCAgEAdtbwC1A9
fU9C7hpwZ9Va8XscKGDgT5wNHECkCzrB9/8KjZ8UbiTvn6G1PAnvvHP+C7IEyQ9g
dsWiJMerdKBoq+fKIqIHveo4YSCRCttfsOZR2B/EyyGmHZBCfYO8j8zkhLU378oA
xEJ7kSoRHE0liNWUQY5QUvp8J9yKnwOpRs6frMFVFvGyUMTdvrTfMiihJHq1bS2B
6qXYEBbpqocNwL2jjyEHd45jABx3idp0EiDf4EYrCaxXo0CJUmMBS5iEm0HornIo
F/g+NPFKxR8rQyI4ndg01YuZdi4BL1KdLO5LP2HJx87t6R5oxw5sID5jgaNAdll+
ZvwnDjUwTUaGkO43ehAqW1sI2VnDOZICyMKBwRadRX5oFkCSsztIy3CBqN/2ZTPb
FLvw8z8Iq+WvDrJ7/YVyzH+VzYZI4gOtbJEBj5gDLtYBYgyy6Cn/347Bc6nWJTnz
w/Vw7UfiV7EbzMXrTnQjjjlJJjQ6dyxSYCegKAyZ9lCVM/fQ/yurZtDn9Nx5gdOz
wKCR18I0oeDHHh6QrPmDFYMyhon+Vpoe5OfPqGCkXLbe6CshIdGgyTHH+cfrhiEQ
bPcMlBPLNUo+JjarJB1dW6C3zJ/pxveYWXn8H6hN5aDQYIuahn7N+tEJitp85Kf8
O5Fqjaar5aP0Ua49umJataO2smDZkdiWQIo=
-----END CERTIFICATE-----
