Certificate:
    Data:
        Version: 3 (0x2)
        Serial Number: 271 (0x10f)
        Signature Algorithm: sha256WithRSAEncryption
        Issuer: C=fr, ST=idf, L=paris, O=vitam, OU=authorities, CN=ca_intermediate_server
        Validity
            Not Before: Sep 15 13:01:02 2020 GMT
            Not After : Dec 31 23:59:59 9999 GMT
        Subject: C=fr, ST=idf, L=paris, O=vitam, CN=offer.service.local.consul
        Subject Public Key Info:
            Public Key Algorithm: rsaEncryption
                RSA Public-Key: (4096 bit)
                Modulus:
                    00:b8:0f:4a:1b:32:d7:ec:5a:c1:86:52:67:ce:58:
                    d5:c8:04:9c:a2:db:48:4b:a3:2e:f8:4b:ab:5c:0e:
                    c2:e8:44:ad:78:6b:32:c6:6b:c6:fd:10:72:a6:2a:
                    3f:fb:f6:76:72:64:0e:1f:b2:1e:92:75:05:da:8c:
                    04:32:cb:00:0e:1f:b9:4b:99:dc:69:0d:42:ac:d4:
                    e3:81:2c:92:54:1b:8d:bb:13:11:6c:a0:15:fa:ce:
                    dd:5e:a5:60:80:45:b0:90:33:8d:04:71:80:ad:82:
                    49:1b:57:04:9b:1c:58:43:5c:7d:63:f1:a8:e6:69:
                    5c:80:e5:6d:5f:c5:0d:d6:0d:5d:d2:33:83:f4:2c:
                    d4:8c:6d:c8:9e:ee:a5:60:c1:ab:0c:de:c5:0b:52:
                    b1:e7:12:19:c3:18:46:f0:f6:0f:71:97:05:9b:20:
                    8e:06:d4:c2:09:bc:8a:db:73:5a:8f:86:6c:2e:9b:
                    32:5f:b9:12:ac:b4:bf:cd:03:cd:0b:0f:e0:27:2b:
                    82:2f:0a:b9:ea:ba:36:d9:87:3a:26:15:cc:bb:19:
                    bd:2c:94:b4:9b:d7:19:2a:50:50:60:62:28:57:3d:
                    b9:1a:da:72:8c:c9:c4:0f:ea:d3:82:6c:d8:02:fc:
                    9f:43:94:eb:82:42:c7:84:1a:df:43:7c:8f:ee:85:
                    cb:75:3b:c2:bb:fe:85:56:fa:5e:ad:c7:55:0b:90:
                    d5:93:ca:ed:ec:b6:95:9c:45:fc:ef:f2:80:e7:4e:
                    39:09:f6:04:05:88:af:dd:be:34:0d:08:26:ba:33:
                    21:60:f4:1c:7c:1d:fc:f3:99:87:8e:41:e1:60:bb:
                    b6:dd:6e:6e:ff:5b:4c:17:ab:04:40:6d:8c:07:3d:
                    13:ee:97:ff:f2:3d:d1:f1:7b:59:df:86:26:6d:22:
                    04:43:7f:32:40:38:b6:ff:21:5e:eb:bc:df:ea:37:
                    b5:f5:89:da:c5:66:0a:6d:e9:7b:1f:9d:a3:a6:59:
                    1f:2e:79:57:a9:aa:10:df:82:36:99:a2:60:b4:4c:
                    20:79:d4:fa:ef:bb:69:45:10:1f:ac:57:f3:1b:a9:
                    96:c2:d2:c0:01:24:85:58:45:3b:e9:d9:44:49:b8:
                    f5:7c:a4:14:80:4e:5d:dd:59:a7:5e:44:e0:70:0d:
                    aa:f2:15:ca:a5:da:19:c4:75:e9:c3:c9:b5:92:71:
                    d9:17:55:24:9a:c2:0c:53:8a:0b:ab:d6:1c:17:63:
                    18:2f:59:1a:fb:0f:35:71:f5:5d:3c:53:65:17:b6:
                    1c:00:0a:92:91:7f:34:3c:39:22:20:e3:d1:bf:d5:
                    25:6c:27:2d:a1:04:13:1c:b7:40:5d:6d:3c:0c:02:
                    1f:b8:19
                Exponent: 65537 (0x10001)
        X509v3 extensions:
            Netscape Comment: 
                Certificat Serveur SSL
            X509v3 Subject Key Identifier: 
                08:4B:ED:5C:7A:E3:E5:AB:6A:AE:78:CF:63:38:7B:0C:AF:A3:6A:5C
            X509v3 Authority Key Identifier: 
                keyid:1F:AF:74:D4:61:D2:39:20:7E:C2:D6:67:C2:59:66:BB:EA:26:0E:9F
                DirName:/C=fr/ST=idf/L=paris/O=vitam/OU=authorities/CN=ca_root_server
                serial:01:0C

            X509v3 Issuer Alternative Name: 
                <EMPTY>

            X509v3 Subject Alternative Name: 
                DNS:offer.service.consul, DNS:localhost, DNS:offer.service.local.consul
            X509v3 Basic Constraints: critical
                CA:FALSE
            X509v3 Key Usage: 
                Digital Signature, Key Encipherment
            Netscape Cert Type: 
                SSL Server
            X509v3 Extended Key Usage: 
                TLS Web Server Authentication
    Signature Algorithm: sha256WithRSAEncryption
         75:e2:69:4e:74:6e:71:f6:10:9b:6e:07:27:75:51:b8:fe:33:
         84:b0:e4:18:b0:5e:57:8f:65:d9:29:a4:66:33:86:f7:d8:aa:
         56:be:31:fd:3a:4c:c9:04:8e:d1:72:db:74:c5:86:41:1f:0f:
         e1:96:4e:a3:09:03:75:ff:96:ef:67:95:85:be:4b:3e:c1:59:
         a4:2f:f7:59:58:aa:92:bc:7b:ee:28:45:bb:dc:87:78:02:42:
         7c:8d:34:26:0d:77:a4:a2:b4:cc:35:01:7b:91:77:2a:b7:4e:
         3c:47:95:bc:ad:ea:ff:c0:c6:b1:62:95:08:06:ff:f0:e7:0c:
         cf:83:03:f8:dc:6f:b6:f1:4d:67:77:c4:d5:de:f5:5d:5f:63:
         27:bf:bb:34:54:1c:8b:5e:f5:5a:05:9b:1c:50:9e:48:f4:3d:
         f6:73:ac:99:37:62:11:78:f2:b5:04:db:5d:24:28:d8:99:07:
         f1:cb:72:56:31:dc:ba:78:9d:88:b7:8e:f9:95:d6:d0:3b:4e:
         ed:c8:c1:10:2b:1f:6c:f6:69:3b:69:d1:ed:29:66:15:a4:67:
         f8:44:d8:7b:2a:46:0e:ee:9c:7d:90:9e:02:39:bf:08:e5:a8:
         19:7e:9b:f9:83:02:9f:12:8a:26:ad:8a:69:c7:cd:04:94:fd:
         f8:4b:b8:f9:0d:ed:3e:3a:14:2b:82:7c:81:1c:c0:a6:b2:5e:
         12:f3:b3:36:66:b1:45:fe:43:6f:41:a5:dd:96:6e:ad:cb:f0:
         c6:be:25:a7:7d:80:cb:e2:1d:ec:6f:b8:5c:4f:16:f6:bb:d3:
         65:f0:c3:f7:a4:52:9c:43:39:1a:f8:19:52:76:f7:2e:48:57:
         1b:de:56:63:ea:ea:7d:be:fc:3e:ae:b7:b6:51:d2:fd:6e:aa:
         42:b7:28:53:d8:6f:79:d4:5c:dd:e6:7e:2a:b7:46:23:c8:da:
         67:b1:f0:fe:75:57:06:ed:ab:1f:92:d7:9e:68:2b:3b:eb:8d:
         2d:80:38:2e:78:44:97:79:cb:ba:32:3f:f4:4b:98:34:01:9f:
         c9:85:a5:03:0e:9b:f2:9e:31:84:79:b7:c5:04:ca:49:7e:99:
         e3:b1:0c:eb:8f:06:e7:26:b7:5f:eb:ce:a2:ee:d7:04:2e:3d:
         82:ab:e2:fe:f9:fd:20:72:6a:80:88:6e:2f:fa:02:28:0f:56:
         83:f5:a6:c9:2e:39:50:1b:84:72:70:03:b9:75:f7:3f:bc:1c:
         65:b7:8f:63:49:5f:8c:3f:06:4a:e6:09:96:44:29:b8:13:e4:
         8e:a9:4b:35:9b:99:bc:65:66:16:18:1f:99:b0:55:7b:01:30:
         22:67:45:95:f5:88:cb:3c
-----BEGIN CERTIFICATE-----
MIIGyjCCBLKgAwIBAgICAQ8wDQYJKoZIhvcNAQELBQAwcjELMAkGA1UEBhMCZnIx
DDAKBgNVBAgMA2lkZjEOMAwGA1UEBwwFcGFyaXMxDjAMBgNVBAoMBXZpdGFtMRQw
EgYDVQQLDAthdXRob3JpdGllczEfMB0GA1UEAwwWY2FfaW50ZXJtZWRpYXRlX3Nl
cnZlcjAgFw0yMDA5MTUxMzAxMDJaGA85OTk5MTIzMTIzNTk1OVowYDELMAkGA1UE
BhMCZnIxDDAKBgNVBAgMA2lkZjEOMAwGA1UEBwwFcGFyaXMxDjAMBgNVBAoMBXZp
dGFtMSMwIQYDVQQDDBpvZmZlci5zZXJ2aWNlLmxvY2FsLmNvbnN1bDCCAiIwDQYJ
KoZIhvcNAQEBBQADggIPADCCAgoCggIBALgPShsy1+xawYZSZ85Y1cgEnKLbSEuj
LvhLq1wOwuhErXhrMsZrxv0QcqYqP/v2dnJkDh+yHpJ1BdqMBDLLAA4fuUuZ3GkN
QqzU44EsklQbjbsTEWygFfrO3V6lYIBFsJAzjQRxgK2CSRtXBJscWENcfWPxqOZp
XIDlbV/FDdYNXdIzg/Qs1IxtyJ7upWDBqwzexQtSsecSGcMYRvD2D3GXBZsgjgbU
wgm8ittzWo+GbC6bMl+5Eqy0v80DzQsP4Ccrgi8Kueq6NtmHOiYVzLsZvSyUtJvX
GSpQUGBiKFc9uRracozJxA/q04Js2AL8n0OU64JCx4Qa30N8j+6Fy3U7wrv+hVb6
Xq3HVQuQ1ZPK7ey2lZxF/O/ygOdOOQn2BAWIr92+NA0IJrozIWD0HHwd/POZh45B
4WC7tt1ubv9bTBerBEBtjAc9E+6X//I90fF7Wd+GJm0iBEN/MkA4tv8hXuu83+o3
tfWJ2sVmCm3pex+do6ZZHy55V6mqEN+CNpmiYLRMIHnU+u+7aUUQH6xX8xuplsLS
wAEkhVhFO+nZREm49XykFIBOXd1Zp15E4HANqvIVyqXaGcR16cPJtZJx2RdVJJrC
DFOKC6vWHBdjGC9ZGvsPNXH1XTxTZRe2HAAKkpF/NDw5IiDj0b/VJWwnLaEEExy3
QF1tPAwCH7gZAgMBAAGjggF4MIIBdDAlBglghkgBhvhCAQ0EGBYWQ2VydGlmaWNh
dCBTZXJ2ZXVyIFNTTDAdBgNVHQ4EFgQUCEvtXHrj5atqrnjPYzh7DK+jalwwgZUG
A1UdIwSBjTCBioAUH6901GHSOSB+wtZnwllmu+omDp+hbqRsMGoxCzAJBgNVBAYT
AmZyMQwwCgYDVQQIDANpZGYxDjAMBgNVBAcMBXBhcmlzMQ4wDAYDVQQKDAV2aXRh
bTEUMBIGA1UECwwLYXV0aG9yaXRpZXMxFzAVBgNVBAMMDmNhX3Jvb3Rfc2VydmVy
ggIBDDAJBgNVHRIEAjAAMEYGA1UdEQQ/MD2CFG9mZmVyLnNlcnZpY2UuY29uc3Vs
gglsb2NhbGhvc3SCGm9mZmVyLnNlcnZpY2UubG9jYWwuY29uc3VsMAwGA1UdEwEB
/wQCMAAwCwYDVR0PBAQDAgWgMBEGCWCGSAGG+EIBAQQEAwIGQDATBgNVHSUEDDAK
BggrBgEFBQcDATANBgkqhkiG9w0BAQsFAAOCAgEAdeJpTnRucfYQm24HJ3VRuP4z
hLDkGLBeV49l2SmkZjOG99iqVr4x/TpMyQSO0XLbdMWGQR8P4ZZOowkDdf+W72eV
hb5LPsFZpC/3WViqkrx77ihFu9yHeAJCfI00Jg13pKK0zDUBe5F3KrdOPEeVvK3q
/8DGsWKVCAb/8OcMz4MD+NxvtvFNZ3fE1d71XV9jJ7+7NFQci171WgWbHFCeSPQ9
9nOsmTdiEXjytQTbXSQo2JkH8ctyVjHcunidiLeO+ZXW0DtO7cjBECsfbPZpO2nR
7SlmFaRn+ETYeypGDu6cfZCeAjm/COWoGX6b+YMCnxKKJq2KacfNBJT9+Eu4+Q3t
PjoUK4J8gRzAprJeEvOzNmaxRf5Db0Gl3ZZurcvwxr4lp32Ay+Id7G+4XE8W9rvT
ZfDD96RSnEM5GvgZUnb3LkhXG95WY+rqfb78Pq63tlHS/W6qQrcoU9hvedRc3eZ+
KrdGI8jaZ7Hw/nVXBu2rH5LXnmgrO+uNLYA4LnhEl3nLujI/9EuYNAGfyYWlAw6b
8p4xhHm3xQTKSX6Z47EM648G5ya3X+vOou7XBC49gqvi/vn9IHJqgIhuL/oCKA9W
g/WmyS45UBuEcnADuXX3P7wcZbePY0lfjD8GSuYJlkQpuBPkjqlLNZuZvGVmFhgf
mbBVewEwImdFlfWIyzw=
-----END CERTIFICATE-----
