Certificate:
    Data:
        Version: 3 (0x2)
        Serial Number: 214 (0xd6)
    Signature Algorithm: sha256WithRSAEncryption
        Issuer: C=fr, ST=idf, L=paris, O=vitam, OU=authorities, CN=ca_intermediate_server
        Validity
            Not Before: Aug  9 16:04:47 2017 GMT
            Not After : Aug  8 16:04:47 2020 GMT
        Subject: C=fr, ST=idf, L=paris, O=vitam, CN=offer.service.consul
        Subject Public Key Info:
            Public Key Algorithm: rsaEncryption
                Public-Key: (4096 bit)
                Modulus:
                    00:d5:1d:b1:8c:3b:ff:a5:d3:af:48:c7:2b:c4:85:
                    92:29:b8:4e:39:df:1e:69:ef:59:99:ef:6e:a4:04:
                    2a:7f:ef:20:3c:62:1b:29:52:fe:26:74:96:c1:10:
                    77:5a:e7:ed:e5:68:24:04:c6:81:84:40:22:fc:3c:
                    b7:e8:3e:c3:33:fc:96:b5:02:f7:14:0d:7b:44:59:
                    df:92:33:b0:69:c1:f7:b3:30:5b:a4:d9:e2:28:e4:
                    65:bf:78:7f:3f:23:b5:ec:3a:9a:87:f4:c9:f5:07:
                    49:be:65:aa:d4:c4:bc:0c:d5:71:a1:38:90:68:99:
                    e6:7e:8b:ae:72:e7:ae:e3:b6:f6:ad:e1:6f:62:74:
                    75:63:44:16:35:92:38:5a:0f:13:45:29:05:ac:55:
                    cf:f9:75:9a:d9:e7:67:57:3a:2f:ec:f6:87:2d:ac:
                    2e:6a:29:98:e7:ea:7e:89:0a:04:b9:68:f8:e9:f1:
                    5d:b7:c3:37:0f:38:a5:8c:6e:f9:0f:2e:7c:05:e6:
                    54:43:99:59:e0:28:83:26:d2:8e:e3:61:5c:f2:3e:
                    e3:cb:69:99:84:94:bd:b7:77:ff:2d:b5:d1:e1:0d:
                    1d:31:29:f4:33:a9:72:a1:4f:dc:4c:28:76:66:15:
                    2d:43:51:69:4a:54:ed:06:14:4d:2a:5b:ac:c5:67:
                    4e:8a:c3:7b:32:48:ec:92:5f:be:c9:6c:4a:be:1a:
                    dc:4e:5a:a7:4e:1a:bb:05:7f:31:fd:33:da:2c:ee:
                    ba:85:d2:46:d5:c7:2b:79:73:43:cb:21:09:28:8e:
                    eb:4c:b3:87:85:02:f5:1b:78:d0:78:39:45:84:42:
                    c1:ad:2d:36:b4:54:21:7b:85:ff:4f:a4:eb:39:4d:
                    8a:b6:69:42:b2:cb:a5:f2:20:d1:cd:c3:82:e8:17:
                    4c:29:b6:bd:fe:58:ee:13:e4:6e:36:a4:07:15:43:
                    04:62:3b:ed:a8:d1:82:96:db:9d:c4:33:ef:c9:46:
                    24:1e:9f:02:ee:d7:bf:86:fe:81:f2:df:a2:1c:4b:
                    1b:51:cf:d3:47:47:5f:b3:09:2b:bb:1e:85:c2:a5:
                    78:65:a6:65:61:c8:74:4f:c4:0d:f6:7a:05:2b:5f:
                    06:ed:c8:9f:b0:8c:95:e2:33:d5:03:d1:2a:9d:01:
                    ba:d2:b3:3a:6d:20:50:ab:c2:ed:16:0d:03:c2:f5:
                    43:7b:6e:99:f1:8a:58:cb:4e:f0:c0:bd:39:1a:4c:
                    63:37:85:69:da:1e:62:93:fc:e3:33:dd:1a:77:d0:
                    63:bd:35:84:a6:5d:c2:60:04:48:ba:ca:94:3e:20:
                    fa:46:f3:42:d9:57:33:e1:52:fd:55:b7:83:45:fb:
                    44:67:97
                Exponent: 65537 (0x10001)
        X509v3 extensions:
            Netscape Comment: 
                Certificat Serveur SSL
            X509v3 Subject Key Identifier: 
                6A:B0:D3:9A:F2:70:D9:57:93:57:F0:59:4F:90:0E:31:48:D9:D1:37
            X509v3 Authority Key Identifier: 
                keyid:FD:29:CE:50:34:CD:B5:E2:30:E7:12:67:BA:2C:7D:5B:E0:D5:F2:2C
                DirName:/C=fr/ST=idf/L=paris/O=vitam/OU=authorities/CN=ca_root_server
                serial:D3

            X509v3 Issuer Alternative Name: 
                <EMPTY>

            X509v3 Subject Alternative Name: 
                DNS:offer.service.consul, DNS:localhost
            X509v3 Basic Constraints: critical
                CA:FALSE
            X509v3 Key Usage: 
                Digital Signature, Non Repudiation, Key Encipherment
            Netscape Cert Type: 
                SSL Server
            X509v3 Extended Key Usage: 
                TLS Web Server Authentication
    Signature Algorithm: sha256WithRSAEncryption
         62:6c:21:69:64:f8:28:a6:7a:46:b4:27:b2:a2:f5:17:af:e2:
         77:4c:63:9f:8b:1a:6d:21:93:79:cf:8a:25:9d:82:70:c0:12:
         21:46:7b:fd:26:84:0e:87:69:12:c6:f5:25:10:77:f0:2d:e0:
         c7:dc:d2:ba:ac:22:84:09:fa:d3:19:41:61:a4:a5:28:80:de:
         12:61:e7:61:54:47:7f:b9:9f:a3:e6:c1:af:16:89:55:57:6c:
         45:19:ee:91:14:30:4d:69:9e:be:4c:b2:47:2c:67:55:f5:71:
         fa:48:dc:f1:6d:f0:a8:0f:95:cc:22:1f:c9:4b:4a:4a:01:24:
         98:40:76:e3:45:58:0d:f4:7e:a4:42:00:2b:5a:c3:e3:e1:08:
         c5:29:b9:7d:b6:d4:2d:33:d8:24:7b:e9:67:78:37:6a:bb:aa:
         b5:24:f8:ab:d6:27:81:57:85:32:4e:13:2b:d6:d6:8a:86:ec:
         49:db:2c:74:03:54:50:16:92:f2:17:49:e2:ca:2c:52:4e:52:
         83:8f:98:c6:c1:e4:a7:32:1e:0d:6a:f3:4e:21:e5:22:6e:7e:
         8c:59:c5:6e:19:1d:4f:b6:dc:9e:6a:a5:0b:c7:41:a1:09:d8:
         c8:71:39:f1:ab:30:72:f3:6f:3b:d1:07:69:81:c4:33:6f:01:
         07:ac:ac:ae:bd:10:ab:49:58:59:ff:a9:c0:7e:fd:03:34:b9:
         10:6e:6b:8d:ea:87:74:bf:a4:4d:de:1f:12:0d:78:c7:e8:c9:
         3b:32:00:80:e0:b1:75:0c:70:43:ba:b3:c1:01:40:a2:9e:42:
         ae:b7:a8:db:e1:4c:de:ec:52:03:f5:b6:06:22:62:61:2b:af:
         54:3e:de:37:4d:ce:56:0c:ce:83:90:f8:e0:c9:28:42:b3:f9:
         ca:e3:5d:ea:02:e7:c1:63:f9:43:83:62:45:03:7e:6c:32:fa:
         a2:59:80:51:3e:0b:e0:22:ea:39:d3:c2:8a:43:63:8b:03:ad:
         05:01:e0:da:8e:29:3b:a1:c3:91:d0:7c:58:c7:3d:a5:4f:e6:
         42:39:90:d2:bb:2c:c7:ce:b3:64:25:89:ed:7f:20:23:1f:78:
         7e:6a:f3:d7:06:04:2a:1f:94:24:f7:a0:4e:d2:d8:f4:b7:43:
         54:94:ed:d5:ce:88:b4:0d:bf:36:86:5e:db:be:66:df:2e:68:
         3d:53:e0:38:97:37:26:f5:4c:25:fd:fe:ea:a3:18:d2:8d:a3:
         fa:da:b1:e6:6d:4c:a1:5a:df:83:e2:e0:9e:0a:e8:93:c9:57:
         f5:9a:fb:5a:02:d2:f4:97:37:f8:d8:ab:a1:da:2b:c2:64:a2:
         47:74:a6:d4:53:b3:94:b8
-----BEGIN CERTIFICATE-----
MIIGpjCCBI6gAwIBAgICANYwDQYJKoZIhvcNAQELBQAwcjELMAkGA1UEBhMCZnIx
DDAKBgNVBAgMA2lkZjEOMAwGA1UEBwwFcGFyaXMxDjAMBgNVBAoMBXZpdGFtMRQw
EgYDVQQLDAthdXRob3JpdGllczEfMB0GA1UEAwwWY2FfaW50ZXJtZWRpYXRlX3Nl
cnZlcjAeFw0xNzA4MDkxNjA0NDdaFw0yMDA4MDgxNjA0NDdaMFoxCzAJBgNVBAYT
AmZyMQwwCgYDVQQIDANpZGYxDjAMBgNVBAcMBXBhcmlzMQ4wDAYDVQQKDAV2aXRh
bTEdMBsGA1UEAwwUb2ZmZXIuc2VydmljZS5jb25zdWwwggIiMA0GCSqGSIb3DQEB
AQUAA4ICDwAwggIKAoICAQDVHbGMO/+l069IxyvEhZIpuE453x5p71mZ726kBCp/
7yA8YhspUv4mdJbBEHda5+3laCQExoGEQCL8PLfoPsMz/Ja1AvcUDXtEWd+SM7Bp
wfezMFuk2eIo5GW/eH8/I7XsOpqH9Mn1B0m+ZarUxLwM1XGhOJBomeZ+i65y567j
tvat4W9idHVjRBY1kjhaDxNFKQWsVc/5dZrZ52dXOi/s9octrC5qKZjn6n6JCgS5
aPjp8V23wzcPOKWMbvkPLnwF5lRDmVngKIMm0o7jYVzyPuPLaZmElL23d/8ttdHh
DR0xKfQzqXKhT9xMKHZmFS1DUWlKVO0GFE0qW6zFZ06Kw3sySOySX77JbEq+GtxO
WqdOGrsFfzH9M9os7rqF0kbVxyt5c0PLIQkojutMs4eFAvUbeNB4OUWEQsGtLTa0
VCF7hf9PpOs5TYq2aUKyy6XyINHNw4LoF0wptr3+WO4T5G42pAcVQwRiO+2o0YKW
253EM+/JRiQenwLu17+G/oHy36IcSxtRz9NHR1+zCSu7HoXCpXhlpmVhyHRPxA32
egUrXwbtyJ+wjJXiM9UD0SqdAbrSszptIFCrwu0WDQPC9UN7bpnxiljLTvDAvTka
TGM3hWnaHmKT/OMz3Rp30GO9NYSmXcJgBEi6ypQ+IPpG80LZVzPhUv1Vt4NF+0Rn
lwIDAQABo4IBXDCCAVgwJQYJYIZIAYb4QgENBBgWFkNlcnRpZmljYXQgU2VydmV1
ciBTU0wwHQYDVR0OBBYEFGqw05rycNlXk1fwWU+QDjFI2dE3MIGVBgNVHSMEgY0w
gYqAFP0pzlA0zbXiMOcSZ7osfVvg1fIsoW6kbDBqMQswCQYDVQQGEwJmcjEMMAoG
A1UECAwDaWRmMQ4wDAYDVQQHDAVwYXJpczEOMAwGA1UECgwFdml0YW0xFDASBgNV
BAsMC2F1dGhvcml0aWVzMRcwFQYDVQQDDA5jYV9yb290X3NlcnZlcoICANMwCQYD
VR0SBAIwADAqBgNVHREEIzAhghRvZmZlci5zZXJ2aWNlLmNvbnN1bIIJbG9jYWxo
b3N0MAwGA1UdEwEB/wQCMAAwCwYDVR0PBAQDAgXgMBEGCWCGSAGG+EIBAQQEAwIG
QDATBgNVHSUEDDAKBggrBgEFBQcDATANBgkqhkiG9w0BAQsFAAOCAgEAYmwhaWT4
KKZ6RrQnsqL1F6/id0xjn4sabSGTec+KJZ2CcMASIUZ7/SaEDodpEsb1JRB38C3g
x9zSuqwihAn60xlBYaSlKIDeEmHnYVRHf7mfo+bBrxaJVVdsRRnukRQwTWmevkyy
RyxnVfVx+kjc8W3wqA+VzCIfyUtKSgEkmEB240VYDfR+pEIAK1rD4+EIxSm5fbbU
LTPYJHvpZ3g3aruqtST4q9YngVeFMk4TK9bWiobsSdssdANUUBaS8hdJ4sosUk5S
g4+YxsHkpzIeDWrzTiHlIm5+jFnFbhkdT7bcnmqlC8dBoQnYyHE58aswcvNvO9EH
aYHEM28BB6ysrr0Qq0lYWf+pwH79AzS5EG5rjeqHdL+kTd4fEg14x+jJOzIAgOCx
dQxwQ7qzwQFAop5Crreo2+FM3uxSA/W2BiJiYSuvVD7eN03OVgzOg5D44MkoQrP5
yuNd6gLnwWP5Q4NiRQN+bDL6olmAUT4L4CLqOdPCikNjiwOtBQHg2o4pO6HDkdB8
WMc9pU/mQjmQ0rssx86zZCWJ7X8gIx94fmrz1wYEKh+UJPegTtLY9LdDVJTt1c6I
tA2/NoZe275m3y5oPVPgOJc3JvVMJf3+6qMY0o2j+tqx5m1MoVrfg+Lgngrok8lX
9Zr7WgLS9Jc3+NirodorwmSiR3Sm1FOzlLg=
-----END CERTIFICATE-----
