Certificate:
    Data:
        Version: 3 (0x2)
        Serial Number: 179 (0xb3)
    Signature Algorithm: sha256WithRSAEncryption
        Issuer: C=FR, ST=idf, L=paris, O=Vitam., CN=CA_timestamping
        Validity
            Not Before: Mar 15 12:18:43 2017 GMT
            Not After : Mar 13 12:18:43 2027 GMT
        Subject: C=FR, ST=idf, L=paris, O=Vitam., CN=CA_timestamping
        Subject Public Key Info:
            Public Key Algorithm: rsaEncryption
                Public-Key: (4096 bit)
                Modulus:
                    00:a9:95:9a:f9:2e:2e:bb:35:15:6a:02:83:a4:24:
                    8f:47:64:6d:88:e5:df:f2:ce:87:eb:01:29:85:14:
                    c6:9f:25:66:11:64:76:5f:cd:5c:bd:f6:9e:fb:73:
                    c2:40:34:5b:54:7b:2a:d1:ab:a6:dc:ec:67:5a:51:
                    f4:1c:a3:4e:24:ca:18:bf:e3:d4:96:27:57:c9:03:
                    3d:17:23:0f:86:5e:d2:bc:b8:97:46:de:51:a4:cc:
                    0c:82:39:9b:c1:31:90:be:95:2c:f0:96:e9:75:8b:
                    e8:ca:b1:b0:88:16:03:a3:ab:97:1c:12:b7:5c:ae:
                    d2:b7:92:5d:9d:02:c4:bf:c9:72:6e:71:df:36:4f:
                    74:f0:95:67:74:b5:4c:43:42:8a:92:48:17:1f:85:
                    6c:6b:c0:5f:31:26:0a:8e:e5:55:4d:80:3f:63:1c:
                    2c:80:35:02:40:52:3b:2a:da:1c:73:42:29:f9:dd:
                    cd:18:ab:78:f2:12:5b:8c:51:ae:e9:d3:b6:b9:ac:
                    ec:43:5b:83:11:46:05:1d:4c:c2:72:87:8a:43:d2:
                    03:a4:3c:3b:18:77:75:9f:c9:8d:22:df:52:65:d1:
                    15:62:63:30:a7:c0:5b:5f:a0:9e:38:6c:13:b5:dd:
                    ac:ed:67:e7:d6:11:3e:bc:85:7d:c7:5e:9c:f3:ec:
                    80:86:de:dd:79:bb:e4:2c:56:11:49:12:38:06:74:
                    94:ce:e2:7c:e4:66:90:a0:ca:4c:e4:6b:4c:61:a1:
                    e9:ba:d1:38:16:c4:6f:ed:de:27:07:23:9e:8b:e0:
                    e5:ba:1c:14:56:e6:ea:ec:31:0a:e6:7b:3d:94:cc:
                    cd:6f:b4:d0:70:16:a0:11:76:23:85:f5:6a:10:58:
                    00:ba:02:21:fb:79:5b:9c:bb:ae:fa:b2:f3:9b:62:
                    1c:34:8a:06:3b:04:e1:b4:67:8f:7a:4a:20:00:ca:
                    da:92:18:a9:c0:16:a1:f7:a2:66:01:5e:7f:2c:5c:
                    10:4f:80:60:83:a9:61:4a:57:d6:41:5d:1f:52:cd:
                    00:97:85:a6:3f:21:eb:0b:b2:eb:9e:4e:52:9d:12:
                    55:66:48:5e:f5:00:1f:10:ca:9c:70:a9:1b:89:7d:
                    98:25:cd:56:b0:38:a1:cd:84:2e:35:2b:d7:ff:fa:
                    b1:5a:7d:eb:fe:6f:fb:7f:dd:ba:4d:6d:3d:6e:9a:
                    a9:1c:69:af:db:9b:6b:5d:ac:f3:47:19:05:44:df:
                    7a:f3:5b:77:8a:71:07:ff:b9:ae:07:f9:20:64:d3:
                    6f:3f:8e:6d:67:37:81:37:ec:2c:2e:64:fb:ba:4e:
                    b5:7b:cd:0f:3f:4f:b5:54:b4:a9:91:c7:7a:87:8d:
                    a5:8a:73
                Exponent: 65537 (0x10001)
        X509v3 extensions:
            Netscape Comment: 
                CA SSL
            X509v3 Basic Constraints: critical
                CA:TRUE, pathlen:0
            X509v3 Subject Key Identifier: 
                12:1A:82:E9:85:94:5B:A8:7C:B5:39:94:ED:31:42:42:43:13:BD:AB
            X509v3 Authority Key Identifier: 
                keyid:A5:21:78:B3:2E:6C:91:9B:31:B5:B5:F9:60:CA:57:00:BA:A2:D6:6E
                DirName:/C=FR/ST=idf/L=paris/O=Vitam./CN=CA_timestamping
                serial:B2

            X509v3 Issuer Alternative Name: 
                <EMPTY>

            X509v3 Key Usage: 
                Certificate Sign, CRL Sign
            Netscape Cert Type: 
                SSL CA
    Signature Algorithm: sha256WithRSAEncryption
         7b:30:63:7a:83:8c:42:7e:96:0c:63:c9:d7:61:0e:01:da:58:
         98:42:58:5c:ab:44:6f:60:9c:48:41:3c:2f:5f:85:34:d5:61:
         26:05:a6:96:20:31:07:2f:37:bf:85:62:af:ab:a6:22:c1:c2:
         a8:93:d5:9a:49:7f:f7:07:e2:72
-----BEGIN CERTIFICATE-----
MIIEYDCCBAqgAwIBAgICALMwDQYJKoZIhvcNAQELBQAwVjELMAkGA1UEBhMCRlIx
DDAKBgNVBAgTA2lkZjEOMAwGA1UEBxMFcGFyaXMxDzANBgNVBAoTBlZpdGFtLjEY
MBYGA1UEAxQPQ0FfdGltZXN0YW1waW5nMB4XDTE3MDMxNTEyMTg0M1oXDTI3MDMx
MzEyMTg0M1owVjELMAkGA1UEBhMCRlIxDDAKBgNVBAgTA2lkZjEOMAwGA1UEBxMF
cGFyaXMxDzANBgNVBAoTBlZpdGFtLjEYMBYGA1UEAxQPQ0FfdGltZXN0YW1waW5n
MIICIjANBgkqhkiG9w0BAQEFAAOCAg8AMIICCgKCAgEAqZWa+S4uuzUVagKDpCSP
R2RtiOXf8s6H6wEphRTGnyVmEWR2X81cvfae+3PCQDRbVHsq0aum3OxnWlH0HKNO
JMoYv+PUlidXyQM9FyMPhl7SvLiXRt5RpMwMgjmbwTGQvpUs8JbpdYvoyrGwiBYD
o6uXHBK3XK7St5JdnQLEv8lybnHfNk908JVndLVMQ0KKkkgXH4Vsa8BfMSYKjuVV
TYA/YxwsgDUCQFI7Ktocc0Ip+d3NGKt48hJbjFGu6dO2uazsQ1uDEUYFHUzCcoeK
Q9IDpDw7GHd1n8mNIt9SZdEVYmMwp8BbX6CeOGwTtd2s7Wfn1hE+vIV9x16c8+yA
ht7debvkLFYRSRI4BnSUzuJ85GaQoMpM5GtMYaHputE4FsRv7d4nByOei+DluhwU
Vubq7DEK5ns9lMzNb7TQcBagEXYjhfVqEFgAugIh+3lbnLuu+rLzm2IcNIoGOwTh
tGePekogAMrakhipwBah96JmAV5/LFwQT4Bgg6lhSlfWQV0fUs0Al4WmPyHrC7Lr
nk5SnRJVZkhe9QAfEMqccKkbiX2YJc1WsDihzYQuNSvX//qxWn3r/m/7f926TW09
bpqpHGmv25trXazzRxkFRN9681t3inEH/7muB/kgZNNvP45tZzeBN+wsLmT7uk61
e80PP0+1VLSpkcd6h42linMCAwEAAaOB+TCB9jAVBglghkgBhvhCAQ0ECBYGQ0Eg
U1NMMBIGA1UdEwEB/wQIMAYBAf8CAQAwHQYDVR0OBBYEFBIagumFlFuofLU5lO0x
QkJDE72rMH8GA1UdIwR4MHaAFKUheLMubJGbMbW1+WDKVwC6otZuoVqkWDBWMQsw
CQYDVQQGEwJGUjEMMAoGA1UECBMDaWRmMQ4wDAYDVQQHEwVwYXJpczEPMA0GA1UE
ChMGVml0YW0uMRgwFgYDVQQDFA9DQV90aW1lc3RhbXBpbmeCAgCyMAkGA1UdEgQC
MAAwCwYDVR0PBAQDAgEGMBEGCWCGSAGG+EIBAQQEAwICBDANBgkqhkiG9w0BAQsF
AANBAHswY3qDjEJ+lgxjyddhDgHaWJhCWFyrRG9gnEhBPC9fhTTVYSYFppYgMQcv
N7+FYq+rpiLBwqiT1ZpJf/cH4nI=
-----END CERTIFICATE-----
