Certificate:
    Data:
        Version: 3 (0x2)
        Serial Number: 176 (0xb0)
    Signature Algorithm: sha256WithRSAEncryption
        Issuer: C=FR, ST=idf, L=paris, O=Vitam., CN=CA_timestamping
        Validity
            Not Before: Mar  6 18:03:42 2017 GMT
            Not After : Mar  4 18:03:42 2027 GMT
        Subject: C=FR, ST=idf, L=paris, O=Vitam., CN=CA_timestamping
        Subject Public Key Info:
            Public Key Algorithm: rsaEncryption
                Public-Key: (4096 bit)
                Modulus:
                    00:a0:22:88:ca:9d:58:24:80:f1:23:e8:ad:32:05:
                    ad:05:91:d5:8f:86:9a:e4:a4:61:e8:80:d5:06:66:
                    95:c6:6f:cd:91:44:21:f0:d0:ab:5d:8d:a6:11:77:
                    c7:c5:cf:78:23:5a:60:be:39:a1:d0:eb:1e:e2:da:
                    6f:af:93:bb:37:4e:7b:3d:77:d0:c6:96:71:7a:de:
                    56:82:7c:0f:c1:b0:2e:9e:1d:b1:d2:2e:38:8c:9a:
                    ed:31:d8:8b:dc:16:19:05:be:a5:5e:a0:04:05:1c:
                    6c:a5:d1:4c:7b:34:82:91:7a:37:77:48:cd:71:61:
                    83:ad:e2:3b:6b:34:fc:06:5b:1f:58:e7:68:af:9c:
                    96:d5:c3:bd:1a:1d:a8:fe:d5:5a:60:3d:2e:c7:3c:
                    15:0b:f6:7e:4c:f4:17:14:f3:d3:d8:07:57:20:2d:
                    e9:0a:99:a8:a7:fa:60:83:4e:32:08:01:79:5d:a2:
                    7e:b2:8b:3b:c2:f6:de:f6:ca:4f:94:d9:15:7f:15:
                    eb:4c:d2:75:b5:7e:9e:e0:60:2a:3b:ce:d8:5c:2c:
                    24:17:f9:54:65:4b:0c:77:89:ab:ab:0a:44:36:e9:
                    e7:51:42:10:7f:5a:a3:23:6e:43:08:a1:aa:42:6b:
                    26:51:f6:c6:cc:f5:de:fc:d7:56:c9:31:18:5c:d7:
                    6b:e0:d8:f4:b3:32:62:63:8c:72:20:de:ec:44:25:
                    2e:6d:57:31:83:45:6f:73:6c:b1:ad:2c:3c:20:6b:
                    aa:80:3d:fd:46:10:d2:c9:b7:99:2c:d8:ff:35:b9:
                    b7:22:6e:7a:2e:96:95:3b:cd:40:ff:08:50:44:3c:
                    88:3a:50:4e:04:8e:5b:99:e7:ed:85:b5:3a:db:ee:
                    e6:15:a2:4b:84:93:96:09:76:88:ed:d2:fa:1c:6c:
                    80:a6:dc:ec:4c:f0:3b:30:54:8b:84:2e:44:2c:71:
                    92:6a:06:d8:b2:73:e7:90:81:80:ea:4c:26:4f:0b:
                    ee:b2:c1:fb:c7:26:f4:a3:f1:37:81:88:23:88:c3:
                    6d:62:25:7a:1f:61:f9:a2:f8:47:80:28:f9:89:ff:
                    23:10:73:ac:75:0f:06:70:ec:7b:ff:c2:23:e4:3a:
                    89:6a:35:4c:62:0a:02:79:0b:1e:c1:28:11:45:f2:
                    dd:ab:aa:23:a1:7e:a7:1c:3f:e9:ab:f6:7e:c7:45:
                    68:ac:9d:99:6f:6f:f6:53:b9:4e:c9:cb:0e:bc:7c:
                    68:64:a8:ef:92:b3:f4:d2:0c:84:54:18:bd:fc:34:
                    b3:6c:29:4a:9b:18:96:a3:79:ea:5b:40:e4:0e:80:
                    ed:d7:a6:64:63:46:52:29:5f:17:73:2a:90:d5:35:
                    f7:84:6f
                Exponent: 65537 (0x10001)
        X509v3 extensions:
            Netscape Comment: 
                CA SSL
            X509v3 Basic Constraints: critical
                CA:TRUE, pathlen:0
            X509v3 Subject Key Identifier: 
                F4:93:97:17:3A:75:8C:BB:DF:E3:D6:2F:45:11:BD:69:7D:0C:D4:1D
            X509v3 Authority Key Identifier: 
                keyid:AB:71:F3:08:97:F9:1F:E8:23:43:85:DF:38:BE:A5:87:2E:47:FC:91
                DirName:/C=FR/ST=idf/L=paris/O=Vitam./CN=CA_timestamping
                serial:AF

            X509v3 Issuer Alternative Name: 
                <EMPTY>

            X509v3 Key Usage: 
                Certificate Sign, CRL Sign
            Netscape Cert Type: 
                SSL CA
    Signature Algorithm: sha256WithRSAEncryption
         4b:2b:46:af:79:b2:4b:52:57:0f:ba:ef:61:79:86:9d:15:4e:
         bf:3e:b5:7c:3c:f0:8d:65:fa:b9:3e:91:39:54:1e:99:a1:83:
         a2:2b:3e:ef:af:6e:6a:e2:00:ec:5b:c8:34:bf:d1:c5:ad:25:
         2a:7a:ab:4a:e3:a4:82:8e:ff:af:9f:b0:96:ab:33:34:3a:9f:
         ac:55:92:97:a3:0a:b5:e6:6c:85:86:47:81:f9:6b:75:36:44:
         d8:db:69:4d:97:92:3b:a4:2c:70:8a:8c:b3:ea:a3:9b:2e:18:
         bb:8d:ff:cd:af:e3:9f:9d:ea:f1:dd:69:ff:80:eb:1c:dd:99:
         dc:49:08:88:e8:46:62:4c:0a:ad:34:ae:57:16:49:a9:e4:05:
         68:cd:e9:f8:3c:49:5d:2a:92:e4:70:e3:5c:36:7f:c3:f1:d0:
         8f:0c:ba:b8:ea:83:df:86:71:a2:94:79:19:8e:7c:9a:b6:76:
         f5:1a:69:98:9e:43:94:40:0d:64:14:33:2b:c7:7c:57:aa:03:
         35:d5:13:0c:7f:fb:51:71:e4:71:25:5e:14:0b:07:f5:2a:bd:
         b4:ae:f7:d9:03:24:14:1d:78:c3:4f:20:7e:62:f6:7a:94:42:
         c7:b2:e8:6d:22:ee:63:d0:02:3f:0b:23:81:e2:25:f7:98:4c:
         2d:1d:b7:dd
-----BEGIN CERTIFICATE-----
MIIFIjCCBAqgAwIBAgICALAwDQYJKoZIhvcNAQELBQAwVjELMAkGA1UEBhMCRlIx
DDAKBgNVBAgMA2lkZjEOMAwGA1UEBwwFcGFyaXMxDzANBgNVBAoMBlZpdGFtLjEY
MBYGA1UEAwwPQ0FfdGltZXN0YW1waW5nMB4XDTE3MDMwNjE4MDM0MloXDTI3MDMw
NDE4MDM0MlowVjELMAkGA1UEBhMCRlIxDDAKBgNVBAgMA2lkZjEOMAwGA1UEBwwF
cGFyaXMxDzANBgNVBAoMBlZpdGFtLjEYMBYGA1UEAwwPQ0FfdGltZXN0YW1waW5n
MIICIjANBgkqhkiG9w0BAQEFAAOCAg8AMIICCgKCAgEAoCKIyp1YJIDxI+itMgWt
BZHVj4aa5KRh6IDVBmaVxm/NkUQh8NCrXY2mEXfHxc94I1pgvjmh0Ose4tpvr5O7
N057PXfQxpZxet5WgnwPwbAunh2x0i44jJrtMdiL3BYZBb6lXqAEBRxspdFMezSC
kXo3d0jNcWGDreI7azT8BlsfWOdor5yW1cO9Gh2o/tVaYD0uxzwVC/Z+TPQXFPPT
2AdXIC3pCpmop/pgg04yCAF5XaJ+sos7wvbe9spPlNkVfxXrTNJ1tX6e4GAqO87Y
XCwkF/lUZUsMd4mrqwpENunnUUIQf1qjI25DCKGqQmsmUfbGzPXe/NdWyTEYXNdr
4Nj0szJiY4xyIN7sRCUubVcxg0Vvc2yxrSw8IGuqgD39RhDSybeZLNj/Nbm3Im56
LpaVO81A/whQRDyIOlBOBI5bmefthbU62+7mFaJLhJOWCXaI7dL6HGyAptzsTPA7
MFSLhC5ELHGSagbYsnPnkIGA6kwmTwvussH7xyb0o/E3gYgjiMNtYiV6H2H5ovhH
gCj5if8jEHOsdQ8GcOx7/8Ij5DqJajVMYgoCeQsewSgRRfLdq6ojoX6nHD/pq/Z+
x0VorJ2Zb2/2U7lOycsOvHxoZKjvkrP00gyEVBi9/DSzbClKmxiWo3nqW0DkDoDt
16ZkY0ZSKV8XcyqQ1TX3hG8CAwEAAaOB+TCB9jAVBglghkgBhvhCAQ0ECBYGQ0Eg
U1NMMBIGA1UdEwEB/wQIMAYBAf8CAQAwHQYDVR0OBBYEFPSTlxc6dYy73+PWL0UR
vWl9DNQdMH8GA1UdIwR4MHaAFKtx8wiX+R/oI0OF3zi+pYcuR/yRoVqkWDBWMQsw
CQYDVQQGEwJGUjEMMAoGA1UECAwDaWRmMQ4wDAYDVQQHDAVwYXJpczEPMA0GA1UE
CgwGVml0YW0uMRgwFgYDVQQDDA9DQV90aW1lc3RhbXBpbmeCAgCvMAkGA1UdEgQC
MAAwCwYDVR0PBAQDAgEGMBEGCWCGSAGG+EIBAQQEAwICBDANBgkqhkiG9w0BAQsF
AAOCAQEASytGr3myS1JXD7rvYXmGnRVOvz61fDzwjWX6uT6ROVQemaGDois+769u
auIA7FvINL/Rxa0lKnqrSuOkgo7/r5+wlqszNDqfrFWSl6MKteZshYZHgflrdTZE
2NtpTZeSO6QscIqMs+qjmy4Yu43/za/jn53q8d1p/4DrHN2Z3EkIiOhGYkwKrTSu
VxZJqeQFaM3p+DxJXSqS5HDjXDZ/w/HQjwy6uOqD34ZxopR5GY58mrZ29RppmJ5D
lEANZBQzK8d8V6oDNdUTDH/7UXHkcSVeFAsH9Sq9tK732QMkFB14w08gfmL2epRC
x7LobSLuY9ACPwsjgeIl95hMLR233Q==
-----END CERTIFICATE-----
