Certificate:
    Data:
        Version: 3 (0x2)
        Serial Number: 213 (0xd5)
        Signature Algorithm: sha256WithRSAEncryption
        Issuer: C=fr, ST=idf, L=paris, O=vitam, OU=authorities, CN=ca_intermediate_timestamping
        Validity
            Not Before: Sep 15 13:01:08 2020 GMT
            Not After : Dec 31 23:59:59 9999 GMT
        Subject: C=fr, ST=idf, L=paris, O=vitam, CN=secure-storage
        Subject Public Key Info:
            Public Key Algorithm: rsaEncryption
                RSA Public-Key: (4096 bit)
                Modulus:
                    00:d3:72:3a:b6:4b:d0:a4:ec:5e:ed:bd:47:27:92:
                    b2:53:43:3f:79:86:cd:f9:c8:5c:55:24:15:d3:89:
                    5c:62:51:03:b5:d2:99:90:73:b2:ce:be:41:a3:ac:
                    5b:51:0c:d5:75:1a:3d:15:90:75:99:4d:a3:85:d4:
                    6b:45:e7:54:63:e4:bd:66:1a:6f:01:dd:57:b3:63:
                    fc:be:20:70:d6:d7:d2:b9:33:f5:3f:b9:0d:39:3e:
                    46:cd:5d:ea:91:86:84:39:fd:b9:c5:73:c0:35:02:
                    c8:e5:6e:3e:9c:ba:fe:a2:c9:50:ea:11:bb:66:a6:
                    eb:80:6d:33:b8:44:e8:f9:e6:21:ff:fa:00:d7:d9:
                    dc:da:36:31:40:d1:b1:fb:17:8b:34:be:47:06:82:
                    12:79:28:4b:87:0f:33:b3:1d:65:76:f7:5e:68:d9:
                    c2:79:e0:20:82:83:d0:e7:6a:2a:7a:f3:14:0d:60:
                    e5:1b:ae:6e:6d:42:5d:3e:36:a4:6b:86:17:b1:a5:
                    13:69:cc:e0:5f:17:f4:61:68:a5:76:0b:26:aa:6e:
                    da:a8:47:9b:36:e0:ab:f3:9a:5d:c5:29:78:83:a7:
                    6a:c7:d0:7c:9b:02:63:86:d4:58:64:cf:54:49:fb:
                    24:9c:1a:b6:43:17:06:57:32:f8:2d:83:fe:e9:a7:
                    f6:4a:d8:e5:e2:e6:31:72:1a:61:2e:47:7c:82:d0:
                    74:52:15:05:05:d8:35:b4:4b:d7:53:87:49:e0:20:
                    49:de:f6:03:5d:eb:11:da:2f:0e:c6:68:4f:07:e4:
                    db:ef:d8:6c:e2:4b:67:b6:51:ff:50:0e:48:29:2a:
                    a6:1b:4d:1a:27:ca:36:c5:83:9d:cb:f9:6c:dc:42:
                    74:fd:88:35:37:91:dd:1f:15:ed:2c:7e:9e:06:52:
                    a1:c5:18:12:08:c3:39:ba:f4:16:f5:77:d7:2f:e4:
                    89:8d:f6:d0:52:fa:44:fe:56:1b:34:c6:c4:88:4f:
                    e6:4d:53:60:2f:36:e1:88:44:1d:07:f0:d9:dc:5a:
                    6d:07:92:da:d0:f9:60:5a:28:8a:84:37:b2:ce:34:
                    65:c5:50:54:fb:a4:98:e4:7d:c7:c2:a3:10:f6:bb:
                    b8:0b:f6:3e:f6:21:b1:67:a7:b1:ee:ce:53:f2:55:
                    66:01:9d:37:97:91:cc:3d:50:76:16:f0:85:21:47:
                    9a:d3:6c:6e:8c:00:a9:4e:de:5c:2a:be:ec:af:d9:
                    03:f0:71:fd:f8:ff:a8:fd:b9:a0:88:f7:a2:b3:15:
                    a2:45:11:f3:4f:5a:92:70:6b:d3:19:db:7f:68:ca:
                    d3:c9:76:7e:8c:91:24:69:4d:79:64:3f:7a:9e:26:
                    41:06:6b
                Exponent: 65537 (0x10001)
        X509v3 extensions:
            Netscape Comment: 
                Certificat Serveur SSL
            X509v3 Subject Key Identifier: 
                75:CC:04:FF:1A:A4:58:C3:41:BE:77:3B:B9:03:4E:9C:C8:07:9E:D8
            X509v3 Authority Key Identifier: 
                keyid:93:82:7B:10:90:72:99:CD:ED:DC:95:CF:E5:3A:F9:D9:45:3D:6F:A1
                DirName:/C=fr/ST=idf/L=paris/O=vitam/OU=authorities/CN=ca_root_timestamping
                serial:D3

            X509v3 Issuer Alternative Name: 
                <EMPTY>

            X509v3 Basic Constraints: critical
                CA:FALSE
            X509v3 Key Usage: 
                Digital Signature, Non Repudiation
            Netscape Cert Type: 
                SSL Server
            X509v3 Extended Key Usage: critical
                Time Stamping
    Signature Algorithm: sha256WithRSAEncryption
         91:f4:3b:96:af:cf:bb:db:66:aa:5c:ce:05:c3:2d:1b:f5:d6:
         18:bf:b2:53:dd:4c:2f:7c:a8:24:f4:a1:c7:b0:dd:d9:17:5a:
         70:66:17:aa:ff:59:4b:8b:2f:ed:cd:85:84:c5:f8:59:51:e4:
         1d:ea:95:72:72:14:44:6e:37:f4:2a:cc:00:06:47:eb:b3:52:
         b7:b4:ab:24:57:c0:ae:82:8b:a3:66:94:82:fc:e6:ef:94:e5:
         68:ea:66:60:34:4d:ce:1d:9b:bf:43:6d:e0:37:b0:ec:e1:75:
         c2:17:65:d4:fe:98:41:8c:ee:63:d8:ec:5e:ba:3e:cb:ad:47:
         2d:33:aa:65:28:9c:48:36:ed:23:e2:9a:04:4c:81:0f:d4:cb:
         69:2e:97:9a:34:8f:27:0e:f6:4d:a9:53:1b:23:35:52:45:d5:
         60:20:28:65:b5:e3:6b:f9:a9:76:41:da:fe:e1:f0:37:42:fa:
         c2:93:2f:f3:e5:8c:7d:5d:c4:d4:b3:2f:50:cd:07:f8:ef:ba:
         5e:65:a8:bc:59:ac:0d:01:a8:be:8e:67:e6:da:17:5c:5d:75:
         2f:15:b6:32:27:d9:bb:a1:16:32:7b:3a:a3:1c:f8:ea:48:d0:
         21:d8:43:3a:77:10:a7:c9:22:19:df:58:bd:cc:87:18:5b:a0:
         ca:6c:44:55:b1:c9:ba:5c:c9:a3:83:a5:b7:1c:76:4a:9b:09:
         86:d4:26:d3:dc:87:ac:56:f0:91:3b:e9:75:1e:42:f1:2e:2b:
         8f:98:c9:46:f2:6f:80:a0:4e:5e:c9:61:ec:c4:c2:d0:fd:21:
         27:21:fb:c6:4e:8d:cf:7a:75:8b:47:fc:1b:78:5e:72:27:22:
         b5:cb:4a:ba:98:af:9d:38:6f:24:f8:d0:6f:f1:be:54:f9:f6:
         71:8e:ae:8c:c0:8f:b7:7e:7e:6d:b9:f6:2f:2d:c1:de:c2:fd:
         67:e7:5d:3f:c6:78:cf:b5:fd:71:3f:f0:84:31:fb:74:c3:57:
         2e:4b:94:20:08:0a:68:8e:f2:cc:70:e7:91:7b:c7:4d:94:6d:
         ce:cc:bf:2c:e7:c7:e2:68:05:aa:81:bb:1c:bf:34:41:ed:f1:
         b5:3f:49:77:1d:1d:54:d0:89:fe:f0:06:cf:d7:99:61:a4:03:
         48:66:d7:93:78:c9:cb:93:04:15:3d:c4:df:7f:49:a9:f9:37:
         a7:d7:1a:a1:d6:a5:08:ba:ab:97:af:66:c5:f2:de:02:a4:b4:
         f3:6f:66:40:df:87:e5:b2:b3:7d:85:d6:fd:ee:7c:b6:80:e8:
         01:48:d3:d8:cf:c9:e3:27:37:8b:38:72:81:32:bf:aa:9b:60:
         81:f8:8e:a2:98:6c:42:fa
-----BEGIN CERTIFICATE-----
MIIGhTCCBG2gAwIBAgICANUwDQYJKoZIhvcNAQELBQAweDELMAkGA1UEBhMCZnIx
DDAKBgNVBAgMA2lkZjEOMAwGA1UEBwwFcGFyaXMxDjAMBgNVBAoMBXZpdGFtMRQw
EgYDVQQLDAthdXRob3JpdGllczElMCMGA1UEAwwcY2FfaW50ZXJtZWRpYXRlX3Rp
bWVzdGFtcGluZzAgFw0yMDA5MTUxMzAxMDhaGA85OTk5MTIzMTIzNTk1OVowVDEL
MAkGA1UEBhMCZnIxDDAKBgNVBAgMA2lkZjEOMAwGA1UEBwwFcGFyaXMxDjAMBgNV
BAoMBXZpdGFtMRcwFQYDVQQDDA5zZWN1cmUtc3RvcmFnZTCCAiIwDQYJKoZIhvcN
AQEBBQADggIPADCCAgoCggIBANNyOrZL0KTsXu29RyeSslNDP3mGzfnIXFUkFdOJ
XGJRA7XSmZBzss6+QaOsW1EM1XUaPRWQdZlNo4XUa0XnVGPkvWYabwHdV7Nj/L4g
cNbX0rkz9T+5DTk+Rs1d6pGGhDn9ucVzwDUCyOVuPpy6/qLJUOoRu2am64BtM7hE
6PnmIf/6ANfZ3No2MUDRsfsXizS+RwaCEnkoS4cPM7MdZXb3XmjZwnngIIKD0Odq
KnrzFA1g5Ruubm1CXT42pGuGF7GlE2nM4F8X9GFopXYLJqpu2qhHmzbgq/OaXcUp
eIOnasfQfJsCY4bUWGTPVEn7JJwatkMXBlcy+C2D/umn9krY5eLmMXIaYS5HfILQ
dFIVBQXYNbRL11OHSeAgSd72A13rEdovDsZoTwfk2+/YbOJLZ7ZR/1AOSCkqphtN
GifKNsWDncv5bNxCdP2INTeR3R8V7Sx+ngZSocUYEgjDObr0FvV31y/kiY320FL6
RP5WGzTGxIhP5k1TYC824YhEHQfw2dxabQeS2tD5YFooioQ3ss40ZcVQVPukmOR9
x8KjEPa7uAv2PvYhsWense7OU/JVZgGdN5eRzD1QdhbwhSFHmtNsbowAqU7eXCq+
7K/ZA/Bx/fj/qP25oIj3orMVokUR809aknBr0xnbf2jK08l2foyRJGlNeWQ/ep4m
QQZrAgMBAAGjggE5MIIBNTAlBglghkgBhvhCAQ0EGBYWQ2VydGlmaWNhdCBTZXJ2
ZXVyIFNTTDAdBgNVHQ4EFgQUdcwE/xqkWMNBvnc7uQNOnMgHntgwgZsGA1UdIwSB
kzCBkIAUk4J7EJBymc3t3JXP5Tr52UU9b6GhdKRyMHAxCzAJBgNVBAYTAmZyMQww
CgYDVQQIDANpZGYxDjAMBgNVBAcMBXBhcmlzMQ4wDAYDVQQKDAV2aXRhbTEUMBIG
A1UECwwLYXV0aG9yaXRpZXMxHTAbBgNVBAMMFGNhX3Jvb3RfdGltZXN0YW1waW5n
ggIA0zAJBgNVHRIEAjAAMAwGA1UdEwEB/wQCMAAwCwYDVR0PBAQDAgbAMBEGCWCG
SAGG+EIBAQQEAwIGQDAWBgNVHSUBAf8EDDAKBggrBgEFBQcDCDANBgkqhkiG9w0B
AQsFAAOCAgEAkfQ7lq/Pu9tmqlzOBcMtG/XWGL+yU91ML3yoJPShx7Dd2RdacGYX
qv9ZS4sv7c2FhMX4WVHkHeqVcnIURG439CrMAAZH67NSt7SrJFfAroKLo2aUgvzm
75TlaOpmYDRNzh2bv0Nt4Dew7OF1whdl1P6YQYzuY9jsXro+y61HLTOqZSicSDbt
I+KaBEyBD9TLaS6XmjSPJw72TalTGyM1UkXVYCAoZbXja/mpdkHa/uHwN0L6wpMv
8+WMfV3E1LMvUM0H+O+6XmWovFmsDQGovo5n5toXXF11LxW2MifZu6EWMns6oxz4
6kjQIdhDOncQp8kiGd9YvcyHGFugymxEVbHJulzJo4Oltxx2SpsJhtQm09yHrFbw
kTvpdR5C8S4rj5jJRvJvgKBOXslh7MTC0P0hJyH7xk6Nz3p1i0f8G3hecicitctK
upivnThvJPjQb/G+VPn2cY6ujMCPt35+bbn2Ly3B3sL9Z+ddP8Z4z7X9cT/whDH7
dMNXLkuUIAgKaI7yzHDnkXvHTZRtzsy/LOfH4mgFqoG7HL80Qe3xtT9Jdx0dVNCJ
/vAGz9eZYaQDSGbXk3jJy5MEFT3E339Jqfk3p9caodalCLqrl69mxfLeAqS0829m
QN+H5bKzfYXW/e58toDoAUjT2M/J4yc3izhygTK/qptggfiOophsQvo=
-----END CERTIFICATE-----
