Certificate:
    Data:
        Version: 3 (0x2)
        Serial Number: 189 (0xbd)
    Signature Algorithm: sha256WithRSAEncryption
        Issuer: C=fr, ST=idf, L=paris, O=vitam, OU=authorities, CN=ca_intermediate_timestamping
        Validity
            Not Before: Aug  9 16:04:50 2017 GMT
            Not After : Aug  8 16:04:50 2020 GMT
        Subject: C=fr, ST=idf, L=paris, O=vitam, CN=secure-logbook
        Subject Public Key Info:
            Public Key Algorithm: rsaEncryption
                Public-Key: (4096 bit)
                Modulus:
                    00:c4:0f:c5:d6:77:6b:d2:5f:5a:e1:c2:2e:26:19:
                    12:ab:1c:d9:db:88:cc:fc:3b:76:1c:4b:d9:33:cc:
                    4f:43:cf:b8:57:64:6b:7d:54:8f:f5:8d:8d:13:81:
                    07:f5:50:5c:b3:13:f7:a1:a8:70:be:f3:1c:2c:7f:
                    55:bf:ff:bc:6e:c8:62:77:72:59:71:80:26:f5:58:
                    c6:16:2f:9a:b1:17:3d:3d:31:71:c2:b1:82:ba:fb:
                    d0:3a:fb:00:54:fe:73:6c:7c:38:59:d6:1f:9e:ce:
                    a7:d5:b6:50:9f:83:42:56:df:d4:12:e9:1a:9f:fb:
                    2c:2a:cb:99:da:14:84:0d:34:35:d4:6f:cd:5a:2d:
                    a5:2c:53:54:07:20:a0:29:74:0c:74:e7:8c:18:84:
                    4d:2e:d9:80:e1:64:77:99:34:bd:ec:8f:b9:d8:56:
                    69:0a:35:9f:9f:8f:0b:f2:84:65:11:a4:c1:25:3e:
                    67:e7:db:f6:7b:d3:e9:c1:ab:0f:a5:09:24:9a:f3:
                    29:b8:ea:23:11:d0:7e:25:d9:f9:e5:4d:af:6f:ee:
                    0a:ac:9f:3d:3a:16:19:32:48:f3:92:49:89:32:66:
                    34:22:c1:30:1c:b6:e8:3a:d1:b9:74:51:55:28:66:
                    cc:9d:0f:b4:62:a5:fb:46:6e:d7:fe:cf:94:89:5f:
                    e5:3b:77:28:f5:31:5c:06:cf:bf:b0:b0:d6:f6:2e:
                    1d:15:88:4c:27:ce:a2:ca:99:ba:9e:d4:8c:f5:a0:
                    92:76:53:df:0a:68:6d:ca:70:60:e8:50:a1:ff:9f:
                    42:1e:6f:37:d7:9b:bd:68:26:a5:dd:84:02:ea:66:
                    98:10:cc:1a:19:e1:e2:04:a8:b1:02:ec:67:47:85:
                    ff:5b:8f:b4:b8:9a:15:24:db:c0:7a:78:30:15:dd:
                    df:91:ff:f8:7b:be:12:cb:e9:d9:5f:50:57:87:b5:
                    1c:34:e1:00:ab:e0:42:6a:07:00:29:35:92:d8:f4:
                    61:ae:11:46:9a:a1:51:88:97:f3:c6:96:43:90:a3:
                    21:d2:e1:48:46:f9:bf:5d:14:02:22:1d:c1:1a:5c:
                    17:61:dd:67:25:57:62:d2:6d:54:ab:c9:a0:bd:0a:
                    79:69:d8:83:2c:2e:b1:fa:2c:df:07:99:b4:bc:76:
                    64:b0:af:d5:bc:1c:7b:e3:a3:b9:0d:4f:cc:a1:86:
                    e6:f0:4c:36:c2:00:0c:86:73:42:18:87:e6:75:99:
                    c4:ba:10:f3:a3:24:b1:46:33:cf:7f:24:c3:43:ef:
                    5e:48:78:71:04:17:18:db:29:d1:07:6d:9f:ac:1b:
                    76:93:53:a4:1b:0a:a1:64:f0:c9:d0:0b:bf:f1:9d:
                    b5:ec:51
                Exponent: 65537 (0x10001)
        X509v3 extensions:
            Netscape Comment: 
                Certificat Serveur SSL
            X509v3 Subject Key Identifier: 
                6D:C9:73:2C:C5:9D:08:B7:4C:2E:EA:65:A3:53:8C:10:F7:38:B6:1B
            X509v3 Authority Key Identifier: 
                keyid:36:18:5F:4A:02:83:0E:59:26:6C:7F:BD:46:13:8D:3F:27:FF:FC:B0
                DirName:/C=fr/ST=idf/L=paris/O=vitam/OU=authorities/CN=ca_root_timestamping
                serial:BC

            X509v3 Issuer Alternative Name: 
                <EMPTY>

            X509v3 Basic Constraints: critical
                CA:FALSE
            X509v3 Key Usage: 
                Digital Signature, Non Repudiation, Key Encipherment
            Netscape Cert Type: 
                SSL Server
            X509v3 Extended Key Usage: critical
                Time Stamping
    Signature Algorithm: sha256WithRSAEncryption
         15:d3:60:05:79:f3:65:9a:91:6e:f3:68:d7:51:1b:2d:0c:47:
         59:20:2c:40:34:84:14:6c:90:eb:03:78:94:2b:bd:34:a4:e1:
         d8:ee:66:26:3c:26:5f:48:3c:70:d5:88:79:49:ab:26:3a:2c:
         4b:4b:f5:9c:a4:2c:63:53:c9:00:57:5d:d5:1e:b4:c0:a3:32:
         d6:7c:9c:28:10:1d:b5:f8:dc:c1:c4:af:05:ee:75:8d:a1:d2:
         0c:81:78:1e:cc:d8:88:72:fb:4a:e0:ab:ec:4f:3d:b0:34:dd:
         74:aa:b2:a1:ae:f0:aa:ee:3e:ec:28:d2:93:03:bd:1e:05:fe:
         5b:fb:d5:23:56:2c:b9:56:3e:dd:81:54:5a:e2:62:3c:6a:13:
         1d:9c:6f:9c:3f:69:22:cc:10:82:f6:76:88:d8:d1:23:06:94:
         49:b2:b1:fc:9f:2f:43:47:a6:b0:cc:7f:ef:5a:1a:88:17:18:
         32:2a:91:23:55:79:4f:fd:df:21:29:f8:27:28:54:ec:7b:99:
         79:cb:c2:44:91:71:f9:e3:82:9d:f9:42:9a:fe:60:cf:88:90:
         8e:61:3d:d7:df:26:eb:8f:83:14:a0:34:26:52:d9:ef:55:c0:
         d8:e1:f1:76:80:29:00:1c:88:aa:d3:a9:63:e5:f8:19:df:6e:
         35:fb:57:26:29:9a:4a:11:7d:ab:43:31:83:61:a6:d9:54:e6:
         9b:f8:46:59:06:e3:fa:1b:4b:ae:98:ba:14:97:ef:0d:7f:df:
         4d:61:46:2e:47:3f:48:0f:2d:36:d5:3f:93:fc:42:0a:2e:ce:
         89:09:45:94:9c:fc:08:52:77:73:34:71:8f:17:25:c9:c8:73:
         1c:2f:20:7f:58:cb:b9:5c:a5:de:72:f9:a6:b9:0f:c8:b3:3d:
         1e:33:4d:50:f7:88:07:37:5b:1b:28:45:21:b5:bf:31:d1:42:
         81:c8:a4:99:21:e5:b2:99:10:f4:6e:c1:37:a0:57:5a:58:f6:
         c7:50:a4:a6:4f:68:fa:0b:81:ea:46:76:2b:d4:a6:92:46:f2:
         f8:a2:a1:ba:d1:d7:97:37:23:00:6b:ec:c5:f1:29:60:9d:fe:
         f9:ba:a5:1b:b9:51:b8:bd:ba:42:01:b1:da:d0:2a:11:05:c3:
         5d:0d:00:54:88:76:c2:62:1b:33:80:9c:5b:a4:55:90:41:4f:
         9c:5c:66:89:56:d7:9b:51:33:f6:89:8d:9f:76:66:05:4b:64:
         f2:98:85:19:ad:17:03:cb:c0:54:ac:dd:52:f3:ac:18:84:fb:
         33:a9:d8:08:85:7d:19:74:ef:0c:ef:46:35:a9:7f:25:57:92:
         fa:be:56:1a:8a:b3:61:d4
-----BEGIN CERTIFICATE-----
MIIGgzCCBGugAwIBAgICAL0wDQYJKoZIhvcNAQELBQAweDELMAkGA1UEBhMCZnIx
DDAKBgNVBAgMA2lkZjEOMAwGA1UEBwwFcGFyaXMxDjAMBgNVBAoMBXZpdGFtMRQw
EgYDVQQLDAthdXRob3JpdGllczElMCMGA1UEAwwcY2FfaW50ZXJtZWRpYXRlX3Rp
bWVzdGFtcGluZzAeFw0xNzA4MDkxNjA0NTBaFw0yMDA4MDgxNjA0NTBaMFQxCzAJ
BgNVBAYTAmZyMQwwCgYDVQQIDANpZGYxDjAMBgNVBAcMBXBhcmlzMQ4wDAYDVQQK
DAV2aXRhbTEXMBUGA1UEAwwOc2VjdXJlLWxvZ2Jvb2swggIiMA0GCSqGSIb3DQEB
AQUAA4ICDwAwggIKAoICAQDED8XWd2vSX1rhwi4mGRKrHNnbiMz8O3YcS9kzzE9D
z7hXZGt9VI/1jY0TgQf1UFyzE/ehqHC+8xwsf1W//7xuyGJ3cllxgCb1WMYWL5qx
Fz09MXHCsYK6+9A6+wBU/nNsfDhZ1h+ezqfVtlCfg0JW39QS6Rqf+ywqy5naFIQN
NDXUb81aLaUsU1QHIKApdAx054wYhE0u2YDhZHeZNL3sj7nYVmkKNZ+fjwvyhGUR
pMElPmfn2/Z70+nBqw+lCSSa8ym46iMR0H4l2fnlTa9v7gqsnz06FhkySPOSSYky
ZjQiwTActug60bl0UVUoZsydD7RipftGbtf+z5SJX+U7dyj1MVwGz7+wsNb2Lh0V
iEwnzqLKmbqe1Iz1oJJ2U98KaG3KcGDoUKH/n0IebzfXm71oJqXdhALqZpgQzBoZ
4eIEqLEC7GdHhf9bj7S4mhUk28B6eDAV3d+R//h7vhLL6dlfUFeHtRw04QCr4EJq
BwApNZLY9GGuEUaaoVGIl/PGlkOQoyHS4UhG+b9dFAIiHcEaXBdh3WclV2LSbVSr
yaC9Cnlp2IMsLrH6LN8HmbS8dmSwr9W8HHvjo7kNT8yhhubwTDbCAAyGc0IYh+Z1
mcS6EPOjJLFGM89/JMND715IeHEEFxjbKdEHbZ+sG3aTU6QbCqFk8MnQC7/xnbXs
UQIDAQABo4IBOTCCATUwJQYJYIZIAYb4QgENBBgWFkNlcnRpZmljYXQgU2VydmV1
ciBTU0wwHQYDVR0OBBYEFG3JcyzFnQi3TC7qZaNTjBD3OLYbMIGbBgNVHSMEgZMw
gZCAFDYYX0oCgw5ZJmx/vUYTjT8n//ywoXSkcjBwMQswCQYDVQQGEwJmcjEMMAoG
A1UECAwDaWRmMQ4wDAYDVQQHDAVwYXJpczEOMAwGA1UECgwFdml0YW0xFDASBgNV
BAsMC2F1dGhvcml0aWVzMR0wGwYDVQQDDBRjYV9yb290X3RpbWVzdGFtcGluZ4IC
ALwwCQYDVR0SBAIwADAMBgNVHRMBAf8EAjAAMAsGA1UdDwQEAwIF4DARBglghkgB
hvhCAQEEBAMCBkAwFgYDVR0lAQH/BAwwCgYIKwYBBQUHAwgwDQYJKoZIhvcNAQEL
BQADggIBABXTYAV582WakW7zaNdRGy0MR1kgLEA0hBRskOsDeJQrvTSk4djuZiY8
Jl9IPHDViHlJqyY6LEtL9ZykLGNTyQBXXdUetMCjMtZ8nCgQHbX43MHErwXudY2h
0gyBeB7M2Ihy+0rgq+xPPbA03XSqsqGu8KruPuwo0pMDvR4F/lv71SNWLLlWPt2B
VFriYjxqEx2cb5w/aSLMEIL2dojY0SMGlEmysfyfL0NHprDMf+9aGogXGDIqkSNV
eU/93yEp+CcoVOx7mXnLwkSRcfnjgp35Qpr+YM+IkI5hPdffJuuPgxSgNCZS2e9V
wNjh8XaAKQAciKrTqWPl+BnfbjX7VyYpmkoRfatDMYNhptlU5pv4RlkG4/obS66Y
uhSX7w1/301hRi5HP0gPLTbVP5P8QgouzokJRZSc/AhSd3M0cY8XJcnIcxwvIH9Y
y7lcpd5y+aa5D8izPR4zTVD3iAc3WxsoRSG1vzHRQoHIpJkh5bKZEPRuwTegV1pY
9sdQpKZPaPoLgepGdivUppJG8viiobrR15c3IwBr7MXxKWCd/vm6pRu5Ubi9ukIB
sdrQKhEFw10NAFSIdsJiGzOAnFukVZBBT5xcZolW15tRM/aJjZ92ZgVLZPKYhRmt
FwPLwFSs3VLzrBiE+zOp2AiFfRl07wzvRjWpfyVXkvq+VhqKs2HU
-----END CERTIFICATE-----
