Certificate:
    Data:
        Version: 3 (0x2)
        Serial Number: 216 (0xd8)
        Signature Algorithm: sha256WithRSAEncryption
        Issuer: C=fr, ST=idf, L=paris, O=vitam, OU=authorities, CN=ca_intermediate_timestamping
        Validity
            Not Before: Nov 10 14:35:47 2021 GMT
            Not After : Nov  9 14:35:47 2024 GMT
        Subject: C=fr, ST=idf, L=paris, O=vitam, CN=secure-logbook
        Subject Public Key Info:
            Public Key Algorithm: rsaEncryption
                RSA Public-Key: (4096 bit)
                Modulus:
                    00:bc:3a:e3:09:b2:9b:06:20:61:ea:31:48:57:80:
                    92:c9:c2:81:89:c2:ac:c1:5c:ff:08:6a:cb:48:10:
                    f3:b6:2e:f2:b3:d5:f2:74:0c:51:87:ef:3f:cc:5b:
                    48:3f:b0:1a:52:c5:14:31:89:83:ea:d6:73:6c:b1:
                    a6:82:59:3b:7e:4a:25:9d:32:d4:bd:ff:13:68:49:
                    da:a2:22:ec:aa:08:58:21:9a:74:15:92:63:25:fb:
                    cb:b9:50:94:52:32:57:ae:48:08:38:7d:7f:45:d0:
                    38:5b:35:26:42:04:ab:2e:4d:94:65:61:0c:36:92:
                    18:66:e6:0a:3f:e6:a8:1e:1c:21:fe:14:8f:8e:a5:
                    fa:e2:0d:11:b4:9b:9a:2c:46:3b:0a:aa:a5:3c:c1:
                    6f:c9:42:31:d7:85:5c:c3:05:49:46:71:28:eb:58:
                    47:2d:ef:70:77:51:78:5f:f4:ad:68:62:fd:b3:fb:
                    e3:2b:e5:a2:db:ea:2a:a6:8d:89:0e:b8:81:87:9f:
                    5a:f7:81:2f:a5:a0:08:a7:da:04:94:c2:b9:b1:81:
                    9c:68:b0:d5:2e:40:67:20:eb:77:62:e9:f3:68:41:
                    3c:9d:51:28:1c:1e:10:92:7f:f9:12:5e:7d:61:54:
                    85:f4:7c:bb:5b:f8:7c:fc:58:fd:bf:37:08:08:35:
                    ef:ce:87:46:dc:b3:84:85:57:4e:fe:3b:80:1f:79:
                    ec:e9:7f:82:8f:1f:41:bd:20:db:20:03:4c:59:10:
                    2e:b7:16:f6:8e:eb:14:39:91:f1:ff:57:e6:8a:57:
                    40:d8:f0:2b:cc:0e:fd:65:0c:10:df:64:20:c1:8a:
                    5a:8e:6a:6c:69:5e:43:64:07:29:c8:3f:46:f0:0c:
                    5e:f8:5f:fe:3f:c4:c2:51:54:d2:1e:f0:9b:dc:58:
                    65:7c:70:69:00:bd:f7:3f:c1:f9:1c:ec:89:4a:a5:
                    70:f6:56:38:2c:d1:1f:49:81:32:f4:8c:d2:6c:4f:
                    55:d3:14:90:f8:a7:40:21:4b:62:f0:02:56:f3:64:
                    e9:6d:00:d6:f9:10:65:13:81:cd:33:f3:2f:cd:de:
                    0f:28:af:55:89:62:a5:d0:8a:a3:f5:7e:25:9b:f5:
                    ec:fa:2b:7a:5f:5e:4a:a0:1b:04:af:5d:f8:13:8a:
                    42:a4:0b:43:8b:3e:f9:9c:b5:74:89:3d:dd:a9:0e:
                    7a:84:23:72:70:09:26:2b:5e:fe:d7:ae:c1:61:64:
                    90:ee:fe:d9:c5:12:e0:a3:b1:2a:25:b6:71:d9:ff:
                    73:0f:03:b0:e5:33:3b:ae:08:22:3a:53:29:4a:b3:
                    1b:56:61:ed:99:bd:7e:44:47:ea:64:a3:67:53:e3:
                    1b:56:df
                Exponent: 65537 (0x10001)
        X509v3 extensions:
            Netscape Comment: 
                Certificat Serveur SSL
            X509v3 Subject Key Identifier: 
                9F:36:A5:AE:DE:23:07:8A:A6:1E:36:EC:10:F6:CE:67:D4:46:17:69
            X509v3 Authority Key Identifier: 
                keyid:93:82:7B:10:90:72:99:CD:ED:DC:95:CF:E5:3A:F9:D9:45:3D:6F:A1
                DirName:/C=fr/ST=idf/L=paris/O=vitam/OU=authorities/CN=ca_root_timestamping
                serial:D3

            X509v3 Issuer Alternative Name: 
                <EMPTY>

            X509v3 Basic Constraints: critical
                CA:FALSE
            X509v3 Key Usage: 
                Digital Signature, Non Repudiation
            Netscape Cert Type: 
                SSL Server
            X509v3 Extended Key Usage: critical
                Time Stamping
    Signature Algorithm: sha256WithRSAEncryption
         85:ad:68:82:d7:4e:70:f6:b5:d2:5b:ad:43:9e:f2:45:21:18:
         3f:b4:52:ab:be:67:8e:48:ba:f4:da:cd:0c:40:9f:8e:e8:c5:
         d0:9e:22:04:04:a5:a4:f9:a2:48:96:e3:df:25:af:1e:0f:1d:
         ac:0c:cf:ab:e3:d1:26:e8:d3:8c:72:fe:0c:8a:90:c6:ee:e5:
         88:a0:34:bb:d5:f1:35:4f:21:0c:19:2b:c3:48:47:c3:93:cd:
         55:42:ec:6c:85:4a:b2:45:13:50:14:95:1f:44:f3:12:96:e8:
         20:1d:40:50:bd:06:05:58:77:49:20:42:40:d0:06:ee:38:ee:
         3e:f5:95:9d:c2:63:14:cc:61:02:a7:6d:ba:f2:a4:d1:46:a7:
         65:26:de:40:77:b5:b2:66:29:2b:3d:3b:a3:65:cc:2c:f4:32:
         46:a3:ae:22:e0:3d:88:5d:e7:f7:12:ee:fd:4f:c2:f0:79:b0:
         6f:75:35:e7:af:94:b9:2d:6b:4f:0e:c3:ae:3e:a1:80:2d:42:
         95:1d:43:c4:ab:bd:39:a0:44:cc:d3:9c:fd:03:2d:82:53:6b:
         85:9c:d3:68:dd:54:66:af:d1:d4:b7:8c:a6:7e:1c:99:7e:b5:
         e0:c5:7b:3b:14:cd:cf:f7:bf:6c:ea:9b:25:69:32:70:dd:73:
         f6:75:ae:14:82:b3:3c:c1:e4:e9:57:6e:38:c1:bb:94:41:62:
         ed:af:c0:d9:78:8c:84:24:93:b7:af:c1:21:6c:7c:fb:35:85:
         57:50:e8:e0:56:f4:a1:21:46:c1:e2:5d:44:d2:fe:b7:fb:ec:
         ec:62:54:64:1a:d8:b6:6f:07:04:23:c6:c1:7b:ef:ee:62:1a:
         8a:03:49:1f:51:5b:ae:39:82:ee:f7:fe:9a:84:8b:cb:b3:15:
         1d:66:33:80:de:fa:81:c3:52:4e:68:8e:3b:05:19:03:bd:10:
         dd:76:58:5e:41:2f:cf:18:6f:32:ea:d0:43:ab:56:2b:96:35:
         6d:55:35:21:98:34:c2:18:80:b8:91:a0:22:cd:31:8c:cf:f4:
         18:3c:b1:1f:07:55:59:f2:41:bb:21:d5:48:45:be:b4:1c:dd:
         75:7f:a3:38:61:2b:37:24:f8:da:84:cf:98:2c:58:e4:3d:d9:
         6e:88:4e:33:3c:4e:5c:06:1f:15:d7:a2:4c:45:6f:09:2f:49:
         63:58:7b:a0:0e:44:eb:af:22:bd:0b:c4:63:05:33:29:94:29:
         57:fd:1a:ee:c0:68:67:f6:ae:f1:68:dc:db:67:56:36:74:7e:
         b8:ce:15:82:3b:3d:d1:20:2a:65:59:00:36:29:d6:c8:85:5f:
         b7:5c:40:36:9a:21:02:3a
-----BEGIN CERTIFICATE-----
MIIGgzCCBGugAwIBAgICANgwDQYJKoZIhvcNAQELBQAweDELMAkGA1UEBhMCZnIx
DDAKBgNVBAgMA2lkZjEOMAwGA1UEBwwFcGFyaXMxDjAMBgNVBAoMBXZpdGFtMRQw
EgYDVQQLDAthdXRob3JpdGllczElMCMGA1UEAwwcY2FfaW50ZXJtZWRpYXRlX3Rp
bWVzdGFtcGluZzAeFw0yMTExMTAxNDM1NDdaFw0yNDExMDkxNDM1NDdaMFQxCzAJ
BgNVBAYTAmZyMQwwCgYDVQQIDANpZGYxDjAMBgNVBAcMBXBhcmlzMQ4wDAYDVQQK
DAV2aXRhbTEXMBUGA1UEAwwOc2VjdXJlLWxvZ2Jvb2swggIiMA0GCSqGSIb3DQEB
AQUAA4ICDwAwggIKAoICAQC8OuMJspsGIGHqMUhXgJLJwoGJwqzBXP8IastIEPO2
LvKz1fJ0DFGH7z/MW0g/sBpSxRQxiYPq1nNssaaCWTt+SiWdMtS9/xNoSdqiIuyq
CFghmnQVkmMl+8u5UJRSMleuSAg4fX9F0DhbNSZCBKsuTZRlYQw2khhm5go/5qge
HCH+FI+OpfriDRG0m5osRjsKqqU8wW/JQjHXhVzDBUlGcSjrWEct73B3UXhf9K1o
Yv2z++Mr5aLb6iqmjYkOuIGHn1r3gS+loAin2gSUwrmxgZxosNUuQGcg63di6fNo
QTydUSgcHhCSf/kSXn1hVIX0fLtb+Hz8WP2/NwgINe/Oh0bcs4SFV07+O4Afeezp
f4KPH0G9INsgA0xZEC63FvaO6xQ5kfH/V+aKV0DY8CvMDv1lDBDfZCDBilqOamxp
XkNkBynIP0bwDF74X/4/xMJRVNIe8JvcWGV8cGkAvfc/wfkc7IlKpXD2Vjgs0R9J
gTL0jNJsT1XTFJD4p0AhS2LwAlbzZOltANb5EGUTgc0z8y/N3g8or1WJYqXQiqP1
fiWb9ez6K3pfXkqgGwSvXfgTikKkC0OLPvmctXSJPd2pDnqEI3JwCSYrXv7XrsFh
ZJDu/tnFEuCjsSoltnHZ/3MPA7DlMzuuCCI6UylKsxtWYe2ZvX5ER+pko2dT4xtW
3wIDAQABo4IBOTCCATUwJQYJYIZIAYb4QgENBBgWFkNlcnRpZmljYXQgU2VydmV1
ciBTU0wwHQYDVR0OBBYEFJ82pa7eIweKph427BD2zmfURhdpMIGbBgNVHSMEgZMw
gZCAFJOCexCQcpnN7dyVz+U6+dlFPW+hoXSkcjBwMQswCQYDVQQGEwJmcjEMMAoG
A1UECAwDaWRmMQ4wDAYDVQQHDAVwYXJpczEOMAwGA1UECgwFdml0YW0xFDASBgNV
BAsMC2F1dGhvcml0aWVzMR0wGwYDVQQDDBRjYV9yb290X3RpbWVzdGFtcGluZ4IC
ANMwCQYDVR0SBAIwADAMBgNVHRMBAf8EAjAAMAsGA1UdDwQEAwIGwDARBglghkgB
hvhCAQEEBAMCBkAwFgYDVR0lAQH/BAwwCgYIKwYBBQUHAwgwDQYJKoZIhvcNAQEL
BQADggIBAIWtaILXTnD2tdJbrUOe8kUhGD+0Uqu+Z45IuvTazQxAn47oxdCeIgQE
paT5okiW498lrx4PHawMz6vj0Sbo04xy/gyKkMbu5YigNLvV8TVPIQwZK8NIR8OT
zVVC7GyFSrJFE1AUlR9E8xKW6CAdQFC9BgVYd0kgQkDQBu447j71lZ3CYxTMYQKn
bbrypNFGp2Um3kB3tbJmKSs9O6NlzCz0MkajriLgPYhd5/cS7v1PwvB5sG91Neev
lLkta08Ow64+oYAtQpUdQ8SrvTmgRMzTnP0DLYJTa4Wc02jdVGav0dS3jKZ+HJl+
teDFezsUzc/3v2zqmyVpMnDdc/Z1rhSCszzB5OlXbjjBu5RBYu2vwNl4jIQkk7ev
wSFsfPs1hVdQ6OBW9KEhRsHiXUTS/rf77OxiVGQa2LZvBwQjxsF77+5iGooDSR9R
W645gu73/pqEi8uzFR1mM4De+oHDUk5ojjsFGQO9EN12WF5BL88YbzLq0EOrViuW
NW1VNSGYNMIYgLiRoCLNMYzP9Bg8sR8HVVnyQbsh1UhFvrQc3XV/ozhhKzck+NqE
z5gsWOQ92W6ITjM8TlwGHxXXokxFbwkvSWNYe6AOROuvIr0LxGMFMymUKVf9Gu7A
aGf2rvFo3NtnVjZ0frjOFYI7PdEgKmVZADYp1siFX7dcQDaaIQI6
-----END CERTIFICATE-----
