Certificate:
    Data:
        Version: 3 (0x2)
        Serial Number: 183 (0xb7)
    Signature Algorithm: sha256WithRSAEncryption
        Issuer: C=fr, ST=idf, L=paris, O=vitam, OU=authorities, CN=ca_intermediate_timestamping
        Validity
            Not Before: Jul 12 14:29:54 2017 GMT
            Not After : Jul 11 14:29:54 2020 GMT
        Subject: C=fr, ST=idf, L=paris, O=vitam, CN=secure-logbook
        Subject Public Key Info:
            Public Key Algorithm: rsaEncryption
                Public-Key: (4096 bit)
                Modulus:
                    00:da:dc:c4:2d:f8:a7:f7:b5:5a:16:05:e5:ad:bc:
                    c5:55:c8:69:ea:b5:20:ce:e6:6f:6e:10:81:55:80:
                    17:66:62:6e:28:ec:63:aa:25:1e:47:f5:cc:5b:4b:
                    ce:c8:6c:27:71:17:a7:04:6f:5d:9f:66:9d:ab:21:
                    da:35:dd:ca:e0:ee:94:e1:a6:dd:bf:2e:c9:e1:ac:
                    a8:87:6e:ba:64:5a:37:73:20:26:34:ef:3c:31:67:
                    c8:a6:e3:89:5c:66:28:e7:31:46:0f:32:9e:c1:f8:
                    2c:7f:d0:90:ae:3a:68:5f:0d:9c:f3:74:62:38:a0:
                    57:9a:3f:3b:f2:c1:cc:14:4c:f2:93:87:3f:11:00:
                    c7:e2:f4:86:05:e6:20:1a:6d:63:db:15:05:0f:ea:
                    56:c1:cd:bc:03:c8:36:2e:8e:29:6a:de:96:8a:f4:
                    b7:e0:36:cc:65:33:cd:2f:33:5f:1f:3a:a5:f6:ba:
                    c0:c7:80:e3:7b:18:3b:a9:85:04:34:88:cf:f4:53:
                    91:f2:7a:2b:35:41:0f:2e:1a:2c:fb:4f:b5:99:89:
                    09:43:86:ff:4b:05:0f:35:1d:bb:31:16:93:23:5b:
                    28:78:84:c3:f0:be:53:fc:c0:b0:44:99:79:15:aa:
                    94:43:6b:06:88:2c:15:55:2a:0a:ef:7a:9b:45:f1:
                    8f:25:46:f2:09:67:11:61:df:b0:7d:88:90:95:23:
                    0b:d2:ca:98:83:19:6d:c3:2c:16:1e:20:53:c4:23:
                    83:17:df:0e:6a:e3:46:1d:b6:a9:af:65:2d:4c:4b:
                    f6:7b:e7:22:5c:15:5b:cf:86:0e:15:c1:9b:a2:8e:
                    3d:67:7d:bd:f5:68:1b:51:d3:b0:df:d5:ac:34:6b:
                    d1:4e:af:ad:14:53:1a:68:06:c1:7a:f3:c1:2b:87:
                    65:32:b6:f5:24:b3:35:4f:bb:71:2d:9d:2f:1c:03:
                    c6:0e:79:ba:e9:aa:28:e4:de:c7:c0:30:48:23:4f:
                    43:e2:59:ef:35:af:ca:16:8c:6c:98:b3:6a:d9:94:
                    14:eb:a5:82:02:cf:4a:33:88:53:84:20:11:58:57:
                    39:7c:ca:94:18:93:80:cd:45:07:3a:d6:09:3f:10:
                    ac:5f:b9:17:f9:d6:d9:51:3f:53:5f:5d:dd:ed:bb:
                    ff:b8:3e:29:0f:bd:44:f9:e6:6d:90:01:57:c6:a3:
                    32:db:d5:ed:10:4d:19:f1:11:6c:cd:d6:34:85:7e:
                    61:4d:81:79:9c:a7:e2:ac:2c:d4:6e:d9:c8:0a:a1:
                    1b:6c:c0:18:01:d8:35:9b:5d:6e:82:dc:e4:d3:ca:
                    88:90:fa:d8:9b:63:34:52:a5:97:25:50:31:5b:7e:
                    57:59:61
                Exponent: 65537 (0x10001)
        X509v3 extensions:
            Netscape Comment: 
                Certificat Serveur SSL
            X509v3 Subject Key Identifier: 
                4A:62:95:39:1F:7F:6B:F1:93:D5:EF:FD:5F:C5:E3:54:B7:B3:38:37
            X509v3 Authority Key Identifier: 
                keyid:1A:93:4A:62:72:BF:2D:30:60:A7:80:B7:D4:2A:E8:A4:B0:85:DC:C7
                DirName:/C=fr/ST=idf/L=paris/O=vitam/OU=authorities/CN=ca_root_timestamping
                serial:B6

            X509v3 Issuer Alternative Name: 
                <EMPTY>

            X509v3 Basic Constraints: critical
                CA:FALSE
            X509v3 Key Usage: 
                Digital Signature, Non Repudiation, Key Encipherment
            Netscape Cert Type: 
                SSL Server
            X509v3 Extended Key Usage: critical
                Time Stamping
    Signature Algorithm: sha256WithRSAEncryption
         64:7d:18:29:bf:1c:68:6f:c2:40:27:6b:4c:0a:52:7e:4a:e9:
         06:7d:15:74:f2:5e:84:db:1c:99:ac:a6:4d:1e:6b:7c:87:d9:
         c5:ec:ee:0b:48:0e:fc:d0:7b:fc:5e:4d:da:ee:87:ec:58:83:
         4e:7e:80:2e:87:e6:1b:90:63:0c:9e:83:1c:ef:6b:81:83:27:
         47:72:53:3e:1a:67:eb:9c:61:f1:0c:71:cd:8f:0b:17:fc:e2:
         c4:7e:47:77:53:fb:26:6b:9d:33:14:9d:0c:b7:77:5b:e8:26:
         b1:4e:f5:d1:d0:41:fd:23:eb:b3:cb:d1:d1:ae:fb:71:83:ee:
         21:eb:da:17:4f:d4:dd:2b:d8:6f:31:bc:0c:7e:d7:4e:45:79:
         3d:18:3e:ad:db:b8:de:97:e9:fc:07:2c:31:65:33:61:33:a3:
         08:29:bb:c8:f0:4b:a6:57:ba:05:9e:b4:f0:90:17:aa:8f:5f:
         ef:20:7c:59:6f:09:aa:f9:b5:38:2a:12:8c:e5:85:bc:a0:3a:
         67:8e:40:6f:a6:82:57:b7:06:33:52:bc:2d:40:24:09:b4:2f:
         02:a1:9a:3a:27:19:b4:9c:a5:9e:be:fc:8b:32:58:cf:62:05:
         5e:fe:ed:3d:3b:a2:67:fd:96:e6:41:50:cc:16:b6:bf:7e:5f:
         58:ae:6d:92:50:7e:b2:52:59:e3:db:c9:44:1b:d0:2a:9c:d0:
         79:da:23:78:f6:ae:d2:15:22:2a:18:b6:b2:d6:ec:33:60:91:
         ed:54:97:ca:27:4c:de:b3:f4:ca:1d:15:36:6e:23:bc:6b:78:
         64:8e:a0:2c:cb:64:b7:8c:fd:8a:a8:b6:be:1f:e7:a8:78:33:
         71:c7:c9:fc:a7:76:8a:55:b9:a2:3c:36:4c:42:89:c7:be:00:
         b3:09:d3:f2:ed:71:ed:71:7e:89:3d:44:5e:b5:a8:7a:ae:19:
         e4:9b:cb:ac:b1:0e:8c:da:e9:da:f5:8d:ae:80:bb:4a:4a:39:
         52:45:f6:64:17:24:be:c2:e7:68:90:5a:0d:89:c0:8a:b0:dd:
         25:e4:65:cd:55:4a:02:b4:19:eb:eb:3b:ef:5b:8c:c8:a8:b3:
         ab:26:ea:b7:4b:12:1e:5b:79:3a:f8:da:f3:c7:1a:62:46:79:
         70:63:e4:a7:43:e5:ed:25:36:9e:6b:fc:5c:21:8d:7d:90:72:
         dc:d7:71:be:c1:55:81:ae:44:1d:c6:01:1a:19:19:18:21:da:
         a7:30:1e:47:11:b2:39:0f:84:8c:06:da:6f:69:94:ad:5f:71:
         42:86:f2:95:d6:69:6f:31:5d:d7:32:9c:39:cc:63:dd:eb:17:
         7b:1e:e3:13:a5:da:70:37
-----BEGIN CERTIFICATE-----
MIIGgzCCBGugAwIBAgICALcwDQYJKoZIhvcNAQELBQAweDELMAkGA1UEBhMCZnIx
DDAKBgNVBAgMA2lkZjEOMAwGA1UEBwwFcGFyaXMxDjAMBgNVBAoMBXZpdGFtMRQw
EgYDVQQLDAthdXRob3JpdGllczElMCMGA1UEAwwcY2FfaW50ZXJtZWRpYXRlX3Rp
bWVzdGFtcGluZzAeFw0xNzA3MTIxNDI5NTRaFw0yMDA3MTExNDI5NTRaMFQxCzAJ
BgNVBAYTAmZyMQwwCgYDVQQIDANpZGYxDjAMBgNVBAcMBXBhcmlzMQ4wDAYDVQQK
DAV2aXRhbTEXMBUGA1UEAwwOc2VjdXJlLWxvZ2Jvb2swggIiMA0GCSqGSIb3DQEB
AQUAA4ICDwAwggIKAoICAQDa3MQt+Kf3tVoWBeWtvMVVyGnqtSDO5m9uEIFVgBdm
Ym4o7GOqJR5H9cxbS87IbCdxF6cEb12fZp2rIdo13crg7pThpt2/LsnhrKiHbrpk
WjdzICY07zwxZ8im44lcZijnMUYPMp7B+Cx/0JCuOmhfDZzzdGI4oFeaPzvywcwU
TPKThz8RAMfi9IYF5iAabWPbFQUP6lbBzbwDyDYujilq3paK9LfgNsxlM80vM18f
OqX2usDHgON7GDuphQQ0iM/0U5Hyeis1QQ8uGiz7T7WZiQlDhv9LBQ81HbsxFpMj
Wyh4hMPwvlP8wLBEmXkVqpRDawaILBVVKgrveptF8Y8lRvIJZxFh37B9iJCVIwvS
ypiDGW3DLBYeIFPEI4MX3w5q40YdtqmvZS1MS/Z75yJcFVvPhg4VwZuijj1nfb31
aBtR07Df1aw0a9FOr60UUxpoBsF688Erh2UytvUkszVPu3EtnS8cA8YOebrpqijk
3sfAMEgjT0PiWe81r8oWjGyYs2rZlBTrpYICz0oziFOEIBFYVzl8ypQYk4DNRQc6
1gk/EKxfuRf51tlRP1NfXd3tu/+4PikPvUT55m2QAVfGozLb1e0QTRnxEWzN1jSF
fmFNgXmcp+KsLNRu2cgKoRtswBgB2DWbXW6C3OTTyoiQ+tibYzRSpZclUDFbfldZ
YQIDAQABo4IBOTCCATUwJQYJYIZIAYb4QgENBBgWFkNlcnRpZmljYXQgU2VydmV1
ciBTU0wwHQYDVR0OBBYEFEpilTkff2vxk9Xv/V/F41S3szg3MIGbBgNVHSMEgZMw
gZCAFBqTSmJyvy0wYKeAt9Qq6KSwhdzHoXSkcjBwMQswCQYDVQQGEwJmcjEMMAoG
A1UECAwDaWRmMQ4wDAYDVQQHDAVwYXJpczEOMAwGA1UECgwFdml0YW0xFDASBgNV
BAsMC2F1dGhvcml0aWVzMR0wGwYDVQQDDBRjYV9yb290X3RpbWVzdGFtcGluZ4IC
ALYwCQYDVR0SBAIwADAMBgNVHRMBAf8EAjAAMAsGA1UdDwQEAwIF4DARBglghkgB
hvhCAQEEBAMCBkAwFgYDVR0lAQH/BAwwCgYIKwYBBQUHAwgwDQYJKoZIhvcNAQEL
BQADggIBAGR9GCm/HGhvwkAna0wKUn5K6QZ9FXTyXoTbHJmspk0ea3yH2cXs7gtI
DvzQe/xeTdruh+xYg05+gC6H5huQYwyegxzva4GDJ0dyUz4aZ+ucYfEMcc2PCxf8
4sR+R3dT+yZrnTMUnQy3d1voJrFO9dHQQf0j67PL0dGu+3GD7iHr2hdP1N0r2G8x
vAx+105FeT0YPq3buN6X6fwHLDFlM2Ezowgpu8jwS6ZXugWetPCQF6qPX+8gfFlv
Car5tTgqEozlhbygOmeOQG+mgle3BjNSvC1AJAm0LwKhmjonGbScpZ6+/IsyWM9i
BV7+7T07omf9luZBUMwWtr9+X1iubZJQfrJSWePbyUQb0Cqc0HnaI3j2rtIVIioY
trLW7DNgke1Ul8onTN6z9ModFTZuI7xreGSOoCzLZLeM/Yqotr4f56h4M3HHyfyn
dopVuaI8NkxCice+ALMJ0/Ltce1xfok9RF61qHquGeSby6yxDoza6dr1ja6Au0pK
OVJF9mQXJL7C52iQWg2JwIqw3SXkZc1VSgK0GevrO+9bjMios6sm6rdLEh5beTr4
2vPHGmJGeXBj5KdD5e0lNp5r/FwhjX2QctzXcb7BVYGuRB3GARoZGRgh2qcwHkcR
sjkPhIwG2m9plK1fcUKG8pXWaW8xXdcynDnMY93rF3se4xOl2nA3
-----END CERTIFICATE-----
