Certificate:
    Data:
        Version: 3 (0x2)
        Serial Number: 193 (0xc1)
    Signature Algorithm: sha256WithRSAEncryption
        Issuer: C=fr, ST=idf, L=paris, O=vitam, OU=authorities, CN=ca_intermediate_timestamping
        Validity
            Not Before: Feb  5 12:57:27 2018 GMT
            Not After : Feb  4 12:57:27 2021 GMT
        Subject: C=fr, ST=idf, L=paris, O=vitam, CN=secure-logbook
        Subject Public Key Info:
            Public Key Algorithm: rsaEncryption
                Public-Key: (4096 bit)
                Modulus:
                    00:c9:a0:47:e9:f3:df:13:b8:68:3e:d9:46:a0:b3:
                    b9:df:26:a5:71:09:a9:8d:1f:b5:48:fd:91:65:de:
                    70:03:03:bd:92:72:9a:d4:10:5b:79:07:8e:04:d3:
                    df:ad:11:90:18:ed:71:df:c3:9e:17:51:80:9f:df:
                    10:24:ed:79:1a:30:76:46:90:9d:28:7b:3a:95:cf:
                    b1:19:c0:27:59:0a:68:44:9d:38:82:24:6f:db:5f:
                    f3:cd:a1:11:a3:85:a5:2a:16:e8:35:e4:db:28:71:
                    b3:a7:f9:fe:37:b5:f6:c5:c1:ca:50:35:a4:d0:65:
                    e6:87:cf:87:0e:31:ba:81:57:a8:34:95:71:22:75:
                    17:e7:89:13:e9:db:18:32:0f:56:76:7e:32:62:01:
                    60:43:8b:dc:5e:68:af:b1:a7:d3:d0:7c:93:50:ba:
                    33:6e:66:1d:02:c1:b9:26:cc:f5:04:c0:25:b5:6e:
                    20:83:c7:48:3f:28:5c:6f:40:9b:38:cd:01:3d:23:
                    34:18:dd:f1:13:21:b5:8c:ba:2f:07:7f:dc:12:48:
                    d1:ef:f7:af:e6:4a:80:77:fb:f3:1e:e8:51:b1:b9:
                    1f:2a:b2:1a:a9:56:be:ea:c2:6a:ab:4c:ce:8d:48:
                    a5:37:02:fa:ff:cd:28:39:e5:fc:29:87:b5:81:a8:
                    2a:4c:ac:04:49:d4:0f:4c:48:ec:37:77:e4:a3:26:
                    39:53:d2:c3:f3:4e:b4:57:19:60:af:c2:3a:02:b7:
                    db:04:19:4a:b4:85:65:03:5d:09:d9:cd:cf:5c:58:
                    a2:c6:a1:86:bf:ed:c0:ab:b6:c9:78:c4:11:a4:bd:
                    8a:77:3a:d6:2d:ea:6b:6b:19:ef:c3:3d:ff:00:05:
                    7c:29:b9:cc:3c:06:3a:fe:6f:7c:e6:77:95:a0:fa:
                    55:01:f0:3b:51:d9:18:56:ad:62:5a:e9:52:7c:27:
                    2c:af:cf:2d:b9:53:e1:40:79:d4:0f:31:03:b6:20:
                    39:a8:03:5b:e5:32:fd:76:83:f6:6f:d3:03:a9:13:
                    20:58:83:f6:c2:a8:f9:36:89:34:e1:7a:02:79:f8:
                    75:03:7d:e7:5e:09:c6:28:98:d7:7d:92:38:5f:29:
                    8f:32:c3:af:f2:46:67:e6:b3:4f:14:fe:17:83:84:
                    81:e4:d9:f5:8b:04:1b:af:33:67:11:f8:1d:74:4c:
                    ed:6c:00:67:95:5e:cb:b6:5a:c1:80:f1:2f:9f:23:
                    f0:ae:92:0d:26:aa:c4:a3:ce:9c:ed:d7:f8:21:1f:
                    fa:4a:cc:17:5d:79:28:f5:4d:bd:d7:68:11:55:65:
                    b7:91:29:6d:80:6e:9f:4f:25:f4:54:bd:93:72:0d:
                    e8:14:1d
                Exponent: 65537 (0x10001)
        X509v3 extensions:
            Netscape Comment: 
                Certificat Serveur SSL
            X509v3 Subject Key Identifier: 
                9E:BB:D9:10:67:1E:28:DD:7C:FA:ED:CB:84:CD:DD:9B:B4:FB:6D:83
            X509v3 Authority Key Identifier: 
                keyid:07:68:B8:7D:DE:17:3A:45:CD:1C:BC:97:83:80:C9:14:01:53:FE:91
                DirName:/C=fr/ST=idf/L=paris/O=vitam/OU=authorities/CN=ca_root_timestamping
                serial:BF

            X509v3 Issuer Alternative Name: 
                <EMPTY>

            X509v3 Basic Constraints: critical
                CA:FALSE
            X509v3 Key Usage: 
                Digital Signature, Non Repudiation, Key Encipherment
            Netscape Cert Type: 
                SSL Server
            X509v3 Extended Key Usage: critical
                Time Stamping
    Signature Algorithm: sha256WithRSAEncryption
         8f:76:93:0f:8c:cb:86:ad:4e:e6:ad:52:ec:91:18:1b:13:85:
         01:5a:7e:7f:92:60:6c:b2:34:b2:4e:d9:7f:f2:73:98:22:75:
         e7:a1:a6:e0:ac:48:60:2d:ea:ec:ad:17:f2:55:aa:20:5a:b6:
         0a:57:20:73:51:4f:8a:49:b4:d8:64:af:96:b9:41:ee:47:74:
         51:9c:39:e3:e3:51:99:2f:15:22:fa:08:5d:82:43:ca:72:07:
         38:46:b4:7a:0b:d6:44:ea:7b:d5:1b:c9:72:ce:1e:63:9f:25:
         7a:b1:30:32:3c:55:c3:3a:8b:a2:e7:59:47:e2:6e:7c:39:bc:
         5e:53:2e:51:b4:27:44:63:dd:86:73:94:e0:fd:bc:86:75:24:
         1e:e0:94:0c:30:4d:fc:51:a2:86:b9:fa:16:f7:af:dd:22:83:
         53:81:8c:f3:9d:be:45:48:e3:47:42:08:4e:33:7f:06:8f:36:
         7f:68:c4:45:52:23:f0:7f:1e:2f:db:39:eb:fb:19:e0:3b:e8:
         fe:7f:ae:bc:16:fd:7f:9d:a6:fa:a7:ac:c2:c7:b7:56:98:ac:
         15:b7:bb:29:cc:61:59:e6:33:32:12:79:98:55:ed:51:c3:14:
         a6:3e:6c:5c:41:0d:f1:08:b7:17:a5:10:27:5a:c1:d7:df:ef:
         25:93:29:e6:e9:05:d5:15:ee:85:bb:ee:10:a7:10:e3:d2:4f:
         ab:61:2a:8f:2b:72:97:41:55:36:77:3e:cb:ea:ca:e7:94:ac:
         a4:66:92:3a:4b:69:4d:95:31:91:e5:09:95:a7:9a:3b:95:97:
         2d:72:11:94:0a:49:e1:12:5a:7d:dd:b2:bf:0a:f5:c5:11:25:
         f7:07:c5:5d:0e:14:32:11:18:29:32:60:9e:9f:ae:6e:ac:fd:
         b0:ca:cf:9b:77:e9:fd:cd:7c:b6:49:7f:03:5b:d1:dc:2c:b2:
         1a:51:8d:dc:2a:dc:0a:3b:74:0a:fa:89:db:a1:97:5d:7c:0b:
         cf:ff:20:63:59:13:df:96:d1:e1:fc:96:13:57:3f:bd:87:93:
         3a:24:55:b9:26:28:c7:63:38:9d:91:ad:7e:17:79:1d:ca:58:
         0f:e1:9c:32:c5:72:6f:ca:ec:91:23:58:8c:04:16:b2:28:ce:
         d9:c2:3f:13:0b:fd:3e:3f:f8:f8:11:bc:71:d7:5b:c5:60:b4:
         5a:f2:13:d0:08:c9:77:71:ac:9b:6d:04:e9:d6:5e:49:1b:bf:
         6f:b8:ee:ed:6f:4e:df:9d:7b:b5:28:0a:52:47:6a:88:1f:4b:
         c0:2c:3e:60:9b:fc:5b:06:71:0e:c5:88:7f:e1:4a:11:ed:09:
         8a:54:80:01:d7:18:86:6d
-----BEGIN CERTIFICATE-----
MIIGgzCCBGugAwIBAgICAMEwDQYJKoZIhvcNAQELBQAweDELMAkGA1UEBhMCZnIx
DDAKBgNVBAgMA2lkZjEOMAwGA1UEBwwFcGFyaXMxDjAMBgNVBAoMBXZpdGFtMRQw
EgYDVQQLDAthdXRob3JpdGllczElMCMGA1UEAwwcY2FfaW50ZXJtZWRpYXRlX3Rp
bWVzdGFtcGluZzAeFw0xODAyMDUxMjU3MjdaFw0yMTAyMDQxMjU3MjdaMFQxCzAJ
BgNVBAYTAmZyMQwwCgYDVQQIDANpZGYxDjAMBgNVBAcMBXBhcmlzMQ4wDAYDVQQK
DAV2aXRhbTEXMBUGA1UEAwwOc2VjdXJlLWxvZ2Jvb2swggIiMA0GCSqGSIb3DQEB
AQUAA4ICDwAwggIKAoICAQDJoEfp898TuGg+2Uags7nfJqVxCamNH7VI/ZFl3nAD
A72ScprUEFt5B44E09+tEZAY7XHfw54XUYCf3xAk7XkaMHZGkJ0oezqVz7EZwCdZ
CmhEnTiCJG/bX/PNoRGjhaUqFug15NsocbOn+f43tfbFwcpQNaTQZeaHz4cOMbqB
V6g0lXEidRfniRPp2xgyD1Z2fjJiAWBDi9xeaK+xp9PQfJNQujNuZh0CwbkmzPUE
wCW1biCDx0g/KFxvQJs4zQE9IzQY3fETIbWMui8Hf9wSSNHv96/mSoB3+/Me6FGx
uR8qshqpVr7qwmqrTM6NSKU3Avr/zSg55fwph7WBqCpMrARJ1A9MSOw3d+SjJjlT
0sPzTrRXGWCvwjoCt9sEGUq0hWUDXQnZzc9cWKLGoYa/7cCrtsl4xBGkvYp3OtYt
6mtrGe/DPf8ABXwpucw8Bjr+b3zmd5Wg+lUB8DtR2RhWrWJa6VJ8Jyyvzy25U+FA
edQPMQO2IDmoA1vlMv12g/Zv0wOpEyBYg/bCqPk2iTThegJ5+HUDfedeCcYomNd9
kjhfKY8yw6/yRmfms08U/heDhIHk2fWLBBuvM2cR+B10TO1sAGeVXsu2WsGA8S+f
I/Cukg0mqsSjzpzt1/ghH/pKzBddeSj1Tb3XaBFVZbeRKW2Abp9PJfRUvZNyDegU
HQIDAQABo4IBOTCCATUwJQYJYIZIAYb4QgENBBgWFkNlcnRpZmljYXQgU2VydmV1
ciBTU0wwHQYDVR0OBBYEFJ672RBnHijdfPrty4TN3Zu0+22DMIGbBgNVHSMEgZMw
gZCAFAdouH3eFzpFzRy8l4OAyRQBU/6RoXSkcjBwMQswCQYDVQQGEwJmcjEMMAoG
A1UECAwDaWRmMQ4wDAYDVQQHDAVwYXJpczEOMAwGA1UECgwFdml0YW0xFDASBgNV
BAsMC2F1dGhvcml0aWVzMR0wGwYDVQQDDBRjYV9yb290X3RpbWVzdGFtcGluZ4IC
AL8wCQYDVR0SBAIwADAMBgNVHRMBAf8EAjAAMAsGA1UdDwQEAwIF4DARBglghkgB
hvhCAQEEBAMCBkAwFgYDVR0lAQH/BAwwCgYIKwYBBQUHAwgwDQYJKoZIhvcNAQEL
BQADggIBAI92kw+My4atTuatUuyRGBsThQFafn+SYGyyNLJO2X/yc5gideehpuCs
SGAt6uytF/JVqiBatgpXIHNRT4pJtNhkr5a5Qe5HdFGcOePjUZkvFSL6CF2CQ8py
BzhGtHoL1kTqe9UbyXLOHmOfJXqxMDI8VcM6i6LnWUfibnw5vF5TLlG0J0Rj3YZz
lOD9vIZ1JB7glAwwTfxRooa5+hb3r90ig1OBjPOdvkVI40dCCE4zfwaPNn9oxEVS
I/B/Hi/bOev7GeA76P5/rrwW/X+dpvqnrMLHt1aYrBW3uynMYVnmMzISeZhV7VHD
FKY+bFxBDfEItxelECdawdff7yWTKebpBdUV7oW77hCnEOPST6thKo8rcpdBVTZ3
PsvqyueUrKRmkjpLaU2VMZHlCZWnmjuVly1yEZQKSeESWn3dsr8K9cURJfcHxV0O
FDIRGCkyYJ6frm6s/bDKz5t36f3NfLZJfwNb0dwsshpRjdwq3Ao7dAr6iduhl118
C8//IGNZE9+W0eH8lhNXP72HkzokVbkmKMdjOJ2RrX4XeR3KWA/hnDLFcm/K7JEj
WIwEFrIoztnCPxML/T4/+PgRvHHXW8VgtFryE9AIyXdxrJttBOnWXkkbv2+47u1v
Tt+de7UoClJHaogfS8AsPmCb/FsGcQ7FiH/hShHtCYpUgAHXGIZt
-----END CERTIFICATE-----
