Certificate:
    Data:
        Version: 3 (0x2)
        Serial Number: 204 (0xcc)
    Signature Algorithm: sha256WithRSAEncryption
        Issuer: C=fr, ST=idf, L=paris, O=vitam, OU=authorities, CN=ca_intermediate_timestamping
        Validity
            Not Before: Feb 22 16:37:02 2018 GMT
            Not After : Feb 21 16:37:02 2021 GMT
        Subject: C=fr, ST=idf, L=paris, O=vitam, CN=secure-logbook
        Subject Public Key Info:
            Public Key Algorithm: rsaEncryption
                Public-Key: (4096 bit)
                Modulus:
                    00:c2:cb:99:ab:ee:1e:32:55:99:b1:9a:13:89:6e:
                    1b:59:3b:c0:13:7f:b6:62:4d:35:86:de:14:8f:03:
                    26:98:09:c7:b3:31:3f:c6:87:11:e6:5b:e9:ad:20:
                    a0:8e:37:bb:fb:16:b2:24:15:4e:87:62:d3:e7:89:
                    d0:25:52:db:d0:37:7d:83:fe:01:2f:2d:5c:70:41:
                    11:8c:2c:fb:cb:64:14:26:c2:ba:c3:89:77:ff:5b:
                    f6:23:49:85:33:e3:d2:2d:53:c1:16:81:e0:19:7a:
                    ec:50:a6:ea:08:d7:bf:ef:b2:7a:9c:b1:0e:88:85:
                    e0:33:a1:ac:20:ac:e9:4b:48:da:2d:fa:da:c0:8c:
                    43:0d:a4:d1:46:b4:54:1d:29:ad:90:c7:32:b6:e4:
                    ea:e7:8b:2c:c7:8f:34:92:48:c9:47:a4:53:61:10:
                    eb:da:0a:29:cb:8b:fa:dd:af:27:c5:7f:cf:4e:00:
                    04:5e:c1:a6:25:2e:fd:bf:72:26:d6:81:c1:19:a1:
                    01:bd:ca:3d:68:be:0c:c4:fc:73:bf:06:a6:0a:f1:
                    71:f8:a7:22:be:2a:65:1d:a3:a0:a0:c2:c0:0a:a4:
                    0f:d6:67:3c:94:a6:84:34:01:a9:8e:46:55:d5:24:
                    10:d9:dd:7e:b1:0d:2a:a9:db:2c:36:02:a9:cd:89:
                    6a:16:bb:6e:c9:96:7b:fa:83:5f:9b:b4:fe:39:7e:
                    cc:3a:b6:8f:61:bd:dd:e2:1e:8a:81:95:c2:da:6e:
                    49:ad:cd:37:29:e7:e3:73:5c:f3:98:64:22:e3:35:
                    dc:36:44:14:69:23:25:6a:be:ef:51:04:80:4d:b9:
                    b3:81:3c:2d:8c:82:d1:b7:28:c3:fe:29:dd:c7:63:
                    52:90:72:9c:76:8c:42:b1:a6:8c:4d:5a:a6:51:9a:
                    94:b4:a9:1f:fd:dc:cd:c4:89:c5:df:b8:54:22:75:
                    af:16:47:27:d3:f8:6e:6c:2a:b9:62:cf:c7:9d:60:
                    3c:40:ac:fc:0d:a6:ba:48:29:0d:7c:45:27:7a:5a:
                    e8:8f:34:29:6f:7b:12:55:9b:28:6b:0f:66:22:19:
                    46:d6:66:57:32:2e:a5:f4:c8:e1:b7:cc:62:58:ca:
                    c0:92:60:da:82:70:de:d2:42:c6:e6:f7:37:3f:98:
                    8e:95:7b:03:34:fe:9e:bf:5c:38:30:09:d1:78:1b:
                    54:82:da:42:71:06:1c:7b:ce:d4:d0:43:2a:17:81:
                    b4:cd:51:cc:c8:f2:37:dd:49:2f:6c:e0:9c:d5:e0:
                    ef:e0:2f:2b:6a:c6:0e:65:8e:72:23:81:27:84:c1:
                    61:f8:d2:30:91:af:ab:83:26:01:a2:8c:68:17:de:
                    77:e6:eb
                Exponent: 65537 (0x10001)
        X509v3 extensions:
            Netscape Comment: 
                Certificat Serveur SSL
            X509v3 Subject Key Identifier: 
                CE:4B:8F:28:41:FC:25:87:BB:BD:BD:C5:E3:F6:94:CA:CD:0B:DA:12
            X509v3 Authority Key Identifier: 
                keyid:07:35:29:89:FC:00:1B:67:2B:9F:B7:3A:46:B6:0F:6E:9E:B8:37:2B
                DirName:/C=fr/ST=idf/L=paris/O=vitam/OU=authorities/CN=ca_root_timestamping
                serial:BF

            X509v3 Issuer Alternative Name: 
                <EMPTY>

            X509v3 Basic Constraints: critical
                CA:FALSE
            X509v3 Key Usage: 
                Digital Signature, Non Repudiation, Key Encipherment
            Netscape Cert Type: 
                SSL Server
            X509v3 Extended Key Usage: critical
                Time Stamping
    Signature Algorithm: sha256WithRSAEncryption
         7c:54:01:9c:fc:8b:44:d9:05:49:c8:de:9a:86:ad:22:f6:ed:
         f2:b9:07:fd:cd:5d:fa:c8:55:40:9b:70:c6:2c:8c:b9:e9:13:
         e9:6d:50:6d:93:62:39:c7:61:d5:ec:2d:44:98:54:73:81:ed:
         e4:09:42:9b:e2:4d:26:6a:e1:eb:08:ad:e8:62:16:0a:3f:b2:
         ed:84:af:77:d4:47:f2:4d:a8:ff:eb:0d:ca:42:2b:32:00:37:
         6d:50:72:c2:3c:f5:b9:45:6c:93:9d:ce:3c:a0:51:3f:02:4a:
         0c:f3:ba:46:10:f0:89:2c:c0:47:91:33:23:c5:f8:12:41:b4:
         96:1b:ba:e5:f7:d7:59:6a:8b:96:a0:b3:ed:95:e0:96:2c:bf:
         a7:4b:f7:8b:a6:54:53:98:92:b2:90:e8:57:e8:94:10:31:2d:
         81:38:33:61:bc:5f:e5:3b:0b:d6:50:d6:70:46:8b:1f:22:52:
         4f:47:f8:77:e4:89:c5:b7:08:28:72:cd:f1:11:6f:3d:bd:94:
         aa:07:8b:4f:1d:8c:de:89:25:87:df:30:f3:f0:45:66:61:b7:
         71:15:5f:57:42:6b:08:cf:6e:49:fa:35:bb:df:95:95:0b:d8:
         9e:98:63:51:fc:81:a0:1b:60:1e:af:dc:e2:11:29:aa:b3:73:
         a5:fd:ca:f7:ef:f0:39:ce:ae:78:78:f3:e1:a5:31:08:21:34:
         d8:94:a7:e1:45:2e:de:57:72:da:6b:af:e5:d7:9b:0f:3b:9d:
         9a:c4:8f:af:61:b6:6d:55:8b:82:45:75:74:aa:a6:56:83:27:
         cc:d1:1f:3b:f5:39:ce:c4:8a:11:d5:78:c9:88:6c:c9:44:4e:
         93:f2:30:56:f9:19:09:0d:86:74:43:b9:5f:48:d1:c6:5f:49:
         94:19:a5:35:d8:67:02:5a:15:51:a3:16:8a:d7:f2:82:bb:f5:
         2e:5e:7a:a9:0d:9f:87:4a:2d:1d:aa:0e:6a:a0:4d:28:10:e7:
         ec:be:30:f1:df:40:82:99:03:01:18:1f:30:00:f2:66:d6:00:
         d5:b3:cc:ed:5a:e0:f0:4e:b4:74:e7:04:05:20:da:5b:ff:80:
         e0:fc:6e:54:62:d5:c6:e4:fc:0f:9b:76:9f:20:b0:54:df:8c:
         15:99:80:ab:a7:21:37:26:cf:f0:99:1d:9a:7c:9c:94:c8:c3:
         3d:d6:1b:69:4a:9b:65:43:ac:db:3e:2c:84:7a:d1:d8:00:2d:
         db:52:46:ba:70:2c:16:6c:d6:9d:ea:23:f6:3d:28:15:67:44:
         64:ab:c2:77:25:3a:44:46:8f:f1:6a:30:b9:a4:df:b6:3a:01:
         5d:9b:c3:dd:51:06:55:78
-----BEGIN CERTIFICATE-----
MIIGgzCCBGugAwIBAgICAMwwDQYJKoZIhvcNAQELBQAweDELMAkGA1UEBhMCZnIx
DDAKBgNVBAgMA2lkZjEOMAwGA1UEBwwFcGFyaXMxDjAMBgNVBAoMBXZpdGFtMRQw
EgYDVQQLDAthdXRob3JpdGllczElMCMGA1UEAwwcY2FfaW50ZXJtZWRpYXRlX3Rp
bWVzdGFtcGluZzAeFw0xODAyMjIxNjM3MDJaFw0yMTAyMjExNjM3MDJaMFQxCzAJ
BgNVBAYTAmZyMQwwCgYDVQQIDANpZGYxDjAMBgNVBAcMBXBhcmlzMQ4wDAYDVQQK
DAV2aXRhbTEXMBUGA1UEAwwOc2VjdXJlLWxvZ2Jvb2swggIiMA0GCSqGSIb3DQEB
AQUAA4ICDwAwggIKAoICAQDCy5mr7h4yVZmxmhOJbhtZO8ATf7ZiTTWG3hSPAyaY
CcezMT/GhxHmW+mtIKCON7v7FrIkFU6HYtPnidAlUtvQN32D/gEvLVxwQRGMLPvL
ZBQmwrrDiXf/W/YjSYUz49ItU8EWgeAZeuxQpuoI17/vsnqcsQ6IheAzoawgrOlL
SNot+trAjEMNpNFGtFQdKa2QxzK25OrniyzHjzSSSMlHpFNhEOvaCinLi/rdryfF
f89OAARewaYlLv2/cibWgcEZoQG9yj1ovgzE/HO/BqYK8XH4pyK+KmUdo6CgwsAK
pA/WZzyUpoQ0AamORlXVJBDZ3X6xDSqp2yw2AqnNiWoWu27Jlnv6g1+btP45fsw6
to9hvd3iHoqBlcLabkmtzTcp5+NzXPOYZCLjNdw2RBRpIyVqvu9RBIBNubOBPC2M
gtG3KMP+Kd3HY1KQcpx2jEKxpoxNWqZRmpS0qR/93M3EicXfuFQida8WRyfT+G5s
Krliz8edYDxArPwNprpIKQ18RSd6WuiPNClvexJVmyhrD2YiGUbWZlcyLqX0yOG3
zGJYysCSYNqCcN7SQsbm9zc/mI6VewM0/p6/XDgwCdF4G1SC2kJxBhx7ztTQQyoX
gbTNUczI8jfdSS9s4JzV4O/gLytqxg5ljnIjgSeEwWH40jCRr6uDJgGijGgX3nfm
6wIDAQABo4IBOTCCATUwJQYJYIZIAYb4QgENBBgWFkNlcnRpZmljYXQgU2VydmV1
ciBTU0wwHQYDVR0OBBYEFM5LjyhB/CWHu729xeP2lMrNC9oSMIGbBgNVHSMEgZMw
gZCAFAc1KYn8ABtnK5+3Oka2D26euDcroXSkcjBwMQswCQYDVQQGEwJmcjEMMAoG
A1UECAwDaWRmMQ4wDAYDVQQHDAVwYXJpczEOMAwGA1UECgwFdml0YW0xFDASBgNV
BAsMC2F1dGhvcml0aWVzMR0wGwYDVQQDDBRjYV9yb290X3RpbWVzdGFtcGluZ4IC
AL8wCQYDVR0SBAIwADAMBgNVHRMBAf8EAjAAMAsGA1UdDwQEAwIF4DARBglghkgB
hvhCAQEEBAMCBkAwFgYDVR0lAQH/BAwwCgYIKwYBBQUHAwgwDQYJKoZIhvcNAQEL
BQADggIBAHxUAZz8i0TZBUnI3pqGrSL27fK5B/3NXfrIVUCbcMYsjLnpE+ltUG2T
YjnHYdXsLUSYVHOB7eQJQpviTSZq4esIrehiFgo/su2Er3fUR/JNqP/rDcpCKzIA
N21QcsI89blFbJOdzjygUT8CSgzzukYQ8IkswEeRMyPF+BJBtJYbuuX311lqi5ag
s+2V4JYsv6dL94umVFOYkrKQ6FfolBAxLYE4M2G8X+U7C9ZQ1nBGix8iUk9H+Hfk
icW3CChyzfERbz29lKoHi08djN6JJYffMPPwRWZht3EVX1dCawjPbkn6NbvflZUL
2J6YY1H8gaAbYB6v3OIRKaqzc6X9yvfv8DnOrnh48+GlMQghNNiUp+FFLt5Xctpr
r+XXmw87nZrEj69htm1Vi4JFdXSqplaDJ8zRHzv1Oc7EihHVeMmIbMlETpPyMFb5
GQkNhnRDuV9I0cZfSZQZpTXYZwJaFVGjForX8oK79S5eeqkNn4dKLR2qDmqgTSgQ
5+y+MPHfQIKZAwEYHzAA8mbWANWzzO1a4PBOtHTnBAUg2lv/gOD8blRi1cbk/A+b
dp8gsFTfjBWZgKunITcmz/CZHZp8nJTIwz3WG2lKm2VDrNs+LIR60dgALdtSRrpw
LBZs1p3qI/Y9KBVnRGSrwnclOkRGj/FqMLmk37Y6AV2bw91RBlV4
-----END CERTIFICATE-----
