Certificate:
    Data:
        Version: 3 (0x2)
        Serial Number: 217 (0xd9)
        Signature Algorithm: sha256WithRSAEncryption
        Issuer: C=fr, ST=idf, L=paris, O=vitam, OU=authorities, CN=ca_intermediate_timestamping
        Validity
            Not Before: Nov 10 14:35:49 2021 GMT
            Not After : Nov  9 14:35:49 2024 GMT
        Subject: C=fr, ST=idf, L=paris, O=vitam, CN=secure-storage
        Subject Public Key Info:
            Public Key Algorithm: rsaEncryption
                RSA Public-Key: (4096 bit)
                Modulus:
                    00:b4:ff:f5:b9:d9:05:ea:bf:09:cf:15:67:1a:8f:
                    38:d6:2f:c2:7c:9e:4c:aa:25:b0:58:da:e5:0f:9d:
                    7d:a8:1a:d8:9b:32:a0:8c:1f:b1:b0:62:26:e6:e6:
                    a3:0c:88:cd:25:cc:d7:93:7a:18:b6:cb:9b:84:f1:
                    65:94:8e:e3:3f:8b:45:fe:49:3a:2d:e3:42:84:f3:
                    70:52:f8:e9:d0:93:36:7a:eb:10:68:fe:d5:5d:19:
                    4e:17:0b:a4:83:43:2d:e9:16:d7:a2:ce:3b:e2:b5:
                    44:b5:83:68:fc:8b:59:b2:0f:b3:d1:5f:b4:a4:7a:
                    60:cd:84:e8:2a:b5:82:fa:fa:10:6c:a6:8e:79:b1:
                    70:a6:ea:cf:58:05:5a:b2:9a:82:a6:65:7a:ba:e5:
                    b0:db:84:3e:d3:c0:f6:88:68:b7:82:8a:3c:e7:13:
                    3b:6d:b4:80:45:fb:3e:a8:d8:74:57:56:a6:f9:f6:
                    d7:3a:61:0e:0a:53:71:85:b5:58:16:e2:ac:11:f7:
                    99:a1:fd:45:e4:4a:96:b2:9b:0b:50:07:bc:be:cb:
                    80:d5:9e:99:49:2d:c4:ba:01:70:12:eb:94:98:46:
                    24:88:d7:34:2b:8a:e3:6e:bf:d0:89:93:97:0a:a0:
                    c0:10:f3:84:a5:60:45:bb:a9:71:c0:ca:60:79:22:
                    f3:0a:14:4e:dd:9d:d4:73:76:27:c1:6b:88:c2:ab:
                    e0:79:7f:a2:fa:c3:54:91:eb:ae:17:fc:7d:de:fb:
                    b9:b3:c5:d1:79:c9:9b:81:f3:d1:38:d4:8b:31:76:
                    41:c9:2a:11:81:89:1c:50:5d:73:48:85:a5:b2:42:
                    ed:28:7a:34:39:a5:8b:f5:3d:00:88:96:05:9f:95:
                    1b:8a:66:fd:e9:23:1a:72:39:c8:f5:f5:33:23:80:
                    52:1c:dc:c9:0d:24:c2:e4:1f:af:c7:bd:72:f2:3a:
                    1b:fe:c4:c4:85:30:f3:7a:b8:7a:fd:7c:76:6e:fd:
                    84:7a:2d:69:5f:bd:1e:19:26:32:a8:21:18:73:b1:
                    8c:9e:0d:97:aa:e1:27:42:dd:7e:54:92:d1:45:41:
                    a0:03:ff:8e:32:11:31:b6:85:1f:33:1b:6a:78:39:
                    52:1d:17:c9:6f:2f:06:81:64:de:13:d7:5c:ce:ac:
                    e3:c7:7c:38:9c:40:ce:54:af:69:90:83:b8:35:44:
                    20:65:39:ad:62:75:53:7c:8c:b8:5a:c9:21:05:93:
                    d7:1d:0e:d0:ff:54:20:2a:17:e3:f7:e5:9c:04:2c:
                    9d:66:c8:2f:9d:a1:b8:ba:f9:18:d6:e5:39:2f:b1:
                    bb:f6:1d:16:3b:c0:1e:a4:7b:a2:da:10:ed:c3:05:
                    53:89:81
                Exponent: 65537 (0x10001)
        X509v3 extensions:
            Netscape Comment: 
                Certificat Serveur SSL
            X509v3 Subject Key Identifier: 
                DE:94:49:FB:A6:6F:8E:EC:ED:98:B0:0D:11:4D:78:73:1D:8A:E1:73
            X509v3 Authority Key Identifier: 
                keyid:93:82:7B:10:90:72:99:CD:ED:DC:95:CF:E5:3A:F9:D9:45:3D:6F:A1
                DirName:/C=fr/ST=idf/L=paris/O=vitam/OU=authorities/CN=ca_root_timestamping
                serial:D3

            X509v3 Issuer Alternative Name: 
                <EMPTY>

            X509v3 Basic Constraints: critical
                CA:FALSE
            X509v3 Key Usage: 
                Digital Signature, Non Repudiation
            Netscape Cert Type: 
                SSL Server
            X509v3 Extended Key Usage: critical
                Time Stamping
    Signature Algorithm: sha256WithRSAEncryption
         9b:1f:97:a7:88:07:f4:53:b7:4d:43:75:77:27:dd:cd:24:d1:
         1a:44:80:19:fe:3a:75:38:8f:e2:81:8c:0b:78:92:54:e5:30:
         a5:0c:04:f0:7b:5c:2e:84:fc:94:a8:ef:25:81:b9:98:11:12:
         f3:b4:c6:a8:8e:62:f2:09:79:9f:20:99:09:47:7a:ce:60:28:
         59:5b:20:6b:1b:82:55:c0:06:73:c6:a2:c7:e4:a2:cd:ae:2b:
         a2:7f:35:2c:5a:fb:f8:96:fb:ea:15:6b:78:90:66:00:df:50:
         5e:ac:30:5c:f8:5a:30:ec:c9:a3:59:ac:a3:ff:ab:b5:77:2c:
         bd:5d:54:18:f0:d8:e2:52:1d:a4:1f:5d:00:bc:ec:e3:ac:9f:
         bf:db:41:fb:5c:d9:9a:05:a7:90:79:15:67:1e:b9:f1:93:61:
         a8:37:7a:c4:13:2b:f0:64:dd:8f:46:a5:b0:24:4b:43:fa:b9:
         b2:92:24:9d:3d:aa:fa:b8:50:6f:23:f8:33:b5:2e:1a:ef:ab:
         81:b9:b2:35:4d:f0:19:e1:e9:5a:c6:d9:d2:52:7c:0b:18:33:
         04:dc:d8:c5:93:4d:ad:e1:3d:e5:ea:e3:c3:00:09:de:52:88:
         d0:a1:2c:8e:be:5d:44:d6:27:1c:c0:bd:5f:c0:42:b1:0f:23:
         f4:52:45:4e:dc:cd:18:89:34:59:0d:69:c2:80:a9:0f:1c:a3:
         3d:74:7a:c1:a3:af:fe:1a:d3:de:14:41:2a:55:6a:0c:c8:6c:
         bb:1c:ad:e4:c3:c7:9e:71:14:cb:52:65:a2:e3:8c:57:51:c4:
         85:7c:03:1d:66:16:ad:88:78:17:33:b0:81:3a:bf:23:fd:70:
         82:12:7f:f6:ad:ee:91:49:f1:88:33:ec:61:74:d9:f4:b2:06:
         72:b3:59:bc:70:c7:45:c0:b3:46:06:fb:a6:2f:3f:de:1c:72:
         87:eb:83:7f:42:b9:a4:dc:b1:61:7c:a8:34:5f:40:62:06:44:
         cb:4b:f0:32:06:0e:b3:0f:6e:f4:6f:91:64:8d:27:fd:29:ae:
         af:41:19:f4:8a:0d:74:00:21:e3:12:f4:81:72:ca:91:38:e0:
         61:06:33:8c:ba:d9:0b:25:a2:32:e3:d0:97:56:98:4d:2c:3b:
         ca:0b:88:8b:9b:bd:d5:c9:39:d5:e5:e9:e1:9b:40:1b:dc:40:
         fd:d8:3e:e0:fe:c1:ca:96:a1:4c:49:e5:6b:b5:08:1a:1c:c5:
         bb:c2:10:6d:e0:15:68:94:60:1d:c6:93:7a:3f:bc:11:1e:64:
         93:16:b8:59:0c:dd:4c:c6:00:01:0f:b2:84:ff:7f:2d:e6:8c:
         ee:9a:71:e8:7e:6f:d4:cc
-----BEGIN CERTIFICATE-----
MIIGgzCCBGugAwIBAgICANkwDQYJKoZIhvcNAQELBQAweDELMAkGA1UEBhMCZnIx
DDAKBgNVBAgMA2lkZjEOMAwGA1UEBwwFcGFyaXMxDjAMBgNVBAoMBXZpdGFtMRQw
EgYDVQQLDAthdXRob3JpdGllczElMCMGA1UEAwwcY2FfaW50ZXJtZWRpYXRlX3Rp
bWVzdGFtcGluZzAeFw0yMTExMTAxNDM1NDlaFw0yNDExMDkxNDM1NDlaMFQxCzAJ
BgNVBAYTAmZyMQwwCgYDVQQIDANpZGYxDjAMBgNVBAcMBXBhcmlzMQ4wDAYDVQQK
DAV2aXRhbTEXMBUGA1UEAwwOc2VjdXJlLXN0b3JhZ2UwggIiMA0GCSqGSIb3DQEB
AQUAA4ICDwAwggIKAoICAQC0//W52QXqvwnPFWcajzjWL8J8nkyqJbBY2uUPnX2o
GtibMqCMH7GwYibm5qMMiM0lzNeTehi2y5uE8WWUjuM/i0X+STot40KE83BS+OnQ
kzZ66xBo/tVdGU4XC6SDQy3pFteizjvitUS1g2j8i1myD7PRX7SkemDNhOgqtYL6
+hBspo55sXCm6s9YBVqymoKmZXq65bDbhD7TwPaIaLeCijznEztttIBF+z6o2HRX
Vqb59tc6YQ4KU3GFtVgW4qwR95mh/UXkSpaymwtQB7y+y4DVnplJLcS6AXAS65SY
RiSI1zQriuNuv9CJk5cKoMAQ84SlYEW7qXHAymB5IvMKFE7dndRzdifBa4jCq+B5
f6L6w1SR664X/H3e+7mzxdF5yZuB89E41IsxdkHJKhGBiRxQXXNIhaWyQu0oejQ5
pYv1PQCIlgWflRuKZv3pIxpyOcj19TMjgFIc3MkNJMLkH6/HvXLyOhv+xMSFMPN6
uHr9fHZu/YR6LWlfvR4ZJjKoIRhzsYyeDZeq4SdC3X5UktFFQaAD/44yETG2hR8z
G2p4OVIdF8lvLwaBZN4T11zOrOPHfDicQM5Ur2mQg7g1RCBlOa1idVN8jLhaySEF
k9cdDtD/VCAqF+P35ZwELJ1myC+dobi6+RjW5Tkvsbv2HRY7wB6ke6LaEO3DBVOJ
gQIDAQABo4IBOTCCATUwJQYJYIZIAYb4QgENBBgWFkNlcnRpZmljYXQgU2VydmV1
ciBTU0wwHQYDVR0OBBYEFN6USfumb47s7ZiwDRFNeHMdiuFzMIGbBgNVHSMEgZMw
gZCAFJOCexCQcpnN7dyVz+U6+dlFPW+hoXSkcjBwMQswCQYDVQQGEwJmcjEMMAoG
A1UECAwDaWRmMQ4wDAYDVQQHDAVwYXJpczEOMAwGA1UECgwFdml0YW0xFDASBgNV
BAsMC2F1dGhvcml0aWVzMR0wGwYDVQQDDBRjYV9yb290X3RpbWVzdGFtcGluZ4IC
ANMwCQYDVR0SBAIwADAMBgNVHRMBAf8EAjAAMAsGA1UdDwQEAwIGwDARBglghkgB
hvhCAQEEBAMCBkAwFgYDVR0lAQH/BAwwCgYIKwYBBQUHAwgwDQYJKoZIhvcNAQEL
BQADggIBAJsfl6eIB/RTt01DdXcn3c0k0RpEgBn+OnU4j+KBjAt4klTlMKUMBPB7
XC6E/JSo7yWBuZgREvO0xqiOYvIJeZ8gmQlHes5gKFlbIGsbglXABnPGosfkos2u
K6J/NSxa+/iW++oVa3iQZgDfUF6sMFz4WjDsyaNZrKP/q7V3LL1dVBjw2OJSHaQf
XQC87OOsn7/bQftc2ZoFp5B5FWceufGTYag3esQTK/Bk3Y9GpbAkS0P6ubKSJJ09
qvq4UG8j+DO1Lhrvq4G5sjVN8Bnh6VrG2dJSfAsYMwTc2MWTTa3hPeXq48MACd5S
iNChLI6+XUTWJxzAvV/AQrEPI/RSRU7czRiJNFkNacKAqQ8coz10esGjr/4a094U
QSpVagzIbLscreTDx55xFMtSZaLjjFdRxIV8Ax1mFq2IeBczsIE6vyP9cIISf/at
7pFJ8Ygz7GF02fSyBnKzWbxwx0XAs0YG+6YvP94ccofrg39CuaTcsWF8qDRfQGIG
RMtL8DIGDrMPbvRvkWSNJ/0prq9BGfSKDXQAIeMS9IFyypE44GEGM4y62QslojLj
0JdWmE0sO8oLiIubvdXJOdXl6eGbQBvcQP3YPuD+wcqWoUxJ5Wu1CBocxbvCEG3g
FWiUYB3Gk3o/vBEeZJMWuFkM3UzGAAEPsoT/fy3mjO6aceh+b9TM
-----END CERTIFICATE-----
