Certificate:
    Data:
        Version: 3 (0x2)
        Serial Number: 212 (0xd4)
        Signature Algorithm: sha256WithRSAEncryption
        Issuer: C=fr, ST=idf, L=paris, O=vitam, OU=authorities, CN=ca_intermediate_timestamping
        Validity
            Not Before: Sep 15 13:01:07 2020 GMT
            Not After : Dec 31 23:59:59 9999 GMT
        Subject: C=fr, ST=idf, L=paris, O=vitam, CN=secure-logbook
        Subject Public Key Info:
            Public Key Algorithm: rsaEncryption
                RSA Public-Key: (4096 bit)
                Modulus:
                    00:d4:a7:65:b5:5a:98:d4:ec:29:0c:f0:ef:e3:ed:
                    34:18:e2:05:22:12:44:32:20:c4:42:6f:d8:cb:7e:
                    7a:ce:2e:8f:44:6e:51:3b:6f:bd:71:73:4a:a4:4b:
                    06:83:c2:0f:46:d3:44:f1:63:49:7b:80:0a:8d:52:
                    2b:67:04:4e:96:36:59:28:9a:26:79:4e:c7:82:f0:
                    d4:0e:d6:3c:6f:89:a8:87:1f:97:90:ad:c8:c7:18:
                    9c:67:ea:54:f2:33:ab:3d:ca:8f:a1:03:28:9a:c1:
                    2e:3c:8f:81:ff:0f:c4:98:0e:e2:0f:a0:86:66:9a:
                    79:88:06:a0:cf:d5:19:6c:54:ef:2b:e4:51:a9:7e:
                    44:72:68:43:da:d4:d6:e0:40:bf:77:0f:71:1c:35:
                    71:37:9d:a9:e8:69:48:a1:f7:15:d8:ed:dc:d6:b0:
                    d3:37:cf:56:33:45:03:fc:a1:6a:f0:79:28:dc:6b:
                    54:53:20:fe:e1:fc:19:3c:07:f4:ec:64:a3:cd:ac:
                    5f:dc:28:d4:9b:94:cf:45:98:fc:09:0d:74:10:65:
                    75:04:40:e0:4c:c5:7d:91:21:ae:4c:8b:a1:04:46:
                    6c:f3:92:e8:2e:90:34:6d:e0:be:57:5a:7b:25:fa:
                    11:ea:b8:69:f5:65:dc:c4:c5:bb:84:ed:47:0f:e0:
                    c6:7a:6d:b6:69:73:62:f7:91:5e:fe:cc:53:d7:3f:
                    6e:6b:26:80:65:92:f6:42:88:e6:54:40:16:04:ac:
                    e8:76:8c:af:fa:3b:48:8f:36:29:67:16:0c:a1:99:
                    9d:43:c5:ee:98:b3:2b:27:4e:18:45:bb:89:18:8b:
                    11:91:35:b0:3f:8e:6e:03:7f:4c:db:99:28:3c:56:
                    93:b0:e4:17:68:f9:bd:f5:7f:12:23:3f:1c:9d:11:
                    07:5f:ef:51:97:a9:b1:63:83:65:2a:b6:88:bb:e6:
                    d1:6a:ee:be:d6:bc:b4:77:e9:cc:72:b7:4c:50:2a:
                    69:0a:a4:33:93:9c:4e:34:40:c5:77:ac:a5:d3:dc:
                    33:09:2c:e0:e5:56:39:54:dc:3c:8f:1a:14:4a:12:
                    4e:09:75:d1:ec:1b:b4:cd:48:3b:7a:6e:84:a2:2f:
                    98:6b:b0:e2:13:e4:c6:30:15:48:34:54:31:b6:af:
                    52:fb:c1:85:47:eb:4f:c3:0f:21:26:87:0a:31:45:
                    a6:f4:db:b2:45:a6:91:7c:4e:e5:37:fd:4d:80:7d:
                    d3:eb:be:ea:a4:df:94:f9:01:0f:4f:19:c6:36:5b:
                    1c:45:9e:b1:01:3d:85:57:d7:19:ae:d8:79:31:6f:
                    3b:f8:8d:da:1e:6d:ad:23:50:9c:53:14:8a:64:d2:
                    c0:f1:55
                Exponent: 65537 (0x10001)
        X509v3 extensions:
            Netscape Comment: 
                Certificat Serveur SSL
            X509v3 Subject Key Identifier: 
                26:6A:06:DB:46:5E:FF:1D:92:E8:C2:3F:75:A5:23:9E:8B:AF:3A:ED
            X509v3 Authority Key Identifier: 
                keyid:93:82:7B:10:90:72:99:CD:ED:DC:95:CF:E5:3A:F9:D9:45:3D:6F:A1
                DirName:/C=fr/ST=idf/L=paris/O=vitam/OU=authorities/CN=ca_root_timestamping
                serial:D3

            X509v3 Issuer Alternative Name: 
                <EMPTY>

            X509v3 Basic Constraints: critical
                CA:FALSE
            X509v3 Key Usage: 
                Digital Signature, Non Repudiation
            Netscape Cert Type: 
                SSL Server
            X509v3 Extended Key Usage: critical
                Time Stamping
    Signature Algorithm: sha256WithRSAEncryption
         9b:df:a3:32:b8:e0:83:44:9a:fd:57:65:75:f5:7b:b0:d0:60:
         c7:a5:81:64:c3:f0:39:7d:8a:76:7f:e4:bc:56:e3:c3:88:a8:
         ac:84:ef:0d:ff:b7:61:c5:89:d0:fa:f2:a6:64:05:38:5c:3c:
         4f:8f:43:fb:37:29:71:1e:60:bc:b0:2d:99:8d:c7:92:18:f1:
         ab:70:0a:71:ad:99:56:7f:06:45:06:dc:e5:6d:73:59:3e:dc:
         e2:bb:c6:7a:95:1a:02:37:13:75:22:cc:ff:ef:65:18:05:ec:
         39:b9:fd:c8:9d:6b:64:fe:be:0c:03:27:1c:64:49:60:6c:72:
         4e:9b:5e:07:4c:50:3b:5e:25:af:0c:3c:3b:de:b7:86:27:51:
         70:1f:40:3b:2c:ae:31:d4:ab:69:6c:5f:b2:bb:d1:e8:29:2a:
         2a:11:4d:97:cf:90:5c:96:30:27:8f:a2:2d:2e:b8:fe:7b:c2:
         7b:8e:fa:ea:9b:ad:eb:37:4c:e8:13:d9:be:7c:a1:9c:4d:a4:
         59:a9:d8:3f:c3:53:7d:ea:c0:72:71:4a:34:5d:7c:88:3c:7e:
         87:d2:a5:a0:d3:d2:38:64:55:64:1f:ca:7c:f8:47:8a:3b:4a:
         72:1a:53:9b:30:72:93:4c:55:8a:43:68:36:eb:f4:ab:26:2f:
         e0:81:4f:6a:79:61:cb:2b:26:08:54:43:0c:e1:46:7d:32:c3:
         61:a5:f9:b0:2f:ec:29:90:e8:80:44:75:9f:bb:21:db:fc:7c:
         4e:82:f7:29:9c:9c:0d:60:40:bc:aa:43:a2:50:a4:f1:76:a2:
         a4:e0:1b:0c:06:3e:c1:cb:38:56:5f:c8:2e:d8:a2:03:ca:16:
         b5:f8:83:91:0f:fa:5f:38:24:d7:8e:5e:5e:94:e4:64:d1:f1:
         77:a8:5f:79:f3:31:b2:eb:b7:d4:42:80:20:1d:70:a9:70:4f:
         26:4f:52:98:13:ee:e0:64:49:30:8d:ab:38:b0:a8:1a:65:0b:
         4d:7b:59:79:81:c6:e2:94:46:a5:eb:dd:10:1d:f1:bd:b3:1a:
         0f:47:7b:92:f5:c9:66:b0:7b:7e:b8:cd:0e:40:5e:14:0a:f5:
         f5:11:6c:15:60:15:a8:42:8d:cd:a4:f3:8b:68:6f:dc:6a:28:
         31:a1:f7:ed:7b:77:04:70:53:bc:0a:28:01:69:32:1f:49:cb:
         af:47:f0:ba:03:19:c0:9f:29:fe:3d:84:90:ba:be:26:3a:78:
         18:7c:52:74:40:05:a5:5e:ea:f8:74:21:a0:fd:37:03:9c:a9:
         ed:36:8c:5d:d0:1d:39:06:3d:16:cd:1f:56:f6:ee:dd:d4:11:
         47:a2:d6:62:68:95:df:1f
-----BEGIN CERTIFICATE-----
MIIGhTCCBG2gAwIBAgICANQwDQYJKoZIhvcNAQELBQAweDELMAkGA1UEBhMCZnIx
DDAKBgNVBAgMA2lkZjEOMAwGA1UEBwwFcGFyaXMxDjAMBgNVBAoMBXZpdGFtMRQw
EgYDVQQLDAthdXRob3JpdGllczElMCMGA1UEAwwcY2FfaW50ZXJtZWRpYXRlX3Rp
bWVzdGFtcGluZzAgFw0yMDA5MTUxMzAxMDdaGA85OTk5MTIzMTIzNTk1OVowVDEL
MAkGA1UEBhMCZnIxDDAKBgNVBAgMA2lkZjEOMAwGA1UEBwwFcGFyaXMxDjAMBgNV
BAoMBXZpdGFtMRcwFQYDVQQDDA5zZWN1cmUtbG9nYm9vazCCAiIwDQYJKoZIhvcN
AQEBBQADggIPADCCAgoCggIBANSnZbVamNTsKQzw7+PtNBjiBSISRDIgxEJv2Mt+
es4uj0RuUTtvvXFzSqRLBoPCD0bTRPFjSXuACo1SK2cETpY2WSiaJnlOx4Lw1A7W
PG+JqIcfl5CtyMcYnGfqVPIzqz3Kj6EDKJrBLjyPgf8PxJgO4g+ghmaaeYgGoM/V
GWxU7yvkUal+RHJoQ9rU1uBAv3cPcRw1cTedqehpSKH3Fdjt3Naw0zfPVjNFA/yh
avB5KNxrVFMg/uH8GTwH9Oxko82sX9wo1JuUz0WY/AkNdBBldQRA4EzFfZEhrkyL
oQRGbPOS6C6QNG3gvldaeyX6Eeq4afVl3MTFu4TtRw/gxnpttmlzYveRXv7MU9c/
bmsmgGWS9kKI5lRAFgSs6HaMr/o7SI82KWcWDKGZnUPF7pizKydOGEW7iRiLEZE1
sD+ObgN/TNuZKDxWk7DkF2j5vfV/EiM/HJ0RB1/vUZepsWODZSq2iLvm0Wruvta8
tHfpzHK3TFAqaQqkM5OcTjRAxXespdPcMwks4OVWOVTcPI8aFEoSTgl10ewbtM1I
O3puhKIvmGuw4hPkxjAVSDRUMbavUvvBhUfrT8MPISaHCjFFpvTbskWmkXxO5Tf9
TYB90+u+6qTflPkBD08ZxjZbHEWesQE9hVfXGa7YeTFvO/iN2h5trSNQnFMUimTS
wPFVAgMBAAGjggE5MIIBNTAlBglghkgBhvhCAQ0EGBYWQ2VydGlmaWNhdCBTZXJ2
ZXVyIFNTTDAdBgNVHQ4EFgQUJmoG20Ze/x2S6MI/daUjnouvOu0wgZsGA1UdIwSB
kzCBkIAUk4J7EJBymc3t3JXP5Tr52UU9b6GhdKRyMHAxCzAJBgNVBAYTAmZyMQww
CgYDVQQIDANpZGYxDjAMBgNVBAcMBXBhcmlzMQ4wDAYDVQQKDAV2aXRhbTEUMBIG
A1UECwwLYXV0aG9yaXRpZXMxHTAbBgNVBAMMFGNhX3Jvb3RfdGltZXN0YW1waW5n
ggIA0zAJBgNVHRIEAjAAMAwGA1UdEwEB/wQCMAAwCwYDVR0PBAQDAgbAMBEGCWCG
SAGG+EIBAQQEAwIGQDAWBgNVHSUBAf8EDDAKBggrBgEFBQcDCDANBgkqhkiG9w0B
AQsFAAOCAgEAm9+jMrjgg0Sa/VdldfV7sNBgx6WBZMPwOX2Kdn/kvFbjw4iorITv
Df+3YcWJ0PrypmQFOFw8T49D+zcpcR5gvLAtmY3Hkhjxq3AKca2ZVn8GRQbc5W1z
WT7c4rvGepUaAjcTdSLM/+9lGAXsObn9yJ1rZP6+DAMnHGRJYGxyTpteB0xQO14l
rww8O963hidRcB9AOyyuMdSraWxfsrvR6CkqKhFNl8+QXJYwJ4+iLS64/nvCe476
6put6zdM6BPZvnyhnE2kWanYP8NTferAcnFKNF18iDx+h9KloNPSOGRVZB/KfPhH
ijtKchpTmzByk0xVikNoNuv0qyYv4IFPanlhyysmCFRDDOFGfTLDYaX5sC/sKZDo
gER1n7sh2/x8ToL3KZycDWBAvKpDolCk8XaipOAbDAY+wcs4Vl/ILtiiA8oWtfiD
kQ/6Xzgk145eXpTkZNHxd6hfefMxsuu31EKAIB1wqXBPJk9SmBPu4GRJMI2rOLCo
GmULTXtZeYHG4pRGpevdEB3xvbMaD0d7kvXJZrB7frjNDkBeFAr19RFsFWAVqEKN
zaTzi2hv3GooMaH37Xt3BHBTvAooAWkyH0nLr0fwugMZwJ8p/j2EkLq+Jjp4GHxS
dEAFpV7q+HQhoP03A5yp7TaMXdAdOQY9Fs0fVvbu3dQRR6LWYmiV3x8=
-----END CERTIFICATE-----
