Certificate:
    Data:
        Version: 3 (0x2)
        Serial Number: 208 (0xd0)
    Signature Algorithm: sha256WithRSAEncryption
        Issuer: C=fr, ST=idf, L=paris, O=vitam, OU=authorities, CN=ca_intermediate_timestamping
        Validity
            Not Before: Oct 19 08:40:59 2018 GMT
            Not After : Oct 18 08:40:59 2021 GMT
        Subject: C=fr, ST=idf, L=paris, O=vitam, CN=secure-logbook
        Subject Public Key Info:
            Public Key Algorithm: rsaEncryption
                Public-Key: (4096 bit)
                Modulus:
                    00:a8:0c:62:66:0f:ac:11:f2:ae:4d:6a:6b:de:e8:
                    12:97:4e:13:8e:fd:a7:bb:72:b9:73:20:71:56:e4:
                    19:6a:ee:1c:ea:e5:db:40:f3:ed:04:b9:aa:4e:f9:
                    77:ac:b4:a9:25:96:11:38:2c:45:ba:2e:5c:74:d9:
                    3e:1d:2c:7b:7d:13:bd:17:b2:0e:97:78:9b:9c:2c:
                    e4:c3:11:13:0f:48:48:82:e1:de:47:ad:b4:e2:52:
                    2c:3f:4b:00:ca:0b:63:91:bd:98:2b:19:f1:b3:7b:
                    fa:8f:e8:d0:09:97:ec:ed:22:44:33:f5:60:40:4d:
                    17:c8:6c:d4:e1:13:69:a7:54:89:7d:b9:fb:33:cc:
                    e6:fc:65:92:22:67:7b:80:ff:16:10:0b:b2:52:b5:
                    85:18:19:b7:f5:f3:e8:24:8f:e8:e9:8d:8f:41:3f:
                    6b:52:78:33:cf:5b:99:ec:19:bc:2a:e0:f9:e0:1e:
                    61:b7:bb:30:fe:39:51:bc:a7:68:5e:35:da:41:e8:
                    1b:b0:05:6a:ea:7f:6f:d7:23:c6:43:dc:ff:c0:c9:
                    9f:64:40:2d:f4:13:40:60:65:bc:bd:41:67:d2:76:
                    f0:8c:23:d0:b0:70:c4:c2:1e:73:26:61:d8:a1:1b:
                    77:61:f0:a8:12:46:3b:41:26:1c:94:6a:7d:bb:7f:
                    4e:28:01:74:ca:ff:bb:c9:ef:1b:e1:a0:d8:b4:c6:
                    b9:4d:71:bc:39:f4:c2:51:3b:cb:27:28:04:83:03:
                    89:08:53:ce:57:d4:e7:e6:08:6d:6b:51:d4:d0:4a:
                    4b:5c:31:87:0b:27:4d:50:8a:02:f2:1b:cf:86:9a:
                    3e:0a:e9:18:e5:ba:5c:b5:d0:4f:8e:70:67:ff:4a:
                    ba:22:af:63:c6:ea:92:c5:77:54:98:31:2c:15:9f:
                    1a:3c:4b:d6:67:33:60:4c:16:03:71:e4:b4:58:b1:
                    f3:f3:72:ec:3c:07:5e:f1:db:87:99:38:8a:15:dd:
                    48:f2:5f:d2:a9:5d:47:ce:fe:4c:5c:17:14:43:cd:
                    f6:f8:70:f0:e9:c9:5f:b2:d8:e8:f7:f6:d6:f4:da:
                    77:32:ca:93:be:c8:51:95:50:d4:e2:3b:00:c3:f0:
                    62:df:db:2b:4c:41:23:5b:1b:b1:aa:07:5a:9e:47:
                    0f:7a:a4:29:ec:ac:49:e5:75:1d:a2:6b:a6:b2:0f:
                    31:c8:b8:0e:39:8d:85:6a:a6:28:e9:b9:0a:a0:b9:
                    06:f9:fe:d8:3e:c9:0a:ad:3f:c3:45:83:58:99:b7:
                    4b:1a:52:7d:8b:06:71:b7:83:57:f4:dc:ee:93:09:
                    6b:1a:7b:0a:5e:90:bd:98:5f:00:83:4a:cd:f6:d5:
                    98:94:25
                Exponent: 65537 (0x10001)
        X509v3 extensions:
            Netscape Comment: 
                Certificat Serveur SSL
            X509v3 Subject Key Identifier: 
                CC:6E:D1:CC:E6:65:2C:F2:71:AF:CD:40:75:92:C0:63:AC:EA:88:2A
            X509v3 Authority Key Identifier: 
                keyid:AC:C1:D7:5A:8E:79:56:51:EC:00:1F:72:0B:C9:3F:D1:C5:5F:3D:01
                DirName:/C=fr/ST=idf/L=paris/O=vitam/OU=authorities/CN=ca_root_timestamping
                serial:CF

            X509v3 Issuer Alternative Name: 
                <EMPTY>

            X509v3 Basic Constraints: critical
                CA:FALSE
            X509v3 Key Usage: 
                Digital Signature, Non Repudiation
            Netscape Cert Type: 
                SSL Server
            X509v3 Extended Key Usage: critical
                Time Stamping
    Signature Algorithm: sha256WithRSAEncryption
         91:8d:89:ba:d4:6d:52:c3:6f:5a:38:dc:ad:9f:96:06:ec:bf:
         18:23:8f:31:98:8b:50:7f:f2:86:75:bd:bc:b4:0a:56:c6:c3:
         43:74:b5:70:0d:67:74:0a:4a:2b:ed:43:0e:a7:56:81:62:25:
         eb:5d:47:ea:84:9d:2b:50:f1:eb:54:00:5f:8c:27:70:41:47:
         7f:3e:91:09:dc:a4:b5:fc:1d:e9:bd:a8:08:78:72:21:2d:1e:
         52:30:ca:cf:14:15:c3:df:15:9d:47:c9:22:e0:ec:70:d0:c9:
         f2:e7:da:1f:07:d3:dd:12:27:3b:ca:4e:67:7e:92:64:72:1c:
         f1:ec:30:71:d9:f5:36:80:3d:7e:82:75:49:f8:19:83:ac:81:
         aa:2f:68:ed:b3:36:83:60:66:db:06:25:af:44:d2:e2:da:33:
         3d:00:04:47:b8:8d:4d:bf:78:82:09:e6:ea:96:43:3e:82:aa:
         8c:41:9d:a5:12:a3:a6:16:f5:13:d0:ae:ad:18:ef:e4:b7:17:
         15:58:1b:bb:5e:21:89:b6:d5:b1:d0:4f:78:47:25:e0:cc:0c:
         ec:e0:36:ce:31:40:51:b2:41:ee:ed:54:97:24:d1:31:d2:7b:
         20:37:01:92:22:65:b4:82:e9:59:d7:cd:74:7a:17:e5:09:a4:
         3b:00:a9:81:12:9b:02:91:1e:ad:3f:7c:75:3d:67:9b:a8:e2:
         aa:bb:2c:1d:4e:2a:d3:3c:93:58:7b:76:28:64:de:83:37:7b:
         65:a4:61:52:65:15:9f:ed:af:09:75:f8:28:d9:7f:01:1a:24:
         33:00:d5:70:96:7a:c1:db:85:25:68:61:3a:11:bc:d9:6e:ea:
         2c:3e:d2:f5:0c:ca:01:9e:f1:56:f4:2e:fe:88:6e:c5:61:5d:
         b9:5b:0f:2b:5c:8a:02:bc:60:0b:81:e2:f4:d3:b2:4d:dd:9c:
         b0:db:90:31:be:a8:f6:52:3b:fc:ed:ea:f3:bd:8f:80:b3:e7:
         02:64:01:57:87:66:bc:09:aa:20:67:f0:06:92:85:cb:f9:48:
         ce:10:41:ba:36:a5:89:a8:95:f3:9f:a6:b9:03:f9:22:cf:e6:
         81:5c:7a:9f:f1:0c:57:97:61:2c:7b:5d:98:ce:89:6f:5e:6e:
         17:ca:b3:3d:ab:67:a9:17:74:df:d8:33:a9:c0:17:8f:d7:b3:
         1d:ce:6b:9c:b2:58:67:cf:57:19:a9:6b:07:63:7e:7d:49:38:
         12:6f:02:b5:8d:97:ff:6c:f9:b2:92:9c:9f:10:29:bb:55:07:
         2b:4b:b3:ce:ed:aa:34:e0:78:57:8f:b9:95:73:d7:7f:4d:24:
         33:42:af:40:18:f6:c6:8d
-----BEGIN CERTIFICATE-----
MIIGgzCCBGugAwIBAgICANAwDQYJKoZIhvcNAQELBQAweDELMAkGA1UEBhMCZnIx
DDAKBgNVBAgMA2lkZjEOMAwGA1UEBwwFcGFyaXMxDjAMBgNVBAoMBXZpdGFtMRQw
EgYDVQQLDAthdXRob3JpdGllczElMCMGA1UEAwwcY2FfaW50ZXJtZWRpYXRlX3Rp
bWVzdGFtcGluZzAeFw0xODEwMTkwODQwNTlaFw0yMTEwMTgwODQwNTlaMFQxCzAJ
BgNVBAYTAmZyMQwwCgYDVQQIDANpZGYxDjAMBgNVBAcMBXBhcmlzMQ4wDAYDVQQK
DAV2aXRhbTEXMBUGA1UEAwwOc2VjdXJlLWxvZ2Jvb2swggIiMA0GCSqGSIb3DQEB
AQUAA4ICDwAwggIKAoICAQCoDGJmD6wR8q5Namve6BKXThOO/ae7crlzIHFW5Blq
7hzq5dtA8+0EuapO+XestKkllhE4LEW6Llx02T4dLHt9E70Xsg6XeJucLOTDERMP
SEiC4d5HrbTiUiw/SwDKC2ORvZgrGfGze/qP6NAJl+ztIkQz9WBATRfIbNThE2mn
VIl9ufszzOb8ZZIiZ3uA/xYQC7JStYUYGbf18+gkj+jpjY9BP2tSeDPPW5nsGbwq
4PngHmG3uzD+OVG8p2heNdpB6BuwBWrqf2/XI8ZD3P/AyZ9kQC30E0BgZby9QWfS
dvCMI9CwcMTCHnMmYdihG3dh8KgSRjtBJhyUan27f04oAXTK/7vJ7xvhoNi0xrlN
cbw59MJRO8snKASDA4kIU85X1OfmCG1rUdTQSktcMYcLJ01QigLyG8+Gmj4K6Rjl
uly10E+OcGf/Sroir2PG6pLFd1SYMSwVnxo8S9ZnM2BMFgNx5LRYsfPzcuw8B17x
24eZOIoV3UjyX9KpXUfO/kxcFxRDzfb4cPDpyV+y2Oj39tb02ncyypO+yFGVUNTi
OwDD8GLf2ytMQSNbG7GqB1qeRw96pCnsrEnldR2ia6ayDzHIuA45jYVqpijpuQqg
uQb5/tg+yQqtP8NFg1iZt0saUn2LBnG3g1f03O6TCWsaewpekL2YXwCDSs321ZiU
JQIDAQABo4IBOTCCATUwJQYJYIZIAYb4QgENBBgWFkNlcnRpZmljYXQgU2VydmV1
ciBTU0wwHQYDVR0OBBYEFMxu0czmZSzyca/NQHWSwGOs6ogqMIGbBgNVHSMEgZMw
gZCAFKzB11qOeVZR7AAfcgvJP9HFXz0BoXSkcjBwMQswCQYDVQQGEwJmcjEMMAoG
A1UECAwDaWRmMQ4wDAYDVQQHDAVwYXJpczEOMAwGA1UECgwFdml0YW0xFDASBgNV
BAsMC2F1dGhvcml0aWVzMR0wGwYDVQQDDBRjYV9yb290X3RpbWVzdGFtcGluZ4IC
AM8wCQYDVR0SBAIwADAMBgNVHRMBAf8EAjAAMAsGA1UdDwQEAwIGwDARBglghkgB
hvhCAQEEBAMCBkAwFgYDVR0lAQH/BAwwCgYIKwYBBQUHAwgwDQYJKoZIhvcNAQEL
BQADggIBAJGNibrUbVLDb1o43K2flgbsvxgjjzGYi1B/8oZ1vby0ClbGw0N0tXAN
Z3QKSivtQw6nVoFiJetdR+qEnStQ8etUAF+MJ3BBR38+kQncpLX8Hem9qAh4ciEt
HlIwys8UFcPfFZ1HySLg7HDQyfLn2h8H090SJzvKTmd+kmRyHPHsMHHZ9TaAPX6C
dUn4GYOsgaovaO2zNoNgZtsGJa9E0uLaMz0ABEe4jU2/eIIJ5uqWQz6CqoxBnaUS
o6YW9RPQrq0Y7+S3FxVYG7teIYm21bHQT3hHJeDMDOzgNs4xQFGyQe7tVJck0THS
eyA3AZIiZbSC6VnXzXR6F+UJpDsAqYESmwKRHq0/fHU9Z5uo4qq7LB1OKtM8k1h7
dihk3oM3e2WkYVJlFZ/trwl1+CjZfwEaJDMA1XCWesHbhSVoYToRvNlu6iw+0vUM
ygGe8Vb0Lv6IbsVhXblbDytcigK8YAuB4vTTsk3dnLDbkDG+qPZSO/zt6vO9j4Cz
5wJkAVeHZrwJqiBn8AaShcv5SM4QQbo2pYmolfOfprkD+SLP5oFcep/xDFeXYSx7
XZjOiW9ebhfKsz2rZ6kXdN/YM6nAF4/Xsx3Oa5yyWGfPVxmpawdjfn1JOBJvArWN
l/9s+bKSnJ8QKbtVBytLs87tqjTgeFePuZVz139NJDNCr0AY9saN
-----END CERTIFICATE-----
