Certificate:
    Data:
        Version: 3 (0x2)
        Serial Number: 209 (0xd1)
    Signature Algorithm: sha256WithRSAEncryption
        Issuer: C=fr, ST=idf, L=paris, O=vitam, OU=authorities, CN=ca_intermediate_timestamping
        Validity
            Not Before: Oct 19 08:41:00 2018 GMT
            Not After : Oct 18 08:41:00 2021 GMT
        Subject: C=fr, ST=idf, L=paris, O=vitam, CN=secure-storage
        Subject Public Key Info:
            Public Key Algorithm: rsaEncryption
                Public-Key: (4096 bit)
                Modulus:
                    00:cb:45:26:0e:8e:01:f3:35:5a:ab:65:41:ec:d5:
                    88:6d:b9:00:cf:cf:0a:7f:58:ef:ab:0d:59:6a:78:
                    a1:b3:41:1f:0b:8a:f7:47:55:4c:89:ef:21:35:9b:
                    cc:7b:a3:6f:ca:27:ce:0f:d9:ad:05:18:28:c6:d3:
                    2f:c8:09:f7:66:de:f6:b7:06:f5:12:51:f5:fd:2b:
                    5c:ab:61:38:cf:89:5a:45:85:8b:de:52:8b:ac:02:
                    42:73:3e:c6:33:e8:60:23:21:b2:3f:13:40:8a:93:
                    d0:e8:fc:7d:4c:82:16:c9:bc:16:83:21:33:07:25:
                    8b:c0:db:a5:30:73:c4:20:e0:f1:23:31:d2:e7:ec:
                    d7:d0:f0:9b:7a:ff:94:29:cc:86:8d:81:a0:25:db:
                    12:50:a0:26:b3:60:75:5d:35:ce:0b:25:d6:0a:a2:
                    d7:2d:da:c9:79:f6:37:99:ae:a6:ab:eb:44:ce:0d:
                    f9:fc:2b:d7:ba:1e:76:60:f0:7c:41:f0:a5:3f:af:
                    ee:fe:74:aa:51:c6:89:ab:64:c8:69:ec:16:7b:55:
                    f1:c2:3e:d5:ee:90:a4:cb:c9:bc:29:4e:5d:15:50:
                    81:56:a2:b0:88:67:54:15:22:65:aa:c2:ca:19:3f:
                    f0:92:6f:ea:f4:57:d7:e6:00:84:b5:fe:69:84:34:
                    6d:21:d9:34:bb:36:58:cc:a8:da:0d:4a:2c:16:01:
                    47:39:f6:51:2a:23:01:05:79:7b:92:d9:bd:f0:1c:
                    f4:93:05:ce:dc:6a:af:6c:04:48:99:7e:94:b5:78:
                    ca:25:fa:d3:cc:50:84:52:21:69:38:96:d8:13:37:
                    99:c2:de:67:9a:72:4b:9c:a5:aa:c1:59:9d:75:87:
                    9c:d7:6b:0a:ac:f0:2f:7d:5d:86:2c:55:a4:8a:d2:
                    c2:0c:de:3f:6e:41:b4:1c:e7:b7:0e:b3:f7:59:ef:
                    47:8c:01:f9:47:e7:ac:f9:9e:a8:57:c0:e3:ed:70:
                    6d:be:57:22:12:c1:21:d0:6a:16:89:bb:54:d7:6a:
                    70:fe:80:62:69:ef:d1:47:6a:f4:e4:76:2b:b4:db:
                    39:9f:81:22:96:0c:55:31:cd:9d:3b:5d:52:13:50:
                    9c:86:9b:89:bf:b4:4d:c6:f3:a6:73:20:8a:e5:94:
                    f9:6a:94:35:69:7e:aa:bc:b5:be:4a:9a:eb:6e:41:
                    b3:29:e3:83:72:3d:e2:a6:2c:25:16:f6:68:71:d7:
                    f1:ac:25:b2:18:26:d1:c2:d4:00:e5:38:24:cd:2c:
                    10:81:cf:6d:fb:e6:34:d7:3a:aa:39:dd:a6:57:f8:
                    20:1b:9e:6e:a8:01:4d:a6:6e:c5:b8:81:01:0e:27:
                    e5:85:a5
                Exponent: 65537 (0x10001)
        X509v3 extensions:
            Netscape Comment: 
                Certificat Serveur SSL
            X509v3 Subject Key Identifier: 
                59:59:2D:90:94:3E:EB:F4:21:9A:5F:AC:91:C7:70:BB:36:E2:BD:40
            X509v3 Authority Key Identifier: 
                keyid:AC:C1:D7:5A:8E:79:56:51:EC:00:1F:72:0B:C9:3F:D1:C5:5F:3D:01
                DirName:/C=fr/ST=idf/L=paris/O=vitam/OU=authorities/CN=ca_root_timestamping
                serial:CF

            X509v3 Issuer Alternative Name: 
                <EMPTY>

            X509v3 Basic Constraints: critical
                CA:FALSE
            X509v3 Key Usage: 
                Digital Signature, Non Repudiation
            Netscape Cert Type: 
                SSL Server
            X509v3 Extended Key Usage: critical
                Time Stamping
    Signature Algorithm: sha256WithRSAEncryption
         8c:59:6f:04:b5:61:3c:35:ff:d7:6b:9c:41:9c:c1:a3:90:2d:
         85:45:1e:bc:f4:98:19:67:a4:cc:11:5f:64:b9:10:ce:33:aa:
         3e:a4:92:5b:ef:7b:dd:9b:f5:16:2b:26:fa:c4:6b:72:80:9d:
         3d:24:83:18:bd:11:4c:cd:b7:f1:a9:bc:99:c9:6e:64:99:cc:
         98:55:9e:ef:18:4e:7d:02:fd:be:e8:ee:f1:80:2c:53:08:22:
         c1:4e:2a:ae:ae:c8:d7:29:56:e0:f0:44:b1:c3:dc:9b:d1:b5:
         e9:10:9f:50:4e:b8:af:a4:c9:df:bd:d6:25:6f:70:e0:f8:15:
         8e:19:34:d3:c8:f0:5c:9f:67:0b:a4:34:9c:ed:5f:9a:45:77:
         dd:af:de:c6:4b:ec:d9:82:98:68:80:77:85:92:3b:d0:c3:28:
         5e:cb:a4:1e:64:17:c4:cf:3a:a4:e4:db:77:ad:ed:26:e3:f8:
         25:80:f7:33:e9:e1:3d:24:f3:a9:bf:e3:b7:d4:36:38:43:37:
         d3:90:c8:5a:fe:9d:57:f9:d2:cb:bb:e1:12:7b:3b:c2:74:1c:
         43:e8:7b:85:e7:6e:2a:c4:c0:46:16:0e:b1:04:d2:6a:ce:ce:
         7b:76:b5:a5:b1:b2:5c:50:19:f9:e6:19:1b:b4:61:ad:31:a6:
         53:5d:8e:ce:87:e3:a4:23:e3:83:8c:1f:a8:9a:42:6e:fe:64:
         11:77:bb:be:e3:01:59:6d:2e:59:51:da:28:c1:37:cc:72:36:
         7f:71:43:72:cd:b9:07:ef:18:f1:6b:9a:c9:b1:55:d1:67:b0:
         9a:96:fb:ab:44:19:66:56:46:e0:c4:40:2f:4e:fc:9e:9c:b9:
         51:c9:bd:42:10:d3:d2:fa:1d:6d:bb:20:14:f4:49:e5:c5:2b:
         5b:b9:92:64:f0:da:d7:15:fe:fa:ef:33:85:81:9c:45:d6:e7:
         dd:dd:00:3d:be:6c:63:dc:34:2a:c3:eb:f9:2f:29:fb:ae:4a:
         44:ef:5d:fd:ba:e6:bc:08:44:da:4a:aa:14:aa:b8:2f:31:22:
         83:a0:da:a2:a6:15:bf:46:49:ff:bf:fb:ab:b5:46:68:23:12:
         59:db:45:0b:c4:b1:49:06:20:c2:81:a9:ee:1f:a7:60:d6:54:
         bc:3f:1e:de:da:65:89:2d:2e:6c:30:ef:79:44:26:07:ca:99:
         aa:b7:9c:68:33:3a:72:2c:36:49:34:31:21:0a:d9:0a:dd:5d:
         8b:f9:9d:90:4a:cc:c9:ea:b2:e1:28:ab:67:5e:eb:65:fb:22:
         aa:b8:1e:c6:8e:b8:c8:8f:fe:b7:6c:f4:d6:c0:ee:65:58:67:
         90:fd:45:33:01:e1:40:16
-----BEGIN CERTIFICATE-----
MIIGgzCCBGugAwIBAgICANEwDQYJKoZIhvcNAQELBQAweDELMAkGA1UEBhMCZnIx
DDAKBgNVBAgMA2lkZjEOMAwGA1UEBwwFcGFyaXMxDjAMBgNVBAoMBXZpdGFtMRQw
EgYDVQQLDAthdXRob3JpdGllczElMCMGA1UEAwwcY2FfaW50ZXJtZWRpYXRlX3Rp
bWVzdGFtcGluZzAeFw0xODEwMTkwODQxMDBaFw0yMTEwMTgwODQxMDBaMFQxCzAJ
BgNVBAYTAmZyMQwwCgYDVQQIDANpZGYxDjAMBgNVBAcMBXBhcmlzMQ4wDAYDVQQK
DAV2aXRhbTEXMBUGA1UEAwwOc2VjdXJlLXN0b3JhZ2UwggIiMA0GCSqGSIb3DQEB
AQUAA4ICDwAwggIKAoICAQDLRSYOjgHzNVqrZUHs1YhtuQDPzwp/WO+rDVlqeKGz
QR8LivdHVUyJ7yE1m8x7o2/KJ84P2a0FGCjG0y/ICfdm3va3BvUSUfX9K1yrYTjP
iVpFhYveUousAkJzPsYz6GAjIbI/E0CKk9Do/H1MghbJvBaDITMHJYvA26Uwc8Qg
4PEjMdLn7NfQ8Jt6/5QpzIaNgaAl2xJQoCazYHVdNc4LJdYKotct2sl59jeZrqar
60TODfn8K9e6HnZg8HxB8KU/r+7+dKpRxomrZMhp7BZ7VfHCPtXukKTLybwpTl0V
UIFWorCIZ1QVImWqwsoZP/CSb+r0V9fmAIS1/mmENG0h2TS7NljMqNoNSiwWAUc5
9lEqIwEFeXuS2b3wHPSTBc7caq9sBEiZfpS1eMol+tPMUIRSIWk4ltgTN5nC3mea
ckucparBWZ11h5zXawqs8C99XYYsVaSK0sIM3j9uQbQc57cOs/dZ70eMAflH56z5
nqhXwOPtcG2+VyISwSHQahaJu1TXanD+gGJp79FHavTkdiu02zmfgSKWDFUxzZ07
XVITUJyGm4m/tE3G86ZzIIrllPlqlDVpfqq8tb5KmutuQbMp44NyPeKmLCUW9mhx
1/GsJbIYJtHC1ADlOCTNLBCBz2375jTXOqo53aZX+CAbnm6oAU2mbsW4gQEOJ+WF
pQIDAQABo4IBOTCCATUwJQYJYIZIAYb4QgENBBgWFkNlcnRpZmljYXQgU2VydmV1
ciBTU0wwHQYDVR0OBBYEFFlZLZCUPuv0IZpfrJHHcLs24r1AMIGbBgNVHSMEgZMw
gZCAFKzB11qOeVZR7AAfcgvJP9HFXz0BoXSkcjBwMQswCQYDVQQGEwJmcjEMMAoG
A1UECAwDaWRmMQ4wDAYDVQQHDAVwYXJpczEOMAwGA1UECgwFdml0YW0xFDASBgNV
BAsMC2F1dGhvcml0aWVzMR0wGwYDVQQDDBRjYV9yb290X3RpbWVzdGFtcGluZ4IC
AM8wCQYDVR0SBAIwADAMBgNVHRMBAf8EAjAAMAsGA1UdDwQEAwIGwDARBglghkgB
hvhCAQEEBAMCBkAwFgYDVR0lAQH/BAwwCgYIKwYBBQUHAwgwDQYJKoZIhvcNAQEL
BQADggIBAIxZbwS1YTw1/9drnEGcwaOQLYVFHrz0mBlnpMwRX2S5EM4zqj6kklvv
e92b9RYrJvrEa3KAnT0kgxi9EUzNt/GpvJnJbmSZzJhVnu8YTn0C/b7o7vGALFMI
IsFOKq6uyNcpVuDwRLHD3JvRtekQn1BOuK+kyd+91iVvcOD4FY4ZNNPI8FyfZwuk
NJztX5pFd92v3sZL7NmCmGiAd4WSO9DDKF7LpB5kF8TPOqTk23et7Sbj+CWA9zPp
4T0k86m/47fUNjhDN9OQyFr+nVf50su74RJ7O8J0HEPoe4XnbirEwEYWDrEE0mrO
znt2taWxslxQGfnmGRu0Ya0xplNdjs6H46Qj44OMH6iaQm7+ZBF3u77jAVltLllR
2ijBN8xyNn9xQ3LNuQfvGPFrmsmxVdFnsJqW+6tEGWZWRuDEQC9O/J6cuVHJvUIQ
09L6HW27IBT0SeXFK1u5kmTw2tcV/vrvM4WBnEXW593dAD2+bGPcNCrD6/kvKfuu
SkTvXf265rwIRNpKqhSquC8xIoOg2qKmFb9GSf+/+6u1RmgjElnbRQvEsUkGIMKB
qe4fp2DWVLw/Ht7aZYktLmww73lEJgfKmaq3nGgzOnIsNkk0MSEK2QrdXYv5nZBK
zMnqsuEoq2de62X7Iqq4HsaOuMiP/rds9NbA7mVYZ5D9RTMB4UAW
-----END CERTIFICATE-----
