Certificate:
    Data:
        Version: 3 (0x2)
        Serial Number: 219 (0xdb)
        Signature Algorithm: sha256WithRSAEncryption
        Issuer: C=fr, ST=idf, L=paris, O=vitam, OU=authorities, CN=ca_intermediate_timestamping
        Validity
            Not Before: Jan 12 16:12:58 2022 GMT
            Not After : Jan 11 16:12:58 2025 GMT
        Subject: C=fr, ST=idf, L=paris, O=vitam, CN=secure-storage
        Subject Public Key Info:
            Public Key Algorithm: rsaEncryption
                RSA Public-Key: (4096 bit)
                Modulus:
                    00:e3:ce:48:65:51:2d:85:f0:2d:92:33:1e:89:3b:
                    a0:94:5c:1b:f8:b1:d6:e2:33:eb:7b:32:5f:61:ca:
                    c6:63:22:cd:7c:f6:9c:c0:cf:87:e5:18:72:a0:31:
                    21:b2:ac:11:02:57:ab:3c:97:e4:61:2e:98:cc:70:
                    ef:1d:e4:bc:78:0a:0d:29:8b:35:33:5a:e8:e0:cd:
                    b1:72:f7:9f:b9:01:5d:07:4f:6f:a2:e3:2d:f5:5f:
                    57:6c:b0:e8:24:a5:48:c9:bf:3a:09:8a:ce:f6:42:
                    8a:ee:7b:b0:cd:4f:94:6a:d1:9b:b2:25:ca:a4:73:
                    e6:af:e3:5c:9a:58:76:f8:0a:e4:9e:8b:82:76:5d:
                    2d:e0:55:6b:5b:b6:b6:3b:af:6e:19:64:ce:b7:08:
                    c9:cc:07:e9:f6:9d:c6:2e:a9:ba:6a:d7:fa:c3:0d:
                    8e:c3:6f:38:df:35:52:be:d7:1c:63:b3:e3:8e:d0:
                    37:96:2f:65:20:e8:66:e1:67:3d:f6:e4:e5:9d:86:
                    6a:ab:ec:59:88:e3:ae:d3:7c:c4:10:31:e2:49:fa:
                    7f:38:07:03:4f:c6:27:1a:ee:da:9d:14:4b:e3:f0:
                    e9:91:68:66:22:6f:d6:f0:fe:ae:86:62:42:a2:52:
                    eb:54:49:53:f4:4a:46:1b:4b:3b:0e:a5:f7:52:fc:
                    eb:f5:bc:d4:ab:0c:8a:f3:17:ae:4b:ca:60:79:44:
                    7a:1e:56:91:90:69:27:1e:60:02:e0:8c:c1:21:71:
                    6f:17:6f:e3:e9:93:62:07:ba:9c:0f:9e:6f:b8:83:
                    13:2b:da:24:25:eb:26:40:8b:7e:31:87:74:9d:95:
                    dc:75:1d:47:76:23:b0:b4:98:3b:e2:f8:c1:28:ad:
                    1b:ae:aa:10:0b:82:e6:8f:b5:cf:62:52:90:19:77:
                    ed:94:e1:3e:5e:a8:ab:0b:4c:44:5e:d1:40:5b:b6:
                    a4:16:12:8e:8d:00:9d:04:84:2a:74:80:96:ba:ba:
                    1e:d5:93:74:74:a9:e7:97:e2:53:36:b2:8f:48:1d:
                    e9:54:fe:5f:78:54:ae:7f:62:cf:00:10:58:c9:72:
                    a9:8c:80:55:8f:4a:4a:ed:e8:ac:39:fd:3f:97:49:
                    1f:a0:72:7f:7b:68:c1:cb:57:82:d6:2e:55:50:9a:
                    e1:b1:fa:56:14:d5:27:4f:72:1d:43:00:dc:0e:c5:
                    cb:6e:e7:14:f0:81:ac:85:e4:29:8d:4a:a2:40:1a:
                    80:09:12:c6:7d:3c:f8:5e:bb:e0:b6:10:91:ea:c0:
                    e0:59:31:f2:36:7c:fb:b8:60:23:4a:72:a1:25:b5:
                    3f:00:1b:cb:e4:90:4d:86:e6:78:b5:2b:71:7d:9b:
                    bc:c6:6b
                Exponent: 65537 (0x10001)
        X509v3 extensions:
            Netscape Comment: 
                Certificat Serveur SSL
            X509v3 Subject Key Identifier: 
                DC:EE:06:EE:97:FA:3D:1C:5D:EF:1C:40:10:08:86:7E:A3:61:25:3E
            X509v3 Authority Key Identifier: 
                keyid:93:82:7B:10:90:72:99:CD:ED:DC:95:CF:E5:3A:F9:D9:45:3D:6F:A1
                DirName:/C=fr/ST=idf/L=paris/O=vitam/OU=authorities/CN=ca_root_timestamping
                serial:D3

            X509v3 Issuer Alternative Name: 
                <EMPTY>

            X509v3 Basic Constraints: critical
                CA:FALSE
            X509v3 Key Usage: 
                Digital Signature, Non Repudiation
            Netscape Cert Type: 
                SSL Server
            X509v3 Extended Key Usage: critical
                Time Stamping
    Signature Algorithm: sha256WithRSAEncryption
         17:38:54:69:ea:d3:de:cb:c3:85:e8:05:99:50:b9:aa:e6:08:
         9f:22:2a:2e:db:33:ef:e4:ec:f2:c5:14:9c:c6:a1:05:54:01:
         d4:4f:54:fa:aa:cf:df:b0:9d:85:92:02:73:f1:70:fb:84:e3:
         2e:2f:63:27:43:fb:3b:b8:21:d3:d4:aa:9f:77:a5:c3:8b:62:
         54:9a:0d:a2:d5:76:70:83:6f:5c:4a:5a:32:50:fe:89:ad:ac:
         05:cb:7f:98:b7:c4:de:ef:73:5d:0a:3a:eb:a9:fd:13:75:e1:
         b2:69:ec:78:90:f7:5d:45:b6:4c:a1:3c:71:00:97:71:29:02:
         5e:58:12:b2:b1:fd:1c:db:56:79:8f:5b:31:38:e9:88:b0:cb:
         4a:b2:2b:b0:b2:e4:ec:74:52:6c:21:b8:75:9c:dc:90:47:ef:
         73:c6:95:96:76:df:66:33:3d:bf:a1:a3:08:8c:ab:8d:7f:e7:
         af:f3:5f:5a:6d:1c:e9:c5:89:ac:8b:0a:85:8c:29:d5:3f:7a:
         83:fe:ba:76:11:b2:0f:24:89:45:ea:da:14:a9:7f:6a:87:54:
         1f:44:ad:b4:f0:2e:66:09:03:86:dd:8c:9d:c7:21:9e:04:51:
         cf:53:63:e9:e7:ce:8b:d7:8c:8f:37:26:39:c3:1f:af:cf:bf:
         4e:c8:f5:52:7f:88:0a:7a:8f:ff:b3:31:2c:a6:e0:06:39:4d:
         7b:c9:81:29:17:93:ef:1f:fb:47:8c:69:fe:51:e1:a9:73:f9:
         ac:4e:23:76:af:1c:0a:33:ee:1d:af:63:7e:14:f9:b3:e7:3d:
         7c:fd:f4:1e:ac:0f:04:17:06:70:a8:ad:e0:b1:40:4a:a2:ea:
         e0:cf:85:c9:12:49:97:16:92:55:35:fd:31:bb:9b:d1:f0:78:
         77:1e:e8:b8:a3:5a:4a:3d:4e:84:9e:52:6d:ef:22:06:e9:87:
         a6:69:f4:19:f8:b1:5b:12:c6:5e:17:35:b2:56:1b:14:b7:3a:
         d0:c4:23:15:a3:a3:e8:c7:6a:1a:02:3c:a6:b4:bd:1c:b9:e7:
         57:69:3b:69:40:cf:d5:5f:3c:76:31:41:04:60:07:a5:c9:18:
         b7:6a:c3:cc:ac:4b:e3:b9:e4:c0:12:56:0a:e0:b7:f0:94:76:
         e6:77:f7:1f:d5:df:03:d1:d4:67:48:ff:b7:5b:e4:f6:15:cb:
         f0:48:6c:5f:3d:a3:e3:78:6c:d5:40:0a:59:a0:50:f8:b3:29:
         a9:85:05:74:92:39:bf:6a:a9:62:a0:9f:e9:da:a0:36:f4:3a:
         45:3a:b8:79:d9:67:13:be:27:91:55:ab:e4:44:a2:f1:0b:8c:
         6f:64:27:de:13:6f:18:22
-----BEGIN CERTIFICATE-----
MIIGgzCCBGugAwIBAgICANswDQYJKoZIhvcNAQELBQAweDELMAkGA1UEBhMCZnIx
DDAKBgNVBAgMA2lkZjEOMAwGA1UEBwwFcGFyaXMxDjAMBgNVBAoMBXZpdGFtMRQw
EgYDVQQLDAthdXRob3JpdGllczElMCMGA1UEAwwcY2FfaW50ZXJtZWRpYXRlX3Rp
bWVzdGFtcGluZzAeFw0yMjAxMTIxNjEyNThaFw0yNTAxMTExNjEyNThaMFQxCzAJ
BgNVBAYTAmZyMQwwCgYDVQQIDANpZGYxDjAMBgNVBAcMBXBhcmlzMQ4wDAYDVQQK
DAV2aXRhbTEXMBUGA1UEAwwOc2VjdXJlLXN0b3JhZ2UwggIiMA0GCSqGSIb3DQEB
AQUAA4ICDwAwggIKAoICAQDjzkhlUS2F8C2SMx6JO6CUXBv4sdbiM+t7Ml9hysZj
Is189pzAz4flGHKgMSGyrBECV6s8l+RhLpjMcO8d5Lx4Cg0pizUzWujgzbFy95+5
AV0HT2+i4y31X1dssOgkpUjJvzoJis72Qorue7DNT5Rq0ZuyJcqkc+av41yaWHb4
CuSei4J2XS3gVWtbtrY7r24ZZM63CMnMB+n2ncYuqbpq1/rDDY7DbzjfNVK+1xxj
s+OO0DeWL2Ug6GbhZz325OWdhmqr7FmI467TfMQQMeJJ+n84BwNPxica7tqdFEvj
8OmRaGYib9bw/q6GYkKiUutUSVP0SkYbSzsOpfdS/Ov1vNSrDIrzF65LymB5RHoe
VpGQaSceYALgjMEhcW8Xb+Ppk2IHupwPnm+4gxMr2iQl6yZAi34xh3Sdldx1HUd2
I7C0mDvi+MEorRuuqhALguaPtc9iUpAZd+2U4T5eqKsLTERe0UBbtqQWEo6NAJ0E
hCp0gJa6uh7Vk3R0qeeX4lM2so9IHelU/l94VK5/Ys8AEFjJcqmMgFWPSkrt6Kw5
/T+XSR+gcn97aMHLV4LWLlVQmuGx+lYU1SdPch1DANwOxctu5xTwgayF5CmNSqJA
GoAJEsZ9PPheu+C2EJHqwOBZMfI2fPu4YCNKcqEltT8AG8vkkE2G5ni1K3F9m7zG
awIDAQABo4IBOTCCATUwJQYJYIZIAYb4QgENBBgWFkNlcnRpZmljYXQgU2VydmV1
ciBTU0wwHQYDVR0OBBYEFNzuBu6X+j0cXe8cQBAIhn6jYSU+MIGbBgNVHSMEgZMw
gZCAFJOCexCQcpnN7dyVz+U6+dlFPW+hoXSkcjBwMQswCQYDVQQGEwJmcjEMMAoG
A1UECAwDaWRmMQ4wDAYDVQQHDAVwYXJpczEOMAwGA1UECgwFdml0YW0xFDASBgNV
BAsMC2F1dGhvcml0aWVzMR0wGwYDVQQDDBRjYV9yb290X3RpbWVzdGFtcGluZ4IC
ANMwCQYDVR0SBAIwADAMBgNVHRMBAf8EAjAAMAsGA1UdDwQEAwIGwDARBglghkgB
hvhCAQEEBAMCBkAwFgYDVR0lAQH/BAwwCgYIKwYBBQUHAwgwDQYJKoZIhvcNAQEL
BQADggIBABc4VGnq097Lw4XoBZlQuarmCJ8iKi7bM+/k7PLFFJzGoQVUAdRPVPqq
z9+wnYWSAnPxcPuE4y4vYydD+zu4IdPUqp93pcOLYlSaDaLVdnCDb1xKWjJQ/omt
rAXLf5i3xN7vc10KOuup/RN14bJp7HiQ911FtkyhPHEAl3EpAl5YErKx/RzbVnmP
WzE46Yiwy0qyK7Cy5Ox0UmwhuHWc3JBH73PGlZZ232YzPb+howiMq41/56/zX1pt
HOnFiayLCoWMKdU/eoP+unYRsg8kiUXq2hSpf2qHVB9ErbTwLmYJA4bdjJ3HIZ4E
Uc9TY+nnzovXjI83JjnDH6/Pv07I9VJ/iAp6j/+zMSym4AY5TXvJgSkXk+8f+0eM
af5R4alz+axOI3avHAoz7h2vY34U+bPnPXz99B6sDwQXBnCoreCxQEqi6uDPhckS
SZcWklU1/TG7m9HweHce6LijWko9ToSeUm3vIgbph6Zp9Bn4sVsSxl4XNbJWGxS3
OtDEIxWjo+jHahoCPKa0vRy551dpO2lAz9VfPHYxQQRgB6XJGLdqw8ysS+O55MAS
Vgrgt/CUduZ39x/V3wPR1GdI/7db5PYVy/BIbF89o+N4bNVAClmgUPizKamFBXSS
Ob9qqWKgn+naoDb0OkU6uHnZZxO+J5FVq+REovELjG9kJ94Tbxgi
-----END CERTIFICATE-----
