Certificate:
    Data:
        Version: 3 (0x2)
        Serial Number: 205 (0xcd)
    Signature Algorithm: sha256WithRSAEncryption
        Issuer: C=fr, ST=idf, L=paris, O=vitam, OU=authorities, CN=ca_intermediate_timestamping
        Validity
            Not Before: Feb 22 16:37:03 2018 GMT
            Not After : Feb 21 16:37:03 2021 GMT
        Subject: C=fr, ST=idf, L=paris, O=vitam, CN=secure-storage
        Subject Public Key Info:
            Public Key Algorithm: rsaEncryption
                Public-Key: (4096 bit)
                Modulus:
                    00:dd:36:a1:ff:e0:73:ea:2e:de:9a:13:64:8c:a3:
                    8c:26:e4:bd:df:60:02:d8:4e:3d:2d:b5:69:2e:2d:
                    38:24:3e:c9:05:f1:32:6a:19:83:0a:62:f0:9a:77:
                    4b:d3:40:1b:4c:49:52:25:df:f1:a2:7c:ca:b3:61:
                    59:0f:49:2c:75:4b:07:69:77:6f:4a:49:e7:09:a1:
                    bf:ec:72:0a:53:74:bc:f0:d3:9a:f3:22:d9:cd:30:
                    92:fc:4a:05:d8:2f:95:0e:f3:16:73:06:6e:7a:21:
                    e5:56:fa:1f:01:b5:9e:84:c7:b7:72:6c:83:56:f7:
                    42:19:cd:e4:b6:73:06:58:74:64:5e:ef:1d:d8:f7:
                    cf:19:77:a2:12:17:22:33:43:32:5d:61:2e:c5:b4:
                    36:da:81:b0:8d:29:cf:dd:fb:e0:e5:11:dc:c4:cd:
                    06:c0:85:2b:61:92:8f:30:e6:ec:07:32:e1:f9:09:
                    b7:9f:cc:6c:3b:ea:e1:59:23:ae:3a:da:ee:79:d6:
                    42:bc:f1:c2:94:86:75:ab:7d:40:1b:ea:2e:63:f7:
                    27:05:f5:6f:cf:8b:08:a7:ef:82:e8:da:53:c4:b0:
                    ae:ae:1a:2e:f2:ef:90:cf:dd:cf:2b:f4:0f:f1:19:
                    74:79:54:c8:60:ee:17:1d:58:26:eb:fc:fb:81:d3:
                    f8:90:8f:c4:cf:bc:bf:80:8d:15:e1:83:6d:17:53:
                    fc:bc:63:99:23:a6:c1:61:ea:0f:06:15:cb:ba:9c:
                    a0:cb:4a:5b:87:aa:e9:90:1b:cd:1b:ad:8f:f3:63:
                    f9:f8:64:80:6c:33:b4:af:2a:7a:f2:ae:d0:6d:18:
                    f6:c8:4d:e2:b5:a4:5b:dd:50:22:fd:3f:82:e8:95:
                    8f:f1:ff:86:04:33:3b:f1:9d:f6:f0:cb:e8:4e:f8:
                    e5:3b:bc:28:aa:49:2f:04:d8:f1:4b:94:f0:3b:e7:
                    0a:bb:a9:77:1e:ee:6d:93:62:ea:63:f5:1a:2f:27:
                    f6:76:3f:10:1a:25:c5:c9:ca:d5:93:0f:e0:de:37:
                    e7:61:a4:b3:25:e5:c8:e8:39:a3:5a:da:79:fe:84:
                    e4:f7:e0:54:dd:40:61:18:59:71:93:a4:a6:ef:59:
                    b0:47:f8:9c:6d:37:1a:7a:7e:dc:cf:2b:1b:20:d7:
                    59:48:e8:6b:c7:7d:80:76:94:50:9b:04:48:7c:0e:
                    a7:ab:b3:7d:fb:a4:ad:8b:a4:8d:56:b8:96:36:bd:
                    a4:67:5e:16:13:01:37:1b:52:da:6b:6f:28:6c:22:
                    6a:9e:ee:fe:bd:e9:a0:96:20:f0:f1:98:34:aa:48:
                    68:f1:fb:f5:bb:25:a7:85:64:f5:69:c2:cf:31:df:
                    3f:57:a7
                Exponent: 65537 (0x10001)
        X509v3 extensions:
            Netscape Comment: 
                Certificat Serveur SSL
            X509v3 Subject Key Identifier: 
                77:4D:50:54:F3:55:C2:A2:AE:68:20:71:D0:D4:49:A0:03:7B:1C:91
            X509v3 Authority Key Identifier: 
                keyid:07:35:29:89:FC:00:1B:67:2B:9F:B7:3A:46:B6:0F:6E:9E:B8:37:2B
                DirName:/C=fr/ST=idf/L=paris/O=vitam/OU=authorities/CN=ca_root_timestamping
                serial:BF

            X509v3 Issuer Alternative Name: 
                <EMPTY>

            X509v3 Basic Constraints: critical
                CA:FALSE
            X509v3 Key Usage: 
                Digital Signature, Non Repudiation, Key Encipherment
            Netscape Cert Type: 
                SSL Server
            X509v3 Extended Key Usage: critical
                Time Stamping
    Signature Algorithm: sha256WithRSAEncryption
         66:fc:76:6d:94:5a:e9:83:64:75:6c:a1:dc:c5:a6:08:df:f6:
         69:07:19:5f:f2:fc:1c:da:4d:ae:14:95:79:2e:25:7d:2f:87:
         e5:55:73:8c:f2:4e:d8:70:9a:ce:e0:e2:60:6a:88:23:89:e0:
         2d:a1:eb:5e:02:8d:0f:f1:9d:7d:c2:31:c5:cc:7c:31:d7:cd:
         2f:86:50:b2:52:e9:58:e3:46:58:9c:3a:42:7d:f3:49:a6:2c:
         1e:27:b9:9e:8b:7c:da:f9:56:d4:c1:6d:ac:ba:f7:74:df:51:
         56:f8:34:e8:a6:4d:f6:26:00:e2:93:1c:97:0c:a6:69:2d:54:
         5b:d9:25:5d:33:09:1c:ca:5e:fa:22:19:65:10:f4:44:8f:3c:
         a7:4a:e4:d2:be:fd:e3:8f:41:ea:58:97:95:81:69:7e:d2:54:
         7b:0b:a0:1a:7e:32:64:28:72:27:f3:e5:6e:54:eb:16:2c:e3:
         97:be:94:3e:07:9d:ea:5f:0b:3f:fc:ba:24:e8:c3:fa:af:35:
         66:4d:69:e9:01:82:95:13:3d:6d:f3:61:61:ea:fa:df:82:de:
         3a:ad:cd:0e:aa:c5:c8:bc:8c:e2:3b:4f:02:84:fd:10:90:14:
         f5:1a:bf:ab:1f:61:c9:74:e1:e7:26:b2:7e:77:94:86:26:87:
         cb:8e:a0:93:e7:32:ca:a7:82:8e:48:6b:1b:60:da:f6:c5:b8:
         a7:94:1b:6b:88:1d:f6:40:66:10:0a:fe:b3:0c:1a:7c:df:b0:
         d7:86:15:9b:09:21:38:53:92:bd:af:d2:b1:a4:4e:cb:cd:e1:
         7f:22:f5:c6:ba:d4:46:fb:c1:d5:52:19:a7:a6:78:fc:2e:0c:
         8a:e6:35:24:d5:2a:2c:02:5f:33:4d:62:5b:12:db:f9:09:40:
         5b:0b:ae:4a:9d:7c:56:02:6f:c8:87:15:02:dd:ed:c1:a1:64:
         a3:66:8f:56:45:7e:67:cb:41:ce:57:fd:e7:31:3a:53:9d:89:
         f5:c7:ab:91:20:c0:6b:17:f5:54:17:6c:2b:29:36:e5:ec:01:
         4f:6c:aa:12:a4:45:4d:8e:1b:56:bb:e0:16:49:ed:44:9e:c7:
         a2:c9:e7:46:34:d7:72:39:e0:63:fa:e4:29:f6:03:8c:13:89:
         85:d2:d4:40:78:d3:d9:48:d3:2a:75:fe:d8:a7:f7:f1:d8:93:
         95:63:0c:0f:95:e0:60:3b:d2:bd:fd:6d:01:9c:64:1b:68:f3:
         9d:c0:d9:bc:dd:eb:60:24:f7:3c:ab:c9:86:de:52:81:41:19:
         5e:30:15:d6:da:d1:11:da:69:b7:29:7c:ef:f2:dc:dc:4b:63:
         8d:4d:ef:6f:32:4a:45:9b
-----BEGIN CERTIFICATE-----
MIIGgzCCBGugAwIBAgICAM0wDQYJKoZIhvcNAQELBQAweDELMAkGA1UEBhMCZnIx
DDAKBgNVBAgMA2lkZjEOMAwGA1UEBwwFcGFyaXMxDjAMBgNVBAoMBXZpdGFtMRQw
EgYDVQQLDAthdXRob3JpdGllczElMCMGA1UEAwwcY2FfaW50ZXJtZWRpYXRlX3Rp
bWVzdGFtcGluZzAeFw0xODAyMjIxNjM3MDNaFw0yMTAyMjExNjM3MDNaMFQxCzAJ
BgNVBAYTAmZyMQwwCgYDVQQIDANpZGYxDjAMBgNVBAcMBXBhcmlzMQ4wDAYDVQQK
DAV2aXRhbTEXMBUGA1UEAwwOc2VjdXJlLXN0b3JhZ2UwggIiMA0GCSqGSIb3DQEB
AQUAA4ICDwAwggIKAoICAQDdNqH/4HPqLt6aE2SMo4wm5L3fYALYTj0ttWkuLTgk
PskF8TJqGYMKYvCad0vTQBtMSVIl3/GifMqzYVkPSSx1Swdpd29KSecJob/scgpT
dLzw05rzItnNMJL8SgXYL5UO8xZzBm56IeVW+h8BtZ6Ex7dybINW90IZzeS2cwZY
dGRe7x3Y988Zd6ISFyIzQzJdYS7FtDbagbCNKc/d++DlEdzEzQbAhSthko8w5uwH
MuH5CbefzGw76uFZI6462u551kK88cKUhnWrfUAb6i5j9ycF9W/Piwin74Lo2lPE
sK6uGi7y75DP3c8r9A/xGXR5VMhg7hcdWCbr/PuB0/iQj8TPvL+AjRXhg20XU/y8
Y5kjpsFh6g8GFcu6nKDLSluHqumQG80brY/zY/n4ZIBsM7SvKnryrtBtGPbITeK1
pFvdUCL9P4LolY/x/4YEMzvxnfbwy+hO+OU7vCiqSS8E2PFLlPA75wq7qXce7m2T
Yupj9RovJ/Z2PxAaJcXJytWTD+DeN+dhpLMl5cjoOaNa2nn+hOT34FTdQGEYWXGT
pKbvWbBH+JxtNxp6ftzPKxsg11lI6GvHfYB2lFCbBEh8Dqers337pK2LpI1WuJY2
vaRnXhYTATcbUtprbyhsImqe7v696aCWIPDxmDSqSGjx+/W7JaeFZPVpws8x3z9X
pwIDAQABo4IBOTCCATUwJQYJYIZIAYb4QgENBBgWFkNlcnRpZmljYXQgU2VydmV1
ciBTU0wwHQYDVR0OBBYEFHdNUFTzVcKirmggcdDUSaADexyRMIGbBgNVHSMEgZMw
gZCAFAc1KYn8ABtnK5+3Oka2D26euDcroXSkcjBwMQswCQYDVQQGEwJmcjEMMAoG
A1UECAwDaWRmMQ4wDAYDVQQHDAVwYXJpczEOMAwGA1UECgwFdml0YW0xFDASBgNV
BAsMC2F1dGhvcml0aWVzMR0wGwYDVQQDDBRjYV9yb290X3RpbWVzdGFtcGluZ4IC
AL8wCQYDVR0SBAIwADAMBgNVHRMBAf8EAjAAMAsGA1UdDwQEAwIF4DARBglghkgB
hvhCAQEEBAMCBkAwFgYDVR0lAQH/BAwwCgYIKwYBBQUHAwgwDQYJKoZIhvcNAQEL
BQADggIBAGb8dm2UWumDZHVsodzFpgjf9mkHGV/y/BzaTa4UlXkuJX0vh+VVc4zy
Tthwms7g4mBqiCOJ4C2h614CjQ/xnX3CMcXMfDHXzS+GULJS6VjjRlicOkJ980mm
LB4nuZ6LfNr5VtTBbay693TfUVb4NOimTfYmAOKTHJcMpmktVFvZJV0zCRzKXvoi
GWUQ9ESPPKdK5NK+/eOPQepYl5WBaX7SVHsLoBp+MmQocifz5W5U6xYs45e+lD4H
nepfCz/8uiTow/qvNWZNaekBgpUTPW3zYWHq+t+C3jqtzQ6qxci8jOI7TwKE/RCQ
FPUav6sfYcl04ecmsn53lIYmh8uOoJPnMsqngo5Iaxtg2vbFuKeUG2uIHfZAZhAK
/rMMGnzfsNeGFZsJIThTkr2v0rGkTsvN4X8i9ca61Eb7wdVSGaemePwuDIrmNSTV
KiwCXzNNYlsS2/kJQFsLrkqdfFYCb8iHFQLd7cGhZKNmj1ZFfmfLQc5X/ecxOlOd
ifXHq5EgwGsX9VQXbCspNuXsAU9sqhKkRU2OG1a74BZJ7USex6LJ50Y013I54GP6
5Cn2A4wTiYXS1EB409lI0yp1/tin9/HYk5VjDA+V4GA70r39bQGcZBto853A2bzd
62Ak9zyryYbeUoFBGV4wFdba0RHaabcpfO/y3NxLY41N728ySkWb
-----END CERTIFICATE-----
