Certificate:
    Data:
        Version: 3 (0x2)
        Serial Number: 218 (0xda)
        Signature Algorithm: sha256WithRSAEncryption
        Issuer: C=fr, ST=idf, L=paris, O=vitam, OU=authorities, CN=ca_intermediate_timestamping
        Validity
            Not Before: Jan 12 16:12:55 2022 GMT
            Not After : Jan 11 16:12:55 2025 GMT
        Subject: C=fr, ST=idf, L=paris, O=vitam, CN=secure-logbook
        Subject Public Key Info:
            Public Key Algorithm: rsaEncryption
                RSA Public-Key: (4096 bit)
                Modulus:
                    00:dd:16:4b:80:e6:01:fb:2b:aa:83:5b:52:c5:cb:
                    a7:43:a9:bc:ee:96:5a:04:f2:f7:cd:79:75:c0:69:
                    de:2a:8f:93:de:9e:25:5b:55:22:1e:3f:6e:bd:10:
                    5f:e7:ee:ce:67:8e:da:e8:8a:2c:47:c6:fe:22:b0:
                    7a:dd:8a:7b:e3:98:f5:a9:ca:4d:52:09:aa:65:14:
                    7a:e9:7b:a2:53:81:a0:27:12:d1:06:21:33:8a:5e:
                    d1:4c:c2:6f:6d:13:10:dd:70:36:34:f7:93:8a:eb:
                    1b:25:02:18:8b:19:fb:96:da:3d:2f:9f:71:47:8d:
                    51:51:b6:e4:cc:57:3f:ba:61:7a:40:7e:7a:25:a0:
                    bc:e9:cd:4a:cb:5f:7a:2a:e8:7b:74:ab:ce:ec:f8:
                    18:ed:6e:68:cc:fd:15:fd:d2:16:f6:3e:43:0d:ce:
                    99:ab:ad:38:5c:a0:0d:f2:ed:1c:a1:5d:8c:c3:02:
                    0a:1c:9a:0b:10:f1:26:70:25:fc:ea:6b:5e:25:78:
                    e9:06:59:6e:9d:31:74:1d:52:83:a3:b2:f2:4a:37:
                    b9:00:ea:89:6d:e2:ff:56:ca:05:aa:e3:bb:e8:6a:
                    a4:3c:fb:b3:c7:9b:56:f8:90:4d:b0:ae:6d:ac:15:
                    2d:54:ac:8c:22:30:de:65:06:d6:d4:1a:b2:a8:ab:
                    78:7b:28:b5:bb:43:bf:8f:5d:32:10:f3:18:77:c0:
                    c9:a7:9e:ac:e5:88:b2:9c:ac:3e:5f:3c:1c:7c:f1:
                    8c:dd:9c:b8:5d:28:21:3d:63:58:97:0d:1f:c8:e9:
                    9f:e9:d8:06:d9:1b:05:f1:67:bd:cb:d0:b3:73:7b:
                    22:f7:b8:ba:9e:c4:64:5f:b9:53:8b:c8:20:fd:77:
                    24:e2:dd:04:62:d6:5c:16:6d:b2:5e:f0:6d:e9:4d:
                    27:1b:aa:a6:f6:9e:a0:0a:81:79:86:78:5c:32:71:
                    86:5a:b8:a8:12:31:34:e2:91:dd:03:e9:13:54:71:
                    02:a6:95:7d:3b:b4:fe:e5:c4:d7:63:bc:18:94:b6:
                    1f:eb:c9:19:6d:c2:33:e3:fd:86:41:83:8d:5e:00:
                    7d:82:77:e1:50:8c:36:01:cc:7a:c1:0a:ca:28:17:
                    a2:b4:2f:36:b4:2e:1c:09:91:ed:b1:6d:67:6a:25:
                    c5:a6:9c:bd:99:66:8b:4a:9b:ac:81:cb:8b:ee:5a:
                    72:ba:ae:58:fe:18:a5:03:6d:89:88:5a:aa:3b:10:
                    c4:e5:82:bd:bc:19:3d:87:22:09:2c:ff:b5:dc:3f:
                    29:f1:b0:f1:75:da:a3:08:51:62:93:dd:ca:5e:66:
                    67:16:05:c0:97:35:24:c6:4a:ab:43:d9:67:86:ca:
                    32:5c:3d
                Exponent: 65537 (0x10001)
        X509v3 extensions:
            Netscape Comment: 
                Certificat Serveur SSL
            X509v3 Subject Key Identifier: 
                6F:10:53:53:E6:75:AF:3C:31:F0:E9:2E:04:31:8F:9C:74:D1:91:EF
            X509v3 Authority Key Identifier: 
                keyid:93:82:7B:10:90:72:99:CD:ED:DC:95:CF:E5:3A:F9:D9:45:3D:6F:A1
                DirName:/C=fr/ST=idf/L=paris/O=vitam/OU=authorities/CN=ca_root_timestamping
                serial:D3

            X509v3 Issuer Alternative Name: 
                <EMPTY>

            X509v3 Basic Constraints: critical
                CA:FALSE
            X509v3 Key Usage: 
                Digital Signature, Non Repudiation
            Netscape Cert Type: 
                SSL Server
            X509v3 Extended Key Usage: critical
                Time Stamping
    Signature Algorithm: sha256WithRSAEncryption
         c2:0b:aa:6f:ef:52:f8:67:61:c4:0b:70:dd:69:b4:df:b0:0c:
         4c:4b:71:7f:86:55:46:0c:83:48:68:bc:ef:be:c7:30:40:e3:
         f4:3f:e2:fc:89:6d:41:cb:5f:32:98:39:0f:1e:33:6a:8c:71:
         c1:f2:6f:30:5e:fe:20:57:c9:03:15:15:d7:5b:af:23:2a:86:
         1b:7f:4b:bb:e1:6e:54:e5:62:bc:70:48:12:ac:d8:41:54:13:
         08:10:d8:ea:79:88:c7:00:5f:bc:5c:69:95:68:85:17:b3:45:
         32:f5:63:f9:13:cf:6f:7f:52:79:60:e9:25:22:cb:cc:c1:78:
         6e:e6:15:b7:1a:4c:72:58:7d:33:38:63:d6:93:36:36:6f:43:
         a6:5b:e7:65:07:4f:c1:6f:68:27:d9:c7:4b:5c:b6:e4:02:24:
         29:75:45:78:f6:33:94:4c:c9:3d:3e:b9:8e:45:80:de:04:1c:
         38:d8:97:e5:8e:81:a7:79:82:fa:9b:ca:de:a1:af:e2:12:8b:
         a8:ac:6d:0c:5d:f0:41:f1:67:49:54:10:c2:e3:bd:e4:bc:fe:
         69:ce:e4:1e:9b:f7:f3:63:ec:6b:df:4a:a7:c0:90:f1:19:b6:
         ab:9b:ff:1e:2f:b1:59:5f:9d:0d:49:b2:b8:ae:3a:4b:68:84:
         e2:9e:92:f6:48:35:7e:87:b7:9a:10:6a:81:21:38:b2:af:7c:
         8d:68:45:e6:90:d4:69:22:ab:55:75:2d:4e:c2:e1:53:1a:31:
         26:8e:5b:a2:32:36:c9:cd:7a:7d:2e:4a:02:0a:03:34:13:ba:
         b7:41:9e:b0:ac:3c:d3:51:62:6d:06:12:ba:f5:d9:42:e5:e9:
         d9:ed:60:ad:b0:7a:5b:d0:5e:0e:b2:c4:9b:cf:3e:87:25:ed:
         a4:d4:82:8e:d2:ad:26:3b:6f:dc:7e:43:68:81:08:09:74:a0:
         84:04:fe:9f:0e:95:9b:bc:5a:d4:35:ed:11:cf:67:14:d6:28:
         9f:98:56:75:c9:80:2b:5d:a5:34:04:26:d8:97:1a:08:e2:18:
         85:e5:30:51:47:aa:04:51:48:77:4f:ee:ab:b2:54:e9:dc:a7:
         d5:88:54:5c:3f:c1:ce:77:09:6b:54:28:df:27:11:ea:5d:de:
         3f:34:ac:0e:57:d6:bd:6c:4d:3a:ef:15:7e:78:20:75:0d:3c:
         ff:87:f6:c6:6f:52:6c:df:d2:79:c5:24:68:57:21:8b:8c:b3:
         88:7c:3d:bc:21:7f:10:2c:9d:75:61:cf:5c:3b:98:8b:16:5d:
         9e:f6:0a:16:09:0d:39:00:f2:58:37:3f:91:ac:1b:15:8c:e3:
         e2:63:21:7d:e0:6f:f8:72
-----BEGIN CERTIFICATE-----
MIIGgzCCBGugAwIBAgICANowDQYJKoZIhvcNAQELBQAweDELMAkGA1UEBhMCZnIx
DDAKBgNVBAgMA2lkZjEOMAwGA1UEBwwFcGFyaXMxDjAMBgNVBAoMBXZpdGFtMRQw
EgYDVQQLDAthdXRob3JpdGllczElMCMGA1UEAwwcY2FfaW50ZXJtZWRpYXRlX3Rp
bWVzdGFtcGluZzAeFw0yMjAxMTIxNjEyNTVaFw0yNTAxMTExNjEyNTVaMFQxCzAJ
BgNVBAYTAmZyMQwwCgYDVQQIDANpZGYxDjAMBgNVBAcMBXBhcmlzMQ4wDAYDVQQK
DAV2aXRhbTEXMBUGA1UEAwwOc2VjdXJlLWxvZ2Jvb2swggIiMA0GCSqGSIb3DQEB
AQUAA4ICDwAwggIKAoICAQDdFkuA5gH7K6qDW1LFy6dDqbzulloE8vfNeXXAad4q
j5PeniVbVSIeP269EF/n7s5njtroiixHxv4isHrdinvjmPWpyk1SCaplFHrpe6JT
gaAnEtEGITOKXtFMwm9tExDdcDY095OK6xslAhiLGfuW2j0vn3FHjVFRtuTMVz+6
YXpAfnoloLzpzUrLX3oq6Ht0q87s+BjtbmjM/RX90hb2PkMNzpmrrThcoA3y7Ryh
XYzDAgocmgsQ8SZwJfzqa14leOkGWW6dMXQdUoOjsvJKN7kA6olt4v9WygWq47vo
aqQ8+7PHm1b4kE2wrm2sFS1UrIwiMN5lBtbUGrKoq3h7KLW7Q7+PXTIQ8xh3wMmn
nqzliLKcrD5fPBx88YzdnLhdKCE9Y1iXDR/I6Z/p2AbZGwXxZ73L0LNzeyL3uLqe
xGRfuVOLyCD9dyTi3QRi1lwWbbJe8G3pTScbqqb2nqAKgXmGeFwycYZauKgSMTTi
kd0D6RNUcQKmlX07tP7lxNdjvBiUth/ryRltwjPj/YZBg41eAH2Cd+FQjDYBzHrB
CsooF6K0Lza0LhwJke2xbWdqJcWmnL2ZZotKm6yBy4vuWnK6rlj+GKUDbYmIWqo7
EMTlgr28GT2HIgks/7XcPynxsPF12qMIUWKT3cpeZmcWBcCXNSTGSqtD2WeGyjJc
PQIDAQABo4IBOTCCATUwJQYJYIZIAYb4QgENBBgWFkNlcnRpZmljYXQgU2VydmV1
ciBTU0wwHQYDVR0OBBYEFG8QU1Pmda88MfDpLgQxj5x00ZHvMIGbBgNVHSMEgZMw
gZCAFJOCexCQcpnN7dyVz+U6+dlFPW+hoXSkcjBwMQswCQYDVQQGEwJmcjEMMAoG
A1UECAwDaWRmMQ4wDAYDVQQHDAVwYXJpczEOMAwGA1UECgwFdml0YW0xFDASBgNV
BAsMC2F1dGhvcml0aWVzMR0wGwYDVQQDDBRjYV9yb290X3RpbWVzdGFtcGluZ4IC
ANMwCQYDVR0SBAIwADAMBgNVHRMBAf8EAjAAMAsGA1UdDwQEAwIGwDARBglghkgB
hvhCAQEEBAMCBkAwFgYDVR0lAQH/BAwwCgYIKwYBBQUHAwgwDQYJKoZIhvcNAQEL
BQADggIBAMILqm/vUvhnYcQLcN1ptN+wDExLcX+GVUYMg0hovO++xzBA4/Q/4vyJ
bUHLXzKYOQ8eM2qMccHybzBe/iBXyQMVFddbryMqhht/S7vhblTlYrxwSBKs2EFU
EwgQ2Op5iMcAX7xcaZVohRezRTL1Y/kTz29/Unlg6SUiy8zBeG7mFbcaTHJYfTM4
Y9aTNjZvQ6Zb52UHT8FvaCfZx0tctuQCJCl1RXj2M5RMyT0+uY5FgN4EHDjYl+WO
gad5gvqbyt6hr+ISi6isbQxd8EHxZ0lUEMLjveS8/mnO5B6b9/Nj7GvfSqfAkPEZ
tqub/x4vsVlfnQ1JsriuOktohOKekvZINX6Ht5oQaoEhOLKvfI1oReaQ1Gkiq1V1
LU7C4VMaMSaOW6IyNsnNen0uSgIKAzQTurdBnrCsPNNRYm0GErr12ULl6dntYK2w
elvQXg6yxJvPPocl7aTUgo7SrSY7b9x+Q2iBCAl0oIQE/p8OlZu8WtQ17RHPZxTW
KJ+YVnXJgCtdpTQEJtiXGgjiGIXlMFFHqgRRSHdP7quyVOncp9WIVFw/wc53CWtU
KN8nEepd3j80rA5X1r1sTTrvFX54IHUNPP+H9sZvUmzf0nnFJGhXIYuMs4h8Pbwh
fxAsnXVhz1w7mIsWXZ72ChYJDTkA8lg3P5GsGxWM4+JjIX3gb/hy
-----END CERTIFICATE-----
