Certificate:
    Data:
        Version: 3 (0x2)
        Serial Number: 232 (0xe8)
    Signature Algorithm: sha256WithRSAEncryption
        Issuer: C=fr, ST=idf, L=paris, O=vitam, OU=authorities, CN=ca_root_client-storage
        Validity
            Not Before: Aug  9 16:04:07 2017 GMT
            Not After : Aug  7 16:04:07 2027 GMT
        Subject: C=fr, ST=idf, L=paris, O=vitam, OU=authorities, CN=ca_intermediate_client-storage
        Subject Public Key Info:
            Public Key Algorithm: rsaEncryption
                Public-Key: (4096 bit)
                Modulus:
                    00:e4:d7:72:55:c1:fe:03:3a:15:97:eb:21:d0:9e:
                    12:38:9c:b4:f7:df:77:28:dd:dd:92:b1:07:6a:9c:
                    3c:a7:cd:14:0e:fb:eb:97:ea:66:08:31:90:62:44:
                    21:50:b4:7b:97:4f:c0:c0:38:0c:c0:f9:c4:73:03:
                    44:f0:59:14:35:65:bc:ef:00:25:31:97:76:31:3b:
                    78:b8:2b:c4:5d:12:7e:b7:ba:f7:e0:77:ae:6d:13:
                    51:86:b7:50:e1:3d:0c:85:a8:24:71:d1:4b:a2:23:
                    d1:91:db:b6:bb:51:a0:aa:26:73:79:96:a3:b2:99:
                    a5:77:62:50:65:3f:87:5b:df:04:0b:77:05:a8:cc:
                    c2:2f:86:f0:f6:82:df:91:b6:de:83:30:55:4d:21:
                    00:45:f7:88:e5:b7:cc:64:94:9a:63:bc:dd:d0:3d:
                    a2:32:34:3f:e2:30:cc:04:3c:29:2e:f4:a8:a7:ed:
                    0c:c3:96:70:6d:b7:6c:66:79:be:cb:c8:c5:84:f6:
                    af:5a:0f:a0:17:ea:13:af:03:bf:3b:a3:6c:3f:87:
                    9d:cd:5d:9c:3d:01:8d:95:e9:cf:71:7c:aa:c7:45:
                    40:f6:ad:bd:36:cd:ec:2a:fe:53:2a:d6:1b:2b:f5:
                    85:83:45:ee:ee:1e:f6:f0:a3:cf:60:cc:6f:c8:28:
                    e2:62:2f:15:f7:f1:cd:15:4f:f4:50:36:fe:56:58:
                    71:52:94:24:1a:71:1d:ab:45:0d:00:f6:b5:2f:1e:
                    32:d0:0f:fb:4a:06:3d:54:3f:6a:eb:2b:25:6d:56:
                    8f:f8:d4:c9:aa:7b:0d:d4:2c:33:1b:d8:a7:44:0d:
                    8c:41:c4:f2:47:c1:91:8c:8e:cf:82:44:9a:ce:0d:
                    ea:a0:6d:56:03:55:26:11:ff:4e:1b:a2:3b:32:b4:
                    7c:fa:18:21:0f:99:82:77:e2:6a:df:bf:04:43:31:
                    af:f0:da:d7:56:40:6a:58:2f:5a:88:fe:6f:3c:75:
                    0f:44:06:1e:16:ae:49:a1:0c:7c:d2:bb:d2:d7:8c:
                    c0:63:67:4e:3c:f4:84:8c:dc:b4:66:9e:c9:87:fd:
                    c3:57:6d:b1:1b:12:d4:f4:05:31:aa:c6:90:47:1e:
                    e8:71:b2:b3:83:fd:b7:8a:56:4e:c3:78:6d:04:ce:
                    3f:eb:8b:a2:b1:9b:f8:0e:1b:e5:9c:15:3c:b7:79:
                    41:ba:48:d5:c9:04:ce:21:9f:94:b8:54:65:29:8a:
                    0f:1b:14:a5:bd:49:8c:95:e3:29:a3:42:94:79:63:
                    6e:ad:70:32:62:30:5e:d2:59:ef:34:2b:b5:50:de:
                    82:94:e7:90:6b:ea:59:84:e2:ca:cb:d7:0e:0d:b1:
                    d8:55:23
                Exponent: 65537 (0x10001)
        X509v3 extensions:
            Netscape Comment: 
                CA Intermediate
            X509v3 Subject Key Identifier: 
                9D:70:15:B8:1C:45:6A:84:B6:01:1C:DA:F5:53:40:54:7B:D2:3E:C9
            X509v3 Authority Key Identifier: 
                keyid:A2:81:49:77:F6:D9:5A:7D:5F:A7:B2:40:3A:BB:9F:C5:D6:C3:1F:9A
                DirName:/C=fr/ST=idf/L=paris/O=vitam/OU=authorities/CN=ca_root_client-storage
                serial:E7

            X509v3 Basic Constraints: critical
                CA:TRUE, pathlen:0
            X509v3 Issuer Alternative Name: 
                <EMPTY>

            X509v3 Key Usage: 
                Certificate Sign, CRL Sign
            Netscape Cert Type: 
                SSL CA
    Signature Algorithm: sha256WithRSAEncryption
         90:43:96:d0:38:b0:48:bb:8d:fb:61:d8:86:14:3b:d0:81:6c:
         7a:c8:e3:36:b6:0d:56:4b:5e:2e:97:9c:5d:cf:fa:b8:0d:65:
         b7:25:bf:c3:69:4d:5a:06:67:3c:02:af:76:d8:5a:51:9b:59:
         2d:74:a5:22:b1:51:ec:a5:2a:97:42:1a:52:71:3b:24:44:68:
         e0:eb:64:89:43:4a:ce:d3:e1:fd:3f:d8:32:ad:d1:1f:da:6b:
         89:13:21:df:c3:66:41:8c:7e:6c:7d:d3:ab:10:68:3b:eb:ef:
         d9:28:29:a0:60:3b:c9:23:a4:f8:b4:4e:48:53:60:3a:ab:37:
         5e:95:9a:23:c8:93:e0:42:f1:5c:c7:96:60:83:28:cf:75:c4:
         af:66:85:71:68:93:aa:8e:7d:48:d2:9c:55:6c:81:70:b9:59:
         2b:3e:93:29:44:9b:02:00:8c:da:f1:15:4b:8a:06:1a:95:e8:
         56:6d:eb:fe:8b:9f:ff:48:a4:d0:da:30:b1:74:ec:d9:04:09:
         5b:fd:c8:28:8b:b7:67:5e:08:11:34:db:c0:d4:5d:64:03:4c:
         84:3b:2c:d9:00:d4:4c:d2:2a:95:28:85:ea:66:ac:ae:42:71:
         9e:7d:77:37:ad:c3:b4:98:1b:12:12:dc:cd:44:67:40:dc:b6:
         45:01:48:13:14:99:7c:dd:ed:28:8e:32:57:0b:42:c6:59:34:
         00:59:04:d6:04:b5:8f:94:c4:fc:36:51:51:1e:ac:47:71:2e:
         f8:68:0a:a2:e9:e9:b8:c7:f4:51:76:ae:bb:df:87:db:53:78:
         be:6d:aa:be:ea:8d:2e:ef:13:e3:99:e9:5b:ae:96:c2:49:bc:
         7e:5d:39:3d:4b:68:1d:52:d2:99:6b:33:0c:79:5f:37:b3:9a:
         17:5f:54:d5:fd:1d:9a:be:bf:c9:74:87:c9:6f:5b:1d:61:bd:
         70:23:a5:5d:51:4d:df:0c:aa:2a:12:df:47:89:e5:b2:05:4a:
         99:6d:72:8d:7a:99:11:e4:2d:88:20:92:e2:5f:c8:69:5f:84:
         58:4b:10:18:79:9d:5a:eb:f4:fc:dc:ab:b0:8b:56:78:5f:d5:
         b2:77:de:a5:b7:bc:98:bd:53:1e:43:6e:f2:b9:4b:f7:65:bd:
         56:e7:41:51:13:34:61:34:b0:5d:eb:c4:b8:d1:ba:b0:41:f7:
         0f:00:cf:b1:fb:3b:4e:67:39:ad:8e:b4:d4:cf:40:14:43:b9:
         f3:2a:24:3d:20:36:dc:77:46:f7:28:c4:13:f4:e9:0b:2a:11:
         be:6c:6b:e5:e8:e7:91:7d:8f:e2:5e:f2:47:18:83:c6:6f:a8:
         e1:97:93:1b:71:e5:79:12
-----BEGIN CERTIFICATE-----
MIIGjDCCBHSgAwIBAgICAOgwDQYJKoZIhvcNAQELBQAwcjELMAkGA1UEBhMCZnIx
DDAKBgNVBAgMA2lkZjEOMAwGA1UEBwwFcGFyaXMxDjAMBgNVBAoMBXZpdGFtMRQw
EgYDVQQLDAthdXRob3JpdGllczEfMB0GA1UEAwwWY2Ffcm9vdF9jbGllbnQtc3Rv
cmFnZTAeFw0xNzA4MDkxNjA0MDdaFw0yNzA4MDcxNjA0MDdaMHoxCzAJBgNVBAYT
AmZyMQwwCgYDVQQIDANpZGYxDjAMBgNVBAcMBXBhcmlzMQ4wDAYDVQQKDAV2aXRh
bTEUMBIGA1UECwwLYXV0aG9yaXRpZXMxJzAlBgNVBAMMHmNhX2ludGVybWVkaWF0
ZV9jbGllbnQtc3RvcmFnZTCCAiIwDQYJKoZIhvcNAQEBBQADggIPADCCAgoCggIB
AOTXclXB/gM6FZfrIdCeEjictPffdyjd3ZKxB2qcPKfNFA7765fqZggxkGJEIVC0
e5dPwMA4DMD5xHMDRPBZFDVlvO8AJTGXdjE7eLgrxF0Sfre69+B3rm0TUYa3UOE9
DIWoJHHRS6Ij0ZHbtrtRoKomc3mWo7KZpXdiUGU/h1vfBAt3BajMwi+G8PaC35G2
3oMwVU0hAEX3iOW3zGSUmmO83dA9ojI0P+IwzAQ8KS70qKftDMOWcG23bGZ5vsvI
xYT2r1oPoBfqE68DvzujbD+Hnc1dnD0BjZXpz3F8qsdFQPatvTbN7Cr+UyrWGyv1
hYNF7u4e9vCjz2DMb8go4mIvFffxzRVP9FA2/lZYcVKUJBpxHatFDQD2tS8eMtAP
+0oGPVQ/ausrJW1Wj/jUyap7DdQsMxvYp0QNjEHE8kfBkYyOz4JEms4N6qBtVgNV
JhH/ThuiOzK0fPoYIQ+Zgnfiat+/BEMxr/Da11ZAalgvWoj+bzx1D0QGHhauSaEM
fNK70teMwGNnTjz0hIzctGaeyYf9w1dtsRsS1PQFMarGkEce6HGys4P9t4pWTsN4
bQTOP+uLorGb+A4b5ZwVPLd5QbpI1ckEziGflLhUZSmKDxsUpb1JjJXjKaNClHlj
bq1wMmIwXtJZ7zQrtVDegpTnkGvqWYTiysvXDg2x2FUjAgMBAAGjggEiMIIBHjAe
BglghkgBhvhCAQ0EERYPQ0EgSW50ZXJtZWRpYXRlMB0GA1UdDgQWBBSdcBW4HEVq
hLYBHNr1U0BUe9I+yTCBnQYDVR0jBIGVMIGSgBSigUl39tlafV+nskA6u5/F1sMf
mqF2pHQwcjELMAkGA1UEBhMCZnIxDDAKBgNVBAgMA2lkZjEOMAwGA1UEBwwFcGFy
aXMxDjAMBgNVBAoMBXZpdGFtMRQwEgYDVQQLDAthdXRob3JpdGllczEfMB0GA1UE
AwwWY2Ffcm9vdF9jbGllbnQtc3RvcmFnZYICAOcwEgYDVR0TAQH/BAgwBgEB/wIB
ADAJBgNVHRIEAjAAMAsGA1UdDwQEAwIBBjARBglghkgBhvhCAQEEBAMCAgQwDQYJ
KoZIhvcNAQELBQADggIBAJBDltA4sEi7jfth2IYUO9CBbHrI4za2DVZLXi6XnF3P
+rgNZbclv8NpTVoGZzwCr3bYWlGbWS10pSKxUeylKpdCGlJxOyREaODrZIlDSs7T
4f0/2DKt0R/aa4kTId/DZkGMfmx906sQaDvr79koKaBgO8kjpPi0TkhTYDqrN16V
miPIk+BC8VzHlmCDKM91xK9mhXFok6qOfUjSnFVsgXC5WSs+kylEmwIAjNrxFUuK
BhqV6FZt6/6Ln/9IpNDaMLF07NkECVv9yCiLt2deCBE028DUXWQDTIQ7LNkA1EzS
KpUohepmrK5CcZ59dzetw7SYGxIS3M1EZ0DctkUBSBMUmXzd7SiOMlcLQsZZNABZ
BNYEtY+UxPw2UVEerEdxLvhoCqLp6bjH9FF2rrvfh9tTeL5tqr7qjS7vE+OZ6Vuu
lsJJvH5dOT1LaB1S0plrMwx5XzezmhdfVNX9HZq+v8l0h8lvWx1hvXAjpV1RTd8M
qioS30eJ5bIFSpltco16mRHkLYggkuJfyGlfhFhLEBh5nVrr9Pzcq7CLVnhf1bJ3
3qW3vJi9Ux5DbvK5S/dlvVbnQVETNGE0sF3rxLjRurBB9w8Az7H7O05nOa2OtNTP
QBRDufMqJD0gNtx3RvcoxBP06QsqEb5sa+Xo55F9j+Je8kcYg8ZvqOGXkxtx5XkS
-----END CERTIFICATE-----
