Certificate:
    Data:
        Version: 3 (0x2)
        Serial Number: 235 (0xeb)
    Signature Algorithm: sha256WithRSAEncryption
        Issuer: C=fr, ST=idf, L=paris, O=vitam, OU=authorities, CN=ca_root_client-storage
        Validity
            Not Before: Feb 21 16:34:58 2018 GMT
            Not After : Feb 19 16:34:58 2028 GMT
        Subject: C=fr, ST=idf, L=paris, O=vitam, OU=authorities, CN=ca_intermediate_client-storage
        Subject Public Key Info:
            Public Key Algorithm: rsaEncryption
                Public-Key: (4096 bit)
                Modulus:
                    00:a9:17:d3:62:18:2e:a9:38:16:75:6d:ce:85:b0:
                    74:74:dc:da:3d:b9:f0:59:61:67:c4:80:da:d9:1f:
                    9d:5c:fe:f2:f1:56:aa:02:f8:b2:fd:de:0d:b7:68:
                    87:71:75:bc:9b:84:f5:1f:d1:73:56:20:03:59:53:
                    3e:0f:6d:55:c4:50:fc:72:f0:74:ff:c6:53:d2:7d:
                    c0:c1:ef:68:85:aa:ad:7b:05:1a:5e:f8:2a:79:7b:
                    27:40:c9:f3:13:7f:5b:cf:89:9a:79:be:6d:30:e3:
                    2e:a6:7e:72:8c:41:f4:98:fc:76:d4:87:20:ea:8d:
                    56:12:7a:9d:c7:77:41:0d:0b:a2:27:a4:e8:b6:5c:
                    3a:18:2a:1e:2b:22:b5:de:bb:17:4a:6b:ea:6a:02:
                    a2:13:7d:22:40:07:29:c9:ac:6f:be:d0:10:dc:92:
                    79:39:a1:79:3d:95:b1:f8:8c:e0:67:ec:02:8a:89:
                    69:fe:4f:64:64:71:76:21:ca:1a:59:94:14:9d:6c:
                    cf:91:f7:04:1a:13:36:8a:70:1c:c1:a0:66:85:ee:
                    3e:4e:59:61:c6:4e:2d:3a:e4:ed:e6:97:da:d3:8d:
                    75:8b:87:71:52:1b:26:08:84:ea:dd:ac:61:22:ad:
                    ea:ea:70:c1:ee:1d:bc:d3:0b:30:01:84:2f:c6:cd:
                    ed:e3:78:77:d6:ea:0d:4c:19:84:0a:64:13:f7:80:
                    9d:12:07:bf:98:18:d6:7a:00:cf:fb:31:10:07:f1:
                    5b:dd:cd:74:df:2c:10:f8:fd:01:9a:a2:a7:4a:87:
                    91:a9:a6:61:9d:81:d3:10:bd:93:9c:31:75:2a:79:
                    a4:1e:43:67:02:17:45:9d:57:f4:2c:8f:5a:d7:05:
                    5f:2f:fb:36:df:0f:6e:bd:ad:0c:14:eb:b3:73:7e:
                    57:b9:17:39:87:ff:ef:3b:58:dd:88:f2:a9:05:e9:
                    0a:dc:be:f9:58:30:9d:62:fd:ff:48:ac:fd:c4:ea:
                    43:36:b8:cd:81:26:62:1a:7d:b3:be:a1:1e:82:e9:
                    17:71:db:fb:d4:4d:f5:72:f9:c4:76:5c:69:21:cc:
                    62:33:f9:7d:1d:58:1f:20:48:48:7f:32:29:94:d8:
                    cd:76:d7:3b:d3:f8:00:cd:82:b5:51:6f:ef:f8:eb:
                    98:c8:c3:bf:b8:0f:77:dc:24:8c:5f:25:b5:c0:f7:
                    3c:7a:3c:b9:37:44:15:01:7b:61:59:2f:f8:84:67:
                    e6:c5:70:ea:bd:88:bb:34:c1:68:fd:84:fe:57:48:
                    d9:a2:1f:f7:cb:72:b4:04:0a:80:87:ec:d6:31:0c:
                    96:78:35:2f:33:2c:3c:81:7f:62:b6:8f:ee:e7:af:
                    09:6d:ff
                Exponent: 65537 (0x10001)
        X509v3 extensions:
            Netscape Comment: 
                CA Intermediate
            X509v3 Subject Key Identifier: 
                D5:F4:89:61:79:E6:B5:2C:17:A8:0C:63:04:F4:69:54:D4:47:CF:13
            X509v3 Authority Key Identifier: 
                keyid:35:9F:85:06:1F:55:33:27:22:E3:8E:A6:33:03:72:18:53:8E:C2:BB
                DirName:/C=fr/ST=idf/L=paris/O=vitam/OU=authorities/CN=ca_root_client-storage
                serial:EA

            X509v3 Basic Constraints: critical
                CA:TRUE, pathlen:0
            X509v3 Issuer Alternative Name: 
                <EMPTY>

            X509v3 Key Usage: 
                Certificate Sign, CRL Sign
            Netscape Cert Type: 
                SSL CA
    Signature Algorithm: sha256WithRSAEncryption
         5f:2a:f7:62:1b:57:f4:ee:f2:1f:98:45:a6:99:c2:ed:df:78:
         84:a5:97:1a:dd:34:3c:0b:3f:2f:78:01:c8:1d:1f:51:c9:67:
         fc:39:91:00:eb:08:08:ec:d4:19:fe:cd:69:95:f5:c5:75:0d:
         54:25:9c:7d:0b:c3:92:7b:2b:89:7a:51:5e:d3:d7:43:6f:1a:
         8c:5b:e0:79:4c:92:fe:57:de:c8:36:7f:c4:15:c1:ce:b5:8e:
         29:cd:81:13:3f:7d:e7:fa:81:b5:d9:6e:d9:d8:63:d9:71:89:
         f1:3b:47:31:9f:17:8e:89:94:e1:e6:08:bc:fc:9a:41:3e:83:
         49:0f:46:7e:01:c3:5d:3e:2e:e4:b6:0b:34:5a:ed:d2:94:87:
         19:25:c6:99:5a:5b:79:55:39:7b:d2:8c:e1:94:f6:c9:3b:79:
         b5:f3:3e:19:65:37:9e:d9:eb:09:67:f4:5c:a7:9b:b2:b5:bf:
         a5:12:da:18:23:da:88:1d:bb:6c:ff:ea:55:0b:27:c0:0e:8a:
         b1:0b:75:ce:f2:40:16:f0:91:e0:09:ce:d1:68:e1:3d:8f:5d:
         61:34:ce:d5:97:2c:93:a6:30:26:6e:7e:a5:40:c4:f4:0f:ed:
         25:72:5a:e0:5f:f6:55:a2:f0:60:c8:88:a5:0c:d4:8d:86:28:
         66:a4:53:7d:d1:7c:ee:d3:37:a6:9c:d7:bd:12:ce:58:72:c6:
         b4:34:6b:10:af:92:44:66:70:22:30:af:b9:51:b5:3b:77:13:
         9a:83:64:aa:9a:c0:f9:c2:b3:76:6d:7a:9a:19:1a:df:ae:d5:
         6b:ab:14:4f:32:3a:f2:bc:37:a6:22:86:a3:76:ce:ae:07:3f:
         8a:f1:81:2b:c4:6a:2d:cd:f7:f9:2c:38:ee:8a:12:36:e0:b3:
         1e:3d:8f:14:c6:11:57:72:4e:1b:6b:7d:78:80:88:50:83:d7:
         9f:66:fa:65:c5:61:ab:6b:ee:8a:15:56:b3:69:04:df:22:8d:
         98:9e:30:00:39:35:9e:4c:34:98:07:bc:e1:5a:d8:9b:ff:81:
         5d:52:eb:55:94:ab:16:44:ad:42:52:e1:9e:e5:a6:dc:02:25:
         1d:24:e5:8f:8e:a9:15:90:b5:b6:90:80:94:f9:65:9b:15:b8:
         25:ba:ed:ad:3c:06:25:b3:b6:2a:18:80:9a:a0:17:a4:ff:a4:
         24:1a:a8:d1:f0:c3:0d:09:16:d8:b0:1a:80:3d:53:10:a6:f7:
         f9:0b:06:02:ec:10:15:e1:ec:b9:82:d4:f0:ee:f9:27:7d:f3:
         9c:40:6f:24:1d:a4:2a:84:c7:6a:7b:31:30:69:27:b3:5b:a4:
         e6:02:ef:1e:d6:f0:de:6d
-----BEGIN CERTIFICATE-----
MIIGjDCCBHSgAwIBAgICAOswDQYJKoZIhvcNAQELBQAwcjELMAkGA1UEBhMCZnIx
DDAKBgNVBAgMA2lkZjEOMAwGA1UEBwwFcGFyaXMxDjAMBgNVBAoMBXZpdGFtMRQw
EgYDVQQLDAthdXRob3JpdGllczEfMB0GA1UEAwwWY2Ffcm9vdF9jbGllbnQtc3Rv
cmFnZTAeFw0xODAyMjExNjM0NThaFw0yODAyMTkxNjM0NThaMHoxCzAJBgNVBAYT
AmZyMQwwCgYDVQQIDANpZGYxDjAMBgNVBAcMBXBhcmlzMQ4wDAYDVQQKDAV2aXRh
bTEUMBIGA1UECwwLYXV0aG9yaXRpZXMxJzAlBgNVBAMMHmNhX2ludGVybWVkaWF0
ZV9jbGllbnQtc3RvcmFnZTCCAiIwDQYJKoZIhvcNAQEBBQADggIPADCCAgoCggIB
AKkX02IYLqk4FnVtzoWwdHTc2j258FlhZ8SA2tkfnVz+8vFWqgL4sv3eDbdoh3F1
vJuE9R/Rc1YgA1lTPg9tVcRQ/HLwdP/GU9J9wMHvaIWqrXsFGl74Knl7J0DJ8xN/
W8+Jmnm+bTDjLqZ+coxB9Jj8dtSHIOqNVhJ6ncd3QQ0Loiek6LZcOhgqHisitd67
F0pr6moCohN9IkAHKcmsb77QENySeTmheT2VsfiM4GfsAoqJaf5PZGRxdiHKGlmU
FJ1sz5H3BBoTNopwHMGgZoXuPk5ZYcZOLTrk7eaX2tONdYuHcVIbJgiE6t2sYSKt
6upwwe4dvNMLMAGEL8bN7eN4d9bqDUwZhApkE/eAnRIHv5gY1noAz/sxEAfxW93N
dN8sEPj9AZqip0qHkammYZ2B0xC9k5wxdSp5pB5DZwIXRZ1X9CyPWtcFXy/7Nt8P
br2tDBTrs3N+V7kXOYf/7ztY3YjyqQXpCty++VgwnWL9/0is/cTqQza4zYEmYhp9
s76hHoLpF3Hb+9RN9XL5xHZcaSHMYjP5fR1YHyBISH8yKZTYzXbXO9P4AM2CtVFv
7/jrmMjDv7gPd9wkjF8ltcD3PHo8uTdEFQF7YVkv+IRn5sVw6r2IuzTBaP2E/ldI
2aIf98tytAQKgIfs1jEMlng1LzMsPIF/YraP7uevCW3/AgMBAAGjggEiMIIBHjAe
BglghkgBhvhCAQ0EERYPQ0EgSW50ZXJtZWRpYXRlMB0GA1UdDgQWBBTV9Ilheea1
LBeoDGME9GlU1EfPEzCBnQYDVR0jBIGVMIGSgBQ1n4UGH1UzJyLjjqYzA3IYU47C
u6F2pHQwcjELMAkGA1UEBhMCZnIxDDAKBgNVBAgMA2lkZjEOMAwGA1UEBwwFcGFy
aXMxDjAMBgNVBAoMBXZpdGFtMRQwEgYDVQQLDAthdXRob3JpdGllczEfMB0GA1UE
AwwWY2Ffcm9vdF9jbGllbnQtc3RvcmFnZYICAOowEgYDVR0TAQH/BAgwBgEB/wIB
ADAJBgNVHRIEAjAAMAsGA1UdDwQEAwIBBjARBglghkgBhvhCAQEEBAMCAgQwDQYJ
KoZIhvcNAQELBQADggIBAF8q92IbV/Tu8h+YRaaZwu3feISllxrdNDwLPy94Acgd
H1HJZ/w5kQDrCAjs1Bn+zWmV9cV1DVQlnH0Lw5J7K4l6UV7T10NvGoxb4HlMkv5X
3sg2f8QVwc61jinNgRM/fef6gbXZbtnYY9lxifE7RzGfF46JlOHmCLz8mkE+g0kP
Rn4Bw10+LuS2CzRa7dKUhxklxplaW3lVOXvSjOGU9sk7ebXzPhllN57Z6wln9Fyn
m7K1v6US2hgj2ogdu2z/6lULJ8AOirELdc7yQBbwkeAJztFo4T2PXWE0ztWXLJOm
MCZufqVAxPQP7SVyWuBf9lWi8GDIiKUM1I2GKGakU33RfO7TN6ac170SzlhyxrQ0
axCvkkRmcCIwr7lRtTt3E5qDZKqawPnCs3ZtepoZGt+u1WurFE8yOvK8N6YihqN2
zq4HP4rxgSvEai3N9/ksOO6KEjbgsx49jxTGEVdyThtrfXiAiFCD159m+mXFYatr
7ooVVrNpBN8ijZieMAA5NZ5MNJgHvOFa2Jv/gV1S61WUqxZErUJS4Z7lptwCJR0k
5Y+OqRWQtbaQgJT5ZZsVuCW67a08BiWztioYgJqgF6T/pCQaqNHwww0JFtiwGoA9
UxCm9/kLBgLsEBXh7LmC1PDu+Sd985xAbyQdpCqEx2p7MTBpJ7NbpOYC7x7W8N5t
-----END CERTIFICATE-----
