Certificate:
    Data:
        Version: 3 (0x2)
        Serial Number: 245 (0xf5)
    Signature Algorithm: sha256WithRSAEncryption
        Issuer: C=fr, ST=idf, L=paris, O=vitam, OU=authorities, CN=ca_root_client-storage
        Validity
            Not Before: Oct 19 08:31:01 2018 GMT
            Not After : Oct 16 08:31:01 2028 GMT
        Subject: C=fr, ST=idf, L=paris, O=vitam, OU=authorities, CN=ca_intermediate_client-storage
        Subject Public Key Info:
            Public Key Algorithm: rsaEncryption
                Public-Key: (4096 bit)
                Modulus:
                    00:b2:9d:6c:c1:43:e9:67:ad:b9:95:6d:39:e0:c6:
                    0f:9b:3c:10:19:cb:27:ad:80:1e:6d:b5:8e:19:e5:
                    2e:fd:61:de:70:a5:a6:d8:26:91:4a:62:9f:b7:fc:
                    7a:bc:30:74:a2:97:74:11:ad:65:fe:b1:04:99:c0:
                    92:f0:58:5e:2c:a0:83:00:73:5c:33:73:e0:e8:56:
                    a2:cd:58:1d:9c:1b:3b:c8:b8:d2:c5:ff:13:4c:d9:
                    35:66:fd:3a:00:7b:87:64:33:0a:0e:52:4f:f0:1f:
                    65:65:ec:8d:f0:5c:95:87:ad:4f:8e:df:f0:11:9c:
                    e2:a3:c9:d4:9d:10:40:d0:fa:81:16:50:4c:7d:86:
                    f8:35:89:da:57:dd:21:fb:9e:d2:4e:81:26:8a:de:
                    fe:5c:a1:09:19:19:b2:96:06:d2:94:49:62:7d:9f:
                    32:cc:43:1e:93:b2:8d:98:ca:17:a2:b1:fa:a1:00:
                    f3:4d:0c:14:fa:d9:38:c5:65:59:26:eb:13:b0:6a:
                    10:cb:ce:b8:ce:52:e8:7b:1b:09:4a:16:5d:16:35:
                    33:d5:c8:2a:e8:31:5b:3c:56:3d:fd:bc:3b:a4:c1:
                    21:2f:9e:83:2e:a3:80:2a:e2:19:28:0a:f6:49:ac:
                    c8:b1:0e:92:e0:8b:01:73:97:53:67:5d:c4:70:fc:
                    33:bc:c0:c3:fa:65:1e:f4:bf:5f:35:2e:ec:d6:d0:
                    04:0d:07:18:d1:b3:78:45:96:50:60:77:5b:db:e0:
                    f5:ac:2f:31:74:a9:91:b6:5f:ba:76:10:85:ed:9f:
                    4b:97:e7:c9:f7:cc:59:d2:ea:c4:ff:4d:ab:1e:11:
                    5f:74:f4:3b:a6:f8:43:73:5e:2a:46:c6:fd:b8:6f:
                    6a:e5:ae:75:6f:6d:7e:d0:8b:b9:43:db:9a:aa:1b:
                    55:f7:aa:42:e4:40:f1:bd:d5:96:9b:4f:a8:e8:3c:
                    54:8a:82:ed:0f:e1:61:c1:7a:7d:1b:7c:93:ce:47:
                    ef:41:57:01:84:8a:0b:21:a2:e9:ed:da:d6:f8:40:
                    79:e4:48:a5:03:14:d4:bf:33:9f:e5:b7:ca:af:8f:
                    77:c1:b7:f8:4f:71:16:d5:20:8b:70:c2:15:ee:1b:
                    af:bc:a7:36:4e:82:5c:45:c9:64:8e:c2:f7:c4:13:
                    54:86:7e:c9:6f:6c:bb:61:9a:6b:96:b4:58:b4:47:
                    81:8a:8a:b1:51:61:60:ff:34:a7:22:c2:86:d4:57:
                    70:25:23:06:d5:de:e6:86:c9:b6:e8:6c:04:2f:af:
                    4d:65:49:fd:8c:6e:b6:64:60:e4:c0:82:b7:f9:af:
                    64:65:b2:d9:67:fc:13:83:5a:6d:7d:21:41:d6:b3:
                    c7:3d:73
                Exponent: 65537 (0x10001)
        X509v3 extensions:
            Netscape Comment: 
                CA Intermediate
            X509v3 Subject Key Identifier: 
                F3:8A:B6:DA:E7:8A:39:F3:FB:45:87:70:A7:4F:A7:31:50:94:97:D3
            X509v3 Authority Key Identifier: 
                keyid:3A:DF:C0:28:D1:B2:3B:55:BA:DA:55:E3:44:8D:54:98:E9:76:29:42
                DirName:/C=fr/ST=idf/L=paris/O=vitam/OU=authorities/CN=ca_root_client-storage
                serial:F4

            X509v3 Basic Constraints: critical
                CA:TRUE, pathlen:0
            X509v3 Issuer Alternative Name: 
                <EMPTY>

            X509v3 Key Usage: 
                Certificate Sign, CRL Sign
            Netscape Cert Type: 
                SSL CA
    Signature Algorithm: sha256WithRSAEncryption
         9b:fb:56:22:3d:e9:5f:36:52:12:4c:02:4d:32:42:7b:72:a6:
         16:01:35:49:ea:00:0f:24:59:01:68:33:5c:89:a6:22:1d:96:
         49:0d:05:92:4a:f3:d9:ac:de:05:19:58:2c:79:5e:3d:93:53:
         1e:63:d9:8d:3a:aa:b0:9e:f1:f7:52:4b:13:95:93:20:86:ab:
         f2:83:e6:51:ce:f3:4b:43:8d:03:b1:b1:7f:47:f6:cf:41:23:
         52:c9:b5:93:f2:37:1a:9c:f1:f8:23:cf:9b:d4:91:b4:23:8d:
         89:1d:2e:35:2e:6a:a3:59:db:53:79:50:58:ea:1f:e1:73:58:
         d8:12:69:f3:2b:6a:83:31:63:5c:1c:ec:57:33:fb:36:76:4a:
         e4:c6:a0:84:2d:73:76:c5:1c:eb:6b:a4:00:b0:b9:35:ed:9d:
         6a:f9:42:bc:af:4d:79:d5:d3:02:39:89:6e:63:3f:5e:9e:4d:
         5d:5d:cd:ba:d1:88:f0:01:da:e5:02:c2:0c:66:aa:cd:db:ff:
         5f:b3:ed:f9:de:e3:63:6d:61:6d:e4:95:63:61:fa:b6:3c:4e:
         69:ff:9e:f5:4c:b3:ec:e2:9c:79:c3:66:dd:b5:fe:c5:94:ed:
         88:db:14:f9:6e:7e:73:10:96:c8:c1:ca:23:b7:fc:9a:01:77:
         5b:ef:91:d7:d8:06:ee:93:a4:60:8f:8b:99:c4:0f:a7:7d:7b:
         fe:4b:7f:3a:1c:82:eb:1b:39:7c:bf:af:7b:df:74:94:0c:6f:
         ff:c8:54:cb:5d:5d:0e:44:65:9f:45:53:36:63:8a:0f:8b:b7:
         3c:fe:f5:03:20:74:cc:22:88:84:73:ca:c4:70:b1:a0:1f:fd:
         8f:cc:2e:01:c6:85:b3:db:d5:a4:7c:d8:3d:5a:2a:30:28:80:
         fa:7e:5b:79:d3:e1:ab:5a:e0:41:9e:6f:08:f3:25:c8:cb:75:
         04:8b:2b:6d:c1:39:72:14:35:95:61:12:6a:43:6e:66:52:4b:
         24:6f:c0:94:ce:a3:f3:2f:24:dc:04:33:73:eb:70:f4:d2:d7:
         36:5d:8c:c5:9d:7e:74:53:bb:34:73:04:92:c2:0b:d1:46:83:
         e0:bc:b5:28:e2:ba:be:77:a5:9a:ba:2e:b2:f7:49:22:d4:cf:
         f5:a8:cd:d2:0a:f4:e9:e6:e7:41:55:2d:da:59:f4:6d:f2:61:
         2b:3f:83:30:2d:4b:e1:5a:52:22:02:1f:b5:80:96:a5:61:0a:
         70:5b:a6:cc:96:1c:4d:09:e4:10:18:b5:5e:ab:e5:d9:81:06:
         c7:fd:24:5c:2b:ef:1f:0d:81:45:60:10:ed:78:aa:4b:d1:6a:
         e6:3e:60:c7:a0:68:d6:67
-----BEGIN CERTIFICATE-----
MIIGjDCCBHSgAwIBAgICAPUwDQYJKoZIhvcNAQELBQAwcjELMAkGA1UEBhMCZnIx
DDAKBgNVBAgMA2lkZjEOMAwGA1UEBwwFcGFyaXMxDjAMBgNVBAoMBXZpdGFtMRQw
EgYDVQQLDAthdXRob3JpdGllczEfMB0GA1UEAwwWY2Ffcm9vdF9jbGllbnQtc3Rv
cmFnZTAeFw0xODEwMTkwODMxMDFaFw0yODEwMTYwODMxMDFaMHoxCzAJBgNVBAYT
AmZyMQwwCgYDVQQIDANpZGYxDjAMBgNVBAcMBXBhcmlzMQ4wDAYDVQQKDAV2aXRh
bTEUMBIGA1UECwwLYXV0aG9yaXRpZXMxJzAlBgNVBAMMHmNhX2ludGVybWVkaWF0
ZV9jbGllbnQtc3RvcmFnZTCCAiIwDQYJKoZIhvcNAQEBBQADggIPADCCAgoCggIB
ALKdbMFD6WetuZVtOeDGD5s8EBnLJ62AHm21jhnlLv1h3nClptgmkUpin7f8erww
dKKXdBGtZf6xBJnAkvBYXiyggwBzXDNz4OhWos1YHZwbO8i40sX/E0zZNWb9OgB7
h2QzCg5ST/AfZWXsjfBclYetT47f8BGc4qPJ1J0QQND6gRZQTH2G+DWJ2lfdIfue
0k6BJore/lyhCRkZspYG0pRJYn2fMsxDHpOyjZjKF6Kx+qEA800MFPrZOMVlWSbr
E7BqEMvOuM5S6HsbCUoWXRY1M9XIKugxWzxWPf28O6TBIS+egy6jgCriGSgK9kms
yLEOkuCLAXOXU2ddxHD8M7zAw/plHvS/XzUu7NbQBA0HGNGzeEWWUGB3W9vg9awv
MXSpkbZfunYQhe2fS5fnyffMWdLqxP9Nqx4RX3T0O6b4Q3NeKkbG/bhvauWudW9t
ftCLuUPbmqobVfeqQuRA8b3VlptPqOg8VIqC7Q/hYcF6fRt8k85H70FXAYSKCyGi
6e3a1vhAeeRIpQMU1L8zn+W3yq+Pd8G3+E9xFtUgi3DCFe4br7ynNk6CXEXJZI7C
98QTVIZ+yW9su2Gaa5a0WLRHgYqKsVFhYP80pyLChtRXcCUjBtXe5obJtuhsBC+v
TWVJ/YxutmRg5MCCt/mvZGWy2Wf8E4NabX0hQdazxz1zAgMBAAGjggEiMIIBHjAe
BglghkgBhvhCAQ0EERYPQ0EgSW50ZXJtZWRpYXRlMB0GA1UdDgQWBBTzirba54o5
8/tFh3CnT6cxUJSX0zCBnQYDVR0jBIGVMIGSgBQ638Ao0bI7VbraVeNEjVSY6XYp
QqF2pHQwcjELMAkGA1UEBhMCZnIxDDAKBgNVBAgMA2lkZjEOMAwGA1UEBwwFcGFy
aXMxDjAMBgNVBAoMBXZpdGFtMRQwEgYDVQQLDAthdXRob3JpdGllczEfMB0GA1UE
AwwWY2Ffcm9vdF9jbGllbnQtc3RvcmFnZYICAPQwEgYDVR0TAQH/BAgwBgEB/wIB
ADAJBgNVHRIEAjAAMAsGA1UdDwQEAwIBBjARBglghkgBhvhCAQEEBAMCAgQwDQYJ
KoZIhvcNAQELBQADggIBAJv7ViI96V82UhJMAk0yQntyphYBNUnqAA8kWQFoM1yJ
piIdlkkNBZJK89ms3gUZWCx5Xj2TUx5j2Y06qrCe8fdSSxOVkyCGq/KD5lHO80tD
jQOxsX9H9s9BI1LJtZPyNxqc8fgjz5vUkbQjjYkdLjUuaqNZ21N5UFjqH+FzWNgS
afMraoMxY1wc7Fcz+zZ2SuTGoIQtc3bFHOtrpACwuTXtnWr5QryvTXnV0wI5iW5j
P16eTV1dzbrRiPAB2uUCwgxmqs3b/1+z7fne42NtYW3klWNh+rY8Tmn/nvVMs+zi
nHnDZt21/sWU7YjbFPlufnMQlsjByiO3/JoBd1vvkdfYBu6TpGCPi5nED6d9e/5L
fzocgusbOXy/r3vfdJQMb//IVMtdXQ5EZZ9FUzZjig+Ltzz+9QMgdMwiiIRzysRw
saAf/Y/MLgHGhbPb1aR82D1aKjAogPp+W3nT4ata4EGebwjzJcjLdQSLK23BOXIU
NZVhEmpDbmZSSyRvwJTOo/MvJNwEM3PrcPTS1zZdjMWdfnRTuzRzBJLCC9FGg+C8
tSjiur53pZq6LrL3SSLUz/WozdIK9Onm50FVLdpZ9G3yYSs/gzAtS+FaUiICH7WA
lqVhCnBbpsyWHE0J5BAYtV6r5dmBBsf9JFwr7x8NgUVgEO14qkvRauY+YMegaNZn
-----END CERTIFICATE-----
