Certificate:
    Data:
        Version: 3 (0x2)
        Serial Number: 244 (0xf4)
    Signature Algorithm: sha256WithRSAEncryption
        Issuer: C=fr, ST=idf, L=paris, O=vitam, OU=authorities, CN=ca_root_client-storage
        Validity
            Not Before: Oct 19 08:31:00 2018 GMT
            Not After : Oct 16 08:31:00 2028 GMT
        Subject: C=fr, ST=idf, L=paris, O=vitam, OU=authorities, CN=ca_root_client-storage
        Subject Public Key Info:
            Public Key Algorithm: rsaEncryption
                Public-Key: (4096 bit)
                Modulus:
                    00:db:2b:24:7c:a3:fa:24:e3:08:2e:52:32:35:0f:
                    ab:4b:c8:91:29:8f:ae:58:6a:5b:30:b9:32:94:7e:
                    b5:ac:aa:92:f6:8f:3e:31:cc:27:c6:b4:e2:a5:0f:
                    d6:c6:7e:85:92:32:12:bb:52:68:79:17:42:50:33:
                    4f:c9:e3:78:32:0e:45:10:45:0d:df:3c:23:e7:ab:
                    6d:d7:e2:be:76:4c:ba:d5:fd:fd:e2:d0:ef:e3:68:
                    55:77:ca:5b:a4:df:5d:4a:46:ce:c9:c2:6f:67:2e:
                    88:08:bc:13:24:6f:2d:4f:a0:60:6a:ff:94:7f:d7:
                    61:c5:64:7f:ba:ba:7d:08:bb:d7:11:21:87:25:1f:
                    f4:39:21:8c:ac:b1:e9:f5:5b:d4:e1:c3:33:eb:a1:
                    1b:ec:cf:18:bf:bc:0a:7f:57:da:57:d4:74:91:c2:
                    67:6a:63:3c:e2:dd:0b:c8:6c:1f:56:d3:23:1c:dd:
                    c3:81:62:ca:ae:61:f6:69:4e:eb:c9:17:55:57:2f:
                    ce:28:1c:c6:9c:aa:48:d4:f8:4c:0e:b9:56:8a:08:
                    a2:a0:6f:ac:79:64:81:09:21:e5:37:12:c3:8a:88:
                    61:e2:1e:81:f5:b6:c8:09:59:2c:14:67:a0:3f:7f:
                    9d:cc:fc:13:33:5c:03:eb:7e:09:71:bb:59:5d:6c:
                    a2:3b:5d:63:e1:74:bd:a8:48:5f:76:be:2e:6f:55:
                    9b:35:68:62:02:76:65:9e:ed:85:3c:a8:95:60:bc:
                    5f:c5:9e:6d:54:4d:d6:e2:27:e1:7e:ec:0d:65:e5:
                    a9:88:d9:9b:4d:0e:62:31:d7:3d:19:d3:34:40:f2:
                    2f:55:76:d4:54:7a:a1:e5:56:5b:4f:3c:c5:cd:ba:
                    56:e3:5e:75:c5:2e:ab:0d:dd:07:4b:72:b7:b6:42:
                    69:12:50:d0:8d:e1:3a:d6:54:9f:03:d7:60:31:1e:
                    68:97:17:40:ca:b2:e6:6a:db:04:48:ef:35:ce:a0:
                    53:6a:94:af:a9:b8:f4:62:59:c3:c0:7b:94:3a:c0:
                    62:e4:f9:1d:46:98:1d:e7:a3:a9:c0:30:72:ee:07:
                    44:5e:0e:b4:34:d8:7b:b2:70:80:1e:d5:bd:fb:2f:
                    88:96:4a:19:59:c2:b2:c2:99:8c:a5:4b:fe:05:2c:
                    43:ad:ab:82:f7:20:b1:e2:dc:b7:2e:2f:37:5d:f3:
                    81:95:7a:8e:a2:2f:63:30:c2:26:15:9d:2c:6e:80:
                    8d:01:21:cc:12:86:5f:7e:d0:bb:48:a8:8b:5c:8b:
                    3b:0f:ed:46:92:75:da:ca:55:1b:28:88:c3:cd:5e:
                    84:ae:db:50:b8:34:da:62:21:be:e4:c8:cc:70:de:
                    55:b5:39
                Exponent: 65537 (0x10001)
        X509v3 extensions:
            Netscape Comment: 
                CA Root
            X509v3 Subject Key Identifier: 
                3A:DF:C0:28:D1:B2:3B:55:BA:DA:55:E3:44:8D:54:98:E9:76:29:42
            X509v3 Authority Key Identifier: 
                keyid:3A:DF:C0:28:D1:B2:3B:55:BA:DA:55:E3:44:8D:54:98:E9:76:29:42

            X509v3 Basic Constraints: critical
                CA:TRUE, pathlen:1
            X509v3 Key Usage: 
                Certificate Sign, CRL Sign
            Netscape Cert Type: 
                SSL CA
    Signature Algorithm: sha256WithRSAEncryption
         59:9f:33:7f:12:ab:11:d0:62:50:f7:8e:31:75:2a:96:01:ab:
         bf:f9:67:f6:b2:4e:a7:ab:fb:b5:96:93:e6:a2:0a:f9:69:d9:
         db:24:0d:54:0d:a5:32:be:1c:13:eb:40:18:1a:27:74:3f:34:
         9d:ff:fa:ea:6c:6a:b4:60:2d:bd:f8:92:82:9e:17:ed:dc:fc:
         ae:89:30:87:63:7c:79:26:fe:c7:e4:87:8d:8e:77:3c:02:d4:
         f9:cd:74:1c:87:73:d8:a9:30:d7:6d:9c:41:25:56:78:c9:db:
         f0:f3:ad:db:f4:63:1e:cb:e0:91:13:ae:b4:7f:ef:ae:b7:24:
         ce:ff:f2:8b:46:b5:7b:b8:7b:a3:55:b9:f5:b4:4a:ed:aa:79:
         16:6f:4e:e4:46:95:20:9b:94:4b:77:18:05:46:f4:21:f5:f0:
         64:42:82:89:d5:82:f9:84:83:9c:29:03:e9:c5:b4:12:46:42:
         49:1b:d7:49:04:ce:d3:c4:d8:9f:ba:37:14:5a:ba:92:34:1c:
         fd:27:26:41:d1:7e:ff:49:5e:66:34:ee:13:2d:a4:17:f1:24:
         6d:59:24:48:dd:18:ab:da:ac:a0:bd:89:08:0e:63:c5:8a:3f:
         a7:a4:37:3f:4f:c1:c1:17:af:01:8e:e9:03:93:6c:dd:d3:2d:
         7c:fe:30:c8:19:c0:8e:3d:e7:7c:6d:ba:28:cd:8d:c7:31:44:
         99:8a:8e:5c:64:1f:13:d2:85:4b:c1:86:5f:b3:4c:4d:cc:55:
         97:fc:e8:7c:76:e2:a3:d8:50:14:be:2a:df:2a:5a:3a:e9:c9:
         4a:1d:fc:25:89:fd:32:24:09:5a:48:e0:ed:c0:c6:07:87:0b:
         fe:72:88:20:f6:96:f7:a5:51:13:ed:9b:6e:f6:2b:82:c7:f1:
         cb:c6:9a:ac:39:df:e2:ca:2f:89:db:55:30:ed:2e:08:9a:4a:
         6e:55:36:07:5c:a1:57:95:0f:3e:21:e6:83:8c:16:fe:1c:12:
         56:4c:05:33:c2:16:fe:15:12:9b:82:bd:dd:98:9a:e9:58:c3:
         1b:67:de:0d:2b:ea:29:c9:54:e7:27:cf:29:cd:d2:41:0c:61:
         5f:dd:37:65:70:0f:54:99:1b:f4:17:d7:23:18:68:7d:a3:12:
         f4:d7:5e:ed:cc:fa:05:77:ab:09:89:4e:4d:c1:6a:f9:cb:4e:
         cb:1e:8c:c4:87:6b:92:1e:e2:2a:e6:ca:c1:87:1b:4c:e4:6c:
         16:41:ff:26:ff:26:9b:f6:ee:cc:a0:58:3c:39:08:b3:c7:73:
         5f:7a:be:ab:81:82:06:84:73:21:6c:84:3a:5f:6d:ae:99:75:
         67:3e:2e:cc:31:3a:2d:c6
-----BEGIN CERTIFICATE-----
MIIF8DCCA9igAwIBAgICAPQwDQYJKoZIhvcNAQELBQAwcjELMAkGA1UEBhMCZnIx
DDAKBgNVBAgMA2lkZjEOMAwGA1UEBwwFcGFyaXMxDjAMBgNVBAoMBXZpdGFtMRQw
EgYDVQQLDAthdXRob3JpdGllczEfMB0GA1UEAwwWY2Ffcm9vdF9jbGllbnQtc3Rv
cmFnZTAeFw0xODEwMTkwODMxMDBaFw0yODEwMTYwODMxMDBaMHIxCzAJBgNVBAYT
AmZyMQwwCgYDVQQIDANpZGYxDjAMBgNVBAcMBXBhcmlzMQ4wDAYDVQQKDAV2aXRh
bTEUMBIGA1UECwwLYXV0aG9yaXRpZXMxHzAdBgNVBAMMFmNhX3Jvb3RfY2xpZW50
LXN0b3JhZ2UwggIiMA0GCSqGSIb3DQEBAQUAA4ICDwAwggIKAoICAQDbKyR8o/ok
4wguUjI1D6tLyJEpj65YalswuTKUfrWsqpL2jz4xzCfGtOKlD9bGfoWSMhK7Umh5
F0JQM0/J43gyDkUQRQ3fPCPnq23X4r52TLrV/f3i0O/jaFV3yluk311KRs7Jwm9n
LogIvBMkby1PoGBq/5R/12HFZH+6un0Iu9cRIYclH/Q5IYyssen1W9ThwzProRvs
zxi/vAp/V9pX1HSRwmdqYzzi3QvIbB9W0yMc3cOBYsquYfZpTuvJF1VXL84oHMac
qkjU+EwOuVaKCKKgb6x5ZIEJIeU3EsOKiGHiHoH1tsgJWSwUZ6A/f53M/BMzXAPr
fglxu1ldbKI7XWPhdL2oSF92vi5vVZs1aGICdmWe7YU8qJVgvF/Fnm1UTdbiJ+F+
7A1l5amI2ZtNDmIx1z0Z0zRA8i9VdtRUeqHlVltPPMXNulbjXnXFLqsN3QdLcre2
QmkSUNCN4TrWVJ8D12AxHmiXF0DKsuZq2wRI7zXOoFNqlK+puPRiWcPAe5Q6wGLk
+R1GmB3no6nAMHLuB0ReDrQ02HuycIAe1b37L4iWShlZwrLCmYylS/4FLEOtq4L3
ILHi3LcuLzdd84GVeo6iL2MwwiYVnSxugI0BIcwShl9+0LtIqItcizsP7UaSddrK
VRsoiMPNXoSu21C4NNpiIb7kyMxw3lW1OQIDAQABo4GPMIGMMBYGCWCGSAGG+EIB
DQQJFgdDQSBSb290MB0GA1UdDgQWBBQ638Ao0bI7VbraVeNEjVSY6XYpQjAfBgNV
HSMEGDAWgBQ638Ao0bI7VbraVeNEjVSY6XYpQjASBgNVHRMBAf8ECDAGAQH/AgEB
MAsGA1UdDwQEAwIBBjARBglghkgBhvhCAQEEBAMCAgQwDQYJKoZIhvcNAQELBQAD
ggIBAFmfM38SqxHQYlD3jjF1KpYBq7/5Z/ayTqer+7WWk+aiCvlp2dskDVQNpTK+
HBPrQBgaJ3Q/NJ3/+upsarRgLb34koKeF+3c/K6JMIdjfHkm/sfkh42OdzwC1PnN
dByHc9ipMNdtnEElVnjJ2/Dzrdv0Yx7L4JETrrR/7663JM7/8otGtXu4e6NVufW0
Su2qeRZvTuRGlSCblEt3GAVG9CH18GRCgonVgvmEg5wpA+nFtBJGQkkb10kEztPE
2J+6NxRaupI0HP0nJkHRfv9JXmY07hMtpBfxJG1ZJEjdGKvarKC9iQgOY8WKP6ek
Nz9PwcEXrwGO6QOTbN3TLXz+MMgZwI4953xtuijNjccxRJmKjlxkHxPShUvBhl+z
TE3MVZf86Hx24qPYUBS+Kt8qWjrpyUod/CWJ/TIkCVpI4O3AxgeHC/5yiCD2lvel
URPtm272K4LH8cvGmqw53+LKL4nbVTDtLgiaSm5VNgdcoVeVDz4h5oOMFv4cElZM
BTPCFv4VEpuCvd2YmulYwxtn3g0r6inJVOcnzynN0kEMYV/dN2VwD1SZG/QX1yMY
aH2jEvTXXu3M+gV3qwmJTk3BavnLTssejMSHa5Ie4irmysGHG0zkbBZB/yb/Jpv2
7sygWDw5CLPHc196vquBggaEcyFshDpfba6ZdWc+LswxOi3G
-----END CERTIFICATE-----
