Certificate:
    Data:
        Version: 3 (0x2)
        Serial Number: 247 (0xf7)
        Signature Algorithm: sha256WithRSAEncryption
        Issuer: C=fr, ST=idf, L=paris, O=vitam, OU=authorities, CN=ca_root_client-storage
        Validity
            Not Before: Sep 15 12:58:46 2020 GMT
            Not After : Dec 31 23:59:59 9999 GMT
        Subject: C=fr, ST=idf, L=paris, O=vitam, OU=authorities, CN=ca_root_client-storage
        Subject Public Key Info:
            Public Key Algorithm: rsaEncryption
                RSA Public-Key: (4096 bit)
                Modulus:
                    00:dc:f2:9c:e7:70:f2:dd:a3:41:6a:4d:74:bc:af:
                    ea:3b:c5:79:d8:68:95:42:a9:a1:30:6b:36:cd:e3:
                    ce:9f:ac:80:5b:bb:0a:4c:47:16:f3:9b:b0:82:2d:
                    a1:f6:56:84:34:7f:73:fd:51:f0:53:4d:9d:b9:eb:
                    d1:1c:d1:c1:2c:7e:e9:00:ba:26:bd:ef:c5:88:42:
                    7b:f1:f3:58:82:93:26:76:f1:14:95:6e:ff:2b:f0:
                    f3:af:52:29:cf:e2:86:9c:c9:db:ba:8b:b9:48:b3:
                    a5:22:cc:e1:11:2d:a6:df:6e:20:ba:a0:84:86:dc:
                    30:4d:4f:04:8d:d3:03:53:22:78:16:12:3a:6c:ff:
                    51:3a:07:0c:37:c5:5c:1d:52:dd:39:dd:4e:b5:22:
                    33:6f:fe:54:e9:a1:f3:a7:f1:1b:85:51:18:b4:e7:
                    39:16:ae:d6:4d:c7:6b:2a:86:f5:46:65:3e:99:1f:
                    08:a6:b3:96:56:86:73:2f:b9:b7:4d:64:b3:b0:ac:
                    9f:a4:53:cb:13:61:86:d7:1c:d7:ed:a1:58:2b:85:
                    92:f8:91:98:aa:86:99:13:fc:53:7e:03:19:5e:a3:
                    08:15:97:d9:4d:c8:e5:c0:3f:88:39:3f:2d:04:12:
                    cd:8f:ee:24:e4:f3:8b:11:53:e6:21:a4:b0:bd:85:
                    17:35:dc:bb:84:6b:fa:59:fd:b8:75:c9:e2:24:70:
                    12:1f:b8:d8:21:c6:a0:ce:3b:17:42:c4:2e:03:c7:
                    9e:79:d9:34:f6:3c:b6:8a:aa:c7:2b:24:a7:b7:7b:
                    cf:5f:64:d9:0b:22:77:e4:fe:00:50:7e:af:ff:ed:
                    3a:ec:83:90:dd:f6:cf:b8:25:a6:13:fe:0b:dd:24:
                    fa:6e:46:61:07:ba:bb:7b:94:bc:3f:ca:fa:d4:0a:
                    2b:19:c3:2b:45:25:85:62:5d:e4:54:58:41:62:83:
                    c9:2f:32:09:1b:f0:9f:39:ed:36:14:26:d9:3b:b2:
                    eb:51:3c:07:40:6a:7b:6c:a2:ee:e8:2c:39:b9:50:
                    f0:35:de:3b:c4:9b:59:90:9b:9d:21:26:1f:31:2f:
                    3f:a6:12:73:54:a9:4e:40:31:ea:2b:1d:ec:77:4e:
                    4b:d1:40:2e:8f:5c:af:b8:bb:2a:5a:38:2d:60:ef:
                    ee:14:0b:b2:e1:42:93:10:7e:bd:50:05:81:56:6d:
                    3e:6e:d5:ec:3b:f2:19:aa:75:99:b8:aa:75:07:6c:
                    a4:44:7c:ba:35:c9:b5:54:33:73:af:f4:69:d6:d1:
                    fc:c1:f8:8f:a4:14:a0:af:25:8e:8d:64:dd:b2:fc:
                    cd:b8:91:37:66:87:6e:58:12:1f:44:76:c3:45:f3:
                    c8:f0:5d
                Exponent: 65537 (0x10001)
        X509v3 extensions:
            Netscape Comment: 
                CA Root
            X509v3 Subject Key Identifier: 
                94:33:94:E8:B8:02:70:52:31:F5:6F:CC:A4:50:FF:19:26:76:41:A0
            X509v3 Authority Key Identifier: 
                keyid:94:33:94:E8:B8:02:70:52:31:F5:6F:CC:A4:50:FF:19:26:76:41:A0

            X509v3 Basic Constraints: critical
                CA:TRUE, pathlen:1
            X509v3 Key Usage: 
                Certificate Sign, CRL Sign
            Netscape Cert Type: 
                SSL CA
    Signature Algorithm: sha256WithRSAEncryption
         bc:b4:9b:39:78:ba:0b:e8:26:cd:23:b3:7e:4b:3f:a5:42:d7:
         1e:ad:83:05:f0:7c:8f:6a:3c:53:4a:9f:6b:9a:e2:f5:fe:35:
         1c:ec:c0:90:49:32:68:f8:2a:e0:4e:30:c6:12:d7:05:be:02:
         1b:f9:6e:9c:08:67:b6:47:59:01:32:02:a1:2d:cd:75:75:65:
         4f:32:27:9e:f1:ea:5a:d4:80:7a:2b:e7:6a:f9:65:c3:b6:cb:
         76:36:99:9a:4b:aa:4e:b7:d4:b8:ea:31:1c:2f:9b:68:d9:bd:
         c8:db:cc:70:ba:49:a1:61:8a:b9:51:9b:e2:02:7f:3d:f5:ac:
         5a:1a:28:30:75:e9:f3:be:a6:bd:ae:ed:4b:5b:62:a0:1b:a3:
         95:f5:ed:34:6c:92:38:9b:d1:c7:c1:81:54:e8:fa:74:2d:c5:
         5e:79:7f:91:03:58:4f:d2:89:45:ac:7b:b1:04:fd:7d:f0:51:
         6c:41:69:4b:00:fe:61:bb:a0:84:5c:22:5b:36:ac:3a:ad:37:
         12:53:8e:e2:35:1c:5f:15:5d:f2:3a:86:e5:83:0c:bf:54:fb:
         18:21:48:91:6c:c3:b3:33:4f:6d:ff:86:a0:42:7f:48:5c:c6:
         d5:67:03:83:c2:fb:be:00:79:fe:0b:6c:2f:c8:4b:e8:01:29:
         86:d3:ee:8e:39:a7:67:91:64:71:95:01:64:74:2a:41:ed:b0:
         ef:7e:c1:5e:92:31:d9:47:d4:05:17:36:d2:ef:da:e9:c9:7f:
         c1:3b:b6:c1:ae:b8:27:2a:83:4e:12:50:16:fd:e8:07:2b:c8:
         68:67:da:b8:6a:d5:67:2d:38:0b:08:44:27:80:b6:97:1e:f2:
         be:2c:2c:28:7b:51:c7:2e:6d:cf:37:8d:4c:ce:e0:6e:e9:82:
         6d:c7:63:ab:04:b2:c2:c0:7d:85:a5:bd:6a:e8:91:48:e0:0c:
         14:77:08:6f:d9:69:71:e8:bc:59:93:ac:c2:23:a9:4a:de:5f:
         b5:0b:4b:ed:23:32:83:af:63:9f:7b:6f:57:fe:d5:e4:1e:61:
         14:39:41:0f:a6:c3:21:6e:ab:52:51:d9:91:82:e1:b9:33:74:
         fd:27:7a:a9:a4:f6:57:f7:83:87:4f:f3:64:0b:1e:45:ba:7d:
         29:6a:33:c9:1f:f8:a6:92:04:02:55:d6:0a:2a:1d:ee:3c:cd:
         32:fe:43:f2:db:7f:38:97:5d:24:02:cf:7a:4c:4c:88:29:be:
         a5:0e:dd:02:f4:ae:3f:b1:22:45:2e:7e:5c:17:64:44:d7:9a:
         53:cd:1b:9c:f8:ef:c5:cb:a3:44:13:55:49:b5:2a:a0:ca:f1:
         2a:a0:4a:19:de:fc:12:ab
-----BEGIN CERTIFICATE-----
MIIF8jCCA9qgAwIBAgICAPcwDQYJKoZIhvcNAQELBQAwcjELMAkGA1UEBhMCZnIx
DDAKBgNVBAgMA2lkZjEOMAwGA1UEBwwFcGFyaXMxDjAMBgNVBAoMBXZpdGFtMRQw
EgYDVQQLDAthdXRob3JpdGllczEfMB0GA1UEAwwWY2Ffcm9vdF9jbGllbnQtc3Rv
cmFnZTAgFw0yMDA5MTUxMjU4NDZaGA85OTk5MTIzMTIzNTk1OVowcjELMAkGA1UE
BhMCZnIxDDAKBgNVBAgMA2lkZjEOMAwGA1UEBwwFcGFyaXMxDjAMBgNVBAoMBXZp
dGFtMRQwEgYDVQQLDAthdXRob3JpdGllczEfMB0GA1UEAwwWY2Ffcm9vdF9jbGll
bnQtc3RvcmFnZTCCAiIwDQYJKoZIhvcNAQEBBQADggIPADCCAgoCggIBANzynOdw
8t2jQWpNdLyv6jvFedholUKpoTBrNs3jzp+sgFu7CkxHFvObsIItofZWhDR/c/1R
8FNNnbnr0RzRwSx+6QC6Jr3vxYhCe/HzWIKTJnbxFJVu/yvw869SKc/ihpzJ27qL
uUizpSLM4REtpt9uILqghIbcME1PBI3TA1MieBYSOmz/UToHDDfFXB1S3TndTrUi
M2/+VOmh86fxG4VRGLTnORau1k3HayqG9UZlPpkfCKazllaGcy+5t01ks7Csn6RT
yxNhhtcc1+2hWCuFkviRmKqGmRP8U34DGV6jCBWX2U3I5cA/iDk/LQQSzY/uJOTz
ixFT5iGksL2FFzXcu4Rr+ln9uHXJ4iRwEh+42CHGoM47F0LELgPHnnnZNPY8toqq
xyskp7d7z19k2Qsid+T+AFB+r//tOuyDkN32z7glphP+C90k+m5GYQe6u3uUvD/K
+tQKKxnDK0UlhWJd5FRYQWKDyS8yCRvwnzntNhQm2Tuy61E8B0Bqe2yi7ugsOblQ
8DXeO8SbWZCbnSEmHzEvP6YSc1SpTkAx6isd7HdOS9FALo9cr7i7Klo4LWDv7hQL
suFCkxB+vVAFgVZtPm7V7DvyGap1mbiqdQdspER8ujXJtVQzc6/0adbR/MH4j6QU
oK8ljo1k3bL8zbiRN2aHblgSH0R2w0XzyPBdAgMBAAGjgY8wgYwwFgYJYIZIAYb4
QgENBAkWB0NBIFJvb3QwHQYDVR0OBBYEFJQzlOi4AnBSMfVvzKRQ/xkmdkGgMB8G
A1UdIwQYMBaAFJQzlOi4AnBSMfVvzKRQ/xkmdkGgMBIGA1UdEwEB/wQIMAYBAf8C
AQEwCwYDVR0PBAQDAgEGMBEGCWCGSAGG+EIBAQQEAwICBDANBgkqhkiG9w0BAQsF
AAOCAgEAvLSbOXi6C+gmzSOzfks/pULXHq2DBfB8j2o8U0qfa5ri9f41HOzAkEky
aPgq4E4wxhLXBb4CG/lunAhntkdZATICoS3NdXVlTzInnvHqWtSAeivnavllw7bL
djaZmkuqTrfUuOoxHC+baNm9yNvMcLpJoWGKuVGb4gJ/PfWsWhooMHXp876mva7t
S1tioBujlfXtNGySOJvRx8GBVOj6dC3FXnl/kQNYT9KJRax7sQT9ffBRbEFpSwD+
YbughFwiWzasOq03ElOO4jUcXxVd8jqG5YMMv1T7GCFIkWzDszNPbf+GoEJ/SFzG
1WcDg8L7vgB5/gtsL8hL6AEphtPujjmnZ5FkcZUBZHQqQe2w737BXpIx2UfUBRc2
0u/a6cl/wTu2wa64JyqDThJQFv3oByvIaGfauGrVZy04CwhEJ4C2lx7yviwsKHtR
xy5tzzeNTM7gbumCbcdjqwSywsB9haW9auiRSOAMFHcIb9lpcei8WZOswiOpSt5f
tQtL7SMyg69jn3tvV/7V5B5hFDlBD6bDIW6rUlHZkYLhuTN0/Sd6qaT2V/eDh0/z
ZAseRbp9KWozyR/4ppIEAlXWCiod7jzNMv5D8tt/OJddJALPekxMiCm+pQ7dAvSu
P7EiRS5+XBdkRNeaU80bnPjvxcujRBNVSbUqoMrxKqBKGd78Eqs=
-----END CERTIFICATE-----
