Certificate:
    Data:
        Version: 3 (0x2)
        Serial Number: 225 (0xe1)
    Signature Algorithm: sha256WithRSAEncryption
        Issuer: C=fr, ST=idf, L=paris, O=vitam, OU=authorities, CN=ca_root_client-storage
        Validity
            Not Before: Jul 12 14:29:03 2017 GMT
            Not After : Jul 10 14:29:03 2027 GMT
        Subject: C=fr, ST=idf, L=paris, O=vitam, OU=authorities, CN=ca_root_client-storage
        Subject Public Key Info:
            Public Key Algorithm: rsaEncryption
                Public-Key: (4096 bit)
                Modulus:
                    00:b5:b6:b1:b5:4d:d3:0e:b5:57:c0:75:a3:72:22:
                    69:c6:bb:c8:24:4a:dd:4a:4d:6b:22:1a:ee:d9:1c:
                    17:31:30:c1:73:69:58:dd:b4:d2:44:3a:2c:59:45:
                    ce:73:0d:00:cc:07:29:22:c5:73:16:83:b5:f3:ce:
                    a1:1d:c2:db:18:66:56:61:cc:6f:17:c2:0f:ef:f9:
                    69:51:de:ce:57:68:22:6c:a9:5a:eb:05:80:ce:9e:
                    4e:36:60:0a:b4:c6:fd:a4:8b:86:59:4b:08:1a:30:
                    67:e5:d1:14:7a:10:9c:45:30:89:2b:af:9a:a1:a7:
                    1f:d8:8a:b1:91:6f:0f:5f:77:b8:2d:c7:40:0a:f3:
                    72:42:6c:e7:fa:44:e7:04:0e:b2:92:9b:d4:7c:82:
                    4b:f3:f4:c1:ae:c2:99:74:07:87:da:a3:2c:0e:75:
                    b2:cb:0e:9d:a3:a7:2c:ec:a5:47:0e:8e:4d:31:f9:
                    56:8e:29:8d:c9:e6:f5:4f:7c:59:c2:2b:4f:e0:f6:
                    a7:d4:3e:12:e1:92:72:cb:8e:43:cd:3d:41:10:11:
                    86:3f:49:ef:1f:fb:af:1c:0c:8d:ab:d7:b6:f4:93:
                    5a:14:4b:b2:a5:7e:a4:90:c1:2f:6a:45:98:a0:b5:
                    b2:6b:b7:fa:5f:8c:1d:18:b9:9a:33:df:c6:37:52:
                    60:e3:f5:03:58:b7:c9:86:94:44:e3:37:e7:a4:88:
                    40:2f:32:4b:bb:a0:e9:e8:9b:55:b4:76:bf:12:a8:
                    e9:c3:c9:4d:25:a2:33:89:61:9d:6d:30:3c:b2:70:
                    d9:e2:e9:08:db:e8:77:7f:23:21:e6:75:3d:d3:68:
                    47:f8:58:c0:28:0b:cc:85:80:2a:9c:6b:b7:28:e1:
                    63:8c:28:1a:eb:57:a0:96:56:2e:2c:81:01:9f:3d:
                    05:0d:09:e5:37:1d:41:f3:bb:97:ac:12:9f:fb:10:
                    71:6a:02:bd:18:63:e6:07:53:d3:66:f1:ec:44:b9:
                    2d:71:37:98:de:30:e5:f6:82:ff:3e:36:f4:35:f1:
                    0a:31:c4:07:43:85:7e:43:d0:13:ec:c1:72:3f:e8:
                    6e:49:25:30:fc:00:54:b4:b2:c6:ff:fc:92:e1:1a:
                    6b:22:bb:0d:36:2c:75:a7:a1:15:26:c8:66:e1:04:
                    80:68:51:32:ca:87:14:3c:bc:85:da:02:00:fb:93:
                    18:ec:c0:5c:87:39:f6:c3:e9:6f:31:66:8c:68:ea:
                    0f:7e:ec:29:59:60:1a:8f:9d:49:f9:6b:fb:5a:97:
                    23:36:52:30:47:09:ed:45:fc:3f:13:92:13:34:5e:
                    a5:c6:1b:b7:98:b3:87:80:78:f2:dd:82:38:11:7c:
                    2f:16:f7
                Exponent: 65537 (0x10001)
        X509v3 extensions:
            Netscape Comment: 
                CA Root
            X509v3 Subject Key Identifier: 
                BB:C6:40:43:04:BC:FE:2C:48:19:11:53:39:55:0A:8B:B3:94:3C:56
            X509v3 Authority Key Identifier: 
                keyid:BB:C6:40:43:04:BC:FE:2C:48:19:11:53:39:55:0A:8B:B3:94:3C:56

            X509v3 Basic Constraints: critical
                CA:TRUE, pathlen:1
            X509v3 Key Usage: 
                Certificate Sign, CRL Sign
            Netscape Cert Type: 
                SSL CA
    Signature Algorithm: sha256WithRSAEncryption
         68:17:ca:25:85:48:c4:d0:28:e7:61:ee:4b:46:30:a7:1c:d4:
         fa:d3:44:cc:54:ad:2d:d6:96:ea:e6:f2:36:77:47:c9:f4:86:
         ac:0d:65:31:2c:34:38:f1:f4:09:3a:79:80:56:1a:27:44:95:
         8a:d6:33:40:fd:bd:6d:9c:ca:0c:55:c2:27:3d:3b:3c:d5:81:
         85:60:c0:28:e1:61:e4:56:57:23:3f:6c:c7:0b:2c:e1:77:ff:
         b1:a2:65:65:a6:0d:25:45:12:73:db:68:7f:2f:e3:2a:8c:74:
         82:90:0b:27:5a:d0:be:d8:12:32:9f:a8:6d:e1:6d:db:62:72:
         25:dd:2b:96:bd:73:01:9e:97:d5:3a:48:96:c7:4c:34:d0:43:
         ff:dc:50:7f:8e:82:d5:1a:ff:80:64:3f:e6:24:35:ef:a6:e0:
         74:5c:e9:eb:a4:13:81:b5:25:22:79:0b:43:8f:93:e1:e6:f1:
         5f:91:3f:8d:75:4f:6f:66:3b:78:22:b7:18:29:7a:5a:80:2f:
         8b:78:11:08:ab:e3:06:b0:1a:23:1b:2e:94:fe:ec:29:a3:e8:
         75:41:df:67:10:09:7e:44:b6:58:08:4c:a0:fc:5c:9c:9b:c2:
         55:46:78:e1:a9:fd:85:96:cf:8e:6b:07:3d:cc:30:bf:bb:8f:
         ff:a3:80:b8:9a:dc:44:f4:cb:a0:2e:f5:f5:1f:49:7e:bc:e3:
         81:07:3c:a1:58:37:b8:09:86:eb:17:78:ed:18:d6:5a:11:f6:
         cc:45:e3:ff:f4:d7:7b:9d:81:aa:3a:dd:89:f0:01:6c:d8:fe:
         5a:e6:f9:32:08:54:db:9b:f7:77:13:b7:0f:be:10:b3:8a:f9:
         78:b3:f6:d2:8c:0f:2e:6d:78:a8:30:2d:e7:bc:c1:5e:84:ca:
         f4:47:46:96:96:30:a0:8e:85:5f:a0:50:5e:c6:4d:27:3e:02:
         d1:55:58:a1:01:44:af:b0:07:21:0b:07:89:1e:a0:5b:f8:f7:
         a4:2a:2d:6d:71:79:aa:64:14:56:3c:a2:e4:a8:a6:d0:6a:1b:
         bb:fe:81:d4:b5:6f:f0:44:53:34:34:1b:07:7c:1d:59:07:33:
         6f:12:70:f1:7b:78:5e:74:d4:2a:d0:73:58:94:b2:cd:74:c1:
         d8:2d:e8:9f:cb:59:b0:89:3f:5b:f9:1f:03:47:b1:f0:95:d4:
         55:2e:50:92:4f:64:58:02:65:50:24:27:28:a4:3b:b9:22:df:
         66:0f:36:ef:28:71:06:b3:e8:09:b6:9a:2f:50:76:8f:87:d1:
         02:cc:5d:f0:ab:1c:df:a4:02:f2:fa:b9:54:ea:92:8e:2d:b5:
         4e:d4:f5:de:9f:fe:5c:94
-----BEGIN CERTIFICATE-----
MIIF8DCCA9igAwIBAgICAOEwDQYJKoZIhvcNAQELBQAwcjELMAkGA1UEBhMCZnIx
DDAKBgNVBAgMA2lkZjEOMAwGA1UEBwwFcGFyaXMxDjAMBgNVBAoMBXZpdGFtMRQw
EgYDVQQLDAthdXRob3JpdGllczEfMB0GA1UEAwwWY2Ffcm9vdF9jbGllbnQtc3Rv
cmFnZTAeFw0xNzA3MTIxNDI5MDNaFw0yNzA3MTAxNDI5MDNaMHIxCzAJBgNVBAYT
AmZyMQwwCgYDVQQIDANpZGYxDjAMBgNVBAcMBXBhcmlzMQ4wDAYDVQQKDAV2aXRh
bTEUMBIGA1UECwwLYXV0aG9yaXRpZXMxHzAdBgNVBAMMFmNhX3Jvb3RfY2xpZW50
LXN0b3JhZ2UwggIiMA0GCSqGSIb3DQEBAQUAA4ICDwAwggIKAoICAQC1trG1TdMO
tVfAdaNyImnGu8gkSt1KTWsiGu7ZHBcxMMFzaVjdtNJEOixZRc5zDQDMBykixXMW
g7XzzqEdwtsYZlZhzG8Xwg/v+WlR3s5XaCJsqVrrBYDOnk42YAq0xv2ki4ZZSwga
MGfl0RR6EJxFMIkrr5qhpx/YirGRbw9fd7gtx0AK83JCbOf6ROcEDrKSm9R8gkvz
9MGuwpl0B4faoywOdbLLDp2jpyzspUcOjk0x+VaOKY3J5vVPfFnCK0/g9qfUPhLh
knLLjkPNPUEQEYY/Se8f+68cDI2r17b0k1oUS7KlfqSQwS9qRZigtbJrt/pfjB0Y
uZoz38Y3UmDj9QNYt8mGlETjN+ekiEAvMku7oOnom1W0dr8SqOnDyU0lojOJYZ1t
MDyycNni6Qjb6Hd/IyHmdT3TaEf4WMAoC8yFgCqca7co4WOMKBrrV6CWVi4sgQGf
PQUNCeU3HUHzu5esEp/7EHFqAr0YY+YHU9Nm8exEuS1xN5jeMOX2gv8+NvQ18Qox
xAdDhX5D0BPswXI/6G5JJTD8AFS0ssb//JLhGmsiuw02LHWnoRUmyGbhBIBoUTLK
hxQ8vIXaAgD7kxjswFyHOfbD6W8xZoxo6g9+7ClZYBqPnUn5a/talyM2UjBHCe1F
/D8TkhM0XqXGG7eYs4eAePLdgjgRfC8W9wIDAQABo4GPMIGMMBYGCWCGSAGG+EIB
DQQJFgdDQSBSb290MB0GA1UdDgQWBBS7xkBDBLz+LEgZEVM5VQqLs5Q8VjAfBgNV
HSMEGDAWgBS7xkBDBLz+LEgZEVM5VQqLs5Q8VjASBgNVHRMBAf8ECDAGAQH/AgEB
MAsGA1UdDwQEAwIBBjARBglghkgBhvhCAQEEBAMCAgQwDQYJKoZIhvcNAQELBQAD
ggIBAGgXyiWFSMTQKOdh7ktGMKcc1PrTRMxUrS3Wlurm8jZ3R8n0hqwNZTEsNDjx
9Ak6eYBWGidElYrWM0D9vW2cygxVwic9OzzVgYVgwCjhYeRWVyM/bMcLLOF3/7Gi
ZWWmDSVFEnPbaH8v4yqMdIKQCyda0L7YEjKfqG3hbdticiXdK5a9cwGel9U6SJbH
TDTQQ//cUH+OgtUa/4BkP+YkNe+m4HRc6eukE4G1JSJ5C0OPk+Hm8V+RP411T29m
O3gitxgpelqAL4t4EQir4wawGiMbLpT+7Cmj6HVB32cQCX5EtlgITKD8XJybwlVG
eOGp/YWWz45rBz3MML+7j/+jgLia3ET0y6Au9fUfSX6844EHPKFYN7gJhusXeO0Y
1loR9sxF4//013udgao63YnwAWzY/lrm+TIIVNub93cTtw++ELOK+Xiz9tKMDy5t
eKgwLee8wV6EyvRHRpaWMKCOhV+gUF7GTSc+AtFVWKEBRK+wByELB4keoFv496Qq
LW1xeapkFFY8ouSoptBqG7v+gdS1b/BEUzQ0Gwd8HVkHM28ScPF7eF501CrQc1iU
ss10wdgt6J/LWbCJP1v5HwNHsfCV1FUuUJJPZFgCZVAkJyikO7ki32YPNu8ocQaz
6Am2mi9Qdo+H0QLMXfCrHN+kAvL6uVTqko4ttU7U9d6f/lyU
-----END CERTIFICATE-----
