Certificate:
    Data:
        Version: 3 (0x2)
        Serial Number: 180 (0xb4)
    Signature Algorithm: sha256WithRSAEncryption
        Issuer: C=FR, ST=idf, L=paris, O=Vitam., CN=CA_timestamping
        Validity
            Not Before: Mar 15 12:18:49 2017 GMT
            Not After : Mar 14 12:18:49 2020 GMT
        Subject: C=FR, ST=idf, L=paris, O=Vitam., CN=logbook.service.consul
        Subject Public Key Info:
            Public Key Algorithm: rsaEncryption
                Public-Key: (4096 bit)
                Modulus:
                    00:ab:d6:5b:88:cb:72:84:ed:64:60:a8:de:89:c3:
                    bc:7d:ec:4a:ac:b5:99:ec:50:50:cc:5b:15:c9:68:
                    13:c9:20:bd:61:d1:62:ff:5f:96:d7:6c:f5:d0:e6:
                    10:bf:ff:bc:5c:3f:c3:57:fe:94:1b:07:76:ee:6d:
                    8f:b6:71:ac:ba:d3:5c:cb:66:6b:79:9c:cf:6a:43:
                    f9:bf:3c:40:5a:0c:84:40:7c:67:56:f5:73:4a:ef:
                    26:4b:f0:27:60:71:37:18:2b:35:2a:3e:90:d3:d2:
                    a6:a7:87:e7:75:02:d2:30:60:56:77:98:a9:ca:26:
                    a2:9e:76:0d:af:6c:cf:72:82:ad:37:81:14:a3:31:
                    40:f1:a1:e1:d8:64:64:ac:d1:07:ab:09:b3:2e:ba:
                    2a:29:8b:25:b4:7b:82:f9:dc:c8:63:46:50:fd:c8:
                    5e:63:36:a4:4a:ec:b3:a7:8d:78:8b:1d:e0:66:88:
                    58:e4:7d:23:72:bc:4a:01:44:b3:c1:e3:a2:dc:19:
                    53:a4:f2:79:07:95:42:5a:6a:52:fa:c3:3f:4d:6f:
                    3e:10:96:b4:4e:40:1a:07:e9:2a:a9:3b:4b:fd:d6:
                    87:4c:06:6e:dd:9e:3e:8d:2f:5e:77:e0:f7:b7:60:
                    b4:25:e3:49:f2:67:3b:6e:97:d7:87:74:d0:5f:d3:
                    92:67:c3:ad:7c:44:0f:86:73:a4:f8:6b:1c:b9:00:
                    0c:2a:c7:f0:8f:18:e0:b7:10:ab:09:9f:66:cb:1f:
                    78:07:71:7f:27:53:41:1e:be:65:17:ed:bf:2f:bf:
                    eb:81:08:77:b8:03:fd:57:d1:66:66:86:15:fa:81:
                    fc:eb:51:ea:59:e2:ef:b0:67:9b:50:f2:8e:64:05:
                    44:93:03:de:89:da:28:0c:30:f8:89:11:ea:e3:9a:
                    b1:95:90:39:62:53:13:63:20:ed:fd:d3:68:f5:78:
                    44:35:9d:dc:02:c4:67:fc:15:63:b6:6f:9b:9c:1f:
                    c7:c7:3c:a1:18:c4:48:84:3e:d6:af:4c:95:7b:4f:
                    7b:82:03:39:b9:49:b6:73:e3:94:01:34:e2:9b:ce:
                    bd:7d:94:ab:af:e5:1e:17:26:ff:06:2b:ce:00:01:
                    5c:c9:42:9a:df:39:e2:7d:5f:88:6a:08:90:a5:fa:
                    bc:c4:69:5a:66:4b:f9:36:9b:88:0f:01:30:5f:c9:
                    38:56:70:33:09:53:f7:cf:ad:12:01:a5:33:c5:2d:
                    90:4b:ae:e6:78:7c:08:ee:5d:9e:3b:eb:52:79:70:
                    0d:6c:d6:25:d5:94:06:c9:a9:d0:17:8f:7b:09:fb:
                    89:68:e3:dd:8e:06:1e:91:fd:55:80:46:f2:16:64:
                    d9:e5:e3
                Exponent: 65537 (0x10001)
        X509v3 extensions:
            Netscape Comment: 
                Certificat Serveur SSL
            X509v3 Subject Key Identifier: 
                AA:5A:A0:37:60:78:47:62:20:F6:78:AE:E6:7D:B9:13:54:49:3C:02
            X509v3 Authority Key Identifier: 
                keyid:12:1A:82:E9:85:94:5B:A8:7C:B5:39:94:ED:31:42:42:43:13:BD:AB
                DirName:/C=FR/ST=idf/L=paris/O=Vitam./CN=CA_timestamping
                serial:B3

            X509v3 Issuer Alternative Name: 
                <EMPTY>

            X509v3 Subject Alternative Name: 
                DNS:ingest-external.service.consul
            X509v3 Basic Constraints: critical
                CA:FALSE
            X509v3 Key Usage: 
                Digital Signature, Non Repudiation, Key Encipherment
            Netscape Cert Type: 
                SSL Server
            X509v3 Extended Key Usage: critical
                Time Stamping
    Signature Algorithm: sha256WithRSAEncryption
         4d:22:fa:b3:29:e7:e3:b2:b7:5b:74:0a:86:bf:f2:60:ef:ab:
         3f:c1:81:e7:a5:02:c3:b7:fd:93:94:ec:16:85:23:88:8f:f8:
         28:ab:86:77:8a:01:32:9f:f4:6d:2b:b9:78:d3:44:61:12:34:
         f0:57:67:80:0c:23:ed:dc:c2:d0:41:77:d3:f1:bf:1e:61:25:
         e6:17:16:d8:68:e9:2f:ad:80:66:45:d1:c3:71:65:79:3c:05:
         7f:04:de:ad:17:bf:63:8f:78:67:6b:07:0d:f5:4a:b6:fb:c5:
         d3:8a:db:d3:82:33:b6:a4:c8:ed:80:25:10:e4:c3:ce:7a:23:
         c6:a0:be:79:a5:d7:13:e8:89:a5:b6:c4:d2:86:40:ff:5d:9d:
         5e:37:07:98:68:73:f2:a7:e0:cf:d7:5b:5e:58:af:22:a4:02:
         76:3a:fb:29:1e:fc:e8:aa:ef:2e:11:3c:6d:6b:d7:1c:f2:9e:
         50:20:f0:0b:94:07:24:ef:d3:29:a6:93:4c:9e:e4:dc:bc:fc:
         0a:1a:1c:a1:c4:d2:24:96:9b:43:89:b3:1f:53:3d:ce:64:30:
         99:46:8a:52:25:8f:71:02:65:70:26:c9:30:89:19:76:2f:07:
         75:c9:da:6b:52:3d:41:08:78:ba:a7:07:1e:88:03:74:77:4d:
         7f:70:cf:83:cc:f3:91:d6:f9:1a:9d:60:e4:12:16:0f:4d:55:
         7b:fb:dc:ff:f9:a0:d1:cd:0c:a6:ec:47:2c:7d:a7:8c:9a:09:
         64:17:28:a3:51:ae:01:4a:f2:60:fd:f5:f1:67:a9:13:50:2e:
         86:90:09:ab:0d:eb:fd:77:5a:b5:2d:7b:ae:3c:49:04:00:92:
         14:c8:6a:9b:2b:2e:a9:99:57:86:4a:b3:8e:73:a8:6f:e8:5c:
         c2:60:cd:7d:28:30:ad:52:e8:0f:5a:66:5c:e7:36:75:16:bf:
         c2:98:70:eb:40:b5:d5:ed:99:1a:3a:09:61:ef:ab:73:69:fb:
         0e:d5:05:22:ca:e7:35:46:47:2e:36:8a:19:8d:40:7b:38:f6:
         84:ba:8f:5a:c8:a8:14:8c:6a:80:20:b4:4f:1a:3d:9c:29:a8:
         b5:1e:64:79:cc:ea:be:26:a6:90:51:b2:d7:9e:d2:1c:3b:f1:
         89:fe:72:46:ee:cc:07:9a:7b:08:74:08:1e:b6:e6:06:a9:36:
         1e:d5:a3:75:30:78:f2:e0:fa:1f:5e:37:90:b5:c1:45:9b:66:
         6a:b4:07:e0:00:c2:77:21:71:7c:be:47:04:0e:cd:0d:61:9c:
         b4:a3:12:37:5f:cc:92:d8:75:90:d1:05:d0:43:f1:cc:65:dc:
         86:47:15:6b:9a:8b:ab:66
-----BEGIN CERTIFICATE-----
MIIGeDCCBGCgAwIBAgICALQwDQYJKoZIhvcNAQELBQAwVjELMAkGA1UEBhMCRlIx
DDAKBgNVBAgTA2lkZjEOMAwGA1UEBxMFcGFyaXMxDzANBgNVBAoTBlZpdGFtLjEY
MBYGA1UEAxQPQ0FfdGltZXN0YW1waW5nMB4XDTE3MDMxNTEyMTg0OVoXDTIwMDMx
NDEyMTg0OVowXTELMAkGA1UEBhMCRlIxDDAKBgNVBAgTA2lkZjEOMAwGA1UEBxMF
cGFyaXMxDzANBgNVBAoTBlZpdGFtLjEfMB0GA1UEAxMWbG9nYm9vay5zZXJ2aWNl
LmNvbnN1bDCCAiIwDQYJKoZIhvcNAQEBBQADggIPADCCAgoCggIBAKvWW4jLcoTt
ZGCo3onDvH3sSqy1mexQUMxbFcloE8kgvWHRYv9fltds9dDmEL//vFw/w1f+lBsH
du5tj7ZxrLrTXMtma3mcz2pD+b88QFoMhEB8Z1b1c0rvJkvwJ2BxNxgrNSo+kNPS
pqeH53UC0jBgVneYqcomop52Da9sz3KCrTeBFKMxQPGh4dhkZKzRB6sJsy66KimL
JbR7gvncyGNGUP3IXmM2pErss6eNeIsd4GaIWOR9I3K8SgFEs8HjotwZU6TyeQeV
QlpqUvrDP01vPhCWtE5AGgfpKqk7S/3Wh0wGbt2ePo0vXnfg97dgtCXjSfJnO26X
14d00F/TkmfDrXxED4ZzpPhrHLkADCrH8I8Y4LcQqwmfZssfeAdxfydTQR6+ZRft
vy+/64EId7gD/VfRZmaGFfqB/OtR6lni77Bnm1DyjmQFRJMD3onaKAww+IkR6uOa
sZWQOWJTE2Mg7f3TaPV4RDWd3ALEZ/wVY7Zvm5wfx8c8oRjESIQ+1q9MlXtPe4ID
OblJtnPjlAE04pvOvX2Uq6/lHhcm/wYrzgABXMlCmt854n1fiGoIkKX6vMRpWmZL
+TabiA8BMF/JOFZwMwlT98+tEgGlM8UtkEuu5nh8CO5dnjvrUnlwDWzWJdWUBsmp
0BePewn7iWjj3Y4GHpH9VYBG8hZk2eXjAgMBAAGjggFHMIIBQzAlBglghkgBhvhC
AQ0EGBYWQ2VydGlmaWNhdCBTZXJ2ZXVyIFNTTDAdBgNVHQ4EFgQUqlqgN2B4R2Ig
9niu5n25E1RJPAIwfwYDVR0jBHgwdoAUEhqC6YWUW6h8tTmU7TFCQkMTvauhWqRY
MFYxCzAJBgNVBAYTAkZSMQwwCgYDVQQIEwNpZGYxDjAMBgNVBAcTBXBhcmlzMQ8w
DQYDVQQKEwZWaXRhbS4xGDAWBgNVBAMUD0NBX3RpbWVzdGFtcGluZ4ICALMwCQYD
VR0SBAIwADApBgNVHREEIjAggh5pbmdlc3QtZXh0ZXJuYWwuc2VydmljZS5jb25z
dWwwDAYDVR0TAQH/BAIwADALBgNVHQ8EBAMCBeAwEQYJYIZIAYb4QgEBBAQDAgZA
MBYGA1UdJQEB/wQMMAoGCCsGAQUFBwMIMA0GCSqGSIb3DQEBCwUAA4ICAQBNIvqz
KefjsrdbdAqGv/Jg76s/wYHnpQLDt/2TlOwWhSOIj/goq4Z3igEyn/RtK7l400Rh
EjTwV2eADCPt3MLQQXfT8b8eYSXmFxbYaOkvrYBmRdHDcWV5PAV/BN6tF79jj3hn
awcN9Uq2+8XTitvTgjO2pMjtgCUQ5MPOeiPGoL55pdcT6ImltsTShkD/XZ1eNweY
aHPyp+DP11teWK8ipAJ2OvspHvzoqu8uETxta9cc8p5QIPALlAck79MpppNMnuTc
vPwKGhyhxNIklptDibMfUz3OZDCZRopSJY9xAmVwJskwiRl2Lwd1ydprUj1BCHi6
pwceiAN0d01/cM+DzPOR1vkanWDkEhYPTVV7+9z/+aDRzQym7EcsfaeMmglkFyij
Ua4BSvJg/fXxZ6kTUC6GkAmrDev9d1q1LXuuPEkEAJIUyGqbKy6pmVeGSrOOc6hv
6FzCYM19KDCtUugPWmZc5zZ1Fr/CmHDrQLXV7ZkaOglh76tzafsO1QUiyuc1Rkcu
NooZjUB7OPaEuo9ayKgUjGqAILRPGj2cKai1HmR5zOq+JqaQUbLXntIcO/GJ/nJG
7swHmnsIdAgetuYGqTYe1aN1MHjy4PofXjeQtcFFm2ZqtAfgAMJ3IXF8vkcEDs0N
YZy0oxI3X8yS2HWQ0QXQQ/HMZdyGRxVrmourZg==
-----END CERTIFICATE-----
