Certificate:
    Data:
        Version: 3 (0x2)
        Serial Number: 177 (0xb1)
    Signature Algorithm: sha256WithRSAEncryption
        Issuer: C=FR, ST=idf, L=paris, O=Vitam., CN=CA_timestamping
        Validity
            Not Before: Mar  6 18:04:17 2017 GMT
            Not After : Mar  5 18:04:17 2020 GMT
        Subject: C=FR, ST=idf, L=paris, O=Vitam., CN=logbook.service.consul
        Subject Public Key Info:
            Public Key Algorithm: rsaEncryption
                Public-Key: (4096 bit)
                Modulus:
                    00:c3:f3:82:27:e0:f4:2f:84:de:0d:d8:6c:e4:e5:
                    3a:d8:82:99:bf:0a:c3:d3:fa:73:e1:06:71:4f:c3:
                    37:4e:07:17:9f:2b:92:51:3c:f4:67:cb:f4:cd:2b:
                    e8:d7:2a:8d:c1:75:69:1f:87:4b:6d:c9:b3:71:ec:
                    e1:f7:53:9d:15:94:cc:21:1a:5f:29:0f:61:c6:3d:
                    42:a6:9f:fa:14:f0:84:18:5d:65:c8:8d:85:ae:b3:
                    ef:2b:33:7c:84:70:ba:b7:d2:7a:32:f4:7f:52:9c:
                    24:e3:dc:a8:54:d5:2a:33:03:5c:a8:e5:c8:4a:9b:
                    58:6b:ba:b7:5e:b4:22:0b:36:7e:74:cd:fd:a8:42:
                    cc:ab:56:d6:a9:44:98:6a:1f:48:0f:36:54:8b:d5:
                    17:29:09:fc:e9:23:9f:28:11:90:31:5c:4b:a6:18:
                    2a:74:a7:da:3d:4b:4e:d7:c0:0f:fd:a9:77:3c:7d:
                    fd:48:d3:23:00:9f:5e:ef:64:48:3e:52:2c:91:1f:
                    e3:cd:39:54:ce:52:5b:d5:a8:44:7f:d3:b9:e5:78:
                    75:dd:b8:6a:db:74:08:b2:5b:4c:8f:72:91:4c:6b:
                    53:80:71:4c:cf:40:8d:26:ca:7c:a4:4e:ba:b1:c9:
                    af:7b:96:e2:68:1a:6a:d3:25:b9:4b:38:a9:7d:8d:
                    2d:8c:d0:f4:c0:4b:76:50:7e:83:7f:60:1c:e7:91:
                    86:e2:a4:08:a8:4c:71:4a:cf:14:15:5d:5a:5b:a7:
                    a4:d0:dd:2f:84:18:1f:65:56:a2:e8:1e:6e:49:3d:
                    19:b8:c7:e6:b8:ee:e2:f8:a7:51:bb:5d:9f:24:37:
                    c9:96:bb:98:65:67:57:e1:c8:63:cc:04:e7:8b:7c:
                    a3:df:1a:ad:c6:48:12:62:bf:76:f9:8d:35:bd:f6:
                    d3:f4:e8:10:66:0c:25:5d:fd:29:a3:5e:20:7c:07:
                    b0:06:f8:59:1d:93:d1:84:d4:c0:0a:b5:0e:82:9a:
                    5e:b9:2b:1a:22:3e:42:af:4b:a9:d3:95:53:fa:4e:
                    83:0e:57:e3:fa:21:dc:bd:f6:d8:7c:12:49:97:92:
                    5b:a9:62:77:e1:e8:e1:46:64:a0:c2:22:41:11:3a:
                    16:d3:15:14:0b:1f:14:17:34:d9:ac:fb:16:b4:38:
                    41:c8:e6:46:8c:07:58:fd:72:7c:d5:29:78:74:a4:
                    8a:e9:ec:be:3e:51:b7:de:76:7d:3b:8e:6c:ca:24:
                    e4:a7:fd:2d:8a:d1:e8:67:7d:c0:63:c3:e9:e0:09:
                    6b:78:11:cb:83:32:71:16:95:d6:86:1d:0e:61:d3:
                    d7:2a:ad:ae:7c:f4:e7:2a:54:82:77:c4:60:2b:cf:
                    ba:68:bd
                Exponent: 65537 (0x10001)
        X509v3 extensions:
            Netscape Comment: 
                Certificat Serveur SSL
            X509v3 Subject Key Identifier: 
                63:96:67:BC:F2:A1:97:23:1F:62:56:87:F9:3E:00:9C:99:2F:1B:72
            X509v3 Authority Key Identifier: 
                keyid:F4:93:97:17:3A:75:8C:BB:DF:E3:D6:2F:45:11:BD:69:7D:0C:D4:1D
                DirName:/C=FR/ST=idf/L=paris/O=Vitam./CN=CA_timestamping
                serial:B0

            X509v3 Issuer Alternative Name: 
                <EMPTY>

            X509v3 Subject Alternative Name: 
                DNS:ingest-external.service.consul
            X509v3 Basic Constraints: critical
                CA:FALSE
            X509v3 Key Usage: 
                Digital Signature, Non Repudiation, Key Encipherment
            Netscape Cert Type: 
                SSL Server
            X509v3 Extended Key Usage: critical
                Time Stamping
    Signature Algorithm: sha256WithRSAEncryption
         14:be:2a:e2:c5:ad:15:9f:37:dd:6c:c9:4e:e9:f3:83:36:8f:
         93:5b:ff:b3:ea:08:2d:06:ae:99:5e:1c:6c:a3:97:10:61:ed:
         06:79:98:8d:33:7b:00:e3:e2:42:34:2b:03:18:dc:ff:b2:dc:
         89:55:32:2d:80:ff:bc:f9:9e:e3:31:be:f3:5d:00:d6:73:81:
         a9:d7:84:c0:02:74:07:14:e5:13:c9:01:2d:79:36:86:0b:9a:
         6e:32:8b:8c:e1:f7:8f:e5:36:93:ce:de:e4:b4:92:91:89:d7:
         5a:bb:17:1c:44:a2:46:f8:63:77:36:e4:c3:ae:95:19:bb:ae:
         69:7e:0f:94:f0:39:ed:da:73:1d:e2:30:a6:74:26:28:cf:2e:
         40:29:1c:36:fb:90:0a:ea:0e:95:51:fb:86:4a:c6:65:48:09:
         d5:db:bd:0c:d3:b9:47:6f:f9:30:4f:1a:bb:be:68:8e:46:91:
         0d:dd:d8:ca:27:5a:24:cd:2c:12:c5:31:26:33:7a:24:0b:6a:
         5f:0a:60:a1:f8:96:e1:ba:8b:de:12:9b:05:9e:60:b6:43:7f:
         cd:0a:77:4c:dc:c0:87:78:fb:d0:93:e8:99:05:89:51:e8:2c:
         7c:e9:c2:bb:a9:62:a8:6d:b7:95:77:d2:f2:af:f4:49:f8:38:
         c5:a6:a0:df:28:c1:f9:40:9d:0e:45:80:79:8a:31:4d:f2:cd:
         ca:a8:9c:08:3a:b4:58:bb:3f:4d:d8:84:d4:2c:7f:50:5d:f2:
         3d:a0:61:29:f5:bc:33:cd:4b:ef:0e:10:06:f9:94:21:ab:ac:
         dd:7d:b9:92:f8:30:5a:76:6a:ef:7c:34:8d:bb:f9:ea:ee:90:
         99:d6:a9:02:4c:b8:a2:3b:95:8c:45:79:d5:ef:13:38:02:0b:
         20:30:e3:0e:31:5a:5c:3b:3f:3f:e5:26:47:79:26:73:b5:f1:
         46:9a:cc:b9:fe:2f:3b:d5:79:c5:03:6c:da:4c:b6:e0:46:fc:
         32:d1:70:5f:a7:35:c8:60:5c:37:51:f0:ce:52:80:81:19:8e:
         d4:b0:9b:bc:d7:69:29:94:a7:b5:40:aa:87:bd:3f:4a:90:a1:
         b1:a0:5b:05:33:97:d1:b0:a3:83:f0:5e:29:d7:d7:66:21:1a:
         ed:c6:bb:06:f5:79:52:e5:44:47:dc:55:32:20:d8:35:f0:e5:
         fe:b7:1e:54:9b:8b:98:8a:8c:61:7c:bb:d9:3a:70:ed:d3:83:
         7b:da:d4:2d:66:94:ea:48:0a:c7:74:94:4f:a3:cc:e7:a5:ac:
         c2:16:1e:eb:85:e7:ca:2f:13:41:82:9e:40:cf:be:0a:7f:b4:
         5f:8b:06:70:dd:c0:a3:b0
-----BEGIN CERTIFICATE-----
MIIGeDCCBGCgAwIBAgICALEwDQYJKoZIhvcNAQELBQAwVjELMAkGA1UEBhMCRlIx
DDAKBgNVBAgMA2lkZjEOMAwGA1UEBwwFcGFyaXMxDzANBgNVBAoMBlZpdGFtLjEY
MBYGA1UEAwwPQ0FfdGltZXN0YW1waW5nMB4XDTE3MDMwNjE4MDQxN1oXDTIwMDMw
NTE4MDQxN1owXTELMAkGA1UEBhMCRlIxDDAKBgNVBAgMA2lkZjEOMAwGA1UEBwwF
cGFyaXMxDzANBgNVBAoMBlZpdGFtLjEfMB0GA1UEAwwWbG9nYm9vay5zZXJ2aWNl
LmNvbnN1bDCCAiIwDQYJKoZIhvcNAQEBBQADggIPADCCAgoCggIBAMPzgifg9C+E
3g3YbOTlOtiCmb8Kw9P6c+EGcU/DN04HF58rklE89GfL9M0r6NcqjcF1aR+HS23J
s3Hs4fdTnRWUzCEaXykPYcY9Qqaf+hTwhBhdZciNha6z7yszfIRwurfSejL0f1Kc
JOPcqFTVKjMDXKjlyEqbWGu6t160Igs2fnTN/ahCzKtW1qlEmGofSA82VIvVFykJ
/OkjnygRkDFcS6YYKnSn2j1LTtfAD/2pdzx9/UjTIwCfXu9kSD5SLJEf4805VM5S
W9WoRH/TueV4dd24att0CLJbTI9ykUxrU4BxTM9AjSbKfKROurHJr3uW4mgaatMl
uUs4qX2NLYzQ9MBLdlB+g39gHOeRhuKkCKhMcUrPFBVdWlunpNDdL4QYH2VWouge
bkk9GbjH5rju4vinUbtdnyQ3yZa7mGVnV+HIY8wE54t8o98arcZIEmK/dvmNNb32
0/ToEGYMJV39KaNeIHwHsAb4WR2T0YTUwAq1DoKaXrkrGiI+Qq9LqdOVU/pOgw5X
4/oh3L322HwSSZeSW6lid+Ho4UZkoMIiQRE6FtMVFAsfFBc02az7FrQ4QcjmRowH
WP1yfNUpeHSkiunsvj5Rt952fTuObMok5Kf9LYrR6Gd9wGPD6eAJa3gRy4MycRaV
1oYdDmHT1yqtrnz05ypUgnfEYCvPumi9AgMBAAGjggFHMIIBQzAlBglghkgBhvhC
AQ0EGBYWQ2VydGlmaWNhdCBTZXJ2ZXVyIFNTTDAdBgNVHQ4EFgQUY5ZnvPKhlyMf
YlaH+T4AnJkvG3IwfwYDVR0jBHgwdoAU9JOXFzp1jLvf49YvRRG9aX0M1B2hWqRY
MFYxCzAJBgNVBAYTAkZSMQwwCgYDVQQIDANpZGYxDjAMBgNVBAcMBXBhcmlzMQ8w
DQYDVQQKDAZWaXRhbS4xGDAWBgNVBAMMD0NBX3RpbWVzdGFtcGluZ4ICALAwCQYD
VR0SBAIwADApBgNVHREEIjAggh5pbmdlc3QtZXh0ZXJuYWwuc2VydmljZS5jb25z
dWwwDAYDVR0TAQH/BAIwADALBgNVHQ8EBAMCBeAwEQYJYIZIAYb4QgEBBAQDAgZA
MBYGA1UdJQEB/wQMMAoGCCsGAQUFBwMIMA0GCSqGSIb3DQEBCwUAA4ICAQAUviri
xa0VnzfdbMlO6fODNo+TW/+z6ggtBq6ZXhxso5cQYe0GeZiNM3sA4+JCNCsDGNz/
styJVTItgP+8+Z7jMb7zXQDWc4Gp14TAAnQHFOUTyQEteTaGC5puMouM4feP5TaT
zt7ktJKRiddauxccRKJG+GN3NuTDrpUZu65pfg+U8Dnt2nMd4jCmdCYozy5AKRw2
+5AK6g6VUfuGSsZlSAnV270M07lHb/kwTxq7vmiORpEN3djKJ1okzSwSxTEmM3ok
C2pfCmCh+JbhuoveEpsFnmC2Q3/NCndM3MCHePvQk+iZBYlR6Cx86cK7qWKobbeV
d9Lyr/RJ+DjFpqDfKMH5QJ0ORYB5ijFN8s3KqJwIOrRYuz9N2ITULH9QXfI9oGEp
9bwzzUvvDhAG+ZQhq6zdfbmS+DBadmrvfDSNu/nq7pCZ1qkCTLiiO5WMRXnV7xM4
AgsgMOMOMVpcOz8/5SZHeSZztfFGmsy5/i871XnFA2zaTLbgRvwy0XBfpzXIYFw3
UfDOUoCBGY7UsJu812kplKe1QKqHvT9KkKGxoFsFM5fRsKOD8F4p19dmIRrtxrsG
9XlS5URH3FUyINg18OX+tx5Um4uYioxhfLvZOnDt04N72tQtZpTqSArHdJRPo8zn
pazCFh7rhefKLxNBgp5Az74Kf7RfiwZw3cCjsA==
-----END CERTIFICATE-----
