Certificate:
    Data:
        Version: 3 (0x2)
        Serial Number: 258 (0x102)
    Signature Algorithm: sha256WithRSAEncryption
        Issuer: C=fr, ST=idf, L=paris, O=vitam, OU=authorities, CN=ca_intermediate_client-external
        Validity
            Not Before: Feb  5 12:57:29 2018 GMT
            Not After : Feb  4 12:57:29 2021 GMT
        Subject: C=fr, ST=idf, L=paris, O=vitam, CN=ihm-demo
        Subject Public Key Info:
            Public Key Algorithm: rsaEncryption
                Public-Key: (4096 bit)
                Modulus:
                    00:f7:fe:d1:3e:f3:06:1b:56:5d:4d:d0:9d:91:f1:
                    3e:5e:96:17:62:81:2b:6a:09:f9:79:39:24:64:1a:
                    87:63:cd:a8:ae:4f:30:4c:f8:53:f1:d7:f2:99:ae:
                    14:eb:66:af:0e:e2:1b:15:1f:25:de:a8:a0:79:45:
                    38:96:ce:62:c9:bc:47:1e:6f:bb:3b:79:c5:9c:ca:
                    0e:67:d8:bb:c3:97:6b:44:ac:0c:0a:c8:35:ad:d5:
                    b9:27:44:a1:7e:f2:97:f1:15:1f:3c:23:2d:48:aa:
                    f3:af:ea:fe:fe:17:f4:fe:18:ae:0d:24:0a:29:15:
                    7a:64:97:e8:22:73:1f:78:e4:ba:3e:04:0e:ea:8d:
                    c4:50:91:08:62:96:ac:3b:e6:d9:30:49:7e:43:c0:
                    41:c8:69:d2:1b:98:cf:b8:99:56:22:1f:f5:27:28:
                    0e:13:66:5e:89:71:01:7a:ec:d7:71:a5:8d:27:74:
                    c0:a2:3e:25:bd:f0:68:4c:d3:6a:a9:b9:41:4e:68:
                    e9:c1:57:51:20:ed:b0:23:a4:5e:27:67:ed:be:1f:
                    71:fb:93:1b:65:9c:af:b5:91:ac:3f:1c:17:6a:0c:
                    6e:b2:21:11:df:8f:eb:4b:c5:55:f4:62:8d:e9:73:
                    61:39:ba:c0:28:97:9e:98:ac:54:d9:6d:5a:22:1f:
                    fd:6c:57:db:dc:32:02:1a:31:98:fb:a4:8c:c1:44:
                    f1:f0:f6:ba:0a:3d:56:c0:c1:e7:c7:21:ef:36:04:
                    5a:c2:cd:b7:ed:90:3c:48:73:ef:96:73:0b:2d:cd:
                    76:1f:a9:70:d2:54:b9:a9:01:4f:0d:7b:70:39:f4:
                    fc:67:0a:81:ef:e4:86:33:9d:fc:8b:10:65:0c:14:
                    18:58:cb:44:35:94:ba:c6:8c:1a:d3:0c:21:dc:da:
                    a1:f5:0e:29:a1:29:bb:1e:dd:b0:52:27:82:54:86:
                    3d:d7:88:cd:64:a1:2b:5c:7c:d8:11:80:8f:27:2c:
                    10:e6:20:1a:e9:e2:e5:ba:92:93:2c:a8:c9:0d:6c:
                    99:d7:b8:cc:cb:7a:7e:60:51:36:2f:6a:cc:ea:58:
                    40:c2:af:ef:cf:4b:4f:0e:44:5a:ec:54:08:0d:18:
                    e4:c1:0a:e3:fe:c3:8b:d8:88:08:7a:75:f2:85:d7:
                    4b:5e:e5:0e:66:e6:cb:f1:12:d9:bb:88:f7:ea:3d:
                    f5:6f:fd:6b:22:ea:44:ac:70:49:dc:3d:c8:9b:fa:
                    da:5c:98:07:b4:db:e9:ac:16:e3:da:13:41:5f:19:
                    3e:0c:83:49:f0:d0:e1:b1:58:99:a4:3a:e0:bd:c9:
                    f4:66:5e:af:bc:c4:9f:2a:cb:00:be:ab:ef:1b:e1:
                    44:4b:01
                Exponent: 65537 (0x10001)
        X509v3 extensions:
            Netscape Comment: 
                Certificat Client SSL
            X509v3 Subject Key Identifier: 
                B9:CD:C0:A3:2C:C6:DE:5E:7B:81:63:34:E1:F3:DD:11:CC:10:65:DF
            X509v3 Authority Key Identifier: 
                keyid:99:4E:FD:BA:7D:CF:EE:E1:A9:EA:F5:DA:73:BD:4A:D1:46:DA:D7:7C
                DirName:/C=fr/ST=idf/L=paris/O=vitam/OU=authorities/CN=ca_root_client-external
                serial:FC

            X509v3 Issuer Alternative Name: 
                <EMPTY>

            X509v3 Basic Constraints: critical
                CA:FALSE
            X509v3 Key Usage: 
                Digital Signature, Non Repudiation, Key Encipherment
            Netscape Cert Type: 
                SSL Client
            X509v3 Extended Key Usage: 
                TLS Web Client Authentication
    Signature Algorithm: sha256WithRSAEncryption
         86:b2:fe:7f:43:27:81:33:e1:5d:66:6e:e4:43:d9:61:cd:fe:
         87:ff:1e:a6:60:95:b0:21:f5:45:ac:49:3e:43:92:23:f6:68:
         ba:64:59:64:ea:5c:d9:bf:2b:b6:f5:76:e5:73:e0:d5:25:2f:
         76:b0:c3:20:eb:2b:2f:d5:e1:0d:7f:31:dc:57:49:9c:ce:7b:
         77:fc:da:29:db:d8:3d:c5:ef:e3:6b:59:0e:84:d6:4e:b2:73:
         5f:e7:9c:e8:15:cc:df:44:68:e8:82:df:be:7a:4f:d3:87:3d:
         98:4d:48:4a:f8:f4:36:23:8c:bc:4f:92:99:d5:9f:03:83:b3:
         e7:0c:62:70:cd:02:b8:40:6f:b2:28:9c:36:6d:24:e6:c5:b6:
         67:7a:f5:f8:3e:a4:77:b8:82:38:94:f7:f4:52:79:27:7c:ea:
         3d:2b:8c:4a:4b:e5:e4:b3:18:b2:4a:85:0f:0e:e0:cf:43:1f:
         8c:3e:7c:74:a2:e7:6a:1e:73:df:21:89:1a:9b:d9:d0:d4:9f:
         91:7f:1a:22:fc:10:6c:b2:7b:a4:e5:b5:77:08:46:4d:e9:db:
         51:15:02:6d:1b:60:41:b0:30:45:41:17:2d:04:07:f9:2f:20:
         8e:d3:aa:b6:f8:a5:c8:7e:ff:7c:2e:12:bb:44:89:d1:0b:00:
         74:c6:26:04:ca:29:8b:7b:dd:ca:32:a7:8e:e7:9a:97:e3:89:
         1f:d6:6b:27:39:b9:21:f8:d7:34:2b:81:90:e4:7d:59:c2:d8:
         88:78:69:5d:7e:3f:68:af:5c:70:5e:fe:46:57:ad:f0:7b:e7:
         cf:70:a1:db:8b:c0:f7:01:db:66:8d:17:19:2c:77:32:13:54:
         54:91:f6:5b:d2:7f:00:90:86:a9:74:ba:30:c4:a6:fe:70:0d:
         ec:0b:28:8f:50:1d:ef:71:0f:2b:cd:0e:e6:6e:e5:ab:86:5e:
         a3:c2:0a:47:fe:29:6c:16:f3:2c:1f:53:c9:6d:a3:00:6c:02:
         b0:12:8e:32:c7:a2:87:77:4e:74:40:31:1f:dc:6f:fa:6b:2c:
         49:eb:82:c9:a6:ef:53:99:b6:9a:64:8d:34:23:6d:f6:c3:da:
         d1:0d:ed:2c:d5:e4:93:59:37:f5:58:40:d1:0c:9e:39:54:db:
         c2:d7:9b:96:b2:a0:8a:91:8f:48:52:7f:39:b5:f3:e7:43:60:
         2e:96:17:ab:5d:58:b7:7d:41:50:fb:d9:d6:84:85:18:07:25:
         4b:1d:b9:8d:7c:02:db:24:2d:75:c0:da:45:51:97:99:81:c7:
         8f:5b:47:64:21:7b:78:46:e6:fb:52:be:70:52:68:82:3a:8c:
         d4:5e:15:8b:39:5b:24:05
-----BEGIN CERTIFICATE-----
MIIGfzCCBGegAwIBAgICAQIwDQYJKoZIhvcNAQELBQAwezELMAkGA1UEBhMCZnIx
DDAKBgNVBAgMA2lkZjEOMAwGA1UEBwwFcGFyaXMxDjAMBgNVBAoMBXZpdGFtMRQw
EgYDVQQLDAthdXRob3JpdGllczEoMCYGA1UEAwwfY2FfaW50ZXJtZWRpYXRlX2Ns
aWVudC1leHRlcm5hbDAeFw0xODAyMDUxMjU3MjlaFw0yMTAyMDQxMjU3MjlaME4x
CzAJBgNVBAYTAmZyMQwwCgYDVQQIDANpZGYxDjAMBgNVBAcMBXBhcmlzMQ4wDAYD
VQQKDAV2aXRhbTERMA8GA1UEAwwIaWhtLWRlbW8wggIiMA0GCSqGSIb3DQEBAQUA
A4ICDwAwggIKAoICAQD3/tE+8wYbVl1N0J2R8T5elhdigStqCfl5OSRkGodjzaiu
TzBM+FPx1/KZrhTrZq8O4hsVHyXeqKB5RTiWzmLJvEceb7s7ecWcyg5n2LvDl2tE
rAwKyDWt1bknRKF+8pfxFR88Iy1IqvOv6v7+F/T+GK4NJAopFXpkl+gicx945Lo+
BA7qjcRQkQhilqw75tkwSX5DwEHIadIbmM+4mVYiH/UnKA4TZl6JcQF67NdxpY0n
dMCiPiW98GhM02qpuUFOaOnBV1Eg7bAjpF4nZ+2+H3H7kxtlnK+1kaw/HBdqDG6y
IRHfj+tLxVX0Yo3pc2E5usAol56YrFTZbVoiH/1sV9vcMgIaMZj7pIzBRPHw9roK
PVbAwefHIe82BFrCzbftkDxIc++WcwstzXYfqXDSVLmpAU8Ne3A59PxnCoHv5IYz
nfyLEGUMFBhYy0Q1lLrGjBrTDCHc2qH1DimhKbse3bBSJ4JUhj3XiM1koStcfNgR
gI8nLBDmIBrp4uW6kpMsqMkNbJnXuMzLen5gUTYvaszqWEDCr+/PS08ORFrsVAgN
GOTBCuP+w4vYiAh6dfKF10te5Q5m5svxEtm7iPfqPfVv/Wsi6kSscEncPcib+tpc
mAe02+msFuPaE0FfGT4Mg0nw0OGxWJmkOuC9yfRmXq+8xJ8qywC+q+8b4URLAQID
AQABo4IBODCCATQwJAYJYIZIAYb4QgENBBcWFUNlcnRpZmljYXQgQ2xpZW50IFNT
TDAdBgNVHQ4EFgQUuc3AoyzG3l57gWM04fPdEcwQZd8wgZ4GA1UdIwSBljCBk4AU
mU79un3P7uGp6vXac71K0Uba13yhd6R1MHMxCzAJBgNVBAYTAmZyMQwwCgYDVQQI
DANpZGYxDjAMBgNVBAcMBXBhcmlzMQ4wDAYDVQQKDAV2aXRhbTEUMBIGA1UECwwL
YXV0aG9yaXRpZXMxIDAeBgNVBAMMF2NhX3Jvb3RfY2xpZW50LWV4dGVybmFsggIA
/DAJBgNVHRIEAjAAMAwGA1UdEwEB/wQCMAAwCwYDVR0PBAQDAgXgMBEGCWCGSAGG
+EIBAQQEAwIHgDATBgNVHSUEDDAKBggrBgEFBQcDAjANBgkqhkiG9w0BAQsFAAOC
AgEAhrL+f0MngTPhXWZu5EPZYc3+h/8epmCVsCH1RaxJPkOSI/ZoumRZZOpc2b8r
tvV25XPg1SUvdrDDIOsrL9XhDX8x3FdJnM57d/zaKdvYPcXv42tZDoTWTrJzX+ec
6BXM30Ro6ILfvnpP04c9mE1ISvj0NiOMvE+SmdWfA4Oz5wxicM0CuEBvsiicNm0k
5sW2Z3r1+D6kd7iCOJT39FJ5J3zqPSuMSkvl5LMYskqFDw7gz0MfjD58dKLnah5z
3yGJGpvZ0NSfkX8aIvwQbLJ7pOW1dwhGTenbURUCbRtgQbAwRUEXLQQH+S8gjtOq
tvilyH7/fC4Su0SJ0QsAdMYmBMopi3vdyjKnjueal+OJH9ZrJzm5IfjXNCuBkOR9
WcLYiHhpXX4/aK9ccF7+Rlet8Hvnz3Ch24vA9wHbZo0XGSx3MhNUVJH2W9J/AJCG
qXS6MMSm/nAN7Asoj1Ad73EPK80O5m7lq4Zeo8IKR/4pbBbzLB9TyW2jAGwCsBKO
Mseih3dOdEAxH9xv+mssSeuCyabvU5m2mmSNNCNt9sPa0Q3tLNXkk1k39VhA0Qye
OVTbwteblrKgipGPSFJ/ObXz50NgLpYXq11Yt31BUPvZ1oSFGAclSx25jXwC2yQt
dcDaRVGXmYHHj1tHZCF7eEbm+1K+cFJogjqM1F4VizlbJAU=
-----END CERTIFICATE-----
