Certificate:
    Data:
        Version: 3 (0x2)
        Serial Number: 318 (0x13e)
        Signature Algorithm: sha256WithRSAEncryption
        Issuer: C=fr, ST=idf, L=paris, O=vitam, OU=authorities, CN=ca_intermediate_client-external
        Validity
            Not Before: Jan 12 16:12:59 2022 GMT
            Not After : Jan 11 16:12:59 2025 GMT
        Subject: C=fr, ST=idf, L=paris, O=vitam, CN=ihm-demo
        Subject Public Key Info:
            Public Key Algorithm: rsaEncryption
                RSA Public-Key: (4096 bit)
                Modulus:
                    00:b1:f7:bc:19:27:74:8f:ea:38:25:9f:d5:f8:fa:
                    59:90:40:ff:6c:fe:a3:1e:d2:6e:1e:c3:d8:51:c4:
                    34:57:79:06:45:8a:cb:73:12:ed:90:ad:d8:25:eb:
                    05:36:8c:3a:89:41:d0:b8:be:fe:70:f1:45:9c:f1:
                    fe:15:83:4f:d7:21:ad:cf:7d:15:a7:f9:0b:5e:d3:
                    d9:70:32:30:58:a4:5b:6e:23:8e:69:cc:40:52:2d:
                    b8:bb:0f:0c:c4:60:89:1c:15:d5:9c:88:47:18:68:
                    df:98:3d:e7:6a:09:f3:ea:2c:4b:1b:6c:90:78:5c:
                    be:08:1a:2d:7e:a3:9a:43:b9:00:f6:aa:bd:3d:ba:
                    61:b7:3a:eb:f5:38:96:44:d6:7f:6e:e1:f3:f7:d8:
                    d4:d7:b2:70:0d:fe:9f:e0:f8:65:3c:57:9f:38:8c:
                    72:b2:ad:bf:9f:4c:fd:fc:a9:63:8f:51:ae:60:bd:
                    f7:09:08:e9:67:69:75:bf:1e:8c:d1:30:47:4f:2a:
                    25:6e:6f:8d:17:c2:fa:c4:f5:a0:9c:d6:7b:78:a2:
                    89:16:c7:6b:53:6d:46:05:5d:91:27:bb:f1:79:b4:
                    b4:ea:dc:db:09:aa:b3:ce:2c:12:44:f5:24:ca:6e:
                    f2:09:ee:80:cb:20:42:a6:74:17:5f:6f:85:fd:57:
                    f2:98:f6:e6:9c:b9:c8:56:f7:96:cd:44:b3:3a:34:
                    6b:fa:92:f0:6a:0b:ea:25:24:b2:09:e8:63:63:22:
                    1e:56:fa:37:19:2f:3c:5f:c6:71:ab:bf:c6:58:d2:
                    88:26:d8:00:32:2d:8f:2c:36:65:a8:d3:f6:32:1a:
                    49:e0:61:31:a8:7c:15:b1:6f:11:53:bf:a9:09:79:
                    bb:07:69:56:2b:66:7e:5c:ec:82:67:c1:17:79:4e:
                    0e:61:a2:94:5d:b0:39:73:fe:df:c5:ca:01:8a:2a:
                    bb:84:3e:02:4a:ac:3b:88:25:1d:da:6e:99:fe:d1:
                    f4:40:11:f3:f7:ec:65:29:60:ed:94:15:73:5f:51:
                    8b:17:6c:44:b7:5f:0d:90:97:c7:7a:72:26:97:00:
                    86:0c:6d:5c:5a:8c:97:4e:44:0e:b0:29:c3:40:0f:
                    80:e2:24:80:08:8e:ff:56:02:14:d5:fe:06:7c:5c:
                    0b:df:94:78:ab:d2:b8:6a:b2:aa:2f:c8:f0:ae:ad:
                    4e:a4:5c:3b:9b:14:1f:9b:8c:4f:8a:75:a4:73:25:
                    4c:63:1b:92:db:52:93:31:44:b8:8b:d7:ca:a7:48:
                    63:02:b2:bf:91:03:30:e5:79:8f:01:86:d0:8b:e0:
                    11:df:97:5b:d8:62:af:49:59:33:1b:26:47:14:3e:
                    35:41:e5
                Exponent: 65537 (0x10001)
        X509v3 extensions:
            Netscape Comment: 
                Certificat Client SSL
            X509v3 Subject Key Identifier: 
                01:71:91:47:DC:2E:1F:04:D6:1F:C2:2F:D0:BD:1B:D1:31:EF:CE:57
            X509v3 Authority Key Identifier: 
                keyid:D1:7F:00:C3:F0:94:D6:CB:E3:AE:F7:23:18:2E:1E:BA:53:66:F2:F8
                DirName:/C=fr/ST=idf/L=paris/O=vitam/OU=authorities/CN=ca_root_client-external
                serial:01:2D

            X509v3 Issuer Alternative Name: 
                <EMPTY>

            X509v3 Basic Constraints: critical
                CA:FALSE
            X509v3 Key Usage: 
                Digital Signature
            Netscape Cert Type: 
                SSL Client
            X509v3 Extended Key Usage: 
                TLS Web Client Authentication
    Signature Algorithm: sha256WithRSAEncryption
         6b:bb:e2:7d:15:22:41:c0:1e:58:18:ad:d6:02:c0:44:a1:0c:
         d5:64:a8:54:3e:03:3a:7f:23:9f:23:ec:36:d0:b8:db:34:e9:
         41:11:a7:e3:b1:dd:f6:68:a9:7f:5d:33:c3:59:47:29:65:84:
         55:af:7a:f9:17:43:7c:a9:44:07:6b:11:f7:96:f8:3d:7a:53:
         3c:68:b0:11:bb:be:e4:cd:6a:57:68:5d:aa:b7:1e:47:61:1d:
         e1:c4:68:80:fb:ed:51:eb:e7:8c:de:ee:d2:c3:39:25:c7:d3:
         bb:f7:d2:dc:bc:13:3f:79:1d:83:8a:d5:1b:99:3a:f1:28:7a:
         06:59:44:ee:2f:fe:aa:a2:97:02:6e:d5:00:3c:7f:dc:89:f8:
         d5:88:2c:6a:66:18:14:90:ef:80:05:74:2e:e9:59:fd:23:e5:
         58:2b:3d:d9:54:fd:8b:41:60:51:ce:3c:f8:e1:93:f7:8d:17:
         e3:2c:0d:29:c4:2d:96:7b:d7:8f:2f:03:6b:dd:0d:db:02:4d:
         fa:24:a2:5f:e1:4f:da:f4:cd:6b:e8:03:3f:76:1a:fe:28:3c:
         0d:9c:e6:a2:25:fc:00:e2:95:59:c0:ad:b0:1e:5f:c9:5b:24:
         8d:fb:79:be:38:45:ed:12:31:a6:bb:8b:2a:b5:e8:d9:ad:58:
         67:5c:af:6f:0c:65:9d:49:05:15:38:37:a6:53:19:c8:fa:91:
         e0:ad:42:01:7f:77:79:53:96:85:9c:2d:70:39:8b:42:30:77:
         1a:da:b4:44:90:a2:9c:c3:dc:20:e1:d1:a0:60:af:9d:82:2c:
         1e:d5:64:e7:69:a8:08:8c:b3:32:92:32:eb:9f:05:b5:8a:64:
         a7:70:3f:e7:53:ca:c4:77:86:80:75:52:67:d0:a6:6f:af:60:
         20:7a:4a:8b:cf:73:b5:6d:7d:97:58:30:d2:b3:f7:5d:44:7a:
         d8:e7:5c:bb:14:7e:cd:d0:23:28:85:6c:1c:ce:d2:23:82:c6:
         cb:99:d8:27:0b:d8:40:ec:0f:8b:4c:39:7b:c6:35:f4:97:28:
         66:7e:e3:b9:39:8b:2c:28:99:65:41:40:d3:3a:43:fa:fc:6a:
         78:a4:c0:1f:18:76:35:07:96:e1:bb:8e:0a:c0:71:d6:30:f2:
         dc:a2:a5:01:7c:64:47:69:1e:e4:13:62:d7:fd:79:c7:70:5f:
         f5:3d:0d:91:e9:01:44:ac:a3:e4:c7:59:a0:23:d4:97:1a:fb:
         7c:81:c0:bc:09:0a:9f:48:7b:f2:06:d8:d3:31:d3:40:0e:0d:
         b0:8a:81:9a:4a:ab:5e:a4:e9:a5:e7:1b:49:1d:2e:36:35:81:
         b1:8b:c2:5f:98:5a:de:6c
-----BEGIN CERTIFICATE-----
MIIGfzCCBGegAwIBAgICAT4wDQYJKoZIhvcNAQELBQAwezELMAkGA1UEBhMCZnIx
DDAKBgNVBAgMA2lkZjEOMAwGA1UEBwwFcGFyaXMxDjAMBgNVBAoMBXZpdGFtMRQw
EgYDVQQLDAthdXRob3JpdGllczEoMCYGA1UEAwwfY2FfaW50ZXJtZWRpYXRlX2Ns
aWVudC1leHRlcm5hbDAeFw0yMjAxMTIxNjEyNTlaFw0yNTAxMTExNjEyNTlaME4x
CzAJBgNVBAYTAmZyMQwwCgYDVQQIDANpZGYxDjAMBgNVBAcMBXBhcmlzMQ4wDAYD
VQQKDAV2aXRhbTERMA8GA1UEAwwIaWhtLWRlbW8wggIiMA0GCSqGSIb3DQEBAQUA
A4ICDwAwggIKAoICAQCx97wZJ3SP6jgln9X4+lmQQP9s/qMe0m4ew9hRxDRXeQZF
istzEu2Qrdgl6wU2jDqJQdC4vv5w8UWc8f4Vg0/XIa3PfRWn+Qte09lwMjBYpFtu
I45pzEBSLbi7DwzEYIkcFdWciEcYaN+YPedqCfPqLEsbbJB4XL4IGi1+o5pDuQD2
qr09umG3Ouv1OJZE1n9u4fP32NTXsnAN/p/g+GU8V584jHKyrb+fTP38qWOPUa5g
vfcJCOlnaXW/HozRMEdPKiVub40XwvrE9aCc1nt4ookWx2tTbUYFXZEnu/F5tLTq
3NsJqrPOLBJE9STKbvIJ7oDLIEKmdBdfb4X9V/KY9uacuchW95bNRLM6NGv6kvBq
C+olJLIJ6GNjIh5W+jcZLzxfxnGrv8ZY0ogm2AAyLY8sNmWo0/YyGkngYTGofBWx
bxFTv6kJebsHaVYrZn5c7IJnwRd5Tg5hopRdsDlz/t/FygGKKruEPgJKrDuIJR3a
bpn+0fRAEfP37GUpYO2UFXNfUYsXbES3Xw2Ql8d6ciaXAIYMbVxajJdORA6wKcNA
D4DiJIAIjv9WAhTV/gZ8XAvflHir0rhqsqovyPCurU6kXDubFB+bjE+KdaRzJUxj
G5LbUpMxRLiL18qnSGMCsr+RAzDleY8BhtCL4BHfl1vYYq9JWTMbJkcUPjVB5QID
AQABo4IBODCCATQwJAYJYIZIAYb4QgENBBcWFUNlcnRpZmljYXQgQ2xpZW50IFNT
TDAdBgNVHQ4EFgQUAXGRR9wuHwTWH8Iv0L0b0THvzlcwgZ4GA1UdIwSBljCBk4AU
0X8Aw/CU1svjrvcjGC4eulNm8vihd6R1MHMxCzAJBgNVBAYTAmZyMQwwCgYDVQQI
DANpZGYxDjAMBgNVBAcMBXBhcmlzMQ4wDAYDVQQKDAV2aXRhbTEUMBIGA1UECwwL
YXV0aG9yaXRpZXMxIDAeBgNVBAMMF2NhX3Jvb3RfY2xpZW50LWV4dGVybmFsggIB
LTAJBgNVHRIEAjAAMAwGA1UdEwEB/wQCMAAwCwYDVR0PBAQDAgeAMBEGCWCGSAGG
+EIBAQQEAwIHgDATBgNVHSUEDDAKBggrBgEFBQcDAjANBgkqhkiG9w0BAQsFAAOC
AgEAa7vifRUiQcAeWBit1gLARKEM1WSoVD4DOn8jnyPsNtC42zTpQRGn47Hd9mip
f10zw1lHKWWEVa96+RdDfKlEB2sR95b4PXpTPGiwEbu+5M1qV2hdqrceR2Ed4cRo
gPvtUevnjN7u0sM5JcfTu/fS3LwTP3kdg4rVG5k68Sh6BllE7i/+qqKXAm7VADx/
3In41YgsamYYFJDvgAV0LulZ/SPlWCs92VT9i0FgUc48+OGT940X4ywNKcQtlnvX
jy8Da90N2wJN+iSiX+FP2vTNa+gDP3Ya/ig8DZzmoiX8AOKVWcCtsB5fyVskjft5
vjhF7RIxpruLKrXo2a1YZ1yvbwxlnUkFFTg3plMZyPqR4K1CAX93eVOWhZwtcDmL
QjB3Gtq0RJCinMPcIOHRoGCvnYIsHtVk52moCIyzMpIy658FtYpkp3A/51PKxHeG
gHVSZ9Cmb69gIHpKi89ztW19l1gw0rP3XUR62OdcuxR+zdAjKIVsHM7SI4LGy5nY
JwvYQOwPi0w5e8Y19JcoZn7juTmLLCiZZUFA0zpD+vxqeKTAHxh2NQeW4buOCsBx
1jDy3KKlAXxkR2ke5BNi1/15x3Bf9T0NkekBRKyj5MdZoCPUlxr7fIHAvAkKn0h7
8gbY0zHTQA4NsIqBmkqrXqTppecbSR0uNjWBsYvCX5ha3mw=
-----END CERTIFICATE-----
