Certificate:
    Data:
        Version: 3 (0x2)
        Serial Number: 295 (0x127)
    Signature Algorithm: sha256WithRSAEncryption
        Issuer: C=fr, ST=idf, L=paris, O=vitam, OU=authorities, CN=ca_intermediate_client-external
        Validity
            Not Before: Oct 19 08:41:02 2018 GMT
            Not After : Oct 18 08:41:02 2021 GMT
        Subject: C=fr, ST=idf, L=paris, O=vitam, CN=ihm-demo
        Subject Public Key Info:
            Public Key Algorithm: rsaEncryption
                Public-Key: (4096 bit)
                Modulus:
                    00:ec:5a:c0:d8:2e:a5:f0:b4:4a:95:47:ec:de:fb:
                    ce:40:18:ee:ec:48:35:2b:d9:23:22:5b:21:81:25:
                    30:c6:78:91:61:82:86:1e:8c:58:6c:13:d0:f7:e3:
                    37:0d:cf:fa:26:95:be:3e:7d:e5:10:df:f5:6e:9b:
                    6a:41:0e:70:49:4e:fe:2a:ee:65:e9:be:f3:48:df:
                    0c:d9:26:5c:ce:17:2d:7e:5c:a6:12:95:fd:93:2d:
                    6b:ca:e8:b7:2d:e1:44:0f:ed:4e:04:87:db:81:89:
                    07:71:9d:66:25:52:65:27:7a:d8:78:d4:a8:60:05:
                    14:0e:6f:e1:e4:9b:21:de:26:43:ce:3e:d2:b9:8f:
                    60:52:6a:78:9e:6a:69:a4:d4:93:26:e6:4b:f9:7f:
                    76:4b:e6:d4:0c:d6:cc:0e:a8:6e:9e:70:d7:8b:ce:
                    03:ea:19:5c:36:44:db:8b:5c:70:18:4d:10:23:4e:
                    c5:d9:64:42:6e:ea:ba:ad:9d:dc:23:ae:1d:f2:a8:
                    08:4b:18:17:0b:5c:3b:bf:66:f8:de:1c:55:2a:93:
                    35:1a:83:0b:23:6f:bf:be:46:b5:dd:b0:4d:f8:00:
                    e4:12:66:32:00:fd:f8:f1:33:60:9d:39:66:0b:db:
                    14:71:63:b5:a3:3c:c9:0d:dd:49:73:f2:b0:e6:2a:
                    cc:99:e2:f8:56:c1:47:02:15:fb:38:e2:57:45:9c:
                    4d:18:7e:ed:17:01:a2:d3:c7:dc:0a:b4:e1:64:94:
                    0f:56:e8:36:a2:61:57:34:88:72:e7:66:b2:b1:38:
                    2c:74:91:e4:2f:03:ab:1c:5a:0b:45:40:b3:b4:31:
                    88:55:e7:8c:79:07:f9:59:5e:c7:1c:f9:e8:b6:bf:
                    2a:d7:7f:d8:09:2d:57:01:4a:28:3b:a5:da:1e:45:
                    25:80:d1:6d:32:49:de:51:8e:5d:4c:7e:7d:2b:b6:
                    1d:61:88:24:9c:70:c3:5f:20:aa:c4:4d:d6:62:56:
                    05:0b:00:05:90:41:d8:17:73:4e:0a:e9:c9:0f:87:
                    e2:b8:b8:64:fa:46:7c:64:a5:9d:f8:bc:9e:2a:9a:
                    33:0d:cf:a7:ee:71:16:6c:b1:7d:e0:19:5b:1a:1d:
                    b9:3b:10:6b:52:58:9b:e0:44:ce:1c:64:97:b3:fb:
                    47:f0:6f:ca:ae:6c:25:16:b7:47:3c:fb:b4:58:cc:
                    c8:60:5e:a9:35:eb:f3:dc:42:c5:09:40:31:46:7c:
                    83:8e:8e:dc:ce:6c:90:be:2f:ec:3c:2b:33:ac:04:
                    1f:c3:a0:f3:5c:98:13:69:ae:77:61:7a:0d:ff:c6:
                    b4:b8:0f:bf:a7:a6:c3:2f:70:be:b6:14:9c:07:6b:
                    d8:e4:7b
                Exponent: 65537 (0x10001)
        X509v3 extensions:
            Netscape Comment: 
                Certificat Client SSL
            X509v3 Subject Key Identifier: 
                A2:9B:94:A4:72:64:E3:DE:68:23:7C:FE:FF:4E:51:94:80:5B:7A:7B
            X509v3 Authority Key Identifier: 
                keyid:C9:3C:3C:C8:A5:F9:D0:93:F8:D5:E2:7E:36:7A:C6:91:ED:2A:7B:AC
                DirName:/C=fr/ST=idf/L=paris/O=vitam/OU=authorities/CN=ca_root_client-external
                serial:01:26

            X509v3 Issuer Alternative Name: 
                <EMPTY>

            X509v3 Basic Constraints: critical
                CA:FALSE
            X509v3 Key Usage: 
                Digital Signature
            Netscape Cert Type: 
                SSL Client
            X509v3 Extended Key Usage: 
                TLS Web Client Authentication
    Signature Algorithm: sha256WithRSAEncryption
         50:53:0b:b5:5d:23:bc:a8:ce:3d:0f:51:f5:c2:69:85:48:5a:
         99:90:46:87:b0:09:23:ff:78:2b:9b:98:a5:ae:65:f0:a7:0c:
         36:23:38:0d:1d:f5:56:50:1a:90:d8:59:d5:dc:58:d3:f4:60:
         1b:4c:0a:bc:d6:e8:c8:d4:ba:e9:ba:7e:d4:85:be:57:26:83:
         e6:83:76:e0:23:d8:9b:98:50:e0:63:81:e1:fa:a1:e2:29:67:
         59:07:88:63:6f:36:d6:13:35:b2:7b:dd:54:59:b2:a0:0f:8d:
         39:05:60:b7:59:24:56:92:63:a1:b1:10:2d:45:8d:3a:2a:e7:
         d4:1a:71:57:72:bc:cc:4c:b5:20:dc:9c:49:dd:a0:e7:41:42:
         47:cd:1b:fe:41:12:24:f6:6e:ef:5a:81:a0:7d:1c:4a:53:f9:
         49:f8:27:ec:74:d5:9e:0f:23:c4:b3:15:2c:f9:7d:d9:81:7e:
         7c:fb:11:39:ac:88:e9:a9:3f:0a:98:0d:bb:9c:2f:7d:1a:ec:
         5d:e5:33:e3:31:86:39:78:d8:32:d0:8e:f1:b4:91:1d:6d:35:
         63:4b:ef:f3:4e:9f:ab:da:dc:f3:c7:41:a7:62:ce:ce:12:27:
         05:52:31:31:60:a6:70:d3:b6:4c:5f:ab:ff:91:60:aa:45:ac:
         4d:65:84:db:67:b4:96:ca:cc:a6:e9:d9:bf:87:2e:cd:c9:c5:
         a4:1e:5a:48:81:d7:1d:3a:cb:ac:b7:2d:ce:46:fd:1d:e4:ac:
         2a:82:95:26:3b:44:2c:25:2c:5b:3b:ab:cd:c6:e2:93:d0:2b:
         0e:ba:be:0f:d6:42:65:d2:85:ef:cc:68:64:a4:63:1d:b8:6f:
         82:81:e7:87:49:7d:82:80:22:d6:5d:79:7d:0e:fe:fa:62:af:
         8a:22:1d:e9:86:4e:c3:84:c8:fb:cb:12:79:eb:e3:98:92:4e:
         3a:1a:93:01:f5:61:b4:4e:54:83:c6:dd:56:82:ab:89:8c:a2:
         7f:c0:37:85:e4:e2:89:e3:3f:83:4b:d6:45:5c:7a:03:e6:44:
         35:d6:18:59:02:51:9c:8e:11:ea:75:26:ce:24:9d:e9:45:7f:
         9f:d3:41:c0:29:81:9a:09:6c:56:2b:6f:bd:68:89:1a:30:44:
         6d:2f:5f:20:f1:10:ae:94:0e:20:26:7e:db:b0:84:ad:61:5e:
         aa:f9:6f:74:f2:cd:3f:63:71:30:6e:c7:1b:2f:7b:7b:24:68:
         48:63:df:12:3b:34:4a:be:53:7c:0d:e5:68:5a:df:40:a3:39:
         cd:32:d4:40:f2:60:49:30:e3:c1:e9:1e:c9:6c:8f:00:02:0a:
         35:5f:63:15:e7:b0:5c:48
-----BEGIN CERTIFICATE-----
MIIGfzCCBGegAwIBAgICAScwDQYJKoZIhvcNAQELBQAwezELMAkGA1UEBhMCZnIx
DDAKBgNVBAgMA2lkZjEOMAwGA1UEBwwFcGFyaXMxDjAMBgNVBAoMBXZpdGFtMRQw
EgYDVQQLDAthdXRob3JpdGllczEoMCYGA1UEAwwfY2FfaW50ZXJtZWRpYXRlX2Ns
aWVudC1leHRlcm5hbDAeFw0xODEwMTkwODQxMDJaFw0yMTEwMTgwODQxMDJaME4x
CzAJBgNVBAYTAmZyMQwwCgYDVQQIDANpZGYxDjAMBgNVBAcMBXBhcmlzMQ4wDAYD
VQQKDAV2aXRhbTERMA8GA1UEAwwIaWhtLWRlbW8wggIiMA0GCSqGSIb3DQEBAQUA
A4ICDwAwggIKAoICAQDsWsDYLqXwtEqVR+ze+85AGO7sSDUr2SMiWyGBJTDGeJFh
goYejFhsE9D34zcNz/omlb4+feUQ3/Vum2pBDnBJTv4q7mXpvvNI3wzZJlzOFy1+
XKYSlf2TLWvK6Lct4UQP7U4Eh9uBiQdxnWYlUmUneth41KhgBRQOb+HkmyHeJkPO
PtK5j2BSanieammk1JMm5kv5f3ZL5tQM1swOqG6ecNeLzgPqGVw2RNuLXHAYTRAj
TsXZZEJu6rqtndwjrh3yqAhLGBcLXDu/ZvjeHFUqkzUagwsjb7++RrXdsE34AOQS
ZjIA/fjxM2CdOWYL2xRxY7WjPMkN3Ulz8rDmKsyZ4vhWwUcCFfs44ldFnE0Yfu0X
AaLTx9wKtOFklA9W6DaiYVc0iHLnZrKxOCx0keQvA6scWgtFQLO0MYhV54x5B/lZ
Xscc+ei2vyrXf9gJLVcBSig7pdoeRSWA0W0ySd5Rjl1Mfn0rth1hiCSccMNfIKrE
TdZiVgULAAWQQdgXc04K6ckPh+K4uGT6RnxkpZ34vJ4qmjMNz6fucRZssX3gGVsa
Hbk7EGtSWJvgRM4cZJez+0fwb8qubCUWt0c8+7RYzMhgXqk16/PcQsUJQDFGfIOO
jtzObJC+L+w8KzOsBB/DoPNcmBNprndheg3/xrS4D7+npsMvcL62FJwHa9jkewID
AQABo4IBODCCATQwJAYJYIZIAYb4QgENBBcWFUNlcnRpZmljYXQgQ2xpZW50IFNT
TDAdBgNVHQ4EFgQUopuUpHJk495oI3z+/05RlIBbenswgZ4GA1UdIwSBljCBk4AU
yTw8yKX50JP41eJ+NnrGke0qe6yhd6R1MHMxCzAJBgNVBAYTAmZyMQwwCgYDVQQI
DANpZGYxDjAMBgNVBAcMBXBhcmlzMQ4wDAYDVQQKDAV2aXRhbTEUMBIGA1UECwwL
YXV0aG9yaXRpZXMxIDAeBgNVBAMMF2NhX3Jvb3RfY2xpZW50LWV4dGVybmFsggIB
JjAJBgNVHRIEAjAAMAwGA1UdEwEB/wQCMAAwCwYDVR0PBAQDAgeAMBEGCWCGSAGG
+EIBAQQEAwIHgDATBgNVHSUEDDAKBggrBgEFBQcDAjANBgkqhkiG9w0BAQsFAAOC
AgEAUFMLtV0jvKjOPQ9R9cJphUhamZBGh7AJI/94K5uYpa5l8KcMNiM4DR31VlAa
kNhZ1dxY0/RgG0wKvNboyNS66bp+1IW+VyaD5oN24CPYm5hQ4GOB4fqh4ilnWQeI
Y2821hM1snvdVFmyoA+NOQVgt1kkVpJjobEQLUWNOirn1BpxV3K8zEy1INycSd2g
50FCR80b/kESJPZu71qBoH0cSlP5Sfgn7HTVng8jxLMVLPl92YF+fPsROayI6ak/
CpgNu5wvfRrsXeUz4zGGOXjYMtCO8bSRHW01Y0vv806fq9rc88dBp2LOzhInBVIx
MWCmcNO2TF+r/5FgqkWsTWWE22e0lsrMpunZv4cuzcnFpB5aSIHXHTrLrLctzkb9
HeSsKoKVJjtELCUsWzurzcbik9ArDrq+D9ZCZdKF78xoZKRjHbhvgoHnh0l9goAi
1l15fQ7++mKviiId6YZOw4TI+8sSeevjmJJOOhqTAfVhtE5Ug8bdVoKriYyif8A3
heTiieM/g0vWRVx6A+ZENdYYWQJRnI4R6nUmziSd6UV/n9NBwCmBmglsVitvvWiJ
GjBEbS9fIPEQrpQOICZ+27CErWFeqvlvdPLNP2NxMG7HGy97eyRoSGPfEjs0Sr5T
fA3laFrfQKM5zTLUQPJgSTDjwekeyWyPAAIKNV9jFeewXEg=
-----END CERTIFICATE-----
