Certificate:
    Data:
        Version: 3 (0x2)
        Serial Number: 302 (0x12e)
        Signature Algorithm: sha256WithRSAEncryption
        Issuer: C=fr, ST=idf, L=paris, O=vitam, OU=authorities, CN=ca_intermediate_client-external
        Validity
            Not Before: Sep 15 13:01:09 2020 GMT
            Not After : Dec 31 23:59:59 9999 GMT
        Subject: C=fr, ST=idf, L=paris, O=vitam, CN=ihm-demo
        Subject Public Key Info:
            Public Key Algorithm: rsaEncryption
                RSA Public-Key: (4096 bit)
                Modulus:
                    00:b3:0b:ea:38:e5:5b:22:ac:b8:fe:70:7b:7b:d4:
                    81:61:75:68:c5:56:b5:aa:fe:27:4e:42:f9:14:14:
                    b3:49:3d:26:3f:5b:d7:fd:61:f0:25:71:ad:95:7a:
                    6e:b1:78:1c:ed:08:06:4f:0e:50:39:ce:47:00:20:
                    45:c5:54:88:c9:07:15:34:91:ce:dd:b1:4c:da:5f:
                    ea:f4:68:73:e8:0a:4d:2d:72:d1:3e:20:ed:72:42:
                    ca:9f:a0:75:1e:96:74:7c:99:27:20:4e:a5:6e:0c:
                    a4:0d:8c:f4:48:c8:35:de:75:5f:eb:9e:00:38:c9:
                    e2:2f:8f:00:66:5a:48:0b:85:a8:ae:6b:80:23:e0:
                    6d:40:41:af:60:6d:99:c7:e3:8b:9c:47:4d:25:29:
                    e7:9d:d7:f7:80:fe:6f:a2:40:e2:f4:da:89:78:c0:
                    a9:de:bc:4f:11:74:fa:26:00:21:66:ed:b9:e9:73:
                    d5:2c:47:ef:69:69:31:ab:9b:77:5d:3e:32:dc:3c:
                    8c:7e:b0:83:0c:3e:a2:eb:fe:57:43:03:96:cf:0f:
                    04:1f:84:7a:07:3a:3d:03:fe:5c:89:44:00:f1:c5:
                    85:70:18:6e:8a:11:33:a1:e0:07:59:2c:1f:ad:b9:
                    ce:a4:d5:2a:91:10:7b:2f:cf:57:aa:3d:18:7d:58:
                    40:07:e7:76:58:d0:03:c7:93:f7:d3:27:54:1e:3b:
                    e3:20:ea:50:ed:04:4a:0d:92:77:11:bb:de:e2:84:
                    50:37:40:8e:b6:1e:2a:1d:2c:c9:49:8e:8b:69:83:
                    5c:c7:51:71:22:7f:28:bd:85:de:60:e3:ee:14:bc:
                    0d:1e:a4:fa:d4:95:1b:5b:8c:26:7c:b3:09:2d:ad:
                    14:0b:84:da:23:8e:d0:9c:a8:11:1d:81:21:88:9d:
                    27:8b:24:26:97:3a:c6:b7:3a:f7:ee:f9:75:82:bf:
                    6c:1b:44:dc:78:55:8c:ca:2c:8b:77:62:dd:98:74:
                    1a:32:58:d4:6f:ec:7c:c9:cb:eb:54:41:ad:07:13:
                    ac:45:3f:ef:c7:cc:c1:07:8c:ee:42:97:3e:b9:11:
                    f7:71:2b:eb:0a:50:45:42:d9:8e:7a:00:e1:5a:47:
                    4a:a6:47:2e:4f:2c:6c:e4:37:43:c1:06:d1:f0:09:
                    a6:86:32:22:a5:3d:00:d1:3c:5c:87:b2:15:66:52:
                    e6:b6:fa:5a:78:d5:76:bb:06:6a:99:05:a6:e8:8d:
                    06:fd:f1:32:6d:4b:5e:c1:a0:26:b4:e6:ed:68:29:
                    44:f2:db:09:fc:95:19:f0:98:e4:d3:ab:9b:0e:5f:
                    0c:bd:8f:64:0e:1c:b2:29:4a:df:06:3a:0c:7f:fb:
                    3f:61:e7
                Exponent: 65537 (0x10001)
        X509v3 extensions:
            Netscape Comment: 
                Certificat Client SSL
            X509v3 Subject Key Identifier: 
                7E:20:37:A6:9E:E3:6F:D1:81:F2:31:B2:5A:53:DA:80:7E:DA:31:F0
            X509v3 Authority Key Identifier: 
                keyid:D1:7F:00:C3:F0:94:D6:CB:E3:AE:F7:23:18:2E:1E:BA:53:66:F2:F8
                DirName:/C=fr/ST=idf/L=paris/O=vitam/OU=authorities/CN=ca_root_client-external
                serial:01:2D

            X509v3 Issuer Alternative Name: 
                <EMPTY>

            X509v3 Basic Constraints: critical
                CA:FALSE
            X509v3 Key Usage: 
                Digital Signature
            Netscape Cert Type: 
                SSL Client
            X509v3 Extended Key Usage: 
                TLS Web Client Authentication
    Signature Algorithm: sha256WithRSAEncryption
         86:31:d5:61:5e:b4:44:86:41:d4:4f:26:82:93:d0:52:e1:25:
         60:72:57:a1:00:79:4b:11:77:7a:0a:6a:1c:e5:0c:95:47:3b:
         58:0b:68:ce:2d:1a:25:41:da:35:5b:72:35:ac:f5:99:3b:73:
         c7:b2:ac:3f:b9:42:a0:92:5a:ee:7d:aa:5f:98:58:44:fb:49:
         a1:96:e1:cb:15:a7:4b:01:5a:73:40:f2:75:0e:d4:7a:7b:c0:
         3c:85:57:95:44:5a:5b:46:86:93:24:ec:3c:6f:44:06:b8:32:
         c1:9b:b1:b0:57:1b:36:74:6a:49:87:04:c3:21:73:92:ec:78:
         e8:79:96:14:4c:36:d2:67:22:55:ea:84:2e:84:57:4c:ab:10:
         c5:ea:b3:3b:01:82:31:24:c5:da:fe:8f:7d:47:fd:be:cb:57:
         bb:27:25:37:be:1c:a8:09:66:c4:05:c5:e7:b1:3c:0d:39:f1:
         96:cf:0f:a0:9b:be:d3:52:b5:bf:b8:43:f1:1e:8d:71:72:43:
         4f:3d:b9:38:11:33:41:07:a2:f1:a3:3b:60:cc:74:86:a4:46:
         af:2b:49:e3:48:76:f8:cb:7d:11:53:2e:9d:3a:61:5d:ac:76:
         15:29:9a:17:50:d4:e1:94:7d:16:c7:96:3a:f4:0a:d8:7e:e4:
         1c:e9:43:06:01:82:1e:58:af:50:1f:17:6b:92:76:2c:b2:88:
         67:43:ae:ee:9f:66:8a:47:59:fa:f6:44:1a:12:d7:22:f3:db:
         d1:53:f8:64:84:70:64:73:b9:4c:7a:3f:03:3f:7b:03:94:ca:
         3e:3d:df:d1:a0:48:5f:db:42:50:e8:4c:d5:07:bf:f0:f5:ba:
         91:49:7d:9a:cf:36:22:19:ca:ef:22:a8:05:7e:c6:72:76:78:
         ee:a0:91:40:8d:99:6c:45:f3:eb:b1:ae:a6:59:64:d4:69:d4:
         b7:fe:bb:f1:1c:c3:e6:2e:77:f1:5b:32:a0:14:52:20:51:bb:
         31:cc:20:93:d6:bf:e5:29:48:89:89:8d:2d:b3:a9:7b:d1:c7:
         67:7a:b9:b3:6f:65:48:c4:00:b1:8b:81:d1:21:d7:c9:5e:f2:
         8a:78:6d:2a:ca:a9:94:f6:3a:26:ef:c5:01:c1:fd:d9:14:53:
         da:3e:4a:f6:f6:b1:52:a9:52:77:bb:31:eb:ef:09:3e:87:d9:
         a0:44:13:98:76:6b:e3:3b:78:48:ea:e1:34:34:95:ab:e1:5c:
         e0:eb:fd:f1:8c:ce:7b:a1:3b:46:8e:a7:fc:15:49:81:dd:25:
         16:97:f6:9e:43:ce:b5:10:e1:62:e3:6d:9b:d6:28:ce:34:ad:
         64:1f:fe:6a:4d:14:04:00
-----BEGIN CERTIFICATE-----
MIIGgTCCBGmgAwIBAgICAS4wDQYJKoZIhvcNAQELBQAwezELMAkGA1UEBhMCZnIx
DDAKBgNVBAgMA2lkZjEOMAwGA1UEBwwFcGFyaXMxDjAMBgNVBAoMBXZpdGFtMRQw
EgYDVQQLDAthdXRob3JpdGllczEoMCYGA1UEAwwfY2FfaW50ZXJtZWRpYXRlX2Ns
aWVudC1leHRlcm5hbDAgFw0yMDA5MTUxMzAxMDlaGA85OTk5MTIzMTIzNTk1OVow
TjELMAkGA1UEBhMCZnIxDDAKBgNVBAgMA2lkZjEOMAwGA1UEBwwFcGFyaXMxDjAM
BgNVBAoMBXZpdGFtMREwDwYDVQQDDAhpaG0tZGVtbzCCAiIwDQYJKoZIhvcNAQEB
BQADggIPADCCAgoCggIBALML6jjlWyKsuP5we3vUgWF1aMVWtar+J05C+RQUs0k9
Jj9b1/1h8CVxrZV6brF4HO0IBk8OUDnORwAgRcVUiMkHFTSRzt2xTNpf6vRoc+gK
TS1y0T4g7XJCyp+gdR6WdHyZJyBOpW4MpA2M9EjINd51X+ueADjJ4i+PAGZaSAuF
qK5rgCPgbUBBr2Btmcfji5xHTSUp553X94D+b6JA4vTaiXjAqd68TxF0+iYAIWbt
uelz1SxH72lpMaubd10+Mtw8jH6wgww+ouv+V0MDls8PBB+Eegc6PQP+XIlEAPHF
hXAYbooRM6HgB1ksH625zqTVKpEQey/PV6o9GH1YQAfndljQA8eT99MnVB474yDq
UO0ESg2SdxG73uKEUDdAjrYeKh0syUmOi2mDXMdRcSJ/KL2F3mDj7hS8DR6k+tSV
G1uMJnyzCS2tFAuE2iOO0JyoER2BIYidJ4skJpc6xrc69+75dYK/bBtE3HhVjMos
i3di3Zh0GjJY1G/sfMnL61RBrQcTrEU/78fMwQeM7kKXPrkR93Er6wpQRULZjnoA
4VpHSqZHLk8sbOQ3Q8EG0fAJpoYyIqU9ANE8XIeyFWZS5rb6WnjVdrsGapkFpuiN
Bv3xMm1LXsGgJrTm7WgpRPLbCfyVGfCY5NOrmw5fDL2PZA4csilK3wY6DH/7P2Hn
AgMBAAGjggE4MIIBNDAkBglghkgBhvhCAQ0EFxYVQ2VydGlmaWNhdCBDbGllbnQg
U1NMMB0GA1UdDgQWBBR+IDemnuNv0YHyMbJaU9qAftox8DCBngYDVR0jBIGWMIGT
gBTRfwDD8JTWy+Ou9yMYLh66U2by+KF3pHUwczELMAkGA1UEBhMCZnIxDDAKBgNV
BAgMA2lkZjEOMAwGA1UEBwwFcGFyaXMxDjAMBgNVBAoMBXZpdGFtMRQwEgYDVQQL
DAthdXRob3JpdGllczEgMB4GA1UEAwwXY2Ffcm9vdF9jbGllbnQtZXh0ZXJuYWyC
AgEtMAkGA1UdEgQCMAAwDAYDVR0TAQH/BAIwADALBgNVHQ8EBAMCB4AwEQYJYIZI
AYb4QgEBBAQDAgeAMBMGA1UdJQQMMAoGCCsGAQUFBwMCMA0GCSqGSIb3DQEBCwUA
A4ICAQCGMdVhXrREhkHUTyaCk9BS4SVgclehAHlLEXd6Cmoc5QyVRztYC2jOLRol
Qdo1W3I1rPWZO3PHsqw/uUKgklrufapfmFhE+0mhluHLFadLAVpzQPJ1DtR6e8A8
hVeVRFpbRoaTJOw8b0QGuDLBm7GwVxs2dGpJhwTDIXOS7HjoeZYUTDbSZyJV6oQu
hFdMqxDF6rM7AYIxJMXa/o99R/2+y1e7JyU3vhyoCWbEBcXnsTwNOfGWzw+gm77T
UrW/uEPxHo1xckNPPbk4ETNBB6LxoztgzHSGpEavK0njSHb4y30RUy6dOmFdrHYV
KZoXUNThlH0Wx5Y69ArYfuQc6UMGAYIeWK9QHxdrknYssohnQ67un2aKR1n69kQa
Etci89vRU/hkhHBkc7lMej8DP3sDlMo+Pd/RoEhf20JQ6EzVB7/w9bqRSX2azzYi
GcrvIqgFfsZydnjuoJFAjZlsRfPrsa6mWWTUadS3/rvxHMPmLnfxWzKgFFIgUbsx
zCCT1r/lKUiJiY0ts6l70cdnermzb2VIxACxi4HRIdfJXvKKeG0qyqmU9jom78UB
wf3ZFFPaPkr29rFSqVJ3uzHr7wk+h9mgRBOYdmvjO3hI6uE0NJWr4Vzg6/3xjM57
oTtGjqf8FUmB3SUWl/aeQ861EOFi422b1ijONK1kH/5qTRQEAA==
-----END CERTIFICATE-----
