Certificate:
    Data:
        Version: 3 (0x2)
        Serial Number: 288 (0x120)
    Signature Algorithm: sha256WithRSAEncryption
        Issuer: C=fr, ST=idf, L=paris, O=vitam, OU=authorities, CN=ca_intermediate_client-external
        Validity
            Not Before: Feb 22 16:37:04 2018 GMT
            Not After : Feb 21 16:37:04 2021 GMT
        Subject: C=fr, ST=idf, L=paris, O=vitam, CN=ihm-demo
        Subject Public Key Info:
            Public Key Algorithm: rsaEncryption
                Public-Key: (4096 bit)
                Modulus:
                    00:b2:ce:2d:d6:9c:96:ed:02:f9:71:89:55:cc:fe:
                    4b:c6:53:ef:5e:c0:6e:6f:60:81:4b:00:c5:10:bf:
                    9b:ac:05:d6:6e:1a:f6:00:4d:8f:7f:bd:01:05:eb:
                    71:dd:9f:1a:5a:3d:0e:76:5c:cc:b7:03:54:ea:e6:
                    e2:70:9b:6f:e5:ed:3b:bc:91:90:a6:42:7b:c9:c0:
                    74:2d:f4:2d:bc:05:ef:6d:02:12:be:5a:88:34:e4:
                    8c:44:df:0b:9f:d6:91:f1:d1:70:07:44:78:02:e5:
                    76:ff:f4:b2:e9:63:1f:d9:fa:f9:3f:26:1e:f0:79:
                    c7:d5:64:4e:ce:21:11:fa:a5:ca:cc:53:06:9d:7c:
                    9b:d1:c5:df:d1:64:37:f5:73:ba:d4:f1:9c:79:8b:
                    76:85:10:56:4e:99:66:3f:b6:8c:8d:6e:af:1c:13:
                    4b:de:c9:3c:b8:ab:56:ce:a2:2a:4b:57:f0:24:0b:
                    f2:b2:7e:fc:36:cf:ed:de:5c:1b:2b:b5:45:fa:35:
                    08:c2:1d:38:2b:b8:b8:95:d1:57:bc:bd:d4:16:64:
                    11:6b:99:85:fd:99:ca:96:d6:33:08:7d:7c:cd:e0:
                    8a:47:25:32:0d:b6:8b:1b:fb:f1:f4:cc:b4:f9:19:
                    1a:21:03:f4:20:48:e5:33:07:db:f1:8a:a4:a0:9c:
                    c2:69:34:7a:c4:68:b8:3e:9a:e4:c4:46:ba:f7:3b:
                    8a:ec:25:f2:48:81:49:30:94:32:47:53:7a:35:26:
                    75:32:37:0c:19:bb:0c:8e:4f:9d:0e:ba:c6:b8:e7:
                    ea:d5:89:62:7e:04:9f:fd:a5:d1:91:f5:d1:84:a8:
                    da:24:f2:4e:29:6e:be:2b:16:1b:58:68:14:89:c0:
                    3a:b2:62:5c:3d:2f:82:99:07:1f:d5:03:ca:04:81:
                    b4:fb:7b:79:ed:b5:3a:16:44:ca:0f:12:1a:73:17:
                    04:ac:56:ed:a9:1e:78:8c:cd:06:d4:6c:70:f0:63:
                    79:36:74:1a:29:ee:b4:26:b4:f4:08:df:9b:df:a8:
                    50:a3:5e:99:a6:7c:33:43:0b:04:c1:4c:f8:82:12:
                    24:8c:ef:97:bd:2e:d5:32:01:e4:6e:cd:8f:2a:1e:
                    40:44:09:40:3a:92:da:d2:3c:2f:2b:5c:14:a5:0c:
                    fe:f5:59:5a:36:84:2c:5f:18:2a:93:fa:e9:c9:2a:
                    c7:e0:69:61:51:de:16:f1:96:4d:c3:50:b8:31:83:
                    58:b9:ac:ef:e2:d4:4b:4d:66:b4:d9:d0:06:5a:28:
                    b6:21:42:4e:ab:de:a4:1e:7b:13:93:e9:01:fa:55:
                    b6:c1:a2:d3:f6:c7:83:7b:05:a7:7a:ec:10:8c:16:
                    76:12:d7
                Exponent: 65537 (0x10001)
        X509v3 extensions:
            Netscape Comment: 
                Certificat Client SSL
            X509v3 Subject Key Identifier: 
                81:B5:7A:19:87:4F:F4:14:2F:C6:8A:F5:CA:AC:DF:C9:E3:A5:C9:64
            X509v3 Authority Key Identifier: 
                keyid:9C:8B:2B:E0:30:68:BA:20:26:1D:BA:07:A0:48:19:6B:2C:DE:0E:26
                DirName:/C=fr/ST=idf/L=paris/O=vitam/OU=authorities/CN=ca_root_client-external
                serial:FC

            X509v3 Issuer Alternative Name: 
                <EMPTY>

            X509v3 Basic Constraints: critical
                CA:FALSE
            X509v3 Key Usage: 
                Digital Signature, Non Repudiation, Key Encipherment
            Netscape Cert Type: 
                SSL Client
            X509v3 Extended Key Usage: 
                TLS Web Client Authentication
    Signature Algorithm: sha256WithRSAEncryption
         88:5c:f5:3c:07:e9:db:a2:c6:49:0d:c7:31:71:74:53:dd:23:
         c3:cd:c9:a4:94:5b:27:83:b6:16:3a:50:58:52:4e:c8:ae:f9:
         03:94:bb:3e:ad:ec:95:2e:0e:0f:4f:31:7f:b4:e6:8c:2d:a6:
         df:a2:e5:50:e1:48:e0:71:87:bc:30:b7:af:6c:46:1d:fe:7a:
         f4:13:4f:3d:da:e9:bc:dd:76:79:74:fc:c8:1d:e3:4d:6e:e7:
         53:2f:fb:38:78:7b:49:94:1e:64:cd:2a:60:77:8f:05:9b:d3:
         aa:7e:f9:36:a3:fe:db:2c:b6:b8:48:0a:bf:3c:3f:6c:ff:ab:
         6e:03:0e:1d:e1:36:ef:32:ea:f6:1f:3d:0a:84:fb:f4:c8:92:
         2b:e5:b6:98:50:db:a7:2e:e1:c0:7b:24:df:f8:a3:70:48:75:
         d8:fb:3d:09:d6:9a:5c:16:8c:d4:55:bc:0d:f0:d3:6f:2b:0e:
         ae:c1:8a:5a:e3:80:f6:e4:e6:5c:51:a3:fd:43:fb:86:38:6c:
         be:cf:ea:a1:9e:b1:70:ba:54:f5:b9:8e:7b:4a:ed:c0:e7:ce:
         d9:18:cb:c4:10:a0:86:c8:63:0d:9d:f9:27:6c:04:00:d3:2a:
         28:09:24:35:e5:a1:cf:08:97:66:5f:4b:7d:34:57:0f:af:73:
         9e:56:80:d4:14:81:6a:19:bc:13:49:44:f7:41:d7:c0:e9:c6:
         06:95:53:26:0a:24:7f:11:35:f4:bc:bb:39:1b:df:9b:a8:a3:
         75:0c:80:15:87:fd:4c:fb:67:fb:54:3f:0c:ff:d7:07:c7:7a:
         11:e1:f1:e4:77:c7:84:da:b7:2b:37:f5:75:c5:95:04:19:11:
         7e:57:34:0f:6e:7b:1e:17:8b:fa:02:8e:c2:be:80:67:f1:6f:
         f7:1c:63:94:30:9a:79:b1:36:94:02:06:78:88:f7:53:9e:4b:
         c9:30:7c:c7:bf:cf:69:bf:2c:3b:53:54:b3:b2:fb:e5:32:ac:
         5a:76:96:5c:e3:0d:70:9b:07:b3:b4:ef:bf:7f:ba:a6:70:23:
         1a:2c:97:ff:77:c7:c6:4b:40:7f:45:10:bc:83:e4:d0:ff:06:
         09:fb:a6:85:d6:8b:57:ef:10:21:f1:8f:a7:de:69:02:85:9a:
         3e:7f:8c:b0:2a:e2:cc:94:3b:03:78:8e:67:01:e2:41:a0:17:
         83:0b:15:63:75:f0:f5:a6:bd:29:a7:28:89:50:4f:da:26:aa:
         e6:86:13:ba:6d:b5:c3:f8:32:bb:ce:60:cf:f8:bc:34:6a:1f:
         a7:9b:f3:2f:5f:58:1e:5d:35:22:d7:6d:04:71:14:34:1f:35:
         3c:72:0a:b1:be:80:80:bd
-----BEGIN CERTIFICATE-----
MIIGfzCCBGegAwIBAgICASAwDQYJKoZIhvcNAQELBQAwezELMAkGA1UEBhMCZnIx
DDAKBgNVBAgMA2lkZjEOMAwGA1UEBwwFcGFyaXMxDjAMBgNVBAoMBXZpdGFtMRQw
EgYDVQQLDAthdXRob3JpdGllczEoMCYGA1UEAwwfY2FfaW50ZXJtZWRpYXRlX2Ns
aWVudC1leHRlcm5hbDAeFw0xODAyMjIxNjM3MDRaFw0yMTAyMjExNjM3MDRaME4x
CzAJBgNVBAYTAmZyMQwwCgYDVQQIDANpZGYxDjAMBgNVBAcMBXBhcmlzMQ4wDAYD
VQQKDAV2aXRhbTERMA8GA1UEAwwIaWhtLWRlbW8wggIiMA0GCSqGSIb3DQEBAQUA
A4ICDwAwggIKAoICAQCyzi3WnJbtAvlxiVXM/kvGU+9ewG5vYIFLAMUQv5usBdZu
GvYATY9/vQEF63HdnxpaPQ52XMy3A1Tq5uJwm2/l7Tu8kZCmQnvJwHQt9C28Be9t
AhK+Wog05IxE3wuf1pHx0XAHRHgC5Xb/9LLpYx/Z+vk/Jh7wecfVZE7OIRH6pcrM
UwadfJvRxd/RZDf1c7rU8Zx5i3aFEFZOmWY/toyNbq8cE0veyTy4q1bOoipLV/Ak
C/Kyfvw2z+3eXBsrtUX6NQjCHTgruLiV0Ve8vdQWZBFrmYX9mcqW1jMIfXzN4IpH
JTINtosb+/H0zLT5GRohA/QgSOUzB9vxiqSgnMJpNHrEaLg+muTERrr3O4rsJfJI
gUkwlDJHU3o1JnUyNwwZuwyOT50Ousa45+rViWJ+BJ/9pdGR9dGEqNok8k4pbr4r
FhtYaBSJwDqyYlw9L4KZBx/VA8oEgbT7e3nttToWRMoPEhpzFwSsVu2pHniMzQbU
bHDwY3k2dBop7rQmtPQI35vfqFCjXpmmfDNDCwTBTPiCEiSM75e9LtUyAeRuzY8q
HkBECUA6ktrSPC8rXBSlDP71WVo2hCxfGCqT+unJKsfgaWFR3hbxlk3DULgxg1i5
rO/i1EtNZrTZ0AZaKLYhQk6r3qQeexOT6QH6VbbBotP2x4N7Bad67BCMFnYS1wID
AQABo4IBODCCATQwJAYJYIZIAYb4QgENBBcWFUNlcnRpZmljYXQgQ2xpZW50IFNT
TDAdBgNVHQ4EFgQUgbV6GYdP9BQvxor1yqzfyeOlyWQwgZ4GA1UdIwSBljCBk4AU
nIsr4DBouiAmHboHoEgZayzeDiahd6R1MHMxCzAJBgNVBAYTAmZyMQwwCgYDVQQI
DANpZGYxDjAMBgNVBAcMBXBhcmlzMQ4wDAYDVQQKDAV2aXRhbTEUMBIGA1UECwwL
YXV0aG9yaXRpZXMxIDAeBgNVBAMMF2NhX3Jvb3RfY2xpZW50LWV4dGVybmFsggIA
/DAJBgNVHRIEAjAAMAwGA1UdEwEB/wQCMAAwCwYDVR0PBAQDAgXgMBEGCWCGSAGG
+EIBAQQEAwIHgDATBgNVHSUEDDAKBggrBgEFBQcDAjANBgkqhkiG9w0BAQsFAAOC
AgEAiFz1PAfp26LGSQ3HMXF0U90jw83JpJRbJ4O2FjpQWFJOyK75A5S7Pq3slS4O
D08xf7TmjC2m36LlUOFI4HGHvDC3r2xGHf569BNPPdrpvN12eXT8yB3jTW7nUy/7
OHh7SZQeZM0qYHePBZvTqn75NqP+2yy2uEgKvzw/bP+rbgMOHeE27zLq9h89CoT7
9MiSK+W2mFDbpy7hwHsk3/ijcEh12Ps9CdaaXBaM1FW8DfDTbysOrsGKWuOA9uTm
XFGj/UP7hjhsvs/qoZ6xcLpU9bmOe0rtwOfO2RjLxBCghshjDZ35J2wEANMqKAkk
NeWhzwiXZl9LfTRXD69znlaA1BSBahm8E0lE90HXwOnGBpVTJgokfxE19Ly7ORvf
m6ijdQyAFYf9TPtn+1Q/DP/XB8d6EeHx5HfHhNq3Kzf1dcWVBBkRflc0D257HheL
+gKOwr6AZ/Fv9xxjlDCaebE2lAIGeIj3U55LyTB8x7/Pab8sO1NUs7L75TKsWnaW
XOMNcJsHs7Tvv3+6pnAjGiyX/3fHxktAf0UQvIPk0P8GCfumhdaLV+8QIfGPp95p
AoWaPn+MsCrizJQ7A3iOZwHiQaAXgwsVY3Xw9aa9KacoiVBP2iaq5oYTum21w/gy
u85gz/i8NGofp5vzL19YHl01ItdtBHEUNB81PHIKsb6AgL0=
-----END CERTIFICATE-----
