Certificate:
    Data:
        Version: 3 (0x2)
        Serial Number: 247 (0xf7)
    Signature Algorithm: sha256WithRSAEncryption
        Issuer: C=fr, ST=idf, L=paris, O=vitam, OU=authorities, CN=ca_intermediate_client-external
        Validity
            Not Before: Aug  9 16:04:52 2017 GMT
            Not After : Aug  8 16:04:52 2020 GMT
        Subject: C=fr, ST=idf, L=paris, O=vitam, CN=ihm-demo
        Subject Public Key Info:
            Public Key Algorithm: rsaEncryption
                Public-Key: (4096 bit)
                Modulus:
                    00:c7:6f:5d:07:be:11:0f:70:24:5d:96:52:29:89:
                    66:38:5e:e8:a5:aa:86:62:c7:58:73:0b:f3:db:4b:
                    c5:10:a1:f3:c5:43:94:d5:25:31:93:7a:73:ae:02:
                    73:a7:7d:2e:8c:2d:08:6a:1c:b2:28:f1:bb:26:ed:
                    77:08:2d:fe:57:68:72:8c:94:cb:16:cb:1d:90:af:
                    da:da:22:f3:18:e0:f1:b8:06:b3:af:9b:df:e9:64:
                    90:7f:ee:37:39:0c:85:2a:fb:3c:a6:0b:cc:85:b7:
                    7a:54:b2:64:4a:9a:70:bc:61:2d:b9:00:87:e1:33:
                    40:aa:e2:7f:e5:cd:80:28:e2:c0:c7:45:e0:1e:a0:
                    5b:95:50:94:28:81:a1:0c:8b:ab:e2:e9:43:75:dd:
                    29:39:f5:b1:4f:68:5b:28:19:82:16:00:69:00:15:
                    5f:b1:c5:14:4f:76:19:a9:1a:74:a0:6c:9a:a4:3e:
                    a5:0a:e4:9e:b3:01:9c:1b:5b:72:b7:94:52:a4:96:
                    9a:4a:71:7b:a5:07:b9:7a:e3:23:47:f8:82:f5:b8:
                    66:fa:01:50:d3:60:c9:c9:69:29:ee:bb:e5:a0:44:
                    d9:d4:b9:3c:e4:68:9e:17:7c:d2:55:d0:15:0b:79:
                    a9:cf:c7:f5:7f:47:f7:12:eb:b8:86:26:c0:c4:68:
                    ee:bc:f8:f1:9e:46:a6:a0:67:0c:ee:e4:a9:3b:1a:
                    0e:78:50:09:c0:cf:46:6f:03:23:4f:02:a0:9c:a1:
                    5d:e0:59:c2:4f:59:1f:16:34:db:79:60:81:54:71:
                    f9:fb:aa:1d:fd:8f:30:f0:26:89:a2:6f:b9:c0:e1:
                    d5:c9:08:c2:07:af:1e:ae:ad:16:3d:08:69:dc:6e:
                    c8:ba:2c:24:1e:8c:5c:11:c8:7c:0b:22:8c:4f:a0:
                    e9:f3:cd:3a:da:29:26:59:ae:0c:78:75:41:f6:a1:
                    95:da:1f:b3:76:30:7f:bf:12:9b:22:3a:82:ec:53:
                    c7:e9:bc:ef:3e:d9:86:a0:f9:8a:85:ae:e9:85:36:
                    41:33:16:69:bb:a4:ad:65:f9:a9:e8:81:20:2c:fa:
                    1e:5f:0b:db:ee:c6:45:bc:82:b2:c8:7e:9e:8d:72:
                    31:41:05:73:59:b1:3b:db:d1:cc:fa:d9:24:58:81:
                    0b:fb:88:26:67:75:f4:b6:0b:d6:47:ed:e0:1c:52:
                    e3:af:73:79:4e:26:99:73:9a:e5:d4:ad:42:db:41:
                    99:c7:97:e8:fd:13:06:64:cf:3d:30:78:eb:d5:bd:
                    c6:d4:f8:8e:58:9b:01:12:25:f0:a0:aa:70:68:66:
                    5d:e6:e2:90:3e:c4:1f:68:be:bd:f7:d5:95:74:4f:
                    1a:1a:19
                Exponent: 65537 (0x10001)
        X509v3 extensions:
            Netscape Comment: 
                Certificat Client SSL
            X509v3 Subject Key Identifier: 
                5C:78:D7:45:88:40:72:F2:18:6E:65:9D:71:0B:11:2A:2C:E4:B1:A5
            X509v3 Authority Key Identifier: 
                keyid:96:3E:D4:77:D3:84:42:19:D3:62:5C:41:7C:64:76:26:5C:39:95:0D
                DirName:/C=fr/ST=idf/L=paris/O=vitam/OU=authorities/CN=ca_root_client-external
                serial:F6

            X509v3 Issuer Alternative Name: 
                <EMPTY>

            X509v3 Basic Constraints: critical
                CA:FALSE
            X509v3 Key Usage: 
                Digital Signature, Non Repudiation, Key Encipherment
            Netscape Cert Type: 
                SSL Client
            X509v3 Extended Key Usage: 
                TLS Web Client Authentication
    Signature Algorithm: sha256WithRSAEncryption
         81:59:8e:ea:de:0d:6f:2e:2e:91:e6:9a:38:99:c7:7f:77:eb:
         f7:45:11:46:31:32:5e:56:e8:07:bf:5c:f7:fe:ed:24:6e:e2:
         28:04:8c:14:a0:61:38:60:6a:d4:b4:da:2c:8b:e4:c9:b4:d2:
         1c:3c:95:50:35:7c:bc:d3:59:18:90:6a:2c:89:7a:c4:17:18:
         10:3a:93:e7:18:85:38:79:9e:54:94:7f:54:57:25:e8:60:5e:
         eb:b9:16:3f:8b:1c:0e:9a:85:8a:16:12:8f:bf:f6:9f:6f:5e:
         13:19:c7:6e:fd:8c:e2:bf:72:20:0a:b6:57:22:50:e0:91:6b:
         b1:5b:04:d9:a1:1b:67:a3:b9:35:03:c3:60:e1:07:5d:70:e5:
         ce:2d:b6:94:27:d0:c5:d1:b5:a1:fa:7c:e3:ce:9a:bf:49:89:
         d9:d6:0f:59:53:03:9a:11:3c:d0:5e:88:77:10:d3:d3:a6:5f:
         f9:ce:64:15:b5:d9:59:07:a4:34:8a:3b:1c:17:a7:18:40:22:
         69:3f:3c:c5:cf:29:3d:e1:74:42:3c:e5:84:12:37:08:4d:26:
         c3:04:aa:ca:cf:65:aa:08:0d:0a:85:4c:16:8e:28:29:17:5f:
         c8:b0:87:bd:f8:9e:21:ce:13:18:32:9d:7a:6f:74:9c:ca:c2:
         7a:90:3f:5b:19:b4:02:bd:60:a5:f8:03:a7:aa:bc:80:aa:01:
         25:b8:14:1d:0b:bb:02:07:6f:76:46:2b:b5:9d:1e:11:60:02:
         ec:45:3d:3b:b8:45:71:bd:69:0e:d5:5a:ed:11:f3:41:b3:88:
         d1:a6:b4:8a:b4:d1:97:df:3c:47:5a:67:20:12:3c:9e:92:df:
         ab:c8:bf:0a:5d:38:98:c2:84:b2:af:2f:26:f6:88:4d:ac:38:
         3d:85:6b:f7:a5:d4:2b:75:ff:52:d7:46:a5:ce:3e:8f:79:4d:
         ab:81:6d:37:ca:63:06:49:6c:7c:93:7b:60:56:aa:1f:24:fa:
         f7:0f:45:85:e2:30:e4:bf:50:8f:d0:3d:ff:37:66:d0:ee:be:
         39:2e:72:81:6d:22:52:6d:58:9f:eb:5e:6b:3e:14:dc:50:11:
         8b:32:c9:5d:a7:d6:ca:c3:23:a9:bc:17:22:9c:9e:c9:24:12:
         97:9d:9c:cc:0d:77:0f:78:f6:5d:07:62:f3:c8:85:94:56:c8:
         34:95:7a:cb:5b:f5:14:54:7c:27:53:b2:b6:0a:3c:38:ee:3a:
         b4:67:bc:c3:a5:0b:38:b2:32:26:1c:d8:3d:c3:26:33:bb:e7:
         74:f5:27:aa:70:99:01:df:29:93:78:c3:25:a3:b7:d8:60:f7:
         0d:88:63:09:28:23:1a:70
-----BEGIN CERTIFICATE-----
MIIGfzCCBGegAwIBAgICAPcwDQYJKoZIhvcNAQELBQAwezELMAkGA1UEBhMCZnIx
DDAKBgNVBAgMA2lkZjEOMAwGA1UEBwwFcGFyaXMxDjAMBgNVBAoMBXZpdGFtMRQw
EgYDVQQLDAthdXRob3JpdGllczEoMCYGA1UEAwwfY2FfaW50ZXJtZWRpYXRlX2Ns
aWVudC1leHRlcm5hbDAeFw0xNzA4MDkxNjA0NTJaFw0yMDA4MDgxNjA0NTJaME4x
CzAJBgNVBAYTAmZyMQwwCgYDVQQIDANpZGYxDjAMBgNVBAcMBXBhcmlzMQ4wDAYD
VQQKDAV2aXRhbTERMA8GA1UEAwwIaWhtLWRlbW8wggIiMA0GCSqGSIb3DQEBAQUA
A4ICDwAwggIKAoICAQDHb10HvhEPcCRdllIpiWY4XuilqoZix1hzC/PbS8UQofPF
Q5TVJTGTenOuAnOnfS6MLQhqHLIo8bsm7XcILf5XaHKMlMsWyx2Qr9raIvMY4PG4
BrOvm9/pZJB/7jc5DIUq+zymC8yFt3pUsmRKmnC8YS25AIfhM0Cq4n/lzYAo4sDH
ReAeoFuVUJQogaEMi6vi6UN13Sk59bFPaFsoGYIWAGkAFV+xxRRPdhmpGnSgbJqk
PqUK5J6zAZwbW3K3lFKklppKcXulB7l64yNH+IL1uGb6AVDTYMnJaSnuu+WgRNnU
uTzkaJ4XfNJV0BULeanPx/V/R/cS67iGJsDEaO68+PGeRqagZwzu5Kk7Gg54UAnA
z0ZvAyNPAqCcoV3gWcJPWR8WNNt5YIFUcfn7qh39jzDwJomib7nA4dXJCMIHrx6u
rRY9CGncbsi6LCQejFwRyHwLIoxPoOnzzTraKSZZrgx4dUH2oZXaH7N2MH+/Epsi
OoLsU8fpvO8+2Yag+YqFrumFNkEzFmm7pK1l+anogSAs+h5fC9vuxkW8grLIfp6N
cjFBBXNZsTvb0cz62SRYgQv7iCZndfS2C9ZH7eAcUuOvc3lOJplzmuXUrULbQZnH
l+j9EwZkzz0weOvVvcbU+I5YmwESJfCgqnBoZl3m4pA+xB9ovr331ZV0TxoaGQID
AQABo4IBODCCATQwJAYJYIZIAYb4QgENBBcWFUNlcnRpZmljYXQgQ2xpZW50IFNT
TDAdBgNVHQ4EFgQUXHjXRYhAcvIYbmWdcQsRKizksaUwgZ4GA1UdIwSBljCBk4AU
lj7Ud9OEQhnTYlxBfGR2Jlw5lQ2hd6R1MHMxCzAJBgNVBAYTAmZyMQwwCgYDVQQI
DANpZGYxDjAMBgNVBAcMBXBhcmlzMQ4wDAYDVQQKDAV2aXRhbTEUMBIGA1UECwwL
YXV0aG9yaXRpZXMxIDAeBgNVBAMMF2NhX3Jvb3RfY2xpZW50LWV4dGVybmFsggIA
9jAJBgNVHRIEAjAAMAwGA1UdEwEB/wQCMAAwCwYDVR0PBAQDAgXgMBEGCWCGSAGG
+EIBAQQEAwIHgDATBgNVHSUEDDAKBggrBgEFBQcDAjANBgkqhkiG9w0BAQsFAAOC
AgEAgVmO6t4Nby4ukeaaOJnHf3fr90URRjEyXlboB79c9/7tJG7iKASMFKBhOGBq
1LTaLIvkybTSHDyVUDV8vNNZGJBqLIl6xBcYEDqT5xiFOHmeVJR/VFcl6GBe67kW
P4scDpqFihYSj7/2n29eExnHbv2M4r9yIAq2VyJQ4JFrsVsE2aEbZ6O5NQPDYOEH
XXDlzi22lCfQxdG1ofp8486av0mJ2dYPWVMDmhE80F6IdxDT06Zf+c5kFbXZWQek
NIo7HBenGEAiaT88xc8pPeF0QjzlhBI3CE0mwwSqys9lqggNCoVMFo4oKRdfyLCH
vfieIc4TGDKdem90nMrCepA/Wxm0Ar1gpfgDp6q8gKoBJbgUHQu7AgdvdkYrtZ0e
EWAC7EU9O7hFcb1pDtVa7RHzQbOI0aa0irTRl988R1pnIBI8npLfq8i/Cl04mMKE
sq8vJvaITaw4PYVr96XUK3X/UtdGpc4+j3lNq4FtN8pjBklsfJN7YFaqHyT69w9F
heIw5L9Qj9A9/zdm0O6+OS5ygW0iUm1Yn+teaz4U3FARizLJXafWysMjqbwXIpye
ySQSl52czA13D3j2XQdi88iFlFbINJV6y1v1FFR8J1Oytgo8OO46tGe8w6ULOLIy
JhzYPcMmM7vndPUnqnCZAd8pk3jDJaO32GD3DYhjCSgjGnA=
-----END CERTIFICATE-----
