Certificate:
    Data:
        Version: 3 (0x2)
        Serial Number: 313 (0x139)
        Signature Algorithm: sha256WithRSAEncryption
        Issuer: C=fr, ST=idf, L=paris, O=vitam, OU=authorities, CN=ca_intermediate_client-external
        Validity
            Not Before: Nov 10 14:35:51 2021 GMT
            Not After : Nov  9 14:35:51 2024 GMT
        Subject: C=fr, ST=idf, L=paris, O=vitam, CN=ihm-demo
        Subject Public Key Info:
            Public Key Algorithm: rsaEncryption
                RSA Public-Key: (4096 bit)
                Modulus:
                    00:b9:05:2b:ab:07:b8:c5:13:ad:89:da:3a:31:36:
                    93:41:e4:d0:7c:cc:a0:5b:c8:df:59:35:81:cf:8d:
                    55:d2:26:4b:89:85:18:4b:d3:ca:e8:29:c8:bb:84:
                    ae:a9:00:35:72:55:63:d3:2d:07:3c:a7:a6:5b:89:
                    92:80:d0:7a:3e:ee:11:b6:a5:f4:8b:51:b3:5c:49:
                    e8:61:f8:be:3e:b3:91:8d:36:52:2a:68:0e:78:89:
                    f7:c2:49:1e:c1:4b:b0:7f:bb:bf:a6:14:27:72:07:
                    0b:5e:f3:7f:e7:49:1c:85:62:ac:53:96:d6:3a:8b:
                    bb:ba:87:1a:84:22:fb:f3:3a:ae:c7:88:75:b9:e6:
                    51:cc:e0:88:1f:11:45:15:f9:d1:20:fe:1c:e1:89:
                    92:50:67:5f:d6:af:0a:4f:a9:b8:b4:85:2e:23:ee:
                    1f:03:5c:bc:17:e7:1c:da:c9:c9:20:db:b1:68:a3:
                    b0:a1:cc:f0:6f:df:86:e0:b8:07:a4:a8:af:1c:b3:
                    23:61:00:a8:21:c0:48:c1:53:62:b3:63:4c:4c:d9:
                    7a:0f:09:11:0a:1a:15:6f:1e:7c:4b:33:e3:cd:75:
                    59:29:3f:c7:4a:3c:79:ee:50:da:b8:7b:8a:85:75:
                    16:10:8b:ff:44:5e:47:da:25:83:6b:d6:e9:21:03:
                    e9:ff:80:92:06:c0:41:32:fa:e6:24:9e:d3:09:48:
                    d2:44:b9:89:1e:87:81:69:75:65:02:88:99:18:e6:
                    24:f0:c1:46:b0:ed:40:4f:60:9a:5c:7c:36:c3:47:
                    19:c7:a2:f8:e8:8c:7a:a2:cb:1d:ae:42:1e:41:5a:
                    3b:89:81:74:96:6b:b6:90:f7:f2:de:a9:84:dd:8c:
                    92:3e:f8:f4:99:b6:bb:10:ea:cf:55:4b:6b:e5:f4:
                    f9:d2:8a:63:2e:78:9e:d7:27:ba:28:3f:fa:aa:33:
                    88:40:e7:b7:ed:74:a7:06:ae:76:d2:30:d4:26:3d:
                    9a:99:13:65:c6:b3:9d:2f:e2:88:04:4d:79:ee:f1:
                    a3:7b:72:64:79:48:9f:34:ea:01:9c:a8:bc:02:80:
                    36:b9:28:22:e6:bb:86:48:e4:08:25:02:48:bf:2a:
                    49:e5:de:bb:da:57:c6:6d:9c:3c:84:98:e1:af:82:
                    d7:ee:33:d6:8f:ba:60:37:38:93:a3:ba:bb:b0:8b:
                    67:cb:70:64:b6:d5:cc:31:20:a1:37:c5:2a:89:39:
                    c7:90:19:a2:e1:d5:12:84:1f:d3:ac:ac:56:c4:26:
                    3d:56:6a:2d:73:84:49:03:ed:c3:26:13:27:86:25:
                    d7:1a:3a:c3:d1:a7:e3:85:19:f8:fc:73:e5:a2:d6:
                    0d:a3:57
                Exponent: 65537 (0x10001)
        X509v3 extensions:
            Netscape Comment: 
                Certificat Client SSL
            X509v3 Subject Key Identifier: 
                EF:94:50:99:7F:C2:79:6F:A0:DE:0B:FC:F9:D7:31:FA:62:C9:ED:C2
            X509v3 Authority Key Identifier: 
                keyid:D1:7F:00:C3:F0:94:D6:CB:E3:AE:F7:23:18:2E:1E:BA:53:66:F2:F8
                DirName:/C=fr/ST=idf/L=paris/O=vitam/OU=authorities/CN=ca_root_client-external
                serial:01:2D

            X509v3 Issuer Alternative Name: 
                <EMPTY>

            X509v3 Basic Constraints: critical
                CA:FALSE
            X509v3 Key Usage: 
                Digital Signature
            Netscape Cert Type: 
                SSL Client
            X509v3 Extended Key Usage: 
                TLS Web Client Authentication
    Signature Algorithm: sha256WithRSAEncryption
         53:ce:c0:c3:76:4a:0d:91:56:a5:13:39:44:0d:72:23:e3:f7:
         04:f1:df:9b:38:76:0b:4c:9e:ed:44:6b:68:ea:64:29:30:a8:
         ea:e2:bb:ac:1a:71:f2:b6:fd:d6:18:be:3c:3d:a6:7a:43:ce:
         5f:53:0b:f3:40:1e:c1:97:b2:72:b3:67:e8:cb:0c:14:f2:02:
         fb:e1:24:9a:77:55:c9:8b:64:be:0f:96:ff:5d:8a:d0:8c:8c:
         1b:cc:a5:6c:f2:cf:16:8e:d8:8c:f5:97:11:d2:91:a3:e5:d9:
         46:da:8f:b0:f9:20:70:ad:4b:be:af:4e:00:8e:5d:4f:e1:d1:
         8c:24:a4:c6:be:16:e5:3b:8a:5d:9e:3b:f1:98:8d:bf:55:69:
         da:27:18:91:87:94:f4:fd:d4:ea:66:a0:fc:93:6d:c3:91:d5:
         60:ed:cd:37:21:5d:cb:df:71:b5:66:08:25:78:17:7f:2c:d1:
         14:d1:87:c8:68:2e:f7:52:9b:a8:7c:a9:c2:e2:c3:3b:ce:e5:
         10:22:7c:6b:72:f2:75:0b:8d:2d:f8:ef:62:bb:1e:61:cc:06:
         8e:00:04:17:6b:b3:09:43:97:97:b6:24:24:eb:5b:63:0b:97:
         1f:24:15:e0:ad:59:60:26:b3:df:a7:05:aa:4b:6a:89:3c:6d:
         eb:ca:96:c0:bc:bb:53:75:5b:9d:cc:f2:5e:9e:1d:e0:d4:91:
         18:38:cf:00:95:9a:98:03:0c:f9:cf:5c:4d:ec:ec:08:6a:65:
         f8:17:bb:95:fe:8d:a9:1f:27:11:f7:8b:51:19:37:96:cb:63:
         d8:8e:eb:ad:e6:98:63:2c:53:03:c9:36:22:cd:95:21:19:c3:
         90:48:f9:d1:18:c0:4c:d7:69:4a:b4:34:a7:59:c3:59:e9:7c:
         94:f3:a5:ad:6d:9b:c3:2c:a4:cb:3e:69:a4:d9:1d:d7:09:41:
         f4:80:31:0f:30:39:5d:4d:e0:a3:c0:14:25:72:86:11:75:e5:
         53:3d:8d:e5:03:26:b4:b7:66:c3:ff:36:ed:72:b9:a0:3f:de:
         91:9b:64:08:53:86:39:bf:36:e3:af:b9:32:4c:eb:de:84:80:
         15:72:e8:de:8c:59:b5:78:70:21:e9:c5:a3:c4:7d:81:b2:08:
         65:24:75:6c:d7:35:1e:75:bf:1c:98:d2:d8:37:e7:30:5e:47:
         1e:a7:70:40:50:d3:77:ee:17:12:34:44:10:a6:8d:4d:28:72:
         aa:ae:67:99:87:54:f2:9c:8b:e6:33:15:ef:ad:ff:d6:99:9b:
         3b:fd:87:00:0c:f3:e4:b1:6f:f3:07:4a:86:8e:c5:eb:35:a0:
         6f:dd:f3:a9:3d:bb:de:5f
-----BEGIN CERTIFICATE-----
MIIGfzCCBGegAwIBAgICATkwDQYJKoZIhvcNAQELBQAwezELMAkGA1UEBhMCZnIx
DDAKBgNVBAgMA2lkZjEOMAwGA1UEBwwFcGFyaXMxDjAMBgNVBAoMBXZpdGFtMRQw
EgYDVQQLDAthdXRob3JpdGllczEoMCYGA1UEAwwfY2FfaW50ZXJtZWRpYXRlX2Ns
aWVudC1leHRlcm5hbDAeFw0yMTExMTAxNDM1NTFaFw0yNDExMDkxNDM1NTFaME4x
CzAJBgNVBAYTAmZyMQwwCgYDVQQIDANpZGYxDjAMBgNVBAcMBXBhcmlzMQ4wDAYD
VQQKDAV2aXRhbTERMA8GA1UEAwwIaWhtLWRlbW8wggIiMA0GCSqGSIb3DQEBAQUA
A4ICDwAwggIKAoICAQC5BSurB7jFE62J2joxNpNB5NB8zKBbyN9ZNYHPjVXSJkuJ
hRhL08roKci7hK6pADVyVWPTLQc8p6ZbiZKA0Ho+7hG2pfSLUbNcSehh+L4+s5GN
NlIqaA54iffCSR7BS7B/u7+mFCdyBwte83/nSRyFYqxTltY6i7u6hxqEIvvzOq7H
iHW55lHM4IgfEUUV+dEg/hzhiZJQZ1/WrwpPqbi0hS4j7h8DXLwX5xzayckg27Fo
o7ChzPBv34bguAekqK8csyNhAKghwEjBU2KzY0xM2XoPCREKGhVvHnxLM+PNdVkp
P8dKPHnuUNq4e4qFdRYQi/9EXkfaJYNr1ukhA+n/gJIGwEEy+uYkntMJSNJEuYke
h4FpdWUCiJkY5iTwwUaw7UBPYJpcfDbDRxnHovjojHqiyx2uQh5BWjuJgXSWa7aQ
9/LeqYTdjJI++PSZtrsQ6s9VS2vl9PnSimMueJ7XJ7ooP/qqM4hA57ftdKcGrnbS
MNQmPZqZE2XGs50v4ogETXnu8aN7cmR5SJ806gGcqLwCgDa5KCLmu4ZI5AglAki/
Kknl3rvaV8ZtnDyEmOGvgtfuM9aPumA3OJOjuruwi2fLcGS21cwxIKE3xSqJOceQ
GaLh1RKEH9OsrFbEJj1Wai1zhEkD7cMmEyeGJdcaOsPRp+OFGfj8c+Wi1g2jVwID
AQABo4IBODCCATQwJAYJYIZIAYb4QgENBBcWFUNlcnRpZmljYXQgQ2xpZW50IFNT
TDAdBgNVHQ4EFgQU75RQmX/CeW+g3gv8+dcx+mLJ7cIwgZ4GA1UdIwSBljCBk4AU
0X8Aw/CU1svjrvcjGC4eulNm8vihd6R1MHMxCzAJBgNVBAYTAmZyMQwwCgYDVQQI
DANpZGYxDjAMBgNVBAcMBXBhcmlzMQ4wDAYDVQQKDAV2aXRhbTEUMBIGA1UECwwL
YXV0aG9yaXRpZXMxIDAeBgNVBAMMF2NhX3Jvb3RfY2xpZW50LWV4dGVybmFsggIB
LTAJBgNVHRIEAjAAMAwGA1UdEwEB/wQCMAAwCwYDVR0PBAQDAgeAMBEGCWCGSAGG
+EIBAQQEAwIHgDATBgNVHSUEDDAKBggrBgEFBQcDAjANBgkqhkiG9w0BAQsFAAOC
AgEAU87Aw3ZKDZFWpRM5RA1yI+P3BPHfmzh2C0ye7URraOpkKTCo6uK7rBpx8rb9
1hi+PD2mekPOX1ML80AewZeycrNn6MsMFPIC++EkmndVyYtkvg+W/12K0IyMG8yl
bPLPFo7YjPWXEdKRo+XZRtqPsPkgcK1Lvq9OAI5dT+HRjCSkxr4W5TuKXZ478ZiN
v1Vp2icYkYeU9P3U6mag/JNtw5HVYO3NNyFdy99xtWYIJXgXfyzRFNGHyGgu91Kb
qHypwuLDO87lECJ8a3LydQuNLfjvYrseYcwGjgAEF2uzCUOXl7YkJOtbYwuXHyQV
4K1ZYCaz36cFqktqiTxt68qWwLy7U3VbnczyXp4d4NSRGDjPAJWamAMM+c9cTezs
CGpl+Be7lf6NqR8nEfeLURk3lstj2I7rreaYYyxTA8k2Is2VIRnDkEj50RjATNdp
SrQ0p1nDWel8lPOlrW2bwyykyz5ppNkd1wlB9IAxDzA5XU3go8AUJXKGEXXlUz2N
5QMmtLdmw/827XK5oD/ekZtkCFOGOb8246+5Mkzr3oSAFXLo3oxZtXhwIenFo8R9
gbIIZSR1bNc1HnW/HJjS2DfnMF5HHqdwQFDTd+4XEjREEKaNTShyqq5nmYdU8pyL
5jMV763/1pmbO/2HAAzz5LFv8wdKho7F6zWgb93zqT273l8=
-----END CERTIFICATE-----
