Certificate:
    Data:
        Version: 3 (0x2)
        Serial Number: 224 (0xe0)
    Signature Algorithm: sha256WithRSAEncryption
        Issuer: C=FR, ST=idf, L=paris, O=Vitam., CN=CA_client-storage
        Validity
            Not Before: Mar 15 12:18:55 2017 GMT
            Not After : Mar 14 12:18:55 2020 GMT
        Subject: C=FR, ST=idf, L=paris, O=Vitam., CN=storage
        Subject Public Key Info:
            Public Key Algorithm: rsaEncryption
                Public-Key: (4096 bit)
                Modulus:
                    00:e8:6f:bd:77:0f:03:9f:5a:b6:14:7f:a3:73:57:
                    3a:00:76:3c:fe:a9:0a:88:ba:51:1d:5d:23:21:5f:
                    6e:51:61:7d:17:f8:e6:89:02:f6:92:fd:94:f4:e3:
                    e1:f9:6d:fe:b0:87:63:a1:08:39:74:8d:78:7a:b1:
                    9a:61:31:04:fe:e5:54:bd:47:7e:1c:c5:aa:f9:fc:
                    29:93:ef:2f:6d:e4:74:6d:f0:f3:3b:b6:8f:3e:a3:
                    c4:dc:ce:33:e5:6f:1f:75:c3:34:3f:74:43:a8:03:
                    be:d3:c1:b8:c1:35:fa:69:92:ab:15:e8:8b:fe:df:
                    61:7a:cd:a9:5e:6f:ae:d8:ae:b0:35:9d:5d:d3:6d:
                    a5:05:68:14:0a:d3:06:fd:51:8c:5f:c4:dc:3e:aa:
                    71:5f:ee:1e:a2:11:3d:2d:90:4b:50:fe:1e:54:77:
                    5e:26:36:24:92:46:16:ee:b9:00:6b:90:fc:8b:65:
                    10:fb:08:ae:d1:65:63:63:35:f4:fe:17:62:15:af:
                    8a:32:e9:c3:2d:fd:93:c0:92:26:46:e3:65:35:c1:
                    51:30:85:ae:4c:b9:8a:da:c4:53:38:a6:32:64:87:
                    29:8d:52:de:dd:25:6d:5f:2f:fa:ad:f0:78:cb:ea:
                    17:4c:fa:ae:25:5f:6c:96:20:65:da:d2:3e:98:b0:
                    02:61:a5:c4:6c:fa:5c:0b:c1:5c:18:66:94:1b:b9:
                    57:18:fd:4c:6b:33:d2:ea:b8:30:ee:30:6b:9d:3c:
                    07:dd:fb:2f:21:c9:28:33:49:d7:a2:67:2b:5d:34:
                    e6:85:15:52:0b:ad:aa:1c:ba:0f:48:2d:a2:e2:9c:
                    f8:1f:69:71:f7:35:d1:ae:32:f7:69:19:b3:43:a6:
                    02:06:97:ea:f1:46:c0:9c:5a:fc:ad:c6:a0:3b:c7:
                    c8:d2:26:75:24:ea:d3:66:65:90:b0:51:f4:8e:46:
                    af:fa:b5:76:8b:4a:2b:27:63:3e:25:30:13:2f:c2:
                    a9:d6:32:ad:28:dc:07:6c:f9:d8:ce:87:82:f8:96:
                    e6:2a:7b:3a:b6:b2:6e:e4:96:90:3e:01:b2:73:2f:
                    56:85:e8:42:5c:e6:14:84:97:27:67:41:b1:88:7d:
                    56:c7:5f:f3:30:77:ad:2c:ef:fd:2c:e2:e3:6d:0d:
                    db:e7:6a:c9:c4:cd:3c:00:43:37:68:5d:83:c1:63:
                    76:15:61:29:8f:74:19:a1:c6:2a:0f:b0:c5:ee:51:
                    f1:7d:b5:23:8a:6e:24:b4:33:a4:d0:70:9c:16:28:
                    7b:8e:93:b3:de:f9:8c:39:91:15:1a:e8:e7:97:46:
                    f6:0b:04:0a:00:e7:e7:d2:ad:2b:f1:f0:f6:d8:16:
                    bd:17:c9
                Exponent: 65537 (0x10001)
        X509v3 extensions:
            Netscape Comment: 
                Certificat Client SSL
            X509v3 Subject Key Identifier: 
                B0:BF:3D:E1:15:A2:94:55:0E:FE:6B:9E:F7:1B:E7:31:87:B4:A3:FB
            X509v3 Authority Key Identifier: 
                keyid:77:36:FB:AC:E1:73:CF:36:5D:C4:7F:A4:34:3C:C8:B9:78:58:BB:90
                DirName:/C=FR/ST=idf/L=paris/O=Vitam./CN=CA_client-storage
                serial:DF

            X509v3 Issuer Alternative Name: 
                <EMPTY>

            X509v3 Subject Alternative Name: 
                DNS:ingest-external.service.consul
            X509v3 Basic Constraints: critical
                CA:FALSE
            X509v3 Key Usage: 
                Digital Signature, Non Repudiation, Key Encipherment
            Netscape Cert Type: 
                SSL Client
            X509v3 Extended Key Usage: 
                TLS Web Client Authentication
    Signature Algorithm: sha256WithRSAEncryption
         78:dc:d7:2e:29:16:e1:77:6c:f5:93:35:a9:46:ec:18:77:3f:
         25:86:0c:ea:9a:ef:8c:d6:1e:24:d6:93:f9:fc:28:a1:14:82:
         32:e6:51:b5:ed:8e:78:f2:22:c3:be:78:a7:2d:8a:c3:cd:f6:
         55:09:21:25:76:f4:9b:25:ec:f5:b0:27:19:60:88:8e:9d:37:
         0f:3a:9c:28:74:ad:6f:2f:e0:27:4f:2b:31:a5:76:41:6f:9f:
         1c:8e:45:40:0b:e2:6e:46:ab:a0:ac:78:46:32:ec:8d:95:0d:
         a5:e7:92:e1:4b:b3:ff:53:e3:6a:f7:bd:99:06:13:01:ca:48:
         cb:c7:a8:19:0a:02:d0:5b:5b:a3:57:39:18:47:d3:f7:b0:7e:
         3a:4f:a1:a0:ac:93:3a:be:9c:c9:6e:0f:d3:32:58:7b:80:36:
         8d:9e:e0:11:d1:a9:f1:7e:e7:81:60:ee:f0:68:d3:c9:5f:cb:
         a4:e5:b1:1a:55:57:7c:63:37:b2:4b:cb:99:a9:1e:24:1c:5f:
         86:da:1a:0f:02:5a:02:ed:42:02:3f:a9:54:1c:aa:ff:37:78:
         be:50:ec:d1:ea:6a:1b:37:bc:aa:3a:27:62:75:31:30:33:62:
         3c:55:48:0c:3d:73:d4:2a:b9:6c:50:f1:b8:e3:f5:5f:72:24:
         ad:92:fc:5f:76:3a:60:75:be:b6:b9:18:45:f2:5f:ed:6a:95:
         3a:62:42:de:5b:ac:a5:88:6c:c7:7c:0b:7b:23:92:47:f4:ff:
         a5:10:08:7c:13:63:dd:6f:37:16:23:0b:8a:a0:82:c4:5f:0d:
         b5:cf:f4:6c:be:48:f9:8c:06:87:e0:78:47:0c:0a:8c:e3:07:
         25:54:10:94:dd:11:ab:1b:08:22:54:ca:6a:92:93:e4:59:95:
         14:d5:ef:15:37:a0:12:46:6c:d7:ef:f4:96:de:6b:40:44:6a:
         a6:cb:57:fa:8e:c2:ea:3e:f8:6b:ae:80:3a:9e:30:66:25:52:
         18:41:84:e5:87:05:60:c1:89:f3:ef:7a:fd:57:48:1e:46:e9:
         7b:6b:7a:d1:b3:8c:fd:00:8b:13:9d:eb:9e:5c:3e:5b:62:73:
         2d:b4:3e:92:e0:8f:2d:f3:a7:e9:25:05:ed:91:f8:bb:2a:76:
         e2:81:4a:54:f8:e7:7b:a4:7c:f8:8d:f5:37:87:e9:b7:e9:8b:
         e7:b6:95:21:0f:3e:3b:63:9b:54:1f:db:ac:1c:84:dd:59:45:
         4f:b4:dd:74:59:bc:ed:81:b8:b7:af:37:02:cf:e0:fa:1f:af:
         58:0d:6a:47:84:b3:ba:96:03:8b:8c:db:69:18:06:88:6f:36:
         f6:0d:d5:10:66:40:f0:9f
-----BEGIN CERTIFICATE-----
MIIGajCCBFKgAwIBAgICAOAwDQYJKoZIhvcNAQELBQAwWDELMAkGA1UEBhMCRlIx
DDAKBgNVBAgTA2lkZjEOMAwGA1UEBxMFcGFyaXMxDzANBgNVBAoTBlZpdGFtLjEa
MBgGA1UEAxQRQ0FfY2xpZW50LXN0b3JhZ2UwHhcNMTcwMzE1MTIxODU1WhcNMjAw
MzE0MTIxODU1WjBOMQswCQYDVQQGEwJGUjEMMAoGA1UECBMDaWRmMQ4wDAYDVQQH
EwVwYXJpczEPMA0GA1UEChMGVml0YW0uMRAwDgYDVQQDEwdzdG9yYWdlMIICIjAN
BgkqhkiG9w0BAQEFAAOCAg8AMIICCgKCAgEA6G+9dw8Dn1q2FH+jc1c6AHY8/qkK
iLpRHV0jIV9uUWF9F/jmiQL2kv2U9OPh+W3+sIdjoQg5dI14erGaYTEE/uVUvUd+
HMWq+fwpk+8vbeR0bfDzO7aPPqPE3M4z5W8fdcM0P3RDqAO+08G4wTX6aZKrFeiL
/t9hes2pXm+u2K6wNZ1d022lBWgUCtMG/VGMX8TcPqpxX+4eohE9LZBLUP4eVHde
JjYkkkYW7rkAa5D8i2UQ+wiu0WVjYzX0/hdiFa+KMunDLf2TwJImRuNlNcFRMIWu
TLmK2sRTOKYyZIcpjVLe3SVtXy/6rfB4y+oXTPquJV9sliBl2tI+mLACYaXEbPpc
C8FcGGaUG7lXGP1MazPS6rgw7jBrnTwH3fsvIckoM0nXomcrXTTmhRVSC62qHLoP
SC2i4pz4H2lx9zXRrjL3aRmzQ6YCBpfq8UbAnFr8rcagO8fI0iZ1JOrTZmWQsFH0
jkav+rV2i0orJ2M+JTATL8Kp1jKtKNwHbPnYzoeC+JbmKns6trJu5JaQPgGycy9W
hehCXOYUhJcnZ0GxiH1Wx1/zMHetLO/9LOLjbQ3b52rJxM08AEM3aF2DwWN2FWEp
j3QZocYqD7DF7lHxfbUjim4ktDOk0HCcFih7jpOz3vmMOZEVGujnl0b2CwQKAOfn
0q0r8fD22Ba9F8kCAwEAAaOCAUYwggFCMCQGCWCGSAGG+EIBDQQXFhVDZXJ0aWZp
Y2F0IENsaWVudCBTU0wwHQYDVR0OBBYEFLC/PeEVopRVDv5rnvcb5zGHtKP7MIGB
BgNVHSMEejB4gBR3Nvus4XPPNl3Ef6Q0PMi5eFi7kKFcpFowWDELMAkGA1UEBhMC
RlIxDDAKBgNVBAgTA2lkZjEOMAwGA1UEBxMFcGFyaXMxDzANBgNVBAoTBlZpdGFt
LjEaMBgGA1UEAxQRQ0FfY2xpZW50LXN0b3JhZ2WCAgDfMAkGA1UdEgQCMAAwKQYD
VR0RBCIwIIIeaW5nZXN0LWV4dGVybmFsLnNlcnZpY2UuY29uc3VsMAwGA1UdEwEB
/wQCMAAwCwYDVR0PBAQDAgXgMBEGCWCGSAGG+EIBAQQEAwIHgDATBgNVHSUEDDAK
BggrBgEFBQcDAjANBgkqhkiG9w0BAQsFAAOCAgEAeNzXLikW4Xds9ZM1qUbsGHc/
JYYM6prvjNYeJNaT+fwooRSCMuZRte2OePIiw754py2Kw832VQkhJXb0myXs9bAn
GWCIjp03DzqcKHStby/gJ08rMaV2QW+fHI5FQAvibkaroKx4RjLsjZUNpeeS4Uuz
/1Pjave9mQYTAcpIy8eoGQoC0Ftbo1c5GEfT97B+Ok+hoKyTOr6cyW4P0zJYe4A2
jZ7gEdGp8X7ngWDu8GjTyV/LpOWxGlVXfGM3skvLmakeJBxfhtoaDwJaAu1CAj+p
VByq/zd4vlDs0epqGze8qjonYnUxMDNiPFVIDD1z1Cq5bFDxuOP1X3IkrZL8X3Y6
YHW+trkYRfJf7WqVOmJC3luspYhsx3wLeyOSR/T/pRAIfBNj3W83FiMLiqCCxF8N
tc/0bL5I+YwGh+B4RwwKjOMHJVQQlN0RqxsIIlTKapKT5FmVFNXvFTegEkZs1+/0
lt5rQERqpstX+o7C6j74a66AOp4wZiVSGEGE5YcFYMGJ8+96/VdIHkbpe2t60bOM
/QCLE53rnlw+W2JzLbQ+kuCPLfOn6SUF7ZH4uyp24oFKVPjne6R8+I31N4fpt+mL
57aVIQ8+O2ObVB/brByE3VlFT7TddFm87YG4t683As/g+h+vWA1qR4SzupYDi4zb
aRgGiG829g3VEGZA8J8=
-----END CERTIFICATE-----
