Certificate:
    Data:
        Version: 3 (0x2)
        Serial Number: 221 (0xdd)
    Signature Algorithm: sha256WithRSAEncryption
        Issuer: C=FR, ST=idf, L=paris, O=Vitam., CN=CA_client-storage
        Validity
            Not Before: Mar  6 18:04:22 2017 GMT
            Not After : Mar  5 18:04:22 2020 GMT
        Subject: C=FR, ST=idf, L=paris, O=Vitam., CN=storage
        Subject Public Key Info:
            Public Key Algorithm: rsaEncryption
                Public-Key: (4096 bit)
                Modulus:
                    00:c6:33:98:5e:b8:b0:9a:cd:b9:ca:42:b4:10:a1:
                    2b:df:62:0d:4e:9b:1e:85:e9:50:de:11:ec:b6:f7:
                    25:64:6d:24:8d:94:81:42:83:5f:e7:94:7b:68:eb:
                    09:bb:7e:da:8f:36:d5:c7:e5:74:27:82:9d:59:25:
                    53:3d:fe:52:41:59:17:73:e1:fe:be:b7:48:ab:76:
                    1c:5c:0f:69:b4:2e:d7:65:94:c0:3f:9c:53:86:e4:
                    2b:a2:e5:be:01:97:ce:4b:ac:d5:cc:2d:a3:a2:5a:
                    3c:71:45:c7:03:f0:a1:cd:c1:d4:68:90:50:e7:a2:
                    23:15:f6:95:d7:40:2c:b9:bb:81:c9:00:64:c6:a3:
                    88:43:74:9c:74:0a:57:12:ff:32:d4:f3:60:d8:0a:
                    00:60:59:8d:f3:37:67:dd:af:09:a2:87:90:26:5f:
                    88:7f:55:89:33:03:ee:77:ad:25:e2:ac:f6:ae:ed:
                    83:48:59:0c:4c:20:5e:c3:aa:a2:54:53:8c:bb:42:
                    86:53:0f:0a:f4:16:22:ed:24:88:8b:3d:ed:e4:2f:
                    67:14:a8:7b:20:e0:f6:7b:3a:8e:85:4e:54:22:f4:
                    4d:33:9c:9e:eb:a8:a0:85:f6:9e:e7:47:d1:66:ac:
                    a2:67:77:f6:06:fd:f7:19:c2:8d:29:2b:89:54:f9:
                    ac:5d:a9:b5:c2:93:bb:7a:81:2d:ec:35:e1:c8:6e:
                    31:9f:17:0e:b3:0c:ab:ca:a0:71:92:81:47:51:aa:
                    49:bf:64:0b:75:a8:5b:9f:2d:4d:5c:d1:62:49:b5:
                    0b:d4:94:f7:96:b8:c4:f9:c3:7f:9d:28:aa:95:6f:
                    8d:3d:35:14:0e:da:36:a4:42:c2:f1:12:54:07:bc:
                    e1:ec:97:8e:e2:d7:1e:8b:0b:06:7b:89:2f:fe:42:
                    bf:67:b2:7c:45:62:76:87:5c:d5:ce:f6:87:a3:bb:
                    9f:1d:df:d1:87:a6:1d:48:43:f6:7f:db:fd:04:f7:
                    13:3c:1e:c7:c1:4b:1a:f8:7d:86:38:99:63:86:af:
                    5f:c0:31:37:d5:ff:cc:0e:54:45:62:c7:6a:5f:d3:
                    8e:ec:df:b1:58:e1:a5:ba:f8:0a:fe:c5:8b:a5:57:
                    96:39:6a:e0:60:33:d0:1a:1b:b8:93:a8:73:52:e2:
                    1b:4a:c4:78:9f:bb:2d:57:38:2e:88:70:80:3a:7e:
                    63:12:6a:12:0b:1c:c2:87:de:81:04:37:8c:c1:60:
                    a3:6f:eb:e5:43:ab:d7:62:99:ec:6b:53:79:9b:83:
                    2b:2b:f7:5a:7f:24:c3:87:21:6e:00:4b:8f:68:e4:
                    7e:bc:f4:b1:24:3d:ef:eb:ed:00:4a:19:03:2f:f4:
                    b6:2c:3d
                Exponent: 65537 (0x10001)
        X509v3 extensions:
            Netscape Comment: 
                Certificat Client SSL
            X509v3 Subject Key Identifier: 
                23:37:AD:E4:35:AF:35:7E:D3:FA:52:C2:AB:C8:1E:15:B8:1C:FF:5C
            X509v3 Authority Key Identifier: 
                keyid:3C:F0:4D:8E:68:3D:40:BD:4A:82:CD:E9:04:67:30:A9:82:DB:AD:80
                DirName:/C=FR/ST=idf/L=paris/O=Vitam./CN=CA_client-storage
                serial:DC

            X509v3 Issuer Alternative Name: 
                <EMPTY>

            X509v3 Subject Alternative Name: 
                DNS:ingest-external.service.consul
            X509v3 Basic Constraints: critical
                CA:FALSE
            X509v3 Key Usage: 
                Digital Signature, Non Repudiation, Key Encipherment
            Netscape Cert Type: 
                SSL Client
            X509v3 Extended Key Usage: 
                TLS Web Client Authentication
    Signature Algorithm: sha256WithRSAEncryption
         98:61:58:83:dd:4b:12:52:6e:9a:09:61:30:b4:bc:8a:95:f4:
         f6:f6:69:e4:5f:79:bb:6b:45:42:ef:72:07:09:b2:04:84:66:
         79:24:da:18:25:d4:c8:8b:35:17:09:91:31:33:c8:02:40:77:
         7e:8f:aa:ff:85:49:5f:ea:62:d9:6a:af:11:6b:ee:22:f4:72:
         71:15:1d:56:51:52:40:74:d0:5d:44:88:fb:2f:d5:4d:95:f9:
         7a:ca:cc:b1:40:3e:0f:b4:f3:24:00:9a:28:2d:b4:f6:d0:9e:
         d1:d4:f8:9b:fb:1a:1d:4b:59:15:ab:2d:3d:ac:76:5c:3a:88:
         34:55:fc:fc:0d:29:cf:30:96:4c:6d:b5:b2:37:1d:95:76:60:
         93:99:d6:90:11:1d:7b:9a:a0:2a:04:e2:75:21:16:30:da:91:
         60:70:69:25:8e:4e:dd:77:0c:c5:9f:ef:19:5b:39:13:bc:55:
         54:dd:60:ba:89:b0:e1:67:42:87:24:6d:65:cd:b7:2e:28:18:
         14:45:c5:ef:6c:e3:5d:46:ea:40:87:ee:23:58:4d:ae:e4:9c:
         c3:71:f6:d0:88:1d:f7:cf:17:92:3a:c3:b2:f9:e0:1b:f5:61:
         41:9b:5c:5e:d9:a8:ea:e1:2d:1a:5a:ed:68:aa:e3:9d:90:0a:
         fd:5a:63:56:ad:6b:f2:0e:a9:b6:03:37:72:d8:ca:a5:cd:ab:
         91:4b:f2:a8:ce:e9:54:33:79:c2:d9:5d:66:4a:1c:c4:8b:8b:
         f3:56:6d:cb:8f:ec:45:bd:b3:dc:3b:cc:07:1e:ef:bf:26:e2:
         b8:9f:3d:23:88:fc:bc:ca:d7:54:dd:03:01:43:4b:90:88:1e:
         22:72:8f:e6:4b:f9:67:e7:04:1f:14:d9:8a:16:28:bc:e3:29:
         d7:14:ee:bc:c9:3f:bc:04:8b:da:61:b7:67:9c:d6:0e:93:63:
         e9:c5:b1:e5:ae:68:11:e9:75:5a:86:75:40:26:46:d9:1d:36:
         de:b5:25:1e:79:9e:58:56:3d:9f:1d:9c:32:d0:13:55:05:83:
         dd:72:8c:20:cf:51:23:32:cc:bc:69:ed:53:14:d2:fd:2d:89:
         f2:f2:11:02:f2:1d:d0:1e:a5:8d:71:cc:84:58:7c:a3:73:1b:
         d8:17:21:26:67:92:c9:37:17:c8:8b:63:64:4f:55:f5:71:fb:
         90:ff:57:91:cb:8d:13:c3:1b:c3:e3:a7:e8:9b:6b:21:53:2c:
         f3:2e:f8:97:a5:c3:dd:f2:5c:a4:7f:b7:65:70:4c:eb:64:2c:
         51:5e:93:16:50:25:d1:13:9d:6f:9d:c4:70:14:20:59:c2:65:
         9d:ee:a5:e0:d6:d8:83:b1
-----BEGIN CERTIFICATE-----
MIIGajCCBFKgAwIBAgICAN0wDQYJKoZIhvcNAQELBQAwWDELMAkGA1UEBhMCRlIx
DDAKBgNVBAgMA2lkZjEOMAwGA1UEBwwFcGFyaXMxDzANBgNVBAoMBlZpdGFtLjEa
MBgGA1UEAwwRQ0FfY2xpZW50LXN0b3JhZ2UwHhcNMTcwMzA2MTgwNDIyWhcNMjAw
MzA1MTgwNDIyWjBOMQswCQYDVQQGEwJGUjEMMAoGA1UECAwDaWRmMQ4wDAYDVQQH
DAVwYXJpczEPMA0GA1UECgwGVml0YW0uMRAwDgYDVQQDDAdzdG9yYWdlMIICIjAN
BgkqhkiG9w0BAQEFAAOCAg8AMIICCgKCAgEAxjOYXriwms25ykK0EKEr32INTpse
helQ3hHstvclZG0kjZSBQoNf55R7aOsJu37ajzbVx+V0J4KdWSVTPf5SQVkXc+H+
vrdIq3YcXA9ptC7XZZTAP5xThuQrouW+AZfOS6zVzC2jolo8cUXHA/ChzcHUaJBQ
56IjFfaV10AsubuByQBkxqOIQ3ScdApXEv8y1PNg2AoAYFmN8zdn3a8JooeQJl+I
f1WJMwPud60l4qz2ru2DSFkMTCBew6qiVFOMu0KGUw8K9BYi7SSIiz3t5C9nFKh7
IOD2ezqOhU5UIvRNM5ye66ighfae50fRZqyiZ3f2Bv33GcKNKSuJVPmsXam1wpO7
eoEt7DXhyG4xnxcOswyryqBxkoFHUapJv2QLdahbny1NXNFiSbUL1JT3lrjE+cN/
nSiqlW+NPTUUDto2pELC8RJUB7zh7JeO4tceiwsGe4kv/kK/Z7J8RWJ2h1zVzvaH
o7ufHd/Rh6YdSEP2f9v9BPcTPB7HwUsa+H2GOJljhq9fwDE31f/MDlRFYsdqX9OO
7N+xWOGluvgK/sWLpVeWOWrgYDPQGhu4k6hzUuIbSsR4n7stVzguiHCAOn5jEmoS
CxzCh96BBDeMwWCjb+vlQ6vXYpnsa1N5m4MrK/dafyTDhyFuAEuPaOR+vPSxJD3v
6+0AShkDL/S2LD0CAwEAAaOCAUYwggFCMCQGCWCGSAGG+EIBDQQXFhVDZXJ0aWZp
Y2F0IENsaWVudCBTU0wwHQYDVR0OBBYEFCM3reQ1rzV+0/pSwqvIHhW4HP9cMIGB
BgNVHSMEejB4gBQ88E2OaD1AvUqCzekEZzCpgtutgKFcpFowWDELMAkGA1UEBhMC
RlIxDDAKBgNVBAgMA2lkZjEOMAwGA1UEBwwFcGFyaXMxDzANBgNVBAoMBlZpdGFt
LjEaMBgGA1UEAwwRQ0FfY2xpZW50LXN0b3JhZ2WCAgDcMAkGA1UdEgQCMAAwKQYD
VR0RBCIwIIIeaW5nZXN0LWV4dGVybmFsLnNlcnZpY2UuY29uc3VsMAwGA1UdEwEB
/wQCMAAwCwYDVR0PBAQDAgXgMBEGCWCGSAGG+EIBAQQEAwIHgDATBgNVHSUEDDAK
BggrBgEFBQcDAjANBgkqhkiG9w0BAQsFAAOCAgEAmGFYg91LElJumglhMLS8ipX0
9vZp5F95u2tFQu9yBwmyBIRmeSTaGCXUyIs1FwmRMTPIAkB3fo+q/4VJX+pi2Wqv
EWvuIvRycRUdVlFSQHTQXUSI+y/VTZX5esrMsUA+D7TzJACaKC209tCe0dT4m/sa
HUtZFastPax2XDqINFX8/A0pzzCWTG21sjcdlXZgk5nWkBEde5qgKgTidSEWMNqR
YHBpJY5O3XcMxZ/vGVs5E7xVVN1guomw4WdChyRtZc23LigYFEXF72zjXUbqQIfu
I1hNruScw3H20Igd988XkjrDsvngG/VhQZtcXtmo6uEtGlrtaKrjnZAK/VpjVq1r
8g6ptgM3ctjKpc2rkUvyqM7pVDN5wtldZkocxIuL81Zty4/sRb2z3DvMBx7vvybi
uJ89I4j8vMrXVN0DAUNLkIgeInKP5kv5Z+cEHxTZihYovOMp1xTuvMk/vASL2mG3
Z5zWDpNj6cWx5a5oEel1WoZ1QCZG2R023rUlHnmeWFY9nx2cMtATVQWD3XKMIM9R
IzLMvGntUxTS/S2J8vIRAvId0B6ljXHMhFh8o3Mb2BchJmeSyTcXyItjZE9V9XH7
kP9XkcuNE8Mbw+On6JtrIVMs8y74l6XD3fJcpH+3ZXBM62QsUV6TFlAl0ROdb53E
cBQgWcJlne6l4NbYg7E=
-----END CERTIFICATE-----
