Certificate:
    Data:
        Version: 3 (0x2)
        Serial Number: 304 (0x130)
        Signature Algorithm: sha256WithRSAEncryption
        Issuer: C=fr, ST=idf, L=paris, O=vitam, OU=authorities, CN=ca_intermediate_client-external
        Validity
            Not Before: Sep 15 13:01:11 2020 GMT
            Not After : Dec 31 23:59:59 9999 GMT
        Subject: C=fr, ST=idf, L=paris, O=vitam, CN=vitam-admin-int
        Subject Public Key Info:
            Public Key Algorithm: rsaEncryption
                RSA Public-Key: (4096 bit)
                Modulus:
                    00:ee:ca:61:9c:fa:83:2a:ce:d3:0f:5a:1e:66:46:
                    ba:04:1d:c6:97:32:c0:b3:68:a3:66:52:8b:7e:d4:
                    32:28:79:a9:9c:a7:fa:d4:45:34:26:be:17:07:8d:
                    d2:4f:58:d8:02:c9:42:54:b7:d7:54:bc:7a:00:bc:
                    40:10:09:47:0b:18:3f:19:46:74:a7:fc:65:74:7e:
                    5d:74:78:21:98:62:cb:e3:a5:de:6c:77:9d:b9:5a:
                    eb:34:23:62:67:95:e6:5e:fa:db:f6:76:dc:0d:12:
                    1a:ee:d3:c4:1f:22:7d:c4:b2:e6:e7:78:ef:a8:11:
                    2e:53:d3:5e:9a:d9:b8:d3:8c:19:8a:cd:74:fe:96:
                    aa:86:a4:03:c1:3b:7b:dd:83:10:ad:7c:7c:de:5d:
                    23:13:78:b0:40:de:b1:35:92:56:3f:e3:3d:bc:a9:
                    37:34:bb:09:51:dd:6a:e0:bc:0a:fe:c4:6d:ba:19:
                    d7:71:5c:0b:38:21:3d:c3:56:4a:f2:2d:8d:36:c5:
                    bb:ec:86:b7:df:3d:a7:fd:b6:27:1d:b8:35:92:8b:
                    85:8b:eb:74:69:8d:62:e3:4f:1b:fa:fb:29:31:a0:
                    3f:45:6f:b7:fe:87:49:d5:b8:bb:d9:b2:f5:fc:7e:
                    3d:dc:c7:c2:d8:ac:35:ed:36:f3:4d:94:43:8e:52:
                    98:e4:72:c0:d6:50:9c:05:c2:21:5b:4a:b9:ea:b5:
                    17:36:1c:16:a0:40:04:ed:29:9b:57:ba:31:1d:aa:
                    47:90:35:ef:21:03:c9:f7:fa:27:79:57:61:bd:e2:
                    6c:8b:15:35:da:49:a8:0f:25:6c:98:b4:bf:10:55:
                    cf:90:d9:f7:b3:27:2f:d0:ca:01:da:85:84:59:7a:
                    9a:97:b7:27:30:3b:5b:84:0d:81:f5:15:8c:5d:21:
                    3d:3b:db:f1:29:5e:be:92:d6:e7:c5:b6:cc:8c:c5:
                    25:2d:e6:36:41:e3:6d:35:ca:0d:ed:07:7e:f5:9a:
                    9b:29:4f:e1:b1:53:fc:f8:eb:0d:39:5d:1c:7b:ed:
                    04:db:56:b7:19:b0:4f:eb:9e:5a:0d:29:ee:25:f7:
                    7e:59:b9:48:09:b1:21:1c:59:ae:04:b0:37:9a:8f:
                    f1:4d:49:58:d3:a3:2f:2c:bd:23:bb:2a:7e:56:ca:
                    21:f2:04:2c:f7:dd:7a:a1:bd:d7:1f:9e:31:c9:cf:
                    1f:5d:0a:c9:6f:05:25:c1:5e:ba:a6:64:db:f3:9b:
                    e7:ec:31:bd:b2:ee:58:93:62:08:81:7e:39:39:8e:
                    ae:6e:f0:f8:bf:27:d8:9e:50:18:f0:84:e6:b6:da:
                    d3:78:49:16:c6:a8:42:30:a4:cd:7e:20:60:42:59:
                    0b:72:4d
                Exponent: 65537 (0x10001)
        X509v3 extensions:
            Netscape Comment: 
                Certificat Client SSL
            X509v3 Subject Key Identifier: 
                9E:BF:E7:63:2C:52:CD:31:11:57:D8:E7:D1:3E:7B:12:09:BD:64:F7
            X509v3 Authority Key Identifier: 
                keyid:D1:7F:00:C3:F0:94:D6:CB:E3:AE:F7:23:18:2E:1E:BA:53:66:F2:F8
                DirName:/C=fr/ST=idf/L=paris/O=vitam/OU=authorities/CN=ca_root_client-external
                serial:01:2D

            X509v3 Issuer Alternative Name: 
                <EMPTY>

            X509v3 Basic Constraints: critical
                CA:FALSE
            X509v3 Key Usage: 
                Digital Signature
            Netscape Cert Type: 
                SSL Client
            X509v3 Extended Key Usage: 
                TLS Web Client Authentication
    Signature Algorithm: sha256WithRSAEncryption
         3e:c5:0e:95:0b:0c:8c:56:07:b1:7d:86:19:5e:5e:75:17:d1:
         36:11:80:c6:44:31:d2:46:be:af:c8:bd:0c:52:28:a3:08:76:
         30:f0:02:8b:4c:17:36:23:f5:b9:99:1d:92:b0:c6:3e:50:ac:
         83:40:4d:17:7e:e8:3c:3a:79:79:61:1f:70:12:36:50:6a:96:
         4a:f7:62:dd:2c:e3:c8:79:ae:56:b3:46:6c:78:c7:e1:ef:c2:
         ef:ec:fb:83:43:45:30:45:1f:13:6d:a3:d7:f1:91:70:b3:25:
         26:05:fc:0e:e2:41:a2:1a:ba:2c:83:80:8c:41:ee:6c:42:ef:
         4f:63:2a:a6:3c:32:44:2d:be:3c:60:08:fc:34:0a:53:f6:88:
         d0:4a:89:e4:09:31:15:0e:c3:9a:f2:ab:b7:10:89:78:ca:05:
         57:25:4a:78:70:b0:61:3c:05:07:79:f0:b8:7e:29:4f:57:79:
         1a:d2:e3:a6:37:f4:df:06:fb:71:19:d3:26:16:0a:00:12:e1:
         51:d7:8a:c1:f0:fe:fa:83:19:92:a6:2f:ad:95:a3:5d:97:96:
         4c:46:48:bd:a7:00:e3:56:76:43:2f:9b:22:47:8d:28:2e:49:
         41:3c:81:cb:4c:9c:53:73:4e:58:e9:d3:f9:16:01:b3:67:3b:
         b8:8b:3d:b1:e0:1c:b0:a0:d0:45:1b:aa:5f:79:0d:70:0d:b1:
         de:26:50:c5:c5:7c:70:22:a1:3c:a5:d6:0f:c8:47:5b:3c:bc:
         5b:ad:65:23:e9:5b:5f:cf:ca:7c:95:f7:11:70:bb:09:82:e2:
         10:39:1c:bb:49:f2:b5:38:d8:21:ed:a8:c7:77:fb:94:60:f9:
         72:2a:92:af:34:1f:7d:a1:2f:16:04:5f:bc:7c:69:02:6b:28:
         8f:51:4a:b8:90:51:b1:c4:df:d3:26:5e:83:c1:b2:01:57:90:
         e9:a9:f1:5e:4e:2d:06:42:19:04:c9:56:5e:25:d8:e4:24:84:
         11:59:02:cc:7c:41:dd:98:e6:d0:0a:b0:38:35:9c:ce:1a:e8:
         43:02:37:e7:da:54:fb:fa:44:de:e0:96:ae:20:6b:26:9a:3c:
         47:af:8f:4e:b8:90:2d:4b:10:c8:00:29:b0:80:ef:bc:91:66:
         d9:99:32:4f:7b:9e:b9:bf:7c:43:5a:24:05:87:88:fc:88:1e:
         d8:1b:42:36:49:d4:f4:c5:77:6a:fc:27:cd:0e:2f:5f:63:ab:
         05:e6:64:11:7f:d7:a1:66:8c:a5:dd:32:3a:ff:43:8c:50:0c:
         28:18:51:68:a3:d9:a4:d4:8c:3a:6f:d4:c3:d2:81:1f:90:27:
         5f:3b:98:c8:75:89:c2:f5
-----BEGIN CERTIFICATE-----
MIIGiDCCBHCgAwIBAgICATAwDQYJKoZIhvcNAQELBQAwezELMAkGA1UEBhMCZnIx
DDAKBgNVBAgMA2lkZjEOMAwGA1UEBwwFcGFyaXMxDjAMBgNVBAoMBXZpdGFtMRQw
EgYDVQQLDAthdXRob3JpdGllczEoMCYGA1UEAwwfY2FfaW50ZXJtZWRpYXRlX2Ns
aWVudC1leHRlcm5hbDAgFw0yMDA5MTUxMzAxMTFaGA85OTk5MTIzMTIzNTk1OVow
VTELMAkGA1UEBhMCZnIxDDAKBgNVBAgMA2lkZjEOMAwGA1UEBwwFcGFyaXMxDjAM
BgNVBAoMBXZpdGFtMRgwFgYDVQQDDA92aXRhbS1hZG1pbi1pbnQwggIiMA0GCSqG
SIb3DQEBAQUAA4ICDwAwggIKAoICAQDuymGc+oMqztMPWh5mRroEHcaXMsCzaKNm
Uot+1DIoeamcp/rURTQmvhcHjdJPWNgCyUJUt9dUvHoAvEAQCUcLGD8ZRnSn/GV0
fl10eCGYYsvjpd5sd525Wus0I2JnleZe+tv2dtwNEhru08QfIn3EsubneO+oES5T
016a2bjTjBmKzXT+lqqGpAPBO3vdgxCtfHzeXSMTeLBA3rE1klY/4z28qTc0uwlR
3WrgvAr+xG26GddxXAs4IT3DVkryLY02xbvshrffPaf9ticduDWSi4WL63RpjWLj
Txv6+ykxoD9Fb7f+h0nVuLvZsvX8fj3cx8LYrDXtNvNNlEOOUpjkcsDWUJwFwiFb
SrnqtRc2HBagQATtKZtXujEdqkeQNe8hA8n3+id5V2G94myLFTXaSagPJWyYtL8Q
Vc+Q2fezJy/QygHahYRZepqXtycwO1uEDYH1FYxdIT072/EpXr6S1ufFtsyMxSUt
5jZB4201yg3tB371mpspT+GxU/z46w05XRx77QTbVrcZsE/rnloNKe4l935ZuUgJ
sSEcWa4EsDeaj/FNSVjToy8svSO7Kn5WyiHyBCz33XqhvdcfnjHJzx9dCslvBSXB
XrqmZNvzm+fsMb2y7liTYgiBfjk5jq5u8Pi/J9ieUBjwhOa22tN4SRbGqEIwpM1+
IGBCWQtyTQIDAQABo4IBODCCATQwJAYJYIZIAYb4QgENBBcWFUNlcnRpZmljYXQg
Q2xpZW50IFNTTDAdBgNVHQ4EFgQUnr/nYyxSzTERV9jn0T57Egm9ZPcwgZ4GA1Ud
IwSBljCBk4AU0X8Aw/CU1svjrvcjGC4eulNm8vihd6R1MHMxCzAJBgNVBAYTAmZy
MQwwCgYDVQQIDANpZGYxDjAMBgNVBAcMBXBhcmlzMQ4wDAYDVQQKDAV2aXRhbTEU
MBIGA1UECwwLYXV0aG9yaXRpZXMxIDAeBgNVBAMMF2NhX3Jvb3RfY2xpZW50LWV4
dGVybmFsggIBLTAJBgNVHRIEAjAAMAwGA1UdEwEB/wQCMAAwCwYDVR0PBAQDAgeA
MBEGCWCGSAGG+EIBAQQEAwIHgDATBgNVHSUEDDAKBggrBgEFBQcDAjANBgkqhkiG
9w0BAQsFAAOCAgEAPsUOlQsMjFYHsX2GGV5edRfRNhGAxkQx0ka+r8i9DFIoowh2
MPACi0wXNiP1uZkdkrDGPlCsg0BNF37oPDp5eWEfcBI2UGqWSvdi3SzjyHmuVrNG
bHjH4e/C7+z7g0NFMEUfE22j1/GRcLMlJgX8DuJBohq6LIOAjEHubELvT2Mqpjwy
RC2+PGAI/DQKU/aI0EqJ5AkxFQ7DmvKrtxCJeMoFVyVKeHCwYTwFB3nwuH4pT1d5
GtLjpjf03wb7cRnTJhYKABLhUdeKwfD++oMZkqYvrZWjXZeWTEZIvacA41Z2Qy+b
IkeNKC5JQTyBy0ycU3NOWOnT+RYBs2c7uIs9seAcsKDQRRuqX3kNcA2x3iZQxcV8
cCKhPKXWD8hHWzy8W61lI+lbX8/KfJX3EXC7CYLiEDkcu0nytTjYIe2ox3f7lGD5
ciqSrzQffaEvFgRfvHxpAmsoj1FKuJBRscTf0yZeg8GyAVeQ6anxXk4tBkIZBMlW
XiXY5CSEEVkCzHxB3Zjm0AqwODWczhroQwI359pU+/pE3uCWriBrJpo8R6+PTriQ
LUsQyAApsIDvvJFm2ZkyT3ueub98Q1okBYeI/Ige2BtCNknU9MV3avwnzQ4vX2Or
BeZkEX/XoWaMpd0yOv9DjFAMKBhRaKPZpNSMOm/Uw9KBH5AnXzuYyHWJwvU=
-----END CERTIFICATE-----
