Certificate:
    Data:
        Version: 3 (0x2)
        Serial Number: 290 (0x122)
    Signature Algorithm: sha256WithRSAEncryption
        Issuer: C=fr, ST=idf, L=paris, O=vitam, OU=authorities, CN=ca_intermediate_client-external
        Validity
            Not Before: Feb 22 16:37:07 2018 GMT
            Not After : Feb 21 16:37:07 2021 GMT
        Subject: C=fr, ST=idf, L=paris, O=vitam, CN=vitam-admin-int
        Subject Public Key Info:
            Public Key Algorithm: rsaEncryption
                Public-Key: (4096 bit)
                Modulus:
                    00:ca:c3:b1:bd:30:80:6d:6c:af:7f:68:5a:51:04:
                    e9:ee:31:3e:12:cf:16:23:ed:cd:5d:55:91:18:72:
                    16:43:8b:c8:1e:fe:0a:5a:6c:f8:45:b6:66:7a:68:
                    d0:ab:1a:ff:44:df:a5:99:a9:43:19:e2:11:e7:e9:
                    c2:86:06:13:6a:a3:14:6c:70:5a:09:48:bc:84:ac:
                    95:93:45:6e:66:81:bf:4e:ec:c3:ca:f8:e1:01:c3:
                    1f:78:9b:ae:2f:2e:34:6b:90:56:27:9b:c4:6a:ea:
                    e3:cb:eb:99:14:c4:11:8f:cd:7b:a2:87:6c:9a:f3:
                    66:bb:38:59:36:d4:cf:8d:3c:18:d1:b6:a6:fa:77:
                    a9:40:47:c1:c9:7c:0c:7c:6b:df:01:40:7b:5b:b2:
                    f9:0e:bc:2c:05:5b:38:0d:64:c8:4f:67:c1:f6:c0:
                    16:b8:a9:43:78:86:1c:3c:33:97:50:75:89:9a:8e:
                    e2:50:bf:da:53:bd:c6:56:3c:5f:cd:a1:96:ee:ca:
                    64:7b:e0:27:99:84:4d:9f:b7:48:2b:b9:ab:7e:b8:
                    2e:3d:91:28:ba:df:75:5f:c0:4f:3d:9f:f1:ab:96:
                    10:06:8f:9b:5e:95:e2:4d:2d:b6:df:a2:4e:46:ac:
                    8c:92:b8:09:d1:ad:2c:36:cf:f2:66:0f:8c:a1:57:
                    75:db:58:b5:6f:22:23:f3:c9:d5:ac:f4:00:7e:42:
                    c6:2f:1a:d2:11:d8:e9:9e:aa:c9:de:1a:34:48:ed:
                    94:86:e6:1a:14:bf:3f:d2:22:08:8e:91:6f:32:1f:
                    8d:a9:70:1f:f2:8c:be:00:c5:08:3f:37:7d:a4:38:
                    7a:e5:58:d4:26:29:33:31:ae:1d:1d:17:d0:9c:8c:
                    c4:40:fd:cc:c6:09:67:09:59:26:65:eb:fd:24:88:
                    87:62:33:04:30:fc:7c:5e:5d:5b:b2:cd:5c:f8:b0:
                    0d:60:85:0d:7d:8e:7c:2f:d0:b1:a2:2e:0f:d1:c4:
                    91:09:b6:18:28:63:78:52:ed:c7:f5:e5:39:a1:51:
                    a6:87:b6:1d:1e:2e:e2:0c:da:c8:37:40:4a:33:84:
                    50:d8:a6:ea:6f:51:52:5a:1b:b3:13:0d:99:29:4f:
                    cc:51:83:ab:df:ec:80:0d:d2:20:67:11:d5:f8:25:
                    6b:f3:67:4f:29:12:d0:cc:62:5b:d8:57:54:d8:08:
                    a9:78:1e:a9:0f:d6:48:4c:4b:43:58:2f:6d:24:1c:
                    45:88:94:be:88:db:83:86:7d:58:98:d9:6e:2d:5f:
                    0e:7b:2a:e3:e9:97:dd:3f:61:f3:57:68:9b:80:8d:
                    c9:09:f5:2f:ad:a1:8e:cf:0c:dc:d6:87:c5:9f:b4:
                    f9:fa:c7
                Exponent: 65537 (0x10001)
        X509v3 extensions:
            Netscape Comment: 
                Certificat Client SSL
            X509v3 Subject Key Identifier: 
                BC:CE:EA:8A:75:2F:85:97:F9:4A:97:4C:31:57:16:3B:CD:7C:A6:B1
            X509v3 Authority Key Identifier: 
                keyid:9C:8B:2B:E0:30:68:BA:20:26:1D:BA:07:A0:48:19:6B:2C:DE:0E:26
                DirName:/C=fr/ST=idf/L=paris/O=vitam/OU=authorities/CN=ca_root_client-external
                serial:FC

            X509v3 Issuer Alternative Name: 
                <EMPTY>

            X509v3 Basic Constraints: critical
                CA:FALSE
            X509v3 Key Usage: 
                Digital Signature, Non Repudiation, Key Encipherment
            Netscape Cert Type: 
                SSL Client
            X509v3 Extended Key Usage: 
                TLS Web Client Authentication
    Signature Algorithm: sha256WithRSAEncryption
         46:56:2a:de:19:b5:9f:9a:3c:85:d6:35:0b:e4:63:86:1b:84:
         b0:66:8b:5c:bc:8d:df:7a:0a:61:86:79:bb:2c:fa:bb:11:c5:
         65:0d:49:54:a2:8f:82:66:2d:5d:14:98:f9:b5:e2:fc:78:ed:
         54:0d:15:8a:cd:bd:10:df:a5:24:1f:2e:e8:b7:b5:50:a9:39:
         1f:c5:c8:f7:3e:95:f2:8a:1a:7d:b2:46:32:48:73:c4:0e:23:
         fd:a6:55:c0:f5:bf:66:b1:5f:1f:e6:d0:0c:a5:ab:cc:0d:35:
         f1:d5:af:9d:48:19:a3:ce:06:b1:00:79:c2:fc:2f:e6:86:23:
         ac:99:bd:d4:9d:91:3c:0d:10:0c:d5:bc:fb:7a:aa:74:21:43:
         f0:c0:c0:5e:8b:d6:ef:f6:3f:f6:5e:8a:1b:05:59:41:2a:fe:
         c6:71:50:f6:22:5e:9d:0d:b3:fa:5e:68:b3:5a:b9:03:6d:98:
         38:56:58:e2:dc:e2:dd:82:51:40:18:37:91:a8:f4:ac:c7:30:
         5e:4a:ba:41:52:14:4d:5a:7f:ef:f9:a4:96:d4:11:f0:e5:24:
         7e:d0:c5:b0:c2:75:76:7d:04:23:ab:31:40:12:a7:a2:ab:94:
         34:f2:89:b7:8a:d5:69:38:46:f0:92:61:9b:05:69:c6:96:d1:
         6b:8d:0e:3b:81:8f:b2:74:fa:63:13:e6:a6:f2:e7:78:d4:67:
         c2:3d:07:64:69:65:fa:38:a9:ec:ca:21:5c:d6:9f:d9:04:d7:
         c9:f3:54:b5:16:2d:ed:e0:5c:ff:9c:91:ac:56:fe:d0:83:dd:
         00:65:75:df:94:7a:90:5b:08:61:7b:e1:a3:02:81:ad:45:48:
         e6:a5:8d:bb:75:a1:b4:a0:3c:84:5f:59:f5:b5:62:bb:7b:60:
         ec:ee:f4:90:d0:0b:f6:91:37:1f:ac:2d:99:64:66:ec:d0:de:
         6b:62:2d:64:38:24:93:b2:66:43:da:31:f3:f6:ea:78:d1:33:
         e8:60:55:a1:4a:83:a9:13:10:36:93:ab:f5:fa:39:16:14:d6:
         80:f0:66:4d:16:1b:c7:33:1b:2a:a0:4e:c7:47:0d:81:0a:e2:
         60:a7:c6:8a:e5:41:bd:85:87:f6:e6:11:69:e3:c9:61:e6:7c:
         af:e5:92:c3:bf:71:8f:c7:f2:2e:de:dd:80:eb:ad:2b:fa:88:
         ab:b7:51:59:40:92:0c:46:4d:d7:a1:e3:0c:6f:8b:44:c4:3a:
         cf:b3:df:10:be:e1:63:e5:d8:25:4e:2a:b6:4c:b5:2c:b4:a6:
         40:e5:68:50:f8:02:d4:06:65:52:4a:80:9d:09:5f:f9:57:44:
         02:b8:f2:a9:bb:c3:50:b5
-----BEGIN CERTIFICATE-----
MIIGhjCCBG6gAwIBAgICASIwDQYJKoZIhvcNAQELBQAwezELMAkGA1UEBhMCZnIx
DDAKBgNVBAgMA2lkZjEOMAwGA1UEBwwFcGFyaXMxDjAMBgNVBAoMBXZpdGFtMRQw
EgYDVQQLDAthdXRob3JpdGllczEoMCYGA1UEAwwfY2FfaW50ZXJtZWRpYXRlX2Ns
aWVudC1leHRlcm5hbDAeFw0xODAyMjIxNjM3MDdaFw0yMTAyMjExNjM3MDdaMFUx
CzAJBgNVBAYTAmZyMQwwCgYDVQQIDANpZGYxDjAMBgNVBAcMBXBhcmlzMQ4wDAYD
VQQKDAV2aXRhbTEYMBYGA1UEAwwPdml0YW0tYWRtaW4taW50MIICIjANBgkqhkiG
9w0BAQEFAAOCAg8AMIICCgKCAgEAysOxvTCAbWyvf2haUQTp7jE+Es8WI+3NXVWR
GHIWQ4vIHv4KWmz4RbZmemjQqxr/RN+lmalDGeIR5+nChgYTaqMUbHBaCUi8hKyV
k0VuZoG/TuzDyvjhAcMfeJuuLy40a5BWJ5vEaurjy+uZFMQRj817oodsmvNmuzhZ
NtTPjTwY0bam+nepQEfByXwMfGvfAUB7W7L5DrwsBVs4DWTIT2fB9sAWuKlDeIYc
PDOXUHWJmo7iUL/aU73GVjxfzaGW7spke+AnmYRNn7dIK7mrfrguPZEout91X8BP
PZ/xq5YQBo+bXpXiTS2236JORqyMkrgJ0a0sNs/yZg+MoVd121i1byIj88nVrPQA
fkLGLxrSEdjpnqrJ3ho0SO2UhuYaFL8/0iIIjpFvMh+NqXAf8oy+AMUIPzd9pDh6
5VjUJikzMa4dHRfQnIzEQP3MxglnCVkmZev9JIiHYjMEMPx8Xl1bss1c+LANYIUN
fY58L9Cxoi4P0cSRCbYYKGN4Uu3H9eU5oVGmh7YdHi7iDNrIN0BKM4RQ2Kbqb1FS
WhuzEw2ZKU/MUYOr3+yADdIgZxHV+CVr82dPKRLQzGJb2FdU2AipeB6pD9ZITEtD
WC9tJBxFiJS+iNuDhn1YmNluLV8Oeyrj6ZfdP2HzV2ibgI3JCfUvraGOzwzc1ofF
n7T5+scCAwEAAaOCATgwggE0MCQGCWCGSAGG+EIBDQQXFhVDZXJ0aWZpY2F0IENs
aWVudCBTU0wwHQYDVR0OBBYEFLzO6op1L4WX+UqXTDFXFjvNfKaxMIGeBgNVHSME
gZYwgZOAFJyLK+AwaLogJh26B6BIGWss3g4moXekdTBzMQswCQYDVQQGEwJmcjEM
MAoGA1UECAwDaWRmMQ4wDAYDVQQHDAVwYXJpczEOMAwGA1UECgwFdml0YW0xFDAS
BgNVBAsMC2F1dGhvcml0aWVzMSAwHgYDVQQDDBdjYV9yb290X2NsaWVudC1leHRl
cm5hbIICAPwwCQYDVR0SBAIwADAMBgNVHRMBAf8EAjAAMAsGA1UdDwQEAwIF4DAR
BglghkgBhvhCAQEEBAMCB4AwEwYDVR0lBAwwCgYIKwYBBQUHAwIwDQYJKoZIhvcN
AQELBQADggIBAEZWKt4ZtZ+aPIXWNQvkY4YbhLBmi1y8jd96CmGGebss+rsRxWUN
SVSij4JmLV0UmPm14vx47VQNFYrNvRDfpSQfLui3tVCpOR/FyPc+lfKKGn2yRjJI
c8QOI/2mVcD1v2axXx/m0Aylq8wNNfHVr51IGaPOBrEAecL8L+aGI6yZvdSdkTwN
EAzVvPt6qnQhQ/DAwF6L1u/2P/ZeihsFWUEq/sZxUPYiXp0Ns/peaLNauQNtmDhW
WOLc4t2CUUAYN5Go9KzHMF5KukFSFE1af+/5pJbUEfDlJH7QxbDCdXZ9BCOrMUAS
p6KrlDTyibeK1Wk4RvCSYZsFacaW0WuNDjuBj7J0+mMT5qby53jUZ8I9B2RpZfo4
qezKIVzWn9kE18nzVLUWLe3gXP+ckaxW/tCD3QBldd+UepBbCGF74aMCga1FSOal
jbt1obSgPIRfWfW1Yrt7YOzu9JDQC/aRNx+sLZlkZuzQ3mtiLWQ4JJOyZkPaMfP2
6njRM+hgVaFKg6kTEDaTq/X6ORYU1oDwZk0WG8czGyqgTsdHDYEK4mCnxorlQb2F
h/bmEWnjyWHmfK/lksO/cY/H8i7e3YDrrSv6iKu3UVlAkgxGTdeh4wxvi0TEOs+z
3xC+4WPl2CVOKrZMtSy0pkDlaFD4AtQGZVJKgJ0JX/lXRAK48qm7w1C1
-----END CERTIFICATE-----
