Certificate:
    Data:
        Version: 3 (0x2)
        Serial Number: 260 (0x104)
    Signature Algorithm: sha256WithRSAEncryption
        Issuer: C=fr, ST=idf, L=paris, O=vitam, OU=authorities, CN=ca_intermediate_client-external
        Validity
            Not Before: Feb  5 12:57:34 2018 GMT
            Not After : Feb  4 12:57:34 2021 GMT
        Subject: C=fr, ST=idf, L=paris, O=vitam, CN=vitam-admin-int
        Subject Public Key Info:
            Public Key Algorithm: rsaEncryption
                Public-Key: (4096 bit)
                Modulus:
                    00:bf:e7:c3:f5:8b:c7:55:da:5c:d2:7f:ae:ec:f7:
                    89:c6:33:27:0c:eb:73:c6:b1:ce:7a:13:95:d3:00:
                    3c:5c:9a:08:53:68:4a:54:10:06:52:58:8b:27:e9:
                    f5:4b:33:53:cc:0d:86:f4:5b:64:ef:de:01:95:b6:
                    db:6e:97:c4:f9:ad:4c:ad:fa:c8:ca:86:a4:96:48:
                    2c:64:a0:41:a2:2c:de:01:cd:8a:60:5c:36:9c:bc:
                    12:18:c9:dd:dd:8e:4f:06:d6:45:15:35:10:ae:47:
                    a2:31:15:be:01:2b:5d:77:b9:8f:ca:8e:3b:3b:8f:
                    19:7e:88:1a:9d:51:73:7a:65:ab:73:12:74:76:6b:
                    c8:8d:c4:73:a0:93:4b:2e:ea:7f:1d:9b:1e:f0:e6:
                    66:8f:33:e7:f7:81:3f:41:99:b5:98:eb:ba:55:9d:
                    54:b9:0d:74:83:8f:bb:b5:10:dc:6f:7a:1a:7f:ad:
                    0b:5b:b7:8e:04:63:bb:36:cf:5c:cf:09:3a:dc:2b:
                    fe:1a:84:1f:b5:cd:59:4f:94:7b:16:03:6d:8a:16:
                    60:68:49:6e:0f:0b:5a:0e:ac:7c:ce:01:31:85:72:
                    2a:0a:6f:e9:0d:cf:e5:4e:71:54:3e:19:ec:0f:aa:
                    56:c5:4b:89:44:f5:c1:1f:2c:a6:dc:98:1f:64:e7:
                    83:56:4e:b4:da:09:70:32:c8:28:60:41:f4:b8:5b:
                    d2:d6:37:5c:1d:da:a6:64:59:87:b4:40:83:65:80:
                    f5:ce:5b:00:4f:9e:8c:2e:e7:ba:ac:1a:34:80:43:
                    69:c6:40:df:54:25:22:e9:8b:2e:60:2b:4e:99:02:
                    65:13:39:e1:3c:8a:69:9a:38:34:45:48:68:35:68:
                    bf:eb:d1:29:a5:d0:20:22:bd:8b:64:ca:16:d7:d5:
                    c0:55:e7:8d:c7:5a:94:0c:98:f6:e3:64:b9:48:a1:
                    b6:e6:56:2f:6a:31:63:51:04:15:c6:10:9e:fe:5f:
                    c7:17:a6:b3:5b:e3:ad:6e:f2:20:e3:c0:3a:29:f9:
                    cb:df:01:8a:94:c0:0c:28:52:79:75:5f:36:96:b6:
                    62:01:a4:cc:92:ee:b8:f9:78:b8:b9:57:cc:51:65:
                    5b:68:97:4d:b2:03:a8:90:86:06:26:2f:81:ce:b7:
                    36:6d:61:c9:58:8c:d3:90:a2:93:50:70:4d:4e:cb:
                    de:c1:a7:a3:9b:67:83:7f:59:28:e5:59:69:25:b9:
                    38:0c:80:69:8b:45:68:8c:81:b6:6f:34:32:ca:62:
                    a0:d8:6c:9f:d6:b2:81:3f:23:75:70:4b:9e:c0:7f:
                    28:b2:e0:65:b0:19:01:3f:dc:c7:ae:c0:17:23:05:
                    5a:c7:13
                Exponent: 65537 (0x10001)
        X509v3 extensions:
            Netscape Comment: 
                Certificat Client SSL
            X509v3 Subject Key Identifier: 
                F0:D3:56:AA:EE:84:B2:4C:05:B6:88:72:EB:73:62:09:0B:D7:FB:3E
            X509v3 Authority Key Identifier: 
                keyid:99:4E:FD:BA:7D:CF:EE:E1:A9:EA:F5:DA:73:BD:4A:D1:46:DA:D7:7C
                DirName:/C=fr/ST=idf/L=paris/O=vitam/OU=authorities/CN=ca_root_client-external
                serial:FC

            X509v3 Issuer Alternative Name: 
                <EMPTY>

            X509v3 Basic Constraints: critical
                CA:FALSE
            X509v3 Key Usage: 
                Digital Signature, Non Repudiation, Key Encipherment
            Netscape Cert Type: 
                SSL Client
            X509v3 Extended Key Usage: 
                TLS Web Client Authentication
    Signature Algorithm: sha256WithRSAEncryption
         26:5d:9f:82:37:56:45:3c:02:07:71:2c:b1:00:48:5d:6f:b3:
         3c:44:db:d4:08:93:32:68:01:2e:20:df:dc:b1:e3:14:20:f9:
         b1:90:bd:f2:de:a6:92:c2:27:92:13:10:e5:af:ec:45:20:ff:
         8e:4e:8a:37:68:1a:d7:2c:d9:f1:19:03:d6:81:24:75:f1:15:
         77:f4:11:23:80:39:23:fa:57:30:2d:c8:e2:8f:e4:d4:16:5b:
         5f:fe:c5:88:05:cd:2a:16:90:32:b0:89:f7:b9:bc:5c:8f:aa:
         57:ae:2c:21:c9:35:10:70:55:07:6e:0d:c5:76:5f:63:02:44:
         ea:3d:7c:81:c0:e5:9f:88:82:cf:8c:cb:01:e9:44:d6:93:9d:
         7f:b3:37:a5:d8:d0:76:bd:9d:12:60:64:25:14:f4:31:b1:7b:
         c6:5f:ad:b0:33:e2:f8:b1:5f:b2:67:7e:61:eb:a6:7d:d8:34:
         a0:ce:a1:73:08:70:4c:f3:7c:e0:e2:17:1a:bc:9d:44:ed:0e:
         d9:14:8b:94:f3:29:00:93:6c:4b:7b:2a:39:92:fe:99:3e:6f:
         11:8c:26:ac:c1:5b:fa:af:c4:eb:56:6b:de:c5:2a:6f:f9:39:
         99:df:f1:bb:63:f9:9e:55:52:79:4f:6c:87:f2:46:b1:24:8b:
         99:52:48:78:e7:d4:14:24:5f:52:be:d8:4e:c4:26:c7:4a:25:
         4b:da:9b:c5:4c:c4:a6:3f:33:25:51:f5:76:0c:ff:59:34:e4:
         3e:05:33:a0:5c:5a:73:5a:05:a5:49:c7:1b:92:0d:e3:d5:08:
         17:c3:d6:54:c1:6f:bc:ac:56:2c:f7:3e:25:7e:f1:06:e5:bb:
         e2:33:14:c4:3b:73:a2:9e:27:2b:fe:54:09:bc:98:32:03:00:
         55:ac:03:78:c5:3d:bb:a9:ea:b5:da:71:c8:8b:be:72:c8:31:
         b5:04:c8:5a:00:27:d2:d4:ca:3f:62:6d:1e:36:bd:b2:70:8f:
         38:2c:26:d6:c2:cc:9a:bd:b9:45:8d:3e:6d:96:03:a4:55:ce:
         a5:bc:fd:18:73:10:0a:4a:81:e1:8f:43:1b:c8:59:e2:68:08:
         87:4d:65:48:f6:e3:f3:ed:9c:60:82:e1:fd:14:5b:d5:6b:c3:
         7a:fa:ba:f6:4e:ee:3d:d7:bd:f6:06:97:3d:f5:8c:ee:b7:f8:
         08:1a:19:04:12:67:59:7a:46:1c:61:08:b8:b8:b2:a1:0d:87:
         5c:a3:f0:44:cb:d5:34:e9:6c:13:ba:90:ee:02:3d:63:06:f0:
         dd:85:d2:19:76:96:e8:2c:5c:db:40:62:af:f8:56:48:91:88:
         1b:29:1a:e1:dc:10:87:f0
-----BEGIN CERTIFICATE-----
MIIGhjCCBG6gAwIBAgICAQQwDQYJKoZIhvcNAQELBQAwezELMAkGA1UEBhMCZnIx
DDAKBgNVBAgMA2lkZjEOMAwGA1UEBwwFcGFyaXMxDjAMBgNVBAoMBXZpdGFtMRQw
EgYDVQQLDAthdXRob3JpdGllczEoMCYGA1UEAwwfY2FfaW50ZXJtZWRpYXRlX2Ns
aWVudC1leHRlcm5hbDAeFw0xODAyMDUxMjU3MzRaFw0yMTAyMDQxMjU3MzRaMFUx
CzAJBgNVBAYTAmZyMQwwCgYDVQQIDANpZGYxDjAMBgNVBAcMBXBhcmlzMQ4wDAYD
VQQKDAV2aXRhbTEYMBYGA1UEAwwPdml0YW0tYWRtaW4taW50MIICIjANBgkqhkiG
9w0BAQEFAAOCAg8AMIICCgKCAgEAv+fD9YvHVdpc0n+u7PeJxjMnDOtzxrHOehOV
0wA8XJoIU2hKVBAGUliLJ+n1SzNTzA2G9Ftk794BlbbbbpfE+a1MrfrIyoaklkgs
ZKBBoizeAc2KYFw2nLwSGMnd3Y5PBtZFFTUQrkeiMRW+AStdd7mPyo47O48Zfoga
nVFzemWrcxJ0dmvIjcRzoJNLLup/HZse8OZmjzPn94E/QZm1mOu6VZ1UuQ10g4+7
tRDcb3oaf60LW7eOBGO7Ns9czwk63Cv+GoQftc1ZT5R7FgNtihZgaEluDwtaDqx8
zgExhXIqCm/pDc/lTnFUPhnsD6pWxUuJRPXBHyym3JgfZOeDVk602glwMsgoYEH0
uFvS1jdcHdqmZFmHtECDZYD1zlsAT56MLue6rBo0gENpxkDfVCUi6YsuYCtOmQJl
EznhPIppmjg0RUhoNWi/69EppdAgIr2LZMoW19XAVeeNx1qUDJj242S5SKG25lYv
ajFjUQQVxhCe/l/HF6azW+OtbvIg48A6KfnL3wGKlMAMKFJ5dV82lrZiAaTMku64
+Xi4uVfMUWVbaJdNsgOokIYGJi+Bzrc2bWHJWIzTkKKTUHBNTsvewaejm2eDf1ko
5VlpJbk4DIBpi0VojIG2bzQyymKg2Gyf1rKBPyN1cEuewH8osuBlsBkBP9zHrsAX
IwVaxxMCAwEAAaOCATgwggE0MCQGCWCGSAGG+EIBDQQXFhVDZXJ0aWZpY2F0IENs
aWVudCBTU0wwHQYDVR0OBBYEFPDTVqruhLJMBbaIcutzYgkL1/s+MIGeBgNVHSME
gZYwgZOAFJlO/bp9z+7hqer12nO9StFG2td8oXekdTBzMQswCQYDVQQGEwJmcjEM
MAoGA1UECAwDaWRmMQ4wDAYDVQQHDAVwYXJpczEOMAwGA1UECgwFdml0YW0xFDAS
BgNVBAsMC2F1dGhvcml0aWVzMSAwHgYDVQQDDBdjYV9yb290X2NsaWVudC1leHRl
cm5hbIICAPwwCQYDVR0SBAIwADAMBgNVHRMBAf8EAjAAMAsGA1UdDwQEAwIF4DAR
BglghkgBhvhCAQEEBAMCB4AwEwYDVR0lBAwwCgYIKwYBBQUHAwIwDQYJKoZIhvcN
AQELBQADggIBACZdn4I3VkU8AgdxLLEASF1vszxE29QIkzJoAS4g39yx4xQg+bGQ
vfLeppLCJ5ITEOWv7EUg/45OijdoGtcs2fEZA9aBJHXxFXf0ESOAOSP6VzAtyOKP
5NQWW1/+xYgFzSoWkDKwife5vFyPqleuLCHJNRBwVQduDcV2X2MCROo9fIHA5Z+I
gs+MywHpRNaTnX+zN6XY0Ha9nRJgZCUU9DGxe8ZfrbAz4vixX7JnfmHrpn3YNKDO
oXMIcEzzfODiFxq8nUTtDtkUi5TzKQCTbEt7KjmS/pk+bxGMJqzBW/qvxOtWa97F
Km/5OZnf8btj+Z5VUnlPbIfyRrEki5lSSHjn1BQkX1K+2E7EJsdKJUvam8VMxKY/
MyVR9XYM/1k05D4FM6BcWnNaBaVJxxuSDePVCBfD1lTBb7ysViz3PiV+8Qblu+Iz
FMQ7c6KeJyv+VAm8mDIDAFWsA3jFPbup6rXacciLvnLIMbUEyFoAJ9LUyj9ibR42
vbJwjzgsJtbCzJq9uUWNPm2WA6RVzqW8/RhzEApKgeGPQxvIWeJoCIdNZUj24/Pt
nGCC4f0UW9Vrw3r6uvZO7j3XvfYGlz31jO63+AgaGQQSZ1l6RhxhCLi4sqENh1yj
8ETL1TTpbBO6kO4CPWMG8N2F0hl2lugsXNtAYq/4VkiRiBspGuHcEIfw
-----END CERTIFICATE-----
