Certificate:
    Data:
        Version: 3 (0x2)
        Serial Number: 320 (0x140)
        Signature Algorithm: sha256WithRSAEncryption
        Issuer: C=fr, ST=idf, L=paris, O=vitam, OU=authorities, CN=ca_intermediate_client-external
        Validity
            Not Before: Jan 12 16:13:03 2022 GMT
            Not After : Jan 11 16:13:03 2025 GMT
        Subject: C=fr, ST=idf, L=paris, O=vitam, CN=vitam-admin-int
        Subject Public Key Info:
            Public Key Algorithm: rsaEncryption
                RSA Public-Key: (4096 bit)
                Modulus:
                    00:e9:fa:1e:b4:ea:9a:9e:a8:72:d1:9e:99:d4:b2:
                    6b:f5:98:f5:0b:db:fe:0f:60:c2:79:5d:92:3f:e3:
                    2c:9a:ee:35:bd:26:bf:67:30:ee:ba:2f:61:ef:60:
                    a7:1d:e6:12:97:50:fb:1c:c8:38:da:77:b3:3d:0d:
                    ba:f5:da:df:c4:11:a5:31:99:bb:23:0e:f2:ec:68:
                    65:0d:f8:de:ee:42:7d:76:9e:11:f4:f0:17:ff:33:
                    e3:02:f7:ea:40:c6:82:06:bb:eb:7f:c9:de:b0:b7:
                    79:33:51:75:59:01:64:8d:15:3d:0e:82:cc:1a:09:
                    c1:9c:7b:5a:64:78:21:ac:0d:20:e4:d4:43:46:34:
                    5e:5b:16:97:30:e7:63:02:70:1b:a3:01:e6:43:36:
                    40:b9:7d:16:ed:ba:1c:1d:4d:a6:ed:23:3f:41:1c:
                    e0:03:66:43:0d:d5:69:2c:82:b2:dd:6e:66:f2:3f:
                    ae:1b:10:3e:cb:53:85:5e:57:12:51:c3:ce:91:9f:
                    46:49:65:05:f7:62:0e:72:3d:3d:54:27:2b:95:93:
                    66:05:e9:33:9e:bd:56:2e:0a:cb:23:88:8c:aa:d3:
                    fd:a1:2c:09:93:f9:13:0b:ec:e1:7d:13:19:6a:e6:
                    25:fc:30:9e:1c:75:b3:91:a1:e4:8b:a9:20:37:c8:
                    35:c5:19:bb:a9:0e:b0:ac:ed:7b:50:f4:b8:76:d5:
                    d8:bb:2e:c9:48:44:b4:b8:eb:7d:31:8f:84:81:45:
                    9e:c4:6c:67:bd:f0:3a:3f:37:4f:cd:f9:38:b3:b9:
                    e5:67:b8:5a:a2:18:77:e3:21:e1:ee:c5:cb:7f:42:
                    61:e4:70:dd:f4:75:05:01:dd:06:8e:d7:c3:b0:5c:
                    77:19:e4:d6:b4:89:62:39:83:4a:73:c0:1b:95:30:
                    dc:e2:45:c0:1e:98:cd:f2:26:d3:ba:ef:42:23:8b:
                    5b:23:27:a8:cf:f4:a2:a8:4c:64:8e:58:92:94:3e:
                    f4:11:1b:cc:9c:52:cb:83:45:16:4d:54:3b:c8:b3:
                    41:6e:6f:1b:1a:7b:b6:56:bd:85:d2:91:f9:84:a6:
                    8d:69:d7:28:60:61:0a:a5:d1:4d:d7:9a:7b:6c:c0:
                    9f:5c:78:97:00:e2:36:19:ff:19:59:c6:92:13:e8:
                    f3:1d:07:5b:4b:0f:6c:f7:8f:23:2a:a9:06:c3:4a:
                    23:c4:1d:0b:59:7b:09:3e:27:11:07:47:f1:22:ed:
                    6b:6f:35:4c:39:e5:c8:58:50:16:8e:61:b4:97:13:
                    24:88:ba:ef:8b:a7:fd:87:0c:d4:46:97:82:30:46:
                    99:70:cb:ac:dd:b8:ab:41:2b:57:a0:1a:a1:75:9d:
                    81:b6:d9
                Exponent: 65537 (0x10001)
        X509v3 extensions:
            Netscape Comment: 
                Certificat Client SSL
            X509v3 Subject Key Identifier: 
                2A:54:D9:AE:3B:B9:BB:6D:81:A8:9B:23:19:83:09:9E:55:47:6F:51
            X509v3 Authority Key Identifier: 
                keyid:D1:7F:00:C3:F0:94:D6:CB:E3:AE:F7:23:18:2E:1E:BA:53:66:F2:F8
                DirName:/C=fr/ST=idf/L=paris/O=vitam/OU=authorities/CN=ca_root_client-external
                serial:01:2D

            X509v3 Issuer Alternative Name: 
                <EMPTY>

            X509v3 Basic Constraints: critical
                CA:FALSE
            X509v3 Key Usage: 
                Digital Signature
            Netscape Cert Type: 
                SSL Client
            X509v3 Extended Key Usage: 
                TLS Web Client Authentication
    Signature Algorithm: sha256WithRSAEncryption
         b0:b1:68:02:d4:a7:2b:09:26:d2:3a:76:12:91:b7:54:ab:59:
         3a:be:17:af:bc:e5:3a:3d:64:ca:a1:b5:58:09:ae:af:62:85:
         0c:37:4a:7c:17:92:9d:37:b0:d3:b7:94:36:ec:67:fd:af:a3:
         b5:67:45:0e:e4:f8:e7:1c:14:00:b3:2c:7a:05:ac:72:78:f0:
         76:c2:31:af:ca:2b:12:86:ef:3f:8d:1a:12:53:85:7d:3b:3a:
         2e:2c:81:f0:d5:d4:a9:ae:70:c5:e4:b5:9e:be:75:33:ea:e0:
         69:d5:03:14:5f:3a:50:69:28:fa:89:19:6d:2c:b6:ab:1a:42:
         47:bc:f2:76:a0:01:f9:27:0e:2c:4e:29:c7:a6:a9:8c:2e:c0:
         27:c9:15:a1:3e:79:8e:8e:b5:86:1c:cb:45:d0:b5:03:e1:55:
         16:18:aa:81:5e:bc:a1:1b:38:13:8f:08:53:a9:30:b0:f4:a5:
         6b:23:06:85:e7:e9:21:f1:5d:e0:e5:a8:8d:04:0a:3b:84:2f:
         4a:b9:1c:eb:9e:a2:29:0e:53:da:2b:1d:0e:f6:cc:e9:cd:f5:
         c6:4d:f5:c2:e7:56:c6:7b:ef:c6:43:af:a5:21:09:af:d6:8e:
         fb:81:10:36:47:3f:b6:e9:5c:1a:b6:92:3e:ec:cb:43:01:2b:
         6a:d1:ed:3f:0b:79:20:b7:df:5c:84:d0:b5:fb:4b:d3:2f:37:
         93:47:26:93:75:26:67:24:87:8c:8a:dc:d1:68:f6:0f:76:19:
         fa:e6:b3:23:48:e2:eb:2c:b0:eb:ff:5e:b1:96:4a:b4:a7:05:
         c0:74:3f:b0:30:eb:0c:b0:3e:92:1c:96:bd:80:55:df:53:06:
         48:8d:77:01:67:6c:d7:04:60:4f:8f:13:16:45:b3:7b:6c:65:
         45:f8:73:c1:e6:d6:e1:ec:8e:61:2d:62:d3:4b:8c:ff:7a:00:
         b9:a0:b6:63:12:b9:76:2c:bd:7d:e8:67:1a:18:3e:b2:09:3d:
         41:1e:46:a0:27:1c:b0:0a:4b:8c:47:8f:be:41:bb:99:df:af:
         2e:09:67:7d:a3:58:bd:41:e7:59:44:ac:c0:d3:bc:ff:fb:c3:
         76:c4:28:c8:5d:60:8a:7a:b3:84:5d:6a:cd:63:5a:be:b6:0b:
         76:39:7d:63:8c:1c:f2:29:dc:6e:aa:eb:21:c9:13:83:45:10:
         14:76:1e:de:3e:32:c3:ef:aa:38:9a:52:d0:b6:28:3f:5a:5e:
         c8:18:2c:8f:e7:4b:20:23:ba:73:0e:15:35:8c:de:5c:09:b1:
         f0:74:ab:eb:cc:c5:18:49:d1:e1:c4:fc:f2:2c:9f:f6:38:80:
         7b:92:20:a5:6f:4e:47:65
-----BEGIN CERTIFICATE-----
MIIGhjCCBG6gAwIBAgICAUAwDQYJKoZIhvcNAQELBQAwezELMAkGA1UEBhMCZnIx
DDAKBgNVBAgMA2lkZjEOMAwGA1UEBwwFcGFyaXMxDjAMBgNVBAoMBXZpdGFtMRQw
EgYDVQQLDAthdXRob3JpdGllczEoMCYGA1UEAwwfY2FfaW50ZXJtZWRpYXRlX2Ns
aWVudC1leHRlcm5hbDAeFw0yMjAxMTIxNjEzMDNaFw0yNTAxMTExNjEzMDNaMFUx
CzAJBgNVBAYTAmZyMQwwCgYDVQQIDANpZGYxDjAMBgNVBAcMBXBhcmlzMQ4wDAYD
VQQKDAV2aXRhbTEYMBYGA1UEAwwPdml0YW0tYWRtaW4taW50MIICIjANBgkqhkiG
9w0BAQEFAAOCAg8AMIICCgKCAgEA6foetOqanqhy0Z6Z1LJr9Zj1C9v+D2DCeV2S
P+Msmu41vSa/ZzDuui9h72CnHeYSl1D7HMg42nezPQ269drfxBGlMZm7Iw7y7Ghl
Dfje7kJ9dp4R9PAX/zPjAvfqQMaCBrvrf8nesLd5M1F1WQFkjRU9DoLMGgnBnHta
ZHghrA0g5NRDRjReWxaXMOdjAnAbowHmQzZAuX0W7bocHU2m7SM/QRzgA2ZDDdVp
LIKy3W5m8j+uGxA+y1OFXlcSUcPOkZ9GSWUF92IOcj09VCcrlZNmBekznr1WLgrL
I4iMqtP9oSwJk/kTC+zhfRMZauYl/DCeHHWzkaHki6kgN8g1xRm7qQ6wrO17UPS4
dtXYuy7JSES0uOt9MY+EgUWexGxnvfA6PzdPzfk4s7nlZ7haohh34yHh7sXLf0Jh
5HDd9HUFAd0GjtfDsFx3GeTWtIliOYNKc8AblTDc4kXAHpjN8ibTuu9CI4tbIyeo
z/SiqExkjliSlD70ERvMnFLLg0UWTVQ7yLNBbm8bGnu2Vr2F0pH5hKaNadcoYGEK
pdFN15p7bMCfXHiXAOI2Gf8ZWcaSE+jzHQdbSw9s948jKqkGw0ojxB0LWXsJPicR
B0fxIu1rbzVMOeXIWFAWjmG0lxMkiLrvi6f9hwzURpeCMEaZcMus3birQStXoBqh
dZ2BttkCAwEAAaOCATgwggE0MCQGCWCGSAGG+EIBDQQXFhVDZXJ0aWZpY2F0IENs
aWVudCBTU0wwHQYDVR0OBBYEFCpU2a47ubttgaibIxmDCZ5VR29RMIGeBgNVHSME
gZYwgZOAFNF/AMPwlNbL4673IxguHrpTZvL4oXekdTBzMQswCQYDVQQGEwJmcjEM
MAoGA1UECAwDaWRmMQ4wDAYDVQQHDAVwYXJpczEOMAwGA1UECgwFdml0YW0xFDAS
BgNVBAsMC2F1dGhvcml0aWVzMSAwHgYDVQQDDBdjYV9yb290X2NsaWVudC1leHRl
cm5hbIICAS0wCQYDVR0SBAIwADAMBgNVHRMBAf8EAjAAMAsGA1UdDwQEAwIHgDAR
BglghkgBhvhCAQEEBAMCB4AwEwYDVR0lBAwwCgYIKwYBBQUHAwIwDQYJKoZIhvcN
AQELBQADggIBALCxaALUpysJJtI6dhKRt1SrWTq+F6+85To9ZMqhtVgJrq9ihQw3
SnwXkp03sNO3lDbsZ/2vo7VnRQ7k+OccFACzLHoFrHJ48HbCMa/KKxKG7z+NGhJT
hX07Oi4sgfDV1KmucMXktZ6+dTPq4GnVAxRfOlBpKPqJGW0stqsaQke88nagAfkn
DixOKcemqYwuwCfJFaE+eY6OtYYcy0XQtQPhVRYYqoFevKEbOBOPCFOpMLD0pWsj
BoXn6SHxXeDlqI0ECjuEL0q5HOueoikOU9orHQ72zOnN9cZN9cLnVsZ778ZDr6Uh
Ca/WjvuBEDZHP7bpXBq2kj7sy0MBK2rR7T8LeSC331yE0LX7S9MvN5NHJpN1Jmck
h4yK3NFo9g92GfrmsyNI4usssOv/XrGWSrSnBcB0P7Aw6wywPpIclr2AVd9TBkiN
dwFnbNcEYE+PExZFs3tsZUX4c8Hm1uHsjmEtYtNLjP96ALmgtmMSuXYsvX3oZxoY
PrIJPUEeRqAnHLAKS4xHj75Bu5nfry4JZ32jWL1B51lErMDTvP/7w3bEKMhdYIp6
s4Rdas1jWr62C3Y5fWOMHPIp3G6q6yHJE4NFEBR2Ht4+MsPvqjiaUtC2KD9aXsgY
LI/nSyAjunMOFTWM3lwJsfB0q+vMxRhJ0eHE/PIsn/Y4gHuSIKVvTkdl
-----END CERTIFICATE-----
