Certificate:
    Data:
        Version: 3 (0x2)
        Serial Number: 315 (0x13b)
        Signature Algorithm: sha256WithRSAEncryption
        Issuer: C=fr, ST=idf, L=paris, O=vitam, OU=authorities, CN=ca_intermediate_client-external
        Validity
            Not Before: Nov 10 14:35:55 2021 GMT
            Not After : Nov  9 14:35:55 2024 GMT
        Subject: C=fr, ST=idf, L=paris, O=vitam, CN=vitam-admin-int
        Subject Public Key Info:
            Public Key Algorithm: rsaEncryption
                RSA Public-Key: (4096 bit)
                Modulus:
                    00:cc:79:8f:14:a0:ed:33:7f:d2:64:df:1e:4c:db:
                    35:b6:5a:7d:dd:c3:b9:e1:c3:3f:dc:26:e4:e9:34:
                    5d:4b:02:7a:34:24:ba:16:dc:cc:80:be:cf:48:12:
                    6e:24:ce:5e:f7:35:40:7b:9b:75:24:34:8e:89:7a:
                    4f:c0:ba:1e:4f:e0:7a:a2:71:9d:be:e6:3b:8b:5b:
                    29:dc:36:36:e1:b5:03:70:bb:70:fe:ae:00:d4:84:
                    06:e8:67:6d:44:e5:d5:0f:da:a5:b9:70:07:37:b5:
                    5e:97:62:4f:01:17:c3:bd:ce:20:ed:ce:97:a3:d5:
                    bf:d8:cb:72:84:46:75:74:35:1d:42:d2:e9:fa:45:
                    c7:91:60:b7:14:87:8a:1d:c2:d4:18:86:f2:d0:bb:
                    52:a4:d4:8e:7a:d4:54:c3:12:f8:4c:a4:de:1f:be:
                    a6:bf:86:b5:8c:7f:42:26:43:33:94:31:d5:02:b4:
                    ce:d0:e7:ff:0e:c4:c5:52:84:9e:9d:26:05:35:f4:
                    1e:51:98:c5:b8:35:33:f7:a9:e8:bf:5c:7c:1b:1d:
                    7f:84:ed:39:a9:d1:e2:d9:d9:5e:c6:5d:b7:b7:4c:
                    81:1c:cd:9e:df:5c:52:fb:2d:8d:03:6e:69:ce:45:
                    17:5c:c4:43:9f:f3:53:b7:b6:c5:83:f2:a6:2a:5c:
                    78:06:3d:d9:e2:cd:bf:14:d3:bc:3b:4a:1a:4a:92:
                    5b:c2:9c:7e:c8:db:25:e4:2b:ba:c4:85:63:2c:94:
                    8c:fc:8b:55:17:7d:40:e9:ac:f1:7c:d9:a7:59:65:
                    92:48:84:9d:82:7b:1e:fa:86:e0:0f:fd:5a:5c:6b:
                    d3:19:91:60:6c:bd:9e:b9:e0:23:fd:19:1b:f9:b1:
                    9c:b1:dd:dc:51:df:95:f5:d2:3a:a1:96:80:fd:68:
                    57:7c:3e:e1:84:71:bd:86:b1:69:0c:57:59:94:b0:
                    34:a4:f2:eb:83:fc:e0:6c:e2:69:58:7c:1a:52:e3:
                    0a:72:b0:82:c9:4b:51:50:6d:b5:e5:bd:82:4b:22:
                    13:dc:3d:69:be:ef:17:93:95:b6:f0:60:95:63:87:
                    f5:03:26:cb:9d:09:84:7b:5d:c6:8d:0b:d8:44:71:
                    bf:14:ef:2c:ef:c3:2f:51:38:7f:dc:b6:1c:5f:e8:
                    23:8a:02:f4:23:80:49:85:9a:cd:ac:ee:9a:0a:31:
                    04:04:82:cd:e7:42:3b:91:ad:5a:a5:58:d0:9d:e0:
                    34:16:f1:ad:05:b4:98:17:8e:4f:fe:ea:f6:87:71:
                    10:df:ad:5f:56:0c:ee:06:b3:13:0f:82:e6:91:81:
                    bf:c1:67:59:7d:c8:a8:8e:0f:f9:bb:6e:0c:91:22:
                    eb:d1:7f
                Exponent: 65537 (0x10001)
        X509v3 extensions:
            Netscape Comment: 
                Certificat Client SSL
            X509v3 Subject Key Identifier: 
                65:CD:74:3A:12:01:C3:88:DE:CE:E6:83:E0:40:61:84:AB:C9:B1:00
            X509v3 Authority Key Identifier: 
                keyid:D1:7F:00:C3:F0:94:D6:CB:E3:AE:F7:23:18:2E:1E:BA:53:66:F2:F8
                DirName:/C=fr/ST=idf/L=paris/O=vitam/OU=authorities/CN=ca_root_client-external
                serial:01:2D

            X509v3 Issuer Alternative Name: 
                <EMPTY>

            X509v3 Basic Constraints: critical
                CA:FALSE
            X509v3 Key Usage: 
                Digital Signature
            Netscape Cert Type: 
                SSL Client
            X509v3 Extended Key Usage: 
                TLS Web Client Authentication
    Signature Algorithm: sha256WithRSAEncryption
         01:c4:1e:8a:32:a8:f4:17:df:90:49:7e:f4:19:cb:73:a3:17:
         3b:62:72:82:0a:c4:32:62:98:46:37:24:cd:ac:b0:58:08:19:
         22:7a:b5:42:2c:68:49:78:fd:18:21:d8:6e:82:9f:71:cb:f2:
         35:5b:66:76:ba:5b:f6:ed:a0:c4:c2:92:c7:f2:3e:4a:5c:f2:
         d8:38:c0:04:c5:5a:7b:4c:b4:e0:a4:98:0b:95:bb:db:d7:ae:
         d9:d9:3c:2f:f5:e3:2a:22:5e:36:bd:aa:32:92:48:0b:6c:58:
         65:0f:0a:43:0c:3c:cb:23:09:0b:75:65:46:54:e2:33:f7:de:
         62:12:e7:bc:92:3d:5f:cd:37:28:8a:b9:17:05:8f:f9:83:98:
         8b:ba:34:e1:37:7b:bf:f8:43:69:f4:cd:7c:9f:7c:4b:d6:a2:
         c4:9d:8e:e9:dd:4e:8d:5f:e6:89:11:cd:bb:96:79:6a:23:2e:
         3f:fa:19:a0:1b:f3:dc:55:06:42:e0:64:c2:59:46:21:26:7f:
         ed:8e:c8:9b:8b:76:d1:1a:62:75:5f:a6:21:f2:cd:b1:92:db:
         b4:c6:31:f9:9d:6c:f1:41:a3:11:a7:f0:ba:ec:d4:56:3a:16:
         5f:75:21:f4:8a:44:7c:ba:a0:a9:ea:36:10:b0:9e:5e:64:77:
         74:68:28:c6:aa:af:a0:99:0e:14:c1:41:ed:1d:de:7b:54:07:
         6b:19:91:63:02:d1:41:bb:bb:92:cd:f2:f3:18:6e:a3:8f:2d:
         fc:4a:d1:d8:47:3e:a2:db:0b:7d:9d:f6:5f:9d:d1:ba:e0:00:
         51:4d:44:9a:55:97:e0:df:63:a6:e7:6f:10:fb:64:0b:1d:2b:
         22:e4:bd:cd:0b:ed:6e:a3:50:12:9e:58:5e:3c:ff:38:2c:e4:
         4b:c6:cf:0b:b2:c0:ff:b6:5f:9a:c3:78:72:57:3f:03:33:b9:
         75:d7:c5:05:0f:61:70:c0:15:6f:94:37:75:ec:85:f4:75:62:
         88:ac:cc:1c:9c:ca:16:89:52:08:7a:00:b4:48:e8:64:8f:a2:
         d4:fb:8c:12:33:29:4b:8a:ed:8e:c5:82:7d:8b:ad:f8:c1:27:
         0d:96:27:b6:d9:72:1e:ea:eb:3b:10:d5:69:70:67:16:c7:28:
         27:00:7b:4a:bb:83:f8:42:aa:1a:fe:13:c4:c0:04:31:df:9d:
         22:78:e2:c3:97:cd:de:b6:19:84:30:5c:cf:36:3d:f5:a6:92:
         2f:3d:da:96:0b:da:7f:b9:8c:6e:61:c3:58:22:31:8d:e7:a8:
         d3:27:ae:34:d0:52:f6:d2:c6:31:0e:b7:a7:3f:19:d3:43:e8:
         d4:2e:4c:b5:53:5f:f0:8a
-----BEGIN CERTIFICATE-----
MIIGhjCCBG6gAwIBAgICATswDQYJKoZIhvcNAQELBQAwezELMAkGA1UEBhMCZnIx
DDAKBgNVBAgMA2lkZjEOMAwGA1UEBwwFcGFyaXMxDjAMBgNVBAoMBXZpdGFtMRQw
EgYDVQQLDAthdXRob3JpdGllczEoMCYGA1UEAwwfY2FfaW50ZXJtZWRpYXRlX2Ns
aWVudC1leHRlcm5hbDAeFw0yMTExMTAxNDM1NTVaFw0yNDExMDkxNDM1NTVaMFUx
CzAJBgNVBAYTAmZyMQwwCgYDVQQIDANpZGYxDjAMBgNVBAcMBXBhcmlzMQ4wDAYD
VQQKDAV2aXRhbTEYMBYGA1UEAwwPdml0YW0tYWRtaW4taW50MIICIjANBgkqhkiG
9w0BAQEFAAOCAg8AMIICCgKCAgEAzHmPFKDtM3/SZN8eTNs1tlp93cO54cM/3Cbk
6TRdSwJ6NCS6FtzMgL7PSBJuJM5e9zVAe5t1JDSOiXpPwLoeT+B6onGdvuY7i1sp
3DY24bUDcLtw/q4A1IQG6GdtROXVD9qluXAHN7Vel2JPARfDvc4g7c6Xo9W/2Mty
hEZ1dDUdQtLp+kXHkWC3FIeKHcLUGIby0LtSpNSOetRUwxL4TKTeH76mv4a1jH9C
JkMzlDHVArTO0Of/DsTFUoSenSYFNfQeUZjFuDUz96nov1x8Gx1/hO05qdHi2dle
xl23t0yBHM2e31xS+y2NA25pzkUXXMRDn/NTt7bFg/KmKlx4Bj3Z4s2/FNO8O0oa
SpJbwpx+yNsl5Cu6xIVjLJSM/ItVF31A6azxfNmnWWWSSISdgnse+obgD/1aXGvT
GZFgbL2eueAj/Rkb+bGcsd3cUd+V9dI6oZaA/WhXfD7hhHG9hrFpDFdZlLA0pPLr
g/zgbOJpWHwaUuMKcrCCyUtRUG215b2CSyIT3D1pvu8Xk5W28GCVY4f1AybLnQmE
e13GjQvYRHG/FO8s78MvUTh/3LYcX+gjigL0I4BJhZrNrO6aCjEEBILN50I7ka1a
pVjQneA0FvGtBbSYF45P/ur2h3EQ361fVgzuBrMTD4LmkYG/wWdZfciojg/5u24M
kSLr0X8CAwEAAaOCATgwggE0MCQGCWCGSAGG+EIBDQQXFhVDZXJ0aWZpY2F0IENs
aWVudCBTU0wwHQYDVR0OBBYEFGXNdDoSAcOI3s7mg+BAYYSrybEAMIGeBgNVHSME
gZYwgZOAFNF/AMPwlNbL4673IxguHrpTZvL4oXekdTBzMQswCQYDVQQGEwJmcjEM
MAoGA1UECAwDaWRmMQ4wDAYDVQQHDAVwYXJpczEOMAwGA1UECgwFdml0YW0xFDAS
BgNVBAsMC2F1dGhvcml0aWVzMSAwHgYDVQQDDBdjYV9yb290X2NsaWVudC1leHRl
cm5hbIICAS0wCQYDVR0SBAIwADAMBgNVHRMBAf8EAjAAMAsGA1UdDwQEAwIHgDAR
BglghkgBhvhCAQEEBAMCB4AwEwYDVR0lBAwwCgYIKwYBBQUHAwIwDQYJKoZIhvcN
AQELBQADggIBAAHEHooyqPQX35BJfvQZy3OjFzticoIKxDJimEY3JM2ssFgIGSJ6
tUIsaEl4/Rgh2G6Cn3HL8jVbZna6W/btoMTCksfyPkpc8tg4wATFWntMtOCkmAuV
u9vXrtnZPC/14yoiXja9qjKSSAtsWGUPCkMMPMsjCQt1ZUZU4jP33mIS57ySPV/N
NyiKuRcFj/mDmIu6NOE3e7/4Q2n0zXyffEvWosSdjundTo1f5okRzbuWeWojLj/6
GaAb89xVBkLgZMJZRiEmf+2OyJuLdtEaYnVfpiHyzbGS27TGMfmdbPFBoxGn8Lrs
1FY6Fl91IfSKRHy6oKnqNhCwnl5kd3RoKMaqr6CZDhTBQe0d3ntUB2sZkWMC0UG7
u5LN8vMYbqOPLfxK0dhHPqLbC32d9l+d0brgAFFNRJpVl+DfY6bnbxD7ZAsdKyLk
vc0L7W6jUBKeWF48/zgs5EvGzwuywP+2X5rDeHJXPwMzuXXXxQUPYXDAFW+UN3Xs
hfR1YoiszBycyhaJUgh6ALRI6GSPotT7jBIzKUuK7Y7Fgn2LrfjBJw2WJ7bZch7q
6zsQ1WlwZxbHKCcAe0q7g/hCqhr+E8TABDHfnSJ44sOXzd62GYQwXM82PfWmki89
2pYL2n+5jG5hw1giMY3nqNMnrjTQUvbSxjEOt6c/GdND6NQuTLVTX/CK
-----END CERTIFICATE-----
