Certificate:
    Data:
        Version: 3 (0x2)
        Serial Number: 297 (0x129)
    Signature Algorithm: sha256WithRSAEncryption
        Issuer: C=fr, ST=idf, L=paris, O=vitam, OU=authorities, CN=ca_intermediate_client-external
        Validity
            Not Before: Oct 19 08:41:05 2018 GMT
            Not After : Oct 18 08:41:05 2021 GMT
        Subject: C=fr, ST=idf, L=paris, O=vitam, CN=vitam-admin-int
        Subject Public Key Info:
            Public Key Algorithm: rsaEncryption
                Public-Key: (4096 bit)
                Modulus:
                    00:9f:99:0a:11:4e:42:c6:b2:98:08:a9:fb:bd:da:
                    b2:65:39:fa:d4:1d:a9:0c:4f:9e:04:db:bf:d2:04:
                    81:b2:11:43:bd:79:9f:06:50:58:72:a2:43:1b:e2:
                    37:ed:52:b3:d5:c2:28:6f:30:79:ba:ed:bc:57:96:
                    9e:82:8a:94:a4:88:b0:82:85:b2:08:e0:83:a8:cc:
                    38:59:ba:32:ab:d6:c5:35:0e:df:d3:2f:67:78:f9:
                    ee:fb:7b:2d:bc:34:1e:e1:f9:bb:d6:f8:14:ba:45:
                    52:4b:4d:39:fa:f6:02:0f:ab:b5:90:c7:ed:2c:ed:
                    a8:08:fa:8f:0e:37:ae:ca:8f:81:1c:09:67:0b:e0:
                    40:85:18:df:ec:47:b8:86:8d:02:e5:df:a4:26:88:
                    2a:08:8d:3a:3e:8a:ac:9d:17:cc:70:16:66:15:af:
                    f8:1c:5e:fe:20:47:77:e0:4e:20:86:ca:0b:c4:bc:
                    9c:65:f7:fb:0f:ab:44:2a:eb:91:17:8a:c6:39:6b:
                    74:af:cd:e2:cd:38:f2:5d:52:30:be:62:c3:dc:cb:
                    82:41:bf:3d:03:55:a2:db:c3:35:c1:f4:9b:fc:e5:
                    e7:b8:fd:04:68:0e:95:db:ba:c1:22:c4:5c:0b:62:
                    77:4d:6a:28:f6:e6:8f:39:4e:af:dc:e6:e7:f2:1b:
                    ac:51:b2:ad:eb:98:52:88:25:9c:aa:36:8c:6a:7b:
                    02:04:41:94:4d:70:9b:ae:b2:0c:39:96:3a:d1:19:
                    55:bd:96:a6:a4:6b:a5:12:91:a6:f0:53:bd:4b:3b:
                    eb:15:47:ae:ea:b8:37:78:a2:51:97:4c:e4:9e:d8:
                    bd:cc:31:43:96:31:2b:2c:e0:6c:02:1b:ca:0a:b6:
                    3b:bb:ae:3b:4b:4a:97:cc:09:da:73:17:1b:2d:23:
                    bb:2d:25:b9:be:89:b9:e4:24:78:f8:63:26:53:7f:
                    ff:20:5f:8a:f5:23:d7:42:31:0f:a9:39:ba:f1:0e:
                    87:2a:23:23:56:b6:a6:1c:61:b8:aa:89:cb:c6:ea:
                    e8:5b:23:f9:4b:8f:31:50:58:46:bd:4d:2c:67:3b:
                    98:6e:43:cc:45:72:ad:17:1e:b2:ed:c8:f4:f0:fc:
                    b8:87:95:72:58:3b:83:bd:07:c8:a2:f9:ae:a5:71:
                    1e:5a:b9:07:49:7b:34:e0:06:67:8e:88:b8:f1:06:
                    a4:9f:1a:fa:f1:5c:10:2d:a3:bc:0e:3a:2f:8e:c3:
                    66:42:68:f5:c1:bc:fd:94:b0:06:85:a5:1f:b4:7c:
                    8c:22:3a:34:0f:47:37:7b:e9:b7:a3:75:a4:70:46:
                    58:a9:3a:b5:f8:6b:73:eb:8f:6b:1d:82:16:c8:44:
                    4a:e3:a9
                Exponent: 65537 (0x10001)
        X509v3 extensions:
            Netscape Comment: 
                Certificat Client SSL
            X509v3 Subject Key Identifier: 
                6C:77:3C:D3:6A:A4:DF:24:44:D5:6F:7B:18:A5:6D:4A:9A:F3:D3:A7
            X509v3 Authority Key Identifier: 
                keyid:C9:3C:3C:C8:A5:F9:D0:93:F8:D5:E2:7E:36:7A:C6:91:ED:2A:7B:AC
                DirName:/C=fr/ST=idf/L=paris/O=vitam/OU=authorities/CN=ca_root_client-external
                serial:01:26

            X509v3 Issuer Alternative Name: 
                <EMPTY>

            X509v3 Basic Constraints: critical
                CA:FALSE
            X509v3 Key Usage: 
                Digital Signature
            Netscape Cert Type: 
                SSL Client
            X509v3 Extended Key Usage: 
                TLS Web Client Authentication
    Signature Algorithm: sha256WithRSAEncryption
         1a:e8:cb:a5:1d:04:58:63:bf:2f:b3:78:a0:31:8b:9a:ed:a9:
         59:2e:70:f6:85:54:63:b6:f7:15:3d:ec:60:38:ba:de:e3:06:
         c2:f3:3e:06:05:3d:dc:e0:90:78:9d:8b:ca:6d:30:b0:2b:08:
         c4:e7:b1:60:70:44:e9:ae:13:82:37:6a:6f:cd:0b:9a:3f:ad:
         ea:c9:ad:63:58:ae:a0:70:54:74:ac:cc:00:54:55:2a:9b:c9:
         24:72:00:51:d1:53:4c:04:24:a0:c6:3d:51:3f:d2:ff:0a:96:
         88:3a:f0:f4:d7:c8:72:22:29:59:cb:3c:39:c5:bd:bd:5d:54:
         90:7d:ba:f6:51:35:25:fe:95:09:6d:f9:cd:0f:23:61:62:a3:
         67:0e:7c:fc:93:38:96:d9:57:c7:f0:45:58:3e:97:e3:b8:0a:
         f7:78:bc:9f:a4:16:72:ac:9d:a4:37:07:a9:88:da:9f:aa:9c:
         c5:de:73:1b:cf:7e:78:c0:ba:94:1d:02:47:cb:ba:d1:a4:d2:
         87:b0:17:0b:fb:fa:3a:b2:24:92:23:af:0f:e7:39:ce:37:4e:
         a8:5f:ff:9c:6e:db:1b:3b:e4:66:99:24:cd:0b:b1:95:e3:2b:
         c1:d6:e2:8e:f4:62:44:f8:c1:55:6a:9c:3f:8a:80:ac:b8:c7:
         b7:5a:66:67:2a:2c:aa:9f:55:16:25:52:45:cd:0e:ea:bd:05:
         ac:54:b1:2f:04:bd:e7:43:11:9f:8b:79:6c:be:19:59:85:f4:
         0e:e7:96:1e:80:88:70:55:80:e7:c2:78:3e:c6:46:20:66:d5:
         89:be:bb:7d:91:de:41:6d:ee:7a:b9:94:73:b6:97:f5:ff:63:
         90:5a:c5:5f:d0:30:a6:28:05:ad:d3:d9:a2:d6:90:75:43:b9:
         63:ab:29:9e:e4:8a:c7:4b:1d:69:70:76:73:74:ff:ae:27:71:
         67:f8:04:0d:bf:84:3e:ad:da:ee:99:32:ce:e7:ab:99:01:a5:
         e4:ce:f7:9e:27:57:24:bd:a1:d1:e3:eb:13:98:4c:6d:c9:99:
         ce:0a:ce:04:75:77:d8:15:c3:31:e4:0a:6a:d8:53:bf:4c:53:
         54:ef:1d:0d:8d:38:e1:d4:b0:d3:69:3b:7c:9c:36:d8:9f:c6:
         aa:d5:29:ac:0d:fd:82:16:af:e1:67:2b:f2:73:4f:6a:b5:c6:
         37:f2:96:1b:72:76:8a:e7:09:f6:47:7b:78:85:aa:6f:de:61:
         eb:e9:f3:65:9d:c0:09:78:39:18:98:0d:11:57:2a:09:2b:d1:
         86:b2:90:55:79:7d:f6:6d:c9:55:03:2d:bc:e8:75:44:74:69:
         76:3e:f0:a2:bb:93:cb:88
-----BEGIN CERTIFICATE-----
MIIGhjCCBG6gAwIBAgICASkwDQYJKoZIhvcNAQELBQAwezELMAkGA1UEBhMCZnIx
DDAKBgNVBAgMA2lkZjEOMAwGA1UEBwwFcGFyaXMxDjAMBgNVBAoMBXZpdGFtMRQw
EgYDVQQLDAthdXRob3JpdGllczEoMCYGA1UEAwwfY2FfaW50ZXJtZWRpYXRlX2Ns
aWVudC1leHRlcm5hbDAeFw0xODEwMTkwODQxMDVaFw0yMTEwMTgwODQxMDVaMFUx
CzAJBgNVBAYTAmZyMQwwCgYDVQQIDANpZGYxDjAMBgNVBAcMBXBhcmlzMQ4wDAYD
VQQKDAV2aXRhbTEYMBYGA1UEAwwPdml0YW0tYWRtaW4taW50MIICIjANBgkqhkiG
9w0BAQEFAAOCAg8AMIICCgKCAgEAn5kKEU5CxrKYCKn7vdqyZTn61B2pDE+eBNu/
0gSBshFDvXmfBlBYcqJDG+I37VKz1cIobzB5uu28V5aegoqUpIiwgoWyCOCDqMw4
Wboyq9bFNQ7f0y9nePnu+3stvDQe4fm71vgUukVSS005+vYCD6u1kMftLO2oCPqP
Djeuyo+BHAlnC+BAhRjf7Ee4ho0C5d+kJogqCI06PoqsnRfMcBZmFa/4HF7+IEd3
4E4ghsoLxLycZff7D6tEKuuRF4rGOWt0r83izTjyXVIwvmLD3MuCQb89A1Wi28M1
wfSb/OXnuP0EaA6V27rBIsRcC2J3TWoo9uaPOU6v3Obn8husUbKt65hSiCWcqjaM
ansCBEGUTXCbrrIMOZY60RlVvZampGulEpGm8FO9SzvrFUeu6rg3eKJRl0zknti9
zDFDljErLOBsAhvKCrY7u647S0qXzAnacxcbLSO7LSW5vom55CR4+GMmU3//IF+K
9SPXQjEPqTm68Q6HKiMjVramHGG4qonLxuroWyP5S48xUFhGvU0sZzuYbkPMRXKt
Fx6y7cj08Py4h5VyWDuDvQfIovmupXEeWrkHSXs04AZnjoi48Qaknxr68VwQLaO8
DjovjsNmQmj1wbz9lLAGhaUftHyMIjo0D0c3e+m3o3WkcEZYqTq1+Gtz649rHYIW
yERK46kCAwEAAaOCATgwggE0MCQGCWCGSAGG+EIBDQQXFhVDZXJ0aWZpY2F0IENs
aWVudCBTU0wwHQYDVR0OBBYEFGx3PNNqpN8kRNVvexilbUqa89OnMIGeBgNVHSME
gZYwgZOAFMk8PMil+dCT+NXifjZ6xpHtKnusoXekdTBzMQswCQYDVQQGEwJmcjEM
MAoGA1UECAwDaWRmMQ4wDAYDVQQHDAVwYXJpczEOMAwGA1UECgwFdml0YW0xFDAS
BgNVBAsMC2F1dGhvcml0aWVzMSAwHgYDVQQDDBdjYV9yb290X2NsaWVudC1leHRl
cm5hbIICASYwCQYDVR0SBAIwADAMBgNVHRMBAf8EAjAAMAsGA1UdDwQEAwIHgDAR
BglghkgBhvhCAQEEBAMCB4AwEwYDVR0lBAwwCgYIKwYBBQUHAwIwDQYJKoZIhvcN
AQELBQADggIBABroy6UdBFhjvy+zeKAxi5rtqVkucPaFVGO29xU97GA4ut7jBsLz
PgYFPdzgkHidi8ptMLArCMTnsWBwROmuE4I3am/NC5o/rerJrWNYrqBwVHSszABU
VSqbySRyAFHRU0wEJKDGPVE/0v8Klog68PTXyHIiKVnLPDnFvb1dVJB9uvZRNSX+
lQlt+c0PI2Fio2cOfPyTOJbZV8fwRVg+l+O4Cvd4vJ+kFnKsnaQ3B6mI2p+qnMXe
cxvPfnjAupQdAkfLutGk0oewFwv7+jqyJJIjrw/nOc43Tqhf/5xu2xs75GaZJM0L
sZXjK8HW4o70YkT4wVVqnD+KgKy4x7daZmcqLKqfVRYlUkXNDuq9BaxUsS8EvedD
EZ+LeWy+GVmF9A7nlh6AiHBVgOfCeD7GRiBm1Ym+u32R3kFt7nq5lHO2l/X/Y5Ba
xV/QMKYoBa3T2aLWkHVDuWOrKZ7kisdLHWlwdnN0/64ncWf4BA2/hD6t2u6ZMs7n
q5kBpeTO954nVyS9odHj6xOYTG3Jmc4KzgR1d9gVwzHkCmrYU79MU1TvHQ2NOOHU
sNNpO3ycNtifxqrVKawN/YIWr+FnK/JzT2q1xjfylhtydornCfZHe3iFqm/eYevp
82WdwAl4ORiYDRFXKgkr0YaykFV5ffZtyVUDLbzodUR0aXY+8KK7k8uI
-----END CERTIFICATE-----
