Certificate:
    Data:
        Version: 3 (0x2)
        Serial Number: 252 (0xfc)
        Signature Algorithm: sha256WithRSAEncryption
        Issuer: C=fr, ST=idf, L=paris, O=vitam, OU=authorities, CN=ca_intermediate_client-storage
        Validity
            Not Before: Jan 12 16:13:09 2022 GMT
            Not After : Jan 11 16:13:09 2025 GMT
        Subject: C=fr, ST=idf, L=paris, O=vitam, CN=storage
        Subject Public Key Info:
            Public Key Algorithm: rsaEncryption
                RSA Public-Key: (4096 bit)
                Modulus:
                    00:ee:cd:c6:46:2b:4d:74:7a:3a:6f:8d:62:42:e6:
                    2e:ee:f2:bb:04:61:d8:ac:9e:30:04:d8:2f:05:a5:
                    94:c2:32:48:93:84:4a:e3:62:e3:0b:f4:f4:4b:14:
                    51:32:5c:11:e1:07:3f:72:58:5c:cb:16:ea:46:27:
                    dd:10:f4:a6:12:12:2d:d0:17:9b:47:f6:09:d9:3a:
                    ac:28:05:b4:be:e7:97:2e:ac:97:24:87:42:8e:79:
                    6a:c2:2f:5e:da:87:79:e6:c0:d4:40:47:c7:af:2e:
                    dd:cf:96:e6:01:d5:72:22:fd:60:77:84:81:ae:ef:
                    e9:05:7c:bb:57:65:91:59:fe:60:d4:46:89:53:58:
                    a0:a2:ec:a3:3f:0a:38:a5:2a:84:aa:83:fb:27:4c:
                    fd:5f:1d:dd:71:f7:b4:3b:9d:ef:58:a0:81:e0:e1:
                    0f:e0:ab:08:e2:64:e4:36:06:74:eb:16:b4:6b:88:
                    34:a0:92:85:a0:68:3d:c2:bb:82:90:72:af:35:11:
                    fa:6d:f1:65:f6:37:21:31:97:d7:32:86:df:d0:e6:
                    96:a4:64:8b:59:84:7a:0b:06:01:dd:bc:fb:1d:b6:
                    9b:6d:93:cb:60:3e:70:2f:06:f4:c1:15:ff:a1:6e:
                    51:18:f2:25:54:8c:43:56:62:d4:09:8b:74:de:30:
                    3e:32:41:a8:19:ee:5d:d3:bf:db:16:8f:db:2d:20:
                    81:57:9f:20:15:d7:0b:4b:76:db:1f:de:9c:90:f7:
                    e2:fe:83:7d:44:ce:5f:84:c1:21:3d:ac:17:d9:db:
                    58:cf:1c:ab:7b:dc:77:49:3d:c7:1c:41:0e:2c:09:
                    fe:66:63:0a:52:49:0a:e8:4c:8f:9b:bd:65:63:3c:
                    66:37:2c:74:31:d5:e0:12:75:20:71:58:03:2d:80:
                    80:14:d1:4e:32:2e:10:ff:1f:d7:15:e6:96:57:d4:
                    90:45:f5:52:25:49:b2:b5:0d:06:5f:0d:57:68:f2:
                    a5:7b:ac:fa:83:d4:0b:0c:07:f4:4e:65:c8:7b:1c:
                    db:a7:44:f0:76:41:ce:9c:67:14:0c:ff:2f:40:5c:
                    c2:3c:20:45:3d:aa:e5:8b:8d:43:33:19:13:e8:50:
                    a4:41:ca:13:51:77:80:4e:f6:eb:ca:d3:82:dc:52:
                    7b:02:e4:ec:70:d0:76:51:f4:99:42:85:06:1e:e0:
                    18:a8:2c:a4:78:b0:b2:dc:63:1c:0d:ec:33:38:a3:
                    c7:ff:61:d9:4e:0b:0c:8a:a1:4d:9e:3c:0f:e6:8a:
                    0e:98:ab:bc:75:b7:57:42:8a:fa:12:8c:b6:87:ae:
                    3a:a8:83:3d:ad:81:4c:b0:12:f4:fc:3d:ca:88:87:
                    b3:22:e3
                Exponent: 65537 (0x10001)
        X509v3 extensions:
            Netscape Comment: 
                Certificat Client SSL
            X509v3 Subject Key Identifier: 
                4E:C8:57:F4:E6:8E:B3:1D:7A:89:98:FE:43:84:99:9B:C1:58:EC:F4
            X509v3 Authority Key Identifier: 
                keyid:74:E9:8A:68:57:03:F0:99:C4:62:2B:CD:05:E2:91:ED:AF:0E:D0:24
                DirName:/C=fr/ST=idf/L=paris/O=vitam/OU=authorities/CN=ca_root_client-storage
                serial:F8

            X509v3 Issuer Alternative Name: 
                <EMPTY>

            X509v3 Basic Constraints: critical
                CA:FALSE
            X509v3 Key Usage: 
                Digital Signature
            Netscape Cert Type: 
                SSL Client
            X509v3 Extended Key Usage: 
                TLS Web Client Authentication
    Signature Algorithm: sha256WithRSAEncryption
         87:84:fa:86:55:fc:b4:86:c4:83:64:98:a5:6a:07:75:2a:96:
         ef:93:39:80:75:4b:91:d7:98:d6:0e:a3:09:d2:e6:bf:bd:8b:
         82:4f:6b:be:4f:be:81:d3:66:14:bf:6a:14:3a:82:9a:ce:44:
         c2:f0:45:ae:ab:fb:0f:91:a9:4d:e7:61:31:23:16:2e:26:ff:
         a2:b3:40:ce:07:a4:4b:50:8a:ac:56:35:23:64:00:35:67:b9:
         a0:bd:74:99:a3:42:9a:aa:d4:71:55:3e:00:43:d7:ed:bb:f3:
         18:54:f6:77:d8:f8:92:76:e1:00:97:be:ad:c3:5c:04:2d:87:
         e4:35:45:53:01:35:fa:4d:01:7e:8c:27:0b:e3:e5:7f:30:32:
         f5:86:c2:e5:be:d4:74:99:34:7e:e8:c6:7b:9a:ed:2c:7b:c0:
         2d:9e:c3:66:c3:34:3d:67:fc:49:c7:69:b4:3d:21:fd:f1:49:
         e7:4a:bb:7b:bb:60:fe:c0:5b:dd:d9:cf:d2:5c:e6:15:34:37:
         fc:da:ab:70:81:28:35:f8:89:69:2c:f1:cc:eb:9f:a4:27:44:
         c0:79:17:0c:e4:7f:d4:36:e1:21:a7:4e:f2:7d:1c:ff:d9:c8:
         71:2c:23:d5:ed:fb:d1:75:b1:b1:4e:aa:45:b9:b2:a8:ef:45:
         27:08:37:4c:80:e3:1a:fd:62:51:df:7b:11:62:9c:1d:63:38:
         7a:a4:b6:24:dd:59:24:f2:d4:2b:4b:00:04:87:8f:ef:04:23:
         e1:56:3f:e6:8f:be:36:55:d1:42:a3:39:72:40:4c:fd:58:63:
         97:91:98:fa:a1:0e:60:34:25:44:f3:07:0d:38:52:8d:1c:1e:
         d0:07:97:b9:83:01:30:0b:5e:71:13:cf:19:7f:44:ac:99:9e:
         28:4b:35:16:1a:31:d8:3a:d4:31:d5:9e:d2:72:f8:f8:c0:9a:
         ac:cb:b7:f6:55:68:78:e2:46:c1:83:dc:b0:e1:e8:7e:2c:f6:
         78:a8:fa:57:10:52:0b:c7:99:28:59:e2:ba:25:3e:2a:74:99:
         d7:76:ee:61:d8:ad:40:87:50:b0:24:d3:04:17:16:7e:2f:12:
         dd:4f:bb:e0:e3:2e:ef:ff:d9:50:2d:f3:20:cf:2a:e9:a1:a3:
         d7:49:cd:cd:14:26:85:34:91:be:55:44:0d:ba:15:b9:b9:25:
         7c:75:d2:24:14:1a:25:47:33:7d:32:f5:c7:b7:0c:b1:d5:17:
         88:ae:af:fb:9e:02:b8:96:95:f2:6c:13:22:c4:fd:e0:a3:f3:
         c1:f0:d0:dd:7b:9e:a4:6c:e7:14:25:d0:c8:77:2e:8f:95:13:
         b8:58:54:78:d2:0b:33:ea
-----BEGIN CERTIFICATE-----
MIIGfDCCBGSgAwIBAgICAPwwDQYJKoZIhvcNAQELBQAwejELMAkGA1UEBhMCZnIx
DDAKBgNVBAgMA2lkZjEOMAwGA1UEBwwFcGFyaXMxDjAMBgNVBAoMBXZpdGFtMRQw
EgYDVQQLDAthdXRob3JpdGllczEnMCUGA1UEAwweY2FfaW50ZXJtZWRpYXRlX2Ns
aWVudC1zdG9yYWdlMB4XDTIyMDExMjE2MTMwOVoXDTI1MDExMTE2MTMwOVowTTEL
MAkGA1UEBhMCZnIxDDAKBgNVBAgMA2lkZjEOMAwGA1UEBwwFcGFyaXMxDjAMBgNV
BAoMBXZpdGFtMRAwDgYDVQQDDAdzdG9yYWdlMIICIjANBgkqhkiG9w0BAQEFAAOC
Ag8AMIICCgKCAgEA7s3GRitNdHo6b41iQuYu7vK7BGHYrJ4wBNgvBaWUwjJIk4RK
42LjC/T0SxRRMlwR4Qc/clhcyxbqRifdEPSmEhIt0BebR/YJ2TqsKAW0vueXLqyX
JIdCjnlqwi9e2od55sDUQEfHry7dz5bmAdVyIv1gd4SBru/pBXy7V2WRWf5g1EaJ
U1igouyjPwo4pSqEqoP7J0z9Xx3dcfe0O53vWKCB4OEP4KsI4mTkNgZ06xa0a4g0
oJKFoGg9wruCkHKvNRH6bfFl9jchMZfXMobf0OaWpGSLWYR6CwYB3bz7HbabbZPL
YD5wLwb0wRX/oW5RGPIlVIxDVmLUCYt03jA+MkGoGe5d07/bFo/bLSCBV58gFdcL
S3bbH96ckPfi/oN9RM5fhMEhPawX2dtYzxyre9x3ST3HHEEOLAn+ZmMKUkkK6EyP
m71lYzxmNyx0MdXgEnUgcVgDLYCAFNFOMi4Q/x/XFeaWV9SQRfVSJUmytQ0GXw1X
aPKle6z6g9QLDAf0TmXIexzbp0TwdkHOnGcUDP8vQFzCPCBFParli41DMxkT6FCk
QcoTUXeATvbrytOC3FJ7AuTscNB2UfSZQoUGHuAYqCykeLCy3GMcDewzOKPH/2HZ
TgsMiqFNnjwP5ooOmKu8dbdXQor6Eoy2h646qIM9rYFMsBL0/D3KiIezIuMCAwEA
AaOCATcwggEzMCQGCWCGSAGG+EIBDQQXFhVDZXJ0aWZpY2F0IENsaWVudCBTU0ww
HQYDVR0OBBYEFE7IV/TmjrMdeomY/kOEmZvBWOz0MIGdBgNVHSMEgZUwgZKAFHTp
imhXA/CZxGIrzQXike2vDtAkoXakdDByMQswCQYDVQQGEwJmcjEMMAoGA1UECAwD
aWRmMQ4wDAYDVQQHDAVwYXJpczEOMAwGA1UECgwFdml0YW0xFDASBgNVBAsMC2F1
dGhvcml0aWVzMR8wHQYDVQQDDBZjYV9yb290X2NsaWVudC1zdG9yYWdlggIA+DAJ
BgNVHRIEAjAAMAwGA1UdEwEB/wQCMAAwCwYDVR0PBAQDAgeAMBEGCWCGSAGG+EIB
AQQEAwIHgDATBgNVHSUEDDAKBggrBgEFBQcDAjANBgkqhkiG9w0BAQsFAAOCAgEA
h4T6hlX8tIbEg2SYpWoHdSqW75M5gHVLkdeY1g6jCdLmv72Lgk9rvk++gdNmFL9q
FDqCms5EwvBFrqv7D5GpTedhMSMWLib/orNAzgekS1CKrFY1I2QANWe5oL10maNC
mqrUcVU+AEPX7bvzGFT2d9j4knbhAJe+rcNcBC2H5DVFUwE1+k0BfownC+PlfzAy
9YbC5b7UdJk0fujGe5rtLHvALZ7DZsM0PWf8ScdptD0h/fFJ50q7e7tg/sBb3dnP
0lzmFTQ3/NqrcIEoNfiJaSzxzOufpCdEwHkXDOR/1DbhIadO8n0c/9nIcSwj1e37
0XWxsU6qRbmyqO9FJwg3TIDjGv1iUd97EWKcHWM4eqS2JN1ZJPLUK0sABIeP7wQj
4VY/5o++NlXRQqM5ckBM/Vhjl5GY+qEOYDQlRPMHDThSjRwe0AeXuYMBMAtecRPP
GX9ErJmeKEs1Fhox2DrUMdWe0nL4+MCarMu39lVoeOJGwYPcsOHofiz2eKj6VxBS
C8eZKFniuiU+KnSZ13buYditQIdQsCTTBBcWfi8S3U+74OMu7//ZUC3zIM8q6aGj
10nNzRQmhTSRvlVEDboVubklfHXSJBQaJUczfTL1x7cMsdUXiK6v+54CuJaV8mwT
IsT94KPzwfDQ3XuepGznFCXQyHcuj5UTuFhUeNILM+o=
-----END CERTIFICATE-----
