Certificate:
    Data:
        Version: 3 (0x2)
        Serial Number: 233 (0xe9)
    Signature Algorithm: sha256WithRSAEncryption
        Issuer: C=fr, ST=idf, L=paris, O=vitam, OU=authorities, CN=ca_intermediate_client-storage
        Validity
            Not Before: Aug  9 16:04:57 2017 GMT
            Not After : Aug  8 16:04:57 2020 GMT
        Subject: C=fr, ST=idf, L=paris, O=vitam, CN=storage
        Subject Public Key Info:
            Public Key Algorithm: rsaEncryption
                Public-Key: (4096 bit)
                Modulus:
                    00:b8:df:d1:7e:f9:3a:ae:b8:9b:d7:ad:21:b0:f9:
                    3c:9a:b5:fd:b6:25:ae:dd:dd:57:3a:96:a1:b8:72:
                    36:68:d5:01:04:9d:5e:f8:8f:39:c7:6a:09:b6:d0:
                    ff:09:d0:75:80:14:cf:6e:86:64:39:2c:19:2e:f1:
                    4e:f6:22:6c:6e:a0:49:1e:74:90:0d:38:36:f4:b7:
                    01:8f:57:d3:1b:15:5a:00:f2:2b:4d:d8:79:72:7f:
                    6d:bc:d3:b5:d1:29:d5:21:8f:e6:1b:15:00:b3:26:
                    31:53:39:9e:b7:05:4c:38:3d:a1:58:98:d3:b4:bb:
                    be:85:87:38:59:f3:c1:6f:62:a4:94:6d:18:20:57:
                    75:40:85:cb:62:f3:70:e0:82:87:b1:15:02:52:d8:
                    2b:cb:c1:5e:32:2d:a8:2f:2e:55:de:e7:b3:17:be:
                    a4:89:db:23:da:28:e9:3f:e8:ad:a8:bd:d9:ef:be:
                    1e:6a:ef:a8:e5:3b:ea:71:77:bc:ee:ca:4c:1e:b3:
                    b7:9f:1e:7a:43:0f:c8:fe:5e:33:6d:25:e0:26:71:
                    60:d0:22:c0:43:c5:62:f3:6c:33:69:bb:a6:dd:38:
                    9b:20:3e:4d:56:74:c0:b9:6a:34:96:fb:a7:09:07:
                    22:2a:10:fd:ff:62:18:d9:36:12:32:49:96:39:81:
                    1a:6b:22:70:b5:d2:dc:56:10:86:ea:0f:ae:a7:39:
                    5b:16:8d:78:70:70:2d:20:2d:b1:7c:17:55:e1:66:
                    5e:23:16:d2:d3:b5:d1:a6:39:9e:29:06:d0:11:61:
                    a5:76:eb:6e:db:90:9e:3a:46:05:c1:d2:76:62:3d:
                    e6:48:1e:13:e1:1b:ba:e9:32:32:3e:4c:57:78:3c:
                    95:e6:90:47:37:33:15:52:c2:89:14:f0:21:99:fe:
                    77:58:0d:07:88:20:67:44:36:2d:d9:a2:b3:55:88:
                    a8:81:da:be:c9:2b:d3:ce:e3:41:e0:18:60:76:f9:
                    cd:03:90:d0:d6:0b:58:e2:34:ce:f3:88:6b:e4:dd:
                    bd:30:b9:1c:4e:fd:c5:1c:99:d7:e2:7a:69:26:9c:
                    b9:ad:46:27:48:52:17:77:b1:1c:e7:6e:73:6a:8f:
                    a8:41:7e:b4:37:b1:ad:b8:1e:ad:78:de:17:ed:b7:
                    20:a0:c0:5e:66:39:cf:ec:67:1a:12:dc:26:7d:01:
                    8e:38:f1:69:96:73:95:ec:39:4e:04:25:9a:21:e3:
                    4c:ef:71:34:75:d5:1f:dd:e8:15:e9:ec:fe:dd:bc:
                    bd:31:ba:86:db:21:64:48:00:82:07:58:f1:20:6d:
                    18:65:28:20:e0:cd:ae:11:13:67:e7:d4:62:74:1a:
                    88:39:2d
                Exponent: 65537 (0x10001)
        X509v3 extensions:
            Netscape Comment: 
                Certificat Client SSL
            X509v3 Subject Key Identifier: 
                A2:B9:D6:74:0D:F2:6B:EB:F8:E5:05:60:65:37:48:C9:F6:5C:5E:E7
            X509v3 Authority Key Identifier: 
                keyid:9D:70:15:B8:1C:45:6A:84:B6:01:1C:DA:F5:53:40:54:7B:D2:3E:C9
                DirName:/C=fr/ST=idf/L=paris/O=vitam/OU=authorities/CN=ca_root_client-storage
                serial:E8

            X509v3 Issuer Alternative Name: 
                <EMPTY>

            X509v3 Basic Constraints: critical
                CA:FALSE
            X509v3 Key Usage: 
                Digital Signature, Non Repudiation, Key Encipherment
            Netscape Cert Type: 
                SSL Client
            X509v3 Extended Key Usage: 
                TLS Web Client Authentication
    Signature Algorithm: sha256WithRSAEncryption
         ae:a8:30:13:4b:d7:25:03:3a:1a:14:73:27:cf:d2:2c:a4:42:
         48:d2:c0:51:f2:ac:a7:0e:23:49:a4:15:b9:d0:f1:b9:7e:40:
         3c:51:57:ea:81:fe:86:f0:e4:da:5d:39:7e:93:12:ae:cb:f1:
         a9:dc:c4:53:61:dc:da:82:c5:25:50:39:4a:59:64:ff:b7:71:
         8a:d1:9a:fa:ed:df:85:18:7d:71:52:22:03:03:e3:4d:f6:e8:
         24:af:f6:83:63:96:bc:55:3f:50:11:30:21:a7:fb:17:21:6c:
         7d:30:c8:5b:52:c1:10:e1:11:72:77:9d:3c:87:7d:49:c3:e0:
         d8:bc:d2:6c:bd:3a:7e:02:70:31:26:2f:b2:73:73:19:93:11:
         80:cc:f9:f2:aa:a5:f0:e0:2d:26:69:e1:f9:64:ec:bd:39:a1:
         44:0b:b9:1d:3a:ce:66:08:5f:ad:e0:ce:96:ba:e2:19:8d:49:
         5d:fd:0c:12:a5:6e:b0:10:1f:82:b6:1f:93:c8:2e:5d:b3:ee:
         2d:60:1d:12:d1:f5:50:67:d9:5e:1b:d3:a7:df:d9:21:a3:b7:
         ec:99:f7:dd:e2:04:94:c6:7e:85:0a:e6:5b:56:6f:80:d8:1b:
         9c:cc:6c:88:28:1f:89:c6:87:90:6e:46:df:00:af:ad:e6:96:
         32:09:ba:44:1e:5e:2c:b2:c3:61:17:02:86:7a:43:77:e8:e7:
         82:d4:dc:04:52:8a:48:52:92:c9:5a:2d:ac:4b:4f:d1:8a:51:
         bb:cd:c4:32:47:b6:62:e3:6c:e6:96:b7:49:e8:c7:e3:9b:cd:
         70:ab:18:3a:23:51:77:94:34:15:02:cc:02:1c:2e:79:78:22:
         7d:aa:8d:be:6d:03:20:5c:35:91:e3:a0:85:cd:c2:15:f9:3c:
         14:6c:e5:c8:ef:4b:f8:2a:00:ff:e6:14:8a:d1:2d:a7:a5:a5:
         48:37:d9:9a:27:cc:f6:f3:52:bc:70:15:42:6c:ae:a8:03:a6:
         43:d1:79:d5:bb:9f:af:9e:24:aa:f9:a8:94:a0:42:a8:e3:4c:
         21:eb:5c:d7:e7:11:9d:b3:e5:6a:72:7e:83:1e:19:a0:bc:14:
         55:da:f4:d9:d3:b8:e5:3e:b3:78:67:da:54:ee:ea:93:ee:d1:
         b7:6e:1e:8d:bb:9c:65:85:14:35:ef:be:49:95:9a:1f:e3:7b:
         a8:10:b6:f4:ae:41:b0:1e:6b:f9:9a:c0:35:15:d5:2c:89:2e:
         f5:d2:57:52:bc:66:36:06:64:0b:36:7c:be:ff:bd:75:36:ff:
         2c:04:77:b6:2a:13:99:8d:50:c4:0e:a6:58:70:0f:0c:d3:33:
         5f:cb:51:52:84:74:45:71
-----BEGIN CERTIFICATE-----
MIIGfDCCBGSgAwIBAgICAOkwDQYJKoZIhvcNAQELBQAwejELMAkGA1UEBhMCZnIx
DDAKBgNVBAgMA2lkZjEOMAwGA1UEBwwFcGFyaXMxDjAMBgNVBAoMBXZpdGFtMRQw
EgYDVQQLDAthdXRob3JpdGllczEnMCUGA1UEAwweY2FfaW50ZXJtZWRpYXRlX2Ns
aWVudC1zdG9yYWdlMB4XDTE3MDgwOTE2MDQ1N1oXDTIwMDgwODE2MDQ1N1owTTEL
MAkGA1UEBhMCZnIxDDAKBgNVBAgMA2lkZjEOMAwGA1UEBwwFcGFyaXMxDjAMBgNV
BAoMBXZpdGFtMRAwDgYDVQQDDAdzdG9yYWdlMIICIjANBgkqhkiG9w0BAQEFAAOC
Ag8AMIICCgKCAgEAuN/Rfvk6rrib160hsPk8mrX9tiWu3d1XOpahuHI2aNUBBJ1e
+I85x2oJttD/CdB1gBTPboZkOSwZLvFO9iJsbqBJHnSQDTg29LcBj1fTGxVaAPIr
Tdh5cn9tvNO10SnVIY/mGxUAsyYxUzmetwVMOD2hWJjTtLu+hYc4WfPBb2KklG0Y
IFd1QIXLYvNw4IKHsRUCUtgry8FeMi2oLy5V3uezF76kidsj2ijpP+itqL3Z774e
au+o5TvqcXe87spMHrO3nx56Qw/I/l4zbSXgJnFg0CLAQ8Vi82wzabum3TibID5N
VnTAuWo0lvunCQciKhD9/2IY2TYSMkmWOYEaayJwtdLcVhCG6g+upzlbFo14cHAt
IC2xfBdV4WZeIxbS07XRpjmeKQbQEWGldutu25CeOkYFwdJ2Yj3mSB4T4Ru66TIy
PkxXeDyV5pBHNzMVUsKJFPAhmf53WA0HiCBnRDYt2aKzVYiogdq+ySvTzuNB4Bhg
dvnNA5DQ1gtY4jTO84hr5N29MLkcTv3FHJnX4nppJpy5rUYnSFIXd7Ec525zao+o
QX60N7GtuB6teN4X7bcgoMBeZjnP7GcaEtwmfQGOOPFplnOV7DlOBCWaIeNM73E0
ddUf3egV6ez+3by9MbqG2yFkSACCB1jxIG0YZSgg4M2uERNn59RidBqIOS0CAwEA
AaOCATcwggEzMCQGCWCGSAGG+EIBDQQXFhVDZXJ0aWZpY2F0IENsaWVudCBTU0ww
HQYDVR0OBBYEFKK51nQN8mvr+OUFYGU3SMn2XF7nMIGdBgNVHSMEgZUwgZKAFJ1w
FbgcRWqEtgEc2vVTQFR70j7JoXakdDByMQswCQYDVQQGEwJmcjEMMAoGA1UECAwD
aWRmMQ4wDAYDVQQHDAVwYXJpczEOMAwGA1UECgwFdml0YW0xFDASBgNVBAsMC2F1
dGhvcml0aWVzMR8wHQYDVQQDDBZjYV9yb290X2NsaWVudC1zdG9yYWdlggIA6DAJ
BgNVHRIEAjAAMAwGA1UdEwEB/wQCMAAwCwYDVR0PBAQDAgXgMBEGCWCGSAGG+EIB
AQQEAwIHgDATBgNVHSUEDDAKBggrBgEFBQcDAjANBgkqhkiG9w0BAQsFAAOCAgEA
rqgwE0vXJQM6GhRzJ8/SLKRCSNLAUfKspw4jSaQVudDxuX5APFFX6oH+hvDk2l05
fpMSrsvxqdzEU2Hc2oLFJVA5Sllk/7dxitGa+u3fhRh9cVIiAwPjTfboJK/2g2OW
vFU/UBEwIaf7FyFsfTDIW1LBEOERcnedPId9ScPg2LzSbL06fgJwMSYvsnNzGZMR
gMz58qql8OAtJmnh+WTsvTmhRAu5HTrOZghfreDOlrriGY1JXf0MEqVusBAfgrYf
k8guXbPuLWAdEtH1UGfZXhvTp9/ZIaO37Jn33eIElMZ+hQrmW1ZvgNgbnMxsiCgf
icaHkG5G3wCvreaWMgm6RB5eLLLDYRcChnpDd+jngtTcBFKKSFKSyVotrEtP0YpR
u83EMke2YuNs5pa3SejH45vNcKsYOiNRd5Q0FQLMAhwueXgifaqNvm0DIFw1keOg
hc3CFfk8FGzlyO9L+CoA/+YUitEtp6WlSDfZmifM9vNSvHAVQmyuqAOmQ9F51buf
r54kqvmolKBCqONMIetc1+cRnbPlanJ+gx4ZoLwUVdr02dO45T6zeGfaVO7qk+7R
t24ejbucZYUUNe++SZWaH+N7qBC29K5BsB5r+ZrANRXVLIku9dJXUrxmNgZkCzZ8
vv+9dTb/LAR3tioTmY1QxA6mWHAPDNMzX8tRUoR0RXE=
-----END CERTIFICATE-----
