Certificate:
    Data:
        Version: 3 (0x2)
        Serial Number: 243 (0xf3)
    Signature Algorithm: sha256WithRSAEncryption
        Issuer: C=fr, ST=idf, L=paris, O=vitam, OU=authorities, CN=ca_intermediate_client-storage
        Validity
            Not Before: Feb 22 16:37:12 2018 GMT
            Not After : Feb 21 16:37:12 2021 GMT
        Subject: C=fr, ST=idf, L=paris, O=vitam, CN=storage
        Subject Public Key Info:
            Public Key Algorithm: rsaEncryption
                Public-Key: (4096 bit)
                Modulus:
                    00:e9:56:8a:16:9a:bf:57:ba:39:e0:19:1c:d6:bf:
                    22:3b:ee:fd:4a:e8:5a:e4:97:1d:db:c2:e5:fd:b1:
                    d3:01:75:fd:d5:d3:87:39:32:53:70:8c:e3:c7:b6:
                    31:56:4b:33:12:fc:ea:5e:10:93:a6:45:21:87:91:
                    34:ee:53:83:34:05:7a:ea:33:3b:a1:c7:cf:a4:e8:
                    26:ff:3f:69:74:b5:bc:0f:7e:8e:54:bb:00:2f:9d:
                    e3:7f:8a:6a:4e:ff:ca:01:37:e8:8f:eb:24:9c:aa:
                    85:66:bf:06:1e:c6:de:69:3e:3f:f4:b5:3b:f0:4c:
                    05:5c:ee:50:46:97:82:b6:84:5b:65:7f:69:55:81:
                    f3:8e:0e:2d:0c:8d:94:ee:3d:ca:db:45:3c:2a:c0:
                    5e:26:ee:47:14:08:5a:13:21:2c:21:73:13:a0:ea:
                    c2:55:1e:79:8b:24:72:3f:6c:e7:82:4a:67:3b:1c:
                    de:42:dc:ac:ce:be:cc:54:64:62:c2:30:1b:68:14:
                    3e:d4:68:39:28:9b:b6:e0:dd:9f:97:e2:86:9e:51:
                    23:f5:cd:fd:cc:cd:0b:51:68:93:66:fe:73:49:3f:
                    66:70:2e:d5:7c:de:a9:04:7a:6d:cd:f0:fa:42:84:
                    e6:b5:5e:27:ba:82:5e:b5:82:b5:0d:0e:b3:e1:24:
                    ca:52:01:6d:e8:9b:cf:e3:04:22:dd:50:3e:7d:a1:
                    fe:47:e5:83:04:83:9e:f7:6c:3b:81:75:52:75:d8:
                    d0:04:9b:fe:43:88:ae:71:5d:f3:27:c0:95:bf:be:
                    1f:ca:47:60:3d:dc:37:52:57:f8:41:e3:4e:a5:39:
                    3d:b0:cb:eb:f7:33:cf:5e:e1:fa:33:70:f1:92:7e:
                    a8:72:29:2b:72:1a:62:cf:b6:a0:d5:89:c1:88:51:
                    fa:f1:c2:40:1a:86:7f:37:e5:0a:b1:5a:aa:19:96:
                    60:54:95:f1:2a:0d:d7:7b:29:bf:86:41:66:04:9a:
                    63:7b:30:b1:96:b1:55:d4:49:65:bf:e3:d4:7f:93:
                    23:f7:94:4e:dd:48:ad:fe:17:22:44:8e:ed:28:5b:
                    a3:d0:f4:9e:5f:42:20:b6:c1:d9:e4:71:d0:59:67:
                    83:51:ec:7d:26:10:57:21:73:58:a4:25:8f:c9:4d:
                    a4:8b:b4:6e:a1:64:09:94:eb:e8:ec:40:b8:c9:af:
                    0a:91:4e:6c:4c:47:a7:bf:d1:74:8e:16:f4:79:90:
                    b2:0f:78:6d:de:1d:53:b2:26:0e:da:16:a2:76:96:
                    73:4c:83:b7:b8:53:cf:07:cc:f2:4f:1c:f5:7c:72:
                    b9:89:99:6c:7a:a1:d5:f2:1d:e7:15:f9:32:aa:f8:
                    26:1c:3d
                Exponent: 65537 (0x10001)
        X509v3 extensions:
            Netscape Comment: 
                Certificat Client SSL
            X509v3 Subject Key Identifier: 
                0D:85:24:80:6F:0F:E0:55:BE:29:85:43:D9:F0:DC:8A:77:C7:52:0D
            X509v3 Authority Key Identifier: 
                keyid:D5:F4:89:61:79:E6:B5:2C:17:A8:0C:63:04:F4:69:54:D4:47:CF:13
                DirName:/C=fr/ST=idf/L=paris/O=vitam/OU=authorities/CN=ca_root_client-storage
                serial:EB

            X509v3 Issuer Alternative Name: 
                <EMPTY>

            X509v3 Basic Constraints: critical
                CA:FALSE
            X509v3 Key Usage: 
                Digital Signature, Non Repudiation, Key Encipherment
            Netscape Cert Type: 
                SSL Client
            X509v3 Extended Key Usage: 
                TLS Web Client Authentication
    Signature Algorithm: sha256WithRSAEncryption
         05:27:80:0f:12:67:b1:1b:39:3d:80:24:62:50:f7:35:10:46:
         9c:86:bb:1b:97:b8:be:cc:26:eb:e4:00:08:c9:7c:3f:90:28:
         ca:ac:b6:c3:50:d7:ac:0c:37:1f:1d:38:c1:4b:f7:d8:eb:2a:
         1d:d1:b0:8e:ed:33:56:e4:a1:f5:8c:03:56:6d:0e:8a:6a:5b:
         0e:7e:9c:f7:d9:30:58:a6:23:0b:a2:1a:21:c9:80:f7:bf:50:
         73:c9:6b:66:36:c1:cd:a1:6d:c6:f0:a4:4a:33:91:43:88:4f:
         2e:0a:01:76:84:40:1d:02:a6:85:ad:b7:17:4e:56:4c:c4:01:
         56:40:69:41:e8:e5:21:ce:b2:5d:ec:fb:73:55:f3:db:28:f7:
         7f:9a:e7:e9:18:98:f4:b2:9e:e8:53:4d:e9:47:02:1d:56:a7:
         05:04:1b:7f:db:a3:d4:70:54:7b:bd:ba:68:f4:13:a2:23:39:
         0d:3f:92:bd:d4:a6:0b:88:ab:d3:e1:b1:2b:74:31:38:b1:3b:
         04:d2:0e:53:c9:4a:05:82:e9:c9:a3:70:6e:66:13:f0:5c:18:
         2e:e6:b9:4d:9a:58:80:75:04:ee:ff:c0:32:dd:c1:03:55:09:
         15:32:04:82:ac:64:63:87:29:23:80:bb:7b:ff:39:97:c0:6c:
         9b:2a:96:5e:7d:30:f5:06:3a:e8:5a:f3:52:e2:98:91:82:ad:
         c0:f1:02:86:77:02:8d:52:67:fc:28:ec:50:7f:f2:af:e5:42:
         ea:79:d0:06:e7:0d:4e:3f:5c:98:fa:95:c8:01:51:47:f6:b2:
         67:08:1e:e0:86:96:e4:28:5d:08:4c:b5:23:51:59:1b:25:12:
         1a:76:65:73:8a:a3:57:eb:63:85:1c:5e:3c:43:68:d2:b4:c2:
         f4:1b:74:d5:cb:70:31:d4:19:0d:ca:83:eb:8b:50:b8:5d:0e:
         d7:d3:6d:1e:92:4c:71:3b:b0:14:78:94:86:9a:72:10:93:7a:
         24:6d:05:65:1a:0e:93:6a:b6:a5:25:34:98:b7:eb:c9:da:b4:
         06:28:0c:d4:df:47:97:2a:d6:39:03:34:c2:20:84:52:88:a5:
         c1:7b:e8:47:47:27:e2:46:11:ab:1e:30:6d:e0:44:9d:94:25:
         d5:85:83:c3:1d:41:49:5d:7b:30:af:0b:b5:ad:5c:67:77:a4:
         1b:05:e4:7c:43:7b:bb:ab:5e:88:14:5f:8e:9c:04:4d:6c:db:
         b8:84:ed:04:01:af:66:b3:54:01:b6:31:eb:66:23:07:5a:34:
         52:dc:28:d2:65:a7:60:96:4e:a8:b8:2c:52:85:e8:35:4f:e8:
         0a:76:d4:51:ae:12:47:07
-----BEGIN CERTIFICATE-----
MIIGfDCCBGSgAwIBAgICAPMwDQYJKoZIhvcNAQELBQAwejELMAkGA1UEBhMCZnIx
DDAKBgNVBAgMA2lkZjEOMAwGA1UEBwwFcGFyaXMxDjAMBgNVBAoMBXZpdGFtMRQw
EgYDVQQLDAthdXRob3JpdGllczEnMCUGA1UEAwweY2FfaW50ZXJtZWRpYXRlX2Ns
aWVudC1zdG9yYWdlMB4XDTE4MDIyMjE2MzcxMloXDTIxMDIyMTE2MzcxMlowTTEL
MAkGA1UEBhMCZnIxDDAKBgNVBAgMA2lkZjEOMAwGA1UEBwwFcGFyaXMxDjAMBgNV
BAoMBXZpdGFtMRAwDgYDVQQDDAdzdG9yYWdlMIICIjANBgkqhkiG9w0BAQEFAAOC
Ag8AMIICCgKCAgEA6VaKFpq/V7o54Bkc1r8iO+79Suha5Jcd28Ll/bHTAXX91dOH
OTJTcIzjx7YxVkszEvzqXhCTpkUhh5E07lODNAV66jM7ocfPpOgm/z9pdLW8D36O
VLsAL53jf4pqTv/KATfoj+sknKqFZr8GHsbeaT4/9LU78EwFXO5QRpeCtoRbZX9p
VYHzjg4tDI2U7j3K20U8KsBeJu5HFAhaEyEsIXMToOrCVR55iyRyP2zngkpnOxze
Qtyszr7MVGRiwjAbaBQ+1Gg5KJu24N2fl+KGnlEj9c39zM0LUWiTZv5zST9mcC7V
fN6pBHptzfD6QoTmtV4nuoJetYK1DQ6z4STKUgFt6JvP4wQi3VA+faH+R+WDBIOe
92w7gXVSddjQBJv+Q4iucV3zJ8CVv74fykdgPdw3Ulf4QeNOpTk9sMvr9zPPXuH6
M3Dxkn6ocikrchpiz7ag1YnBiFH68cJAGoZ/N+UKsVqqGZZgVJXxKg3Xeym/hkFm
BJpjezCxlrFV1Ellv+PUf5Mj95RO3Uit/hciRI7tKFuj0PSeX0IgtsHZ5HHQWWeD
Uex9JhBXIXNYpCWPyU2ki7RuoWQJlOvo7EC4ya8KkU5sTEenv9F0jhb0eZCyD3ht
3h1TsiYO2haidpZzTIO3uFPPB8zyTxz1fHK5iZlseqHV8h3nFfkyqvgmHD0CAwEA
AaOCATcwggEzMCQGCWCGSAGG+EIBDQQXFhVDZXJ0aWZpY2F0IENsaWVudCBTU0ww
HQYDVR0OBBYEFA2FJIBvD+BVvimFQ9nw3Ip3x1INMIGdBgNVHSMEgZUwgZKAFNX0
iWF55rUsF6gMYwT0aVTUR88ToXakdDByMQswCQYDVQQGEwJmcjEMMAoGA1UECAwD
aWRmMQ4wDAYDVQQHDAVwYXJpczEOMAwGA1UECgwFdml0YW0xFDASBgNVBAsMC2F1
dGhvcml0aWVzMR8wHQYDVQQDDBZjYV9yb290X2NsaWVudC1zdG9yYWdlggIA6zAJ
BgNVHRIEAjAAMAwGA1UdEwEB/wQCMAAwCwYDVR0PBAQDAgXgMBEGCWCGSAGG+EIB
AQQEAwIHgDATBgNVHSUEDDAKBggrBgEFBQcDAjANBgkqhkiG9w0BAQsFAAOCAgEA
BSeADxJnsRs5PYAkYlD3NRBGnIa7G5e4vswm6+QACMl8P5Aoyqy2w1DXrAw3Hx04
wUv32OsqHdGwju0zVuSh9YwDVm0OimpbDn6c99kwWKYjC6IaIcmA979Qc8lrZjbB
zaFtxvCkSjORQ4hPLgoBdoRAHQKmha23F05WTMQBVkBpQejlIc6yXez7c1Xz2yj3
f5rn6RiY9LKe6FNN6UcCHVanBQQbf9uj1HBUe726aPQToiM5DT+SvdSmC4ir0+Gx
K3QxOLE7BNIOU8lKBYLpyaNwbmYT8FwYLua5TZpYgHUE7v/AMt3BA1UJFTIEgqxk
Y4cpI4C7e/85l8BsmyqWXn0w9QY66FrzUuKYkYKtwPEChncCjVJn/CjsUH/yr+VC
6nnQBucNTj9cmPqVyAFRR/ayZwge4IaW5ChdCEy1I1FZGyUSGnZlc4qjV+tjhRxe
PENo0rTC9Bt01ctwMdQZDcqD64tQuF0O19NtHpJMcTuwFHiUhppyEJN6JG0FZRoO
k2q2pSU0mLfrydq0BigM1N9HlyrWOQM0wiCEUoilwXvoR0cn4kYRqx4wbeBEnZQl
1YWDwx1BSV17MK8Lta1cZ3ekGwXkfEN7u6teiBRfjpwETWzbuITtBAGvZrNUAbYx
62YjB1o0Utwo0mWnYJZOqLgsUoXoNU/oCnbUUa4SRwc=
-----END CERTIFICATE-----
