Certificate:
    Data:
        Version: 3 (0x2)
        Serial Number: 246 (0xf6)
    Signature Algorithm: sha256WithRSAEncryption
        Issuer: C=fr, ST=idf, L=paris, O=vitam, OU=authorities, CN=ca_intermediate_client-storage
        Validity
            Not Before: Oct 19 08:41:10 2018 GMT
            Not After : Oct 18 08:41:10 2021 GMT
        Subject: C=fr, ST=idf, L=paris, O=vitam, CN=storage
        Subject Public Key Info:
            Public Key Algorithm: rsaEncryption
                Public-Key: (4096 bit)
                Modulus:
                    00:ba:3c:da:6f:29:ec:54:ac:ba:ee:d5:fa:28:4e:
                    44:a8:51:a3:88:46:49:7c:73:56:31:5d:06:3a:fa:
                    28:45:9f:a2:c0:db:95:4c:09:5c:1c:a9:b1:f6:fa:
                    ec:72:04:25:e5:26:13:30:2f:09:7a:20:66:6c:d6:
                    85:45:d7:37:91:e0:cd:9f:90:02:6e:95:25:53:00:
                    0e:cd:b7:59:85:a1:b3:46:f8:90:92:ca:8c:76:74:
                    c0:52:cd:fa:f4:8d:5e:cc:ec:b4:4f:8d:e5:09:67:
                    a8:f4:83:38:ae:0a:f9:7f:db:67:91:14:df:f1:06:
                    59:af:84:89:10:09:a2:a9:99:c4:f1:e9:75:42:cb:
                    21:f6:ac:16:0d:ab:98:07:d0:7b:f3:0a:a9:f7:92:
                    d9:82:03:86:3b:07:ae:97:0a:48:be:a9:ad:6c:3f:
                    da:91:a6:3b:97:17:43:12:89:2e:3f:db:e8:d1:92:
                    d2:c3:34:e9:99:c1:ec:5f:19:59:c9:ba:88:46:ed:
                    d8:2a:70:4a:79:c3:2b:37:ff:c7:cf:7a:ab:3a:0c:
                    ee:51:33:1c:7e:e7:d1:33:a9:e9:69:fe:7b:ab:ed:
                    d1:a1:4e:a4:af:f4:2b:c6:08:a5:a0:8d:ab:8a:f6:
                    ba:41:8c:9d:0e:30:6c:75:7e:62:d8:41:76:86:51:
                    90:2a:a5:3e:7b:f7:6a:6e:19:a4:6d:a9:b0:1e:dc:
                    8d:6d:5f:2c:b3:44:28:e2:7d:63:e2:00:9a:93:1a:
                    d9:68:20:0d:21:e2:68:79:c7:02:a0:b9:4c:b3:a9:
                    4c:9e:ae:f5:d9:47:6c:9a:51:7c:ad:b2:da:a5:e6:
                    5f:d0:c8:01:47:67:28:bf:52:43:f3:9e:84:3b:00:
                    ae:fa:71:b3:17:77:99:e5:ca:cc:8d:66:56:c7:c8:
                    dd:7b:15:3e:75:f0:b8:91:a3:32:4d:0a:18:de:0a:
                    20:07:3e:dc:64:22:dd:23:a7:78:0c:1b:09:43:1a:
                    24:0b:e8:b8:9f:25:97:2d:b0:4e:6b:e1:94:36:1e:
                    89:58:86:15:54:df:d1:90:69:0f:03:82:2c:99:b0:
                    c4:b4:c3:b8:82:97:eb:b8:fc:fb:59:f3:ff:5a:1e:
                    f8:a7:62:a8:0d:5d:dd:5a:ec:ad:79:48:02:3b:a1:
                    00:58:38:4b:6b:79:32:e0:70:b3:11:4c:5f:c2:2a:
                    02:20:f0:04:a3:d5:9d:80:8f:0e:c5:db:0a:5d:ef:
                    6d:79:de:f0:38:fe:52:4e:21:88:ba:04:78:c1:35:
                    f9:83:dd:9e:1f:95:aa:9d:ef:f5:19:cf:d8:5e:10:
                    05:d9:d3:9a:0b:73:10:4d:b3:93:d6:70:dc:57:66:
                    09:42:5d
                Exponent: 65537 (0x10001)
        X509v3 extensions:
            Netscape Comment: 
                Certificat Client SSL
            X509v3 Subject Key Identifier: 
                F2:63:D2:15:40:5A:0B:D9:E7:15:6B:6A:5B:83:8B:73:79:9F:04:15
            X509v3 Authority Key Identifier: 
                keyid:F3:8A:B6:DA:E7:8A:39:F3:FB:45:87:70:A7:4F:A7:31:50:94:97:D3
                DirName:/C=fr/ST=idf/L=paris/O=vitam/OU=authorities/CN=ca_root_client-storage
                serial:F5

            X509v3 Issuer Alternative Name: 
                <EMPTY>

            X509v3 Basic Constraints: critical
                CA:FALSE
            X509v3 Key Usage: 
                Digital Signature
            Netscape Cert Type: 
                SSL Client
            X509v3 Extended Key Usage: 
                TLS Web Client Authentication
    Signature Algorithm: sha256WithRSAEncryption
         7e:43:c4:e0:11:78:91:04:a7:c7:88:85:69:bd:32:1a:c8:8c:
         22:c0:37:43:55:26:ce:36:13:e0:2f:cc:3e:de:da:05:5a:85:
         43:e2:19:c1:30:f2:6f:e7:38:9e:07:05:68:42:c9:90:d0:65:
         94:14:b1:45:dd:15:d2:5c:9c:42:57:3c:ea:20:bd:8b:e0:75:
         6a:c2:ab:d6:10:6e:5a:48:f7:74:74:d0:93:93:4e:3e:71:ce:
         8c:f8:3c:28:40:f3:b7:1c:0f:f0:1f:e9:b4:20:46:63:ed:77:
         a9:24:ed:de:a7:45:0d:0f:ee:08:ca:6c:4b:ec:24:cd:49:6d:
         52:a6:54:01:64:80:b1:fa:95:9a:90:2c:6a:e0:e9:91:7b:0f:
         ab:e2:38:57:aa:5e:4c:5b:bf:fe:dd:bc:4c:1a:64:79:0a:e0:
         ce:80:d4:11:68:ea:c8:ed:80:52:c0:1f:0f:df:7a:2c:1e:45:
         eb:93:b7:9f:8d:fb:23:da:f2:92:62:55:07:75:54:85:b8:58:
         d9:42:ea:51:55:7a:9b:61:a7:f3:7d:a0:4f:78:37:90:5e:9d:
         7a:e8:62:87:32:cc:2c:eb:b8:6d:3d:5c:fb:eb:97:a0:5f:c2:
         5b:84:bb:fc:a7:e7:d8:bd:3d:29:7f:91:7b:80:1c:b0:24:34:
         be:50:65:7c:cf:ae:7c:1d:ca:6b:b3:83:f8:06:e7:09:27:c2:
         93:a5:84:92:2f:cc:dd:e5:2b:41:ac:b2:3b:52:69:7d:bb:04:
         9e:85:94:25:de:11:4a:20:49:3a:f1:40:74:75:e0:c2:4f:c3:
         f7:e8:03:58:6e:73:da:a2:f1:cc:de:bc:10:1a:44:59:bc:e0:
         38:e6:34:bd:e4:e5:83:d4:64:c0:1c:ce:9a:1d:39:28:52:e8:
         d1:21:91:1c:d8:22:f9:40:28:3d:57:66:d0:ea:ef:f1:42:1a:
         56:06:ee:cf:0e:5d:5b:04:55:5d:54:1d:f7:7d:87:30:99:4d:
         15:57:3b:0c:a5:d5:97:75:26:bf:64:72:ae:14:ef:de:e5:0d:
         09:1b:a9:58:b2:22:73:4f:03:91:63:6d:de:8f:dd:07:3f:30:
         83:02:13:65:4a:79:24:ab:64:96:f4:00:c9:2b:97:73:b3:d1:
         a6:74:0d:06:23:70:77:c3:0e:56:b4:f6:e9:18:80:78:ec:5e:
         e6:04:62:f3:b2:69:2c:f1:c1:88:00:b1:b4:6c:3e:62:1a:62:
         a5:64:73:3e:13:dd:86:de:c9:75:bd:44:80:bc:ec:63:b5:48:
         33:07:c3:61:74:79:2d:0b:09:4d:20:50:98:c0:f2:4a:2f:87:
         6c:a7:25:4a:2e:ff:23:c4
-----BEGIN CERTIFICATE-----
MIIGfDCCBGSgAwIBAgICAPYwDQYJKoZIhvcNAQELBQAwejELMAkGA1UEBhMCZnIx
DDAKBgNVBAgMA2lkZjEOMAwGA1UEBwwFcGFyaXMxDjAMBgNVBAoMBXZpdGFtMRQw
EgYDVQQLDAthdXRob3JpdGllczEnMCUGA1UEAwweY2FfaW50ZXJtZWRpYXRlX2Ns
aWVudC1zdG9yYWdlMB4XDTE4MTAxOTA4NDExMFoXDTIxMTAxODA4NDExMFowTTEL
MAkGA1UEBhMCZnIxDDAKBgNVBAgMA2lkZjEOMAwGA1UEBwwFcGFyaXMxDjAMBgNV
BAoMBXZpdGFtMRAwDgYDVQQDDAdzdG9yYWdlMIICIjANBgkqhkiG9w0BAQEFAAOC
Ag8AMIICCgKCAgEAujzabynsVKy67tX6KE5EqFGjiEZJfHNWMV0GOvooRZ+iwNuV
TAlcHKmx9vrscgQl5SYTMC8JeiBmbNaFRdc3keDNn5ACbpUlUwAOzbdZhaGzRviQ
ksqMdnTAUs369I1ezOy0T43lCWeo9IM4rgr5f9tnkRTf8QZZr4SJEAmiqZnE8el1
Qssh9qwWDauYB9B78wqp95LZggOGOweulwpIvqmtbD/akaY7lxdDEokuP9vo0ZLS
wzTpmcHsXxlZybqIRu3YKnBKecMrN//Hz3qrOgzuUTMcfufRM6npaf57q+3RoU6k
r/QrxgiloI2riva6QYydDjBsdX5i2EF2hlGQKqU+e/dqbhmkbamwHtyNbV8ss0Qo
4n1j4gCakxrZaCANIeJoeccCoLlMs6lMnq712UdsmlF8rbLapeZf0MgBR2cov1JD
856EOwCu+nGzF3eZ5crMjWZWx8jdexU+dfC4kaMyTQoY3gogBz7cZCLdI6d4DBsJ
QxokC+i4nyWXLbBOa+GUNh6JWIYVVN/RkGkPA4IsmbDEtMO4gpfruPz7WfP/Wh74
p2KoDV3dWuyteUgCO6EAWDhLa3ky4HCzEUxfwioCIPAEo9WdgI8OxdsKXe9ted7w
OP5STiGIugR4wTX5g92eH5Wqne/1Gc/YXhAF2dOaC3MQTbOT1nDcV2YJQl0CAwEA
AaOCATcwggEzMCQGCWCGSAGG+EIBDQQXFhVDZXJ0aWZpY2F0IENsaWVudCBTU0ww
HQYDVR0OBBYEFPJj0hVAWgvZ5xVraluDi3N5nwQVMIGdBgNVHSMEgZUwgZKAFPOK
ttrnijnz+0WHcKdPpzFQlJfToXakdDByMQswCQYDVQQGEwJmcjEMMAoGA1UECAwD
aWRmMQ4wDAYDVQQHDAVwYXJpczEOMAwGA1UECgwFdml0YW0xFDASBgNVBAsMC2F1
dGhvcml0aWVzMR8wHQYDVQQDDBZjYV9yb290X2NsaWVudC1zdG9yYWdlggIA9TAJ
BgNVHRIEAjAAMAwGA1UdEwEB/wQCMAAwCwYDVR0PBAQDAgeAMBEGCWCGSAGG+EIB
AQQEAwIHgDATBgNVHSUEDDAKBggrBgEFBQcDAjANBgkqhkiG9w0BAQsFAAOCAgEA
fkPE4BF4kQSnx4iFab0yGsiMIsA3Q1UmzjYT4C/MPt7aBVqFQ+IZwTDyb+c4ngcF
aELJkNBllBSxRd0V0lycQlc86iC9i+B1asKr1hBuWkj3dHTQk5NOPnHOjPg8KEDz
txwP8B/ptCBGY+13qSTt3qdFDQ/uCMpsS+wkzUltUqZUAWSAsfqVmpAsauDpkXsP
q+I4V6peTFu//t28TBpkeQrgzoDUEWjqyO2AUsAfD996LB5F65O3n437I9rykmJV
B3VUhbhY2ULqUVV6m2Gn832gT3g3kF6deuhihzLMLOu4bT1c++uXoF/CW4S7/Kfn
2L09KX+Re4AcsCQ0vlBlfM+ufB3Ka7OD+AbnCSfCk6WEki/M3eUrQayyO1JpfbsE
noWUJd4RSiBJOvFAdHXgwk/D9+gDWG5z2qLxzN68EBpEWbzgOOY0veTlg9RkwBzO
mh05KFLo0SGRHNgi+UAoPVdm0Orv8UIaVgbuzw5dWwRVXVQd932HMJlNFVc7DKXV
l3Umv2RyrhTv3uUNCRupWLIic08DkWNt3o/dBz8wgwITZUp5JKtklvQAySuXc7PR
pnQNBiNwd8MOVrT26RiAeOxe5gRi87JpLPHBiACxtGw+YhpipWRzPhPdht7Jdb1E
gLzsY7VIMwfDYXR5LQsJTSBQmMDySi+HbKclSi7/I8Q=
-----END CERTIFICATE-----
