Certificate:
    Data:
        Version: 3 (0x2)
        Serial Number: 249 (0xf9)
        Signature Algorithm: sha256WithRSAEncryption
        Issuer: C=fr, ST=idf, L=paris, O=vitam, OU=authorities, CN=ca_intermediate_client-storage
        Validity
            Not Before: Sep 15 13:01:15 2020 GMT
            Not After : Dec 31 23:59:59 9999 GMT
        Subject: C=fr, ST=idf, L=paris, O=vitam, CN=storage
        Subject Public Key Info:
            Public Key Algorithm: rsaEncryption
                RSA Public-Key: (4096 bit)
                Modulus:
                    00:c3:fd:62:3a:ac:aa:ef:33:c5:f3:fe:96:bb:af:
                    08:b5:46:da:04:cb:c3:6a:c5:7b:d5:2d:9c:8f:8f:
                    9f:90:70:bc:35:45:94:bf:2e:1e:c7:7c:12:48:29:
                    24:99:bb:83:0c:c1:25:82:6e:b8:41:d0:68:d3:a2:
                    ae:37:8e:86:49:12:36:fd:99:03:6e:34:4d:b1:19:
                    45:6a:cc:eb:ff:f7:15:e8:b2:8f:78:d0:b7:0b:08:
                    af:ad:99:cc:ab:30:00:cc:d3:1f:51:9f:69:ae:f4:
                    fa:18:9e:79:ef:2f:3c:be:8d:c8:06:1e:76:3b:e7:
                    1e:42:93:53:40:99:1e:4f:0b:e1:d6:47:41:df:8e:
                    c1:42:91:8f:7d:04:b9:74:8b:70:02:17:05:70:d1:
                    68:a4:21:d0:02:c7:ba:1b:8a:cd:f1:38:7c:40:3e:
                    1a:7f:bf:e0:6b:cb:a4:a9:13:c3:99:33:21:f7:3f:
                    e7:0a:32:11:83:c0:4f:ea:b2:ab:e1:83:b1:3a:3d:
                    2d:15:9d:60:08:7d:91:fb:19:13:18:74:c9:49:dd:
                    44:23:13:62:bd:3c:53:df:2f:66:c9:bd:66:76:fd:
                    74:20:c3:62:e1:45:ea:1a:ed:13:ce:77:17:e4:ed:
                    b5:c0:5f:7e:a5:33:37:7e:79:5c:e5:e3:75:de:8f:
                    0f:e2:e8:b2:c0:df:d1:c6:81:09:b3:e1:af:c6:8e:
                    de:e0:70:2d:6a:c2:6d:05:0e:35:f5:6a:ed:b4:58:
                    36:16:67:f7:86:9b:47:ba:02:5e:c3:89:f8:27:09:
                    40:10:5c:14:02:41:5d:46:e2:07:95:f0:7b:f8:2e:
                    10:7f:86:fb:63:65:dc:58:87:37:11:c8:92:31:12:
                    f1:7d:44:04:62:c9:a0:25:7c:1c:e9:ea:b7:cc:3b:
                    ab:e9:89:cd:be:24:8b:7e:6f:58:3e:8c:14:a3:7e:
                    83:75:34:18:6c:13:d0:43:05:bc:d4:0a:fc:0f:3a:
                    fc:65:51:21:bb:aa:68:5e:bb:9b:36:e2:21:6c:b9:
                    f6:47:cf:a7:21:be:76:01:69:f9:0f:e8:c8:0d:22:
                    67:48:a3:13:73:34:93:9c:06:07:ac:a8:a8:dd:3e:
                    9d:13:00:53:a9:70:92:5b:eb:b3:64:14:47:fa:3e:
                    45:67:35:69:ad:8a:bc:3b:2c:2d:97:82:f0:ea:37:
                    f9:0e:e6:61:b8:48:59:04:79:ea:47:8c:8a:ac:2a:
                    d8:da:fa:6c:f5:4c:17:86:50:73:7b:b2:53:71:3e:
                    0d:9a:ba:b2:04:d2:97:83:c1:1d:37:09:83:94:2f:
                    e6:9a:0d:0e:d2:b8:a5:2d:83:17:71:1e:b5:d1:21:
                    66:c9:5f
                Exponent: 65537 (0x10001)
        X509v3 extensions:
            Netscape Comment: 
                Certificat Client SSL
            X509v3 Subject Key Identifier: 
                C7:0D:08:6E:70:1D:3B:32:63:ED:6D:BD:0A:30:6F:D9:A2:DB:6B:8A
            X509v3 Authority Key Identifier: 
                keyid:74:E9:8A:68:57:03:F0:99:C4:62:2B:CD:05:E2:91:ED:AF:0E:D0:24
                DirName:/C=fr/ST=idf/L=paris/O=vitam/OU=authorities/CN=ca_root_client-storage
                serial:F8

            X509v3 Issuer Alternative Name: 
                <EMPTY>

            X509v3 Basic Constraints: critical
                CA:FALSE
            X509v3 Key Usage: 
                Digital Signature
            Netscape Cert Type: 
                SSL Client
            X509v3 Extended Key Usage: 
                TLS Web Client Authentication
    Signature Algorithm: sha256WithRSAEncryption
         76:9b:1a:8d:9b:2a:64:21:1a:a7:5e:ba:4f:46:d1:30:d5:d3:
         28:52:04:bf:b9:46:2f:44:50:5c:66:00:64:30:80:15:97:70:
         0d:d2:39:8b:2c:f9:a7:c5:19:42:57:25:89:13:75:e5:d6:ac:
         31:db:86:f8:fe:fb:01:2f:7d:a9:b4:0b:64:3a:b2:43:03:33:
         bb:95:b2:c4:a5:2f:7b:9d:0f:e3:bf:9c:be:56:c5:70:45:37:
         51:5f:c7:68:02:a2:d9:7f:62:6b:b3:84:15:21:7c:b3:f4:63:
         a7:ad:e7:20:bd:a1:3c:ee:7c:42:f5:f6:44:f8:49:1a:f5:91:
         94:aa:f9:e7:5b:d5:c8:b4:b1:68:b0:c3:7a:6a:6d:b5:19:86:
         bb:f2:11:81:a1:41:e3:03:24:14:77:a3:ad:40:17:03:c3:0d:
         3c:54:91:f4:3e:5e:ec:4f:f0:67:83:05:eb:ee:0c:02:00:2b:
         95:dc:ee:30:56:39:07:15:e2:67:9e:94:65:9d:2c:47:35:00:
         a7:8f:5f:08:92:f4:60:cc:74:38:fd:ff:fd:37:4a:fb:c0:e1:
         0b:a7:57:18:ff:2c:1b:cc:00:59:c9:08:83:81:43:8d:7f:d3:
         5b:e9:d7:0e:c2:b0:d8:87:40:e8:5a:ab:8c:a9:4d:d0:7e:18:
         9e:ae:4f:7f:d9:db:59:a5:52:69:83:c2:13:48:03:8b:8f:da:
         5d:6c:2b:8f:46:4f:6a:51:e3:9e:b0:3e:1a:94:7d:82:48:47:
         51:c8:2b:67:a7:40:c8:2f:74:bd:06:c4:3c:e0:2d:ba:63:26:
         ab:1c:3c:45:af:c5:11:3f:70:36:8d:a0:2d:e0:cf:c8:49:13:
         d3:12:56:5d:78:63:df:f0:6c:9a:4b:c8:74:7b:99:34:2b:ce:
         17:69:e9:87:35:ec:b5:5d:d7:34:b6:6a:2d:de:75:0a:5c:40:
         07:dd:d3:2b:9b:d8:9f:2d:00:b7:69:cf:c9:0c:ee:b8:c7:ac:
         32:5d:9d:c5:03:29:3a:f9:94:e0:ed:8b:a7:bb:b8:f3:37:18:
         e8:18:c8:31:76:f9:65:66:c4:6b:b7:53:2e:e6:6b:15:5e:88:
         bd:83:d2:fa:37:f3:25:69:06:3e:24:86:2f:45:ce:62:f6:00:
         50:74:3b:78:26:bc:3c:14:9b:04:b4:4f:cf:fc:e8:f4:80:0f:
         3f:44:61:4c:51:81:51:3a:7f:f0:d8:77:8d:6b:c5:23:9c:72:
         cc:b2:61:61:06:33:80:7c:14:a2:61:e3:dd:c6:0f:ec:18:f6:
         ac:40:06:a4:33:56:e7:ab:52:bf:54:f7:87:76:65:1e:04:d7:
         9a:a7:1c:dc:bb:26:d7:c5
-----BEGIN CERTIFICATE-----
MIIGfjCCBGagAwIBAgICAPkwDQYJKoZIhvcNAQELBQAwejELMAkGA1UEBhMCZnIx
DDAKBgNVBAgMA2lkZjEOMAwGA1UEBwwFcGFyaXMxDjAMBgNVBAoMBXZpdGFtMRQw
EgYDVQQLDAthdXRob3JpdGllczEnMCUGA1UEAwweY2FfaW50ZXJtZWRpYXRlX2Ns
aWVudC1zdG9yYWdlMCAXDTIwMDkxNTEzMDExNVoYDzk5OTkxMjMxMjM1OTU5WjBN
MQswCQYDVQQGEwJmcjEMMAoGA1UECAwDaWRmMQ4wDAYDVQQHDAVwYXJpczEOMAwG
A1UECgwFdml0YW0xEDAOBgNVBAMMB3N0b3JhZ2UwggIiMA0GCSqGSIb3DQEBAQUA
A4ICDwAwggIKAoICAQDD/WI6rKrvM8Xz/pa7rwi1RtoEy8NqxXvVLZyPj5+QcLw1
RZS/Lh7HfBJIKSSZu4MMwSWCbrhB0GjToq43joZJEjb9mQNuNE2xGUVqzOv/9xXo
so940LcLCK+tmcyrMADM0x9Rn2mu9PoYnnnvLzy+jcgGHnY75x5Ck1NAmR5PC+HW
R0HfjsFCkY99BLl0i3ACFwVw0WikIdACx7obis3xOHxAPhp/v+Bry6SpE8OZMyH3
P+cKMhGDwE/qsqvhg7E6PS0VnWAIfZH7GRMYdMlJ3UQjE2K9PFPfL2bJvWZ2/XQg
w2LhReoa7RPOdxfk7bXAX36lMzd+eVzl43Xejw/i6LLA39HGgQmz4a/Gjt7gcC1q
wm0FDjX1au20WDYWZ/eGm0e6Al7DifgnCUAQXBQCQV1G4geV8Hv4LhB/hvtjZdxY
hzcRyJIxEvF9RARiyaAlfBzp6rfMO6vpic2+JIt+b1g+jBSjfoN1NBhsE9BDBbzU
CvwPOvxlUSG7qmheu5s24iFsufZHz6chvnYBafkP6MgNImdIoxNzNJOcBgesqKjd
Pp0TAFOpcJJb67NkFEf6PkVnNWmtirw7LC2XgvDqN/kO5mG4SFkEeepHjIqsKtja
+mz1TBeGUHN7slNxPg2aurIE0peDwR03CYOUL+aaDQ7SuKUtgxdxHrXRIWbJXwID
AQABo4IBNzCCATMwJAYJYIZIAYb4QgENBBcWFUNlcnRpZmljYXQgQ2xpZW50IFNT
TDAdBgNVHQ4EFgQUxw0IbnAdOzJj7W29CjBv2aLba4owgZ0GA1UdIwSBlTCBkoAU
dOmKaFcD8JnEYivNBeKR7a8O0CShdqR0MHIxCzAJBgNVBAYTAmZyMQwwCgYDVQQI
DANpZGYxDjAMBgNVBAcMBXBhcmlzMQ4wDAYDVQQKDAV2aXRhbTEUMBIGA1UECwwL
YXV0aG9yaXRpZXMxHzAdBgNVBAMMFmNhX3Jvb3RfY2xpZW50LXN0b3JhZ2WCAgD4
MAkGA1UdEgQCMAAwDAYDVR0TAQH/BAIwADALBgNVHQ8EBAMCB4AwEQYJYIZIAYb4
QgEBBAQDAgeAMBMGA1UdJQQMMAoGCCsGAQUFBwMCMA0GCSqGSIb3DQEBCwUAA4IC
AQB2mxqNmypkIRqnXrpPRtEw1dMoUgS/uUYvRFBcZgBkMIAVl3AN0jmLLPmnxRlC
VyWJE3Xl1qwx24b4/vsBL32ptAtkOrJDAzO7lbLEpS97nQ/jv5y+VsVwRTdRX8do
AqLZf2Jrs4QVIXyz9GOnrecgvaE87nxC9fZE+Eka9ZGUqvnnW9XItLFosMN6am21
GYa78hGBoUHjAyQUd6OtQBcDww08VJH0Pl7sT/BngwXr7gwCACuV3O4wVjkHFeJn
npRlnSxHNQCnj18IkvRgzHQ4/f/9N0r7wOELp1cY/ywbzABZyQiDgUONf9Nb6dcO
wrDYh0DoWquMqU3Qfhierk9/2dtZpVJpg8ITSAOLj9pdbCuPRk9qUeOesD4alH2C
SEdRyCtnp0DIL3S9BsQ84C26YyarHDxFr8URP3A2jaAt4M/ISRPTElZdeGPf8Gya
S8h0e5k0K84XaemHNey1Xdc0tmot3nUKXEAH3dMrm9ifLQC3ac/JDO64x6wyXZ3F
Ayk6+ZTg7Yunu7jzNxjoGMgxdvllZsRrt1Mu5msVXoi9g9L6N/MlaQY+JIYvRc5i
9gBQdDt4Jrw8FJsEtE/P/Oj0gA8/RGFMUYFROn/w2HeNa8UjnHLMsmFhBjOAfBSi
YePdxg/sGPasQAakM1bnq1K/VPeHdmUeBNeapxzcuybXxQ==
-----END CERTIFICATE-----
