Certificate:
    Data:
        Version: 3 (0x2)
        Serial Number: 237 (0xed)
    Signature Algorithm: sha256WithRSAEncryption
        Issuer: C=fr, ST=idf, L=paris, O=vitam, OU=authorities, CN=ca_intermediate_client-storage
        Validity
            Not Before: Feb  5 12:57:42 2018 GMT
            Not After : Feb  4 12:57:42 2021 GMT
        Subject: C=fr, ST=idf, L=paris, O=vitam, CN=storage
        Subject Public Key Info:
            Public Key Algorithm: rsaEncryption
                Public-Key: (4096 bit)
                Modulus:
                    00:d3:d1:b9:d4:73:cd:d5:68:b8:d1:e5:9c:7e:18:
                    e2:6b:84:54:48:03:d6:e3:d8:df:6d:c1:fb:e5:38:
                    05:52:dc:ac:ba:a3:41:58:a2:c2:54:68:67:01:75:
                    43:35:e8:b7:27:8e:87:4c:75:3d:c0:5c:01:ec:8a:
                    41:22:87:93:e4:13:eb:f6:47:a4:f9:8d:d9:31:fd:
                    39:85:e4:79:90:dc:7e:08:44:e6:80:36:90:0a:0f:
                    9c:40:50:50:44:6f:56:f5:97:a3:cd:4f:c8:5f:1b:
                    83:4d:fc:c6:9e:2c:b6:e5:c0:8c:dc:db:44:00:e2:
                    d0:57:72:75:8f:6f:c7:60:cf:c1:be:ad:fb:30:03:
                    44:0e:7d:68:5e:37:7d:0e:a1:0d:29:92:64:58:8e:
                    f5:fb:0b:21:30:9b:dd:ea:9a:8e:65:4f:b6:15:2b:
                    51:6c:9d:c1:96:93:8f:be:78:b0:9d:6b:5a:23:31:
                    70:32:7c:82:f0:23:ef:a7:eb:c8:b4:8b:dc:98:d5:
                    cf:92:39:51:00:fe:76:e0:bd:71:9d:d8:2b:51:f7:
                    d5:6f:51:67:9b:8a:fa:39:9a:48:b7:8a:86:36:0b:
                    44:2f:17:98:70:6e:9d:22:59:ad:5f:4d:4c:e0:17:
                    ec:9b:7a:d6:13:71:fe:ad:fb:b6:2e:a3:ad:8b:38:
                    b5:86:cd:e3:24:5c:58:55:52:ff:51:00:1f:2c:a8:
                    aa:41:be:a7:a3:4c:0c:aa:12:79:d8:2e:a0:a0:c0:
                    78:81:86:05:8a:ea:40:4a:e6:27:3e:8d:7d:f6:f0:
                    75:f9:e8:f1:15:bb:b4:c7:7f:73:22:32:e8:05:a3:
                    ce:81:97:29:97:56:20:68:08:10:bc:99:f9:35:50:
                    95:0a:50:c3:d0:fb:8c:47:7e:50:b5:a6:27:db:46:
                    da:37:9e:1a:3e:01:6a:1d:73:af:c6:52:69:bd:80:
                    88:04:4b:c7:84:7f:05:dc:53:97:e5:fe:8c:55:c4:
                    15:eb:b4:f8:3a:17:ed:b5:fb:3a:3a:e2:63:a1:23:
                    a5:38:18:95:70:c8:20:14:5a:40:36:d5:3b:0e:ac:
                    8c:66:9c:5b:66:01:37:a4:0f:be:c2:7a:62:9a:fc:
                    32:97:c3:1c:97:58:22:3b:aa:ea:4a:8f:7c:92:2f:
                    b1:39:b8:10:c4:44:59:e1:83:24:41:ee:6f:ab:6d:
                    14:99:a4:21:56:cd:21:87:27:39:c9:5b:ad:8f:a4:
                    56:80:8c:29:13:fa:13:a4:0e:ca:b4:26:4b:08:a2:
                    24:60:d8:71:77:de:7d:42:ef:a8:e0:73:d4:c0:df:
                    7e:96:b4:0e:6a:b4:52:ae:d2:a0:44:1b:ef:6a:1b:
                    8b:cd:91
                Exponent: 65537 (0x10001)
        X509v3 extensions:
            Netscape Comment: 
                Certificat Client SSL
            X509v3 Subject Key Identifier: 
                39:92:34:1D:AD:E7:A0:0B:E2:DD:A6:FA:8F:9E:EA:6B:71:76:C3:98
            X509v3 Authority Key Identifier: 
                keyid:71:2E:00:AF:C0:C9:73:E9:24:D3:59:47:CF:B4:6B:6A:92:FD:06:F5
                DirName:/C=fr/ST=idf/L=paris/O=vitam/OU=authorities/CN=ca_root_client-storage
                serial:EB

            X509v3 Issuer Alternative Name: 
                <EMPTY>

            X509v3 Basic Constraints: critical
                CA:FALSE
            X509v3 Key Usage: 
                Digital Signature, Non Repudiation, Key Encipherment
            Netscape Cert Type: 
                SSL Client
            X509v3 Extended Key Usage: 
                TLS Web Client Authentication
    Signature Algorithm: sha256WithRSAEncryption
         8b:87:6b:22:ec:bc:3b:5a:0e:eb:59:3e:dc:b3:05:eb:9c:5c:
         17:39:9d:00:a2:6d:a1:ca:6a:b3:05:96:cb:24:1c:22:1e:1f:
         6f:c8:3c:14:69:07:d7:4c:9a:04:1e:8e:3a:08:c2:a5:1e:67:
         d6:06:7c:c6:0d:39:4d:9c:08:be:99:48:96:a5:dc:8d:26:45:
         75:ea:55:a6:21:75:e4:45:57:10:f8:71:92:b3:d5:80:fc:1a:
         53:92:c9:84:af:c6:42:10:62:3e:22:7c:ce:81:e8:7f:75:93:
         23:f2:48:fa:de:08:b5:df:33:50:01:2a:44:76:f8:95:bc:56:
         ba:71:26:8f:fe:7b:b5:a1:49:15:a2:24:a6:3c:68:11:75:4a:
         37:0f:75:57:fa:31:e2:d1:b7:f8:9a:19:46:c1:eb:11:5a:84:
         cc:53:22:40:c8:ba:dc:90:e0:94:c0:d1:b4:6d:0c:a7:f9:04:
         73:94:7b:55:c0:3e:1f:89:b7:44:b8:84:1e:ea:89:46:af:c7:
         38:bd:07:cb:da:c5:b8:94:6c:9f:0b:21:ef:49:43:ed:e7:93:
         7e:20:72:b8:37:e7:ca:e2:18:b6:30:d0:d3:7d:8f:6b:90:76:
         ed:74:d0:bc:e4:b8:a1:2e:d4:be:36:ba:3c:7b:1c:9d:4e:5f:
         52:e5:63:57:ac:ff:40:0c:08:f4:e9:1a:f4:dc:77:fd:5c:6e:
         02:38:d2:0c:5c:53:c2:ce:33:38:c7:87:91:d2:e4:fd:aa:b7:
         d5:68:cc:47:7e:ec:0d:71:04:f0:bb:64:f8:d7:f8:59:de:44:
         4e:1f:b3:3f:a8:21:c9:b4:67:8b:57:67:43:88:5e:dc:74:9a:
         1c:d3:18:3f:01:ea:87:aa:5f:50:73:d8:4e:1d:ca:6e:c3:38:
         18:d0:78:42:7a:19:e4:42:ec:a5:f5:a7:76:99:9b:86:0c:65:
         b9:df:07:93:05:c2:c4:7b:f0:37:59:90:22:f2:b3:02:31:69:
         1b:92:af:15:6b:00:cb:81:eb:8e:2a:1f:7f:84:77:56:b1:cf:
         5e:a6:90:85:a7:18:a3:ee:3b:f9:43:3a:31:09:a4:31:7d:12:
         13:a9:f5:ea:73:f8:42:54:ea:b7:66:b7:c3:b7:c5:70:69:55:
         37:8a:38:a4:28:0f:fb:3b:b7:ff:f2:ab:b0:60:8b:16:9e:0b:
         39:0d:00:7a:97:81:ee:cb:ff:28:4a:b4:4d:b3:8b:62:ad:c1:
         26:a6:df:51:96:13:dd:c1:7a:04:eb:fc:0d:8a:84:98:a7:97:
         14:29:de:27:0a:29:ec:38:5c:c4:72:0b:ad:c5:79:87:7c:a0:
         f1:f1:92:95:1d:fb:02:ce
-----BEGIN CERTIFICATE-----
MIIGfDCCBGSgAwIBAgICAO0wDQYJKoZIhvcNAQELBQAwejELMAkGA1UEBhMCZnIx
DDAKBgNVBAgMA2lkZjEOMAwGA1UEBwwFcGFyaXMxDjAMBgNVBAoMBXZpdGFtMRQw
EgYDVQQLDAthdXRob3JpdGllczEnMCUGA1UEAwweY2FfaW50ZXJtZWRpYXRlX2Ns
aWVudC1zdG9yYWdlMB4XDTE4MDIwNTEyNTc0MloXDTIxMDIwNDEyNTc0MlowTTEL
MAkGA1UEBhMCZnIxDDAKBgNVBAgMA2lkZjEOMAwGA1UEBwwFcGFyaXMxDjAMBgNV
BAoMBXZpdGFtMRAwDgYDVQQDDAdzdG9yYWdlMIICIjANBgkqhkiG9w0BAQEFAAOC
Ag8AMIICCgKCAgEA09G51HPN1Wi40eWcfhjia4RUSAPW49jfbcH75TgFUtysuqNB
WKLCVGhnAXVDNei3J46HTHU9wFwB7IpBIoeT5BPr9kek+Y3ZMf05heR5kNx+CETm
gDaQCg+cQFBQRG9W9ZejzU/IXxuDTfzGniy25cCM3NtEAOLQV3J1j2/HYM/Bvq37
MANEDn1oXjd9DqENKZJkWI71+wshMJvd6pqOZU+2FStRbJ3BlpOPvniwnWtaIzFw
MnyC8CPvp+vItIvcmNXPkjlRAP524L1xndgrUffVb1Fnm4r6OZpIt4qGNgtELxeY
cG6dIlmtX01M4Bfsm3rWE3H+rfu2LqOtizi1hs3jJFxYVVL/UQAfLKiqQb6no0wM
qhJ52C6goMB4gYYFiupASuYnPo199vB1+ejxFbu0x39zIjLoBaPOgZcpl1YgaAgQ
vJn5NVCVClDD0PuMR35QtaYn20baN54aPgFqHXOvxlJpvYCIBEvHhH8F3FOX5f6M
VcQV67T4Ohfttfs6OuJjoSOlOBiVcMggFFpANtU7DqyMZpxbZgE3pA++wnpimvwy
l8Mcl1giO6rqSo98ki+xObgQxERZ4YMkQe5vq20UmaQhVs0hhyc5yVutj6RWgIwp
E/oTpA7KtCZLCKIkYNhxd959Qu+o4HPUwN9+lrQOarRSrtKgRBvvahuLzZECAwEA
AaOCATcwggEzMCQGCWCGSAGG+EIBDQQXFhVDZXJ0aWZpY2F0IENsaWVudCBTU0ww
HQYDVR0OBBYEFDmSNB2t56AL4t2m+o+e6mtxdsOYMIGdBgNVHSMEgZUwgZKAFHEu
AK/AyXPpJNNZR8+0a2qS/Qb1oXakdDByMQswCQYDVQQGEwJmcjEMMAoGA1UECAwD
aWRmMQ4wDAYDVQQHDAVwYXJpczEOMAwGA1UECgwFdml0YW0xFDASBgNVBAsMC2F1
dGhvcml0aWVzMR8wHQYDVQQDDBZjYV9yb290X2NsaWVudC1zdG9yYWdlggIA6zAJ
BgNVHRIEAjAAMAwGA1UdEwEB/wQCMAAwCwYDVR0PBAQDAgXgMBEGCWCGSAGG+EIB
AQQEAwIHgDATBgNVHSUEDDAKBggrBgEFBQcDAjANBgkqhkiG9w0BAQsFAAOCAgEA
i4drIuy8O1oO61k+3LMF65xcFzmdAKJtocpqswWWyyQcIh4fb8g8FGkH10yaBB6O
OgjCpR5n1gZ8xg05TZwIvplIlqXcjSZFdepVpiF15EVXEPhxkrPVgPwaU5LJhK/G
QhBiPiJ8zoHof3WTI/JI+t4Itd8zUAEqRHb4lbxWunEmj/57taFJFaIkpjxoEXVK
Nw91V/ox4tG3+JoZRsHrEVqEzFMiQMi63JDglMDRtG0Mp/kEc5R7VcA+H4m3RLiE
HuqJRq/HOL0Hy9rFuJRsnwsh70lD7eeTfiByuDfnyuIYtjDQ032Pa5B27XTQvOS4
oS7Uvja6PHscnU5fUuVjV6z/QAwI9Oka9Nx3/VxuAjjSDFxTws4zOMeHkdLk/aq3
1WjMR37sDXEE8Ltk+Nf4Wd5ETh+zP6ghybRni1dnQ4he3HSaHNMYPwHqh6pfUHPY
Th3KbsM4GNB4QnoZ5ELspfWndpmbhgxlud8HkwXCxHvwN1mQIvKzAjFpG5KvFWsA
y4Hrjioff4R3VrHPXqaQhacYo+47+UM6MQmkMX0SE6n16nP4QlTqt2a3w7fFcGlV
N4o4pCgP+zu3//KrsGCLFp4LOQ0AepeB7sv/KEq0TbOLYq3BJqbfUZYT3cF6BOv8
DYqEmKeXFCneJwop7DhcxHILrcV5h3yg8fGSlR37As4=
-----END CERTIFICATE-----
