Certificate:
    Data:
        Version: 3 (0x2)
        Serial Number: 227 (0xe3)
    Signature Algorithm: sha256WithRSAEncryption
        Issuer: C=fr, ST=idf, L=paris, O=vitam, OU=authorities, CN=ca_intermediate_client-storage
        Validity
            Not Before: Jul 12 14:30:01 2017 GMT
            Not After : Jul 11 14:30:01 2020 GMT
        Subject: C=fr, ST=idf, L=paris, O=vitam, CN=storage
        Subject Public Key Info:
            Public Key Algorithm: rsaEncryption
                Public-Key: (4096 bit)
                Modulus:
                    00:a8:7d:1f:a6:54:35:e2:cc:2f:f2:68:a0:b9:20:
                    ee:1a:95:89:21:50:61:99:46:9e:7d:bf:b5:01:ba:
                    1d:8d:35:3b:bc:a7:bd:ab:c5:e5:c2:23:57:e4:d0:
                    df:33:c1:bb:0d:e5:d5:b8:5e:31:64:99:f5:ae:e2:
                    b5:bc:c0:27:8d:f2:4a:34:3b:9b:ea:c1:c9:c6:f8:
                    26:b5:d9:65:9b:0a:42:0e:58:5f:e8:e2:12:26:a5:
                    bc:a0:79:77:e2:3c:44:70:09:16:d4:a1:7c:98:07:
                    06:d1:3f:1b:6a:37:a6:f9:3f:63:35:72:c8:e9:fa:
                    fe:41:5f:13:d2:7d:47:60:e7:3c:16:42:4c:46:fb:
                    bc:be:25:76:8e:85:f4:05:1b:6e:63:86:3a:f6:a4:
                    62:18:ff:53:d7:bb:03:e9:d3:f9:15:47:02:fd:be:
                    04:a9:28:f9:c6:fc:e0:fc:91:6b:26:b7:f2:bb:f1:
                    50:53:f6:dd:62:fe:71:e5:de:4c:20:55:8f:e8:db:
                    77:cd:2a:84:d2:d5:b4:d4:8d:49:e9:f5:33:ab:ab:
                    40:c3:2b:7c:3a:92:1f:70:03:c0:be:40:16:03:4e:
                    3d:b2:7e:9c:6d:e8:e1:80:d9:f2:3d:f0:44:1c:61:
                    b9:68:cd:3f:1a:88:32:5b:fa:44:3a:5b:bd:0b:35:
                    73:79:2e:d2:89:d2:33:fc:85:a4:94:0e:3e:2f:59:
                    6a:e2:ef:ab:a9:3a:15:d9:72:8e:c2:23:18:14:21:
                    d1:05:03:3f:a6:9a:d5:f1:9e:18:47:14:09:36:db:
                    7c:6d:af:37:cb:e5:90:9d:f3:86:c5:a5:b7:b8:9c:
                    86:59:52:33:74:3a:0b:90:ac:64:13:c8:af:e0:24:
                    d2:67:ea:8f:ce:fe:be:15:b0:c6:66:7a:99:d6:11:
                    15:81:71:ab:0a:90:b1:a2:c8:06:8f:80:62:d4:68:
                    18:e7:d5:d5:94:ce:e3:13:18:9d:ae:91:fd:20:47:
                    43:c2:f9:30:08:d8:c4:23:90:17:ee:34:84:14:13:
                    ab:08:89:55:7a:68:76:88:07:01:6a:07:2c:6c:6d:
                    88:1f:11:2e:2a:51:ec:e4:62:f0:28:8d:45:51:76:
                    55:8b:48:41:a5:b9:c1:3c:7e:d9:8f:25:29:56:b3:
                    cf:4f:28:da:5f:0f:5c:01:27:ef:5b:4e:4f:38:90:
                    42:b4:49:5e:17:f6:3c:46:6c:26:44:45:c9:fc:07:
                    b1:e3:c8:49:6b:b4:51:e5:54:2f:71:da:b0:73:91:
                    d9:bc:ae:5e:13:cd:22:86:28:7a:39:b1:99:d1:2f:
                    f5:c7:06:6d:9e:13:aa:4a:7f:a7:ea:88:c2:95:8b:
                    96:68:33
                Exponent: 65537 (0x10001)
        X509v3 extensions:
            Netscape Comment: 
                Certificat Client SSL
            X509v3 Subject Key Identifier: 
                EA:DB:61:C2:FD:8C:BD:DA:9D:1F:9E:D4:10:6E:62:68:B7:83:45:C4
            X509v3 Authority Key Identifier: 
                keyid:BD:36:A0:8B:CA:CF:8A:68:37:24:9C:6C:1B:42:87:B5:70:E1:46:71
                DirName:/C=fr/ST=idf/L=paris/O=vitam/OU=authorities/CN=ca_root_client-storage
                serial:E2

            X509v3 Issuer Alternative Name: 
                <EMPTY>

            X509v3 Basic Constraints: critical
                CA:FALSE
            X509v3 Key Usage: 
                Digital Signature, Non Repudiation, Key Encipherment
            Netscape Cert Type: 
                SSL Client
            X509v3 Extended Key Usage: 
                TLS Web Client Authentication
    Signature Algorithm: sha256WithRSAEncryption
         52:0e:ac:e7:54:72:36:00:7d:2a:a5:d8:b9:3d:1e:cb:19:9d:
         e5:d6:4a:4a:fa:7b:05:cc:bc:17:0f:21:22:2b:43:33:de:2b:
         85:f8:6d:b5:63:0b:bc:fd:67:55:d9:57:77:0f:7c:e2:82:0c:
         88:d2:d4:a3:38:7b:54:65:fd:24:7c:85:63:4e:a3:13:5b:70:
         be:e9:f3:26:10:9f:5d:ca:cb:4f:76:31:fe:f7:a4:de:25:25:
         81:07:fe:eb:18:89:fe:49:4f:63:e6:d9:43:c5:9b:9e:50:72:
         5f:b9:48:8b:a4:fd:76:ca:b8:99:02:ca:bd:d5:f5:57:7b:f2:
         ff:2f:da:c8:db:f6:ce:7d:35:17:81:ee:99:c8:a5:c4:36:d7:
         30:c8:15:73:3a:6f:cc:6e:55:79:23:3b:70:5b:59:5e:2b:3a:
         eb:df:69:a9:be:8d:11:87:99:b8:b2:f7:cc:f4:91:08:80:6b:
         fb:68:69:63:54:88:51:85:8b:90:72:74:e1:3d:47:32:ff:84:
         22:1d:bb:13:69:a2:dd:a3:7e:5b:a0:cd:2e:bb:66:06:d0:72:
         87:f6:de:c0:3f:de:ac:05:ad:cc:7c:54:4c:22:bd:dd:f4:95:
         60:66:74:ef:49:4f:af:a7:fb:77:a0:31:2a:82:54:e1:4d:df:
         d6:c3:2b:da:ec:46:9e:a5:c4:f0:36:69:5e:b3:22:d9:56:a1:
         8d:ef:39:42:d0:2c:fd:75:37:7b:87:df:cd:2a:b6:66:96:6f:
         f8:15:5d:18:ea:84:55:0e:92:04:8a:5e:24:a3:5a:44:70:46:
         d0:55:9d:84:59:fe:ce:6f:31:af:e4:29:12:10:31:76:ac:9f:
         e1:a9:58:f0:96:15:4a:d6:2a:92:a0:5e:3d:e8:f3:3f:be:d2:
         72:43:f4:a4:24:a8:ab:e8:b8:6d:e2:ab:bf:65:b1:ad:30:53:
         57:79:14:31:00:e1:6b:41:92:7a:61:2a:ac:9c:30:5c:3e:4d:
         5b:d0:b2:24:f9:40:81:5e:31:84:08:09:3d:e6:09:7c:24:ff:
         c9:cc:18:7d:f6:7a:72:df:a2:24:3b:a3:2b:74:58:1d:38:5c:
         e3:22:21:19:6f:3f:2e:45:a2:d3:84:3c:4a:db:3a:65:2a:55:
         e7:7f:ba:4d:e8:44:7c:ab:1b:2e:56:1c:45:5f:c3:ff:aa:7c:
         0b:68:fa:97:f9:da:bf:0f:51:6e:a4:11:1b:7a:53:7b:09:0a:
         25:60:a6:66:1b:35:b2:24:55:44:d6:94:1e:09:07:93:e6:86:
         a5:e1:3f:8c:4c:a0:02:7f:99:8b:dd:84:38:28:a6:02:52:64:
         5c:0a:e8:39:a8:ad:2a:90
-----BEGIN CERTIFICATE-----
MIIGfDCCBGSgAwIBAgICAOMwDQYJKoZIhvcNAQELBQAwejELMAkGA1UEBhMCZnIx
DDAKBgNVBAgMA2lkZjEOMAwGA1UEBwwFcGFyaXMxDjAMBgNVBAoMBXZpdGFtMRQw
EgYDVQQLDAthdXRob3JpdGllczEnMCUGA1UEAwweY2FfaW50ZXJtZWRpYXRlX2Ns
aWVudC1zdG9yYWdlMB4XDTE3MDcxMjE0MzAwMVoXDTIwMDcxMTE0MzAwMVowTTEL
MAkGA1UEBhMCZnIxDDAKBgNVBAgMA2lkZjEOMAwGA1UEBwwFcGFyaXMxDjAMBgNV
BAoMBXZpdGFtMRAwDgYDVQQDDAdzdG9yYWdlMIICIjANBgkqhkiG9w0BAQEFAAOC
Ag8AMIICCgKCAgEAqH0fplQ14swv8miguSDuGpWJIVBhmUaefb+1AbodjTU7vKe9
q8XlwiNX5NDfM8G7DeXVuF4xZJn1ruK1vMAnjfJKNDub6sHJxvgmtdllmwpCDlhf
6OISJqW8oHl34jxEcAkW1KF8mAcG0T8bajem+T9jNXLI6fr+QV8T0n1HYOc8FkJM
Rvu8viV2joX0BRtuY4Y69qRiGP9T17sD6dP5FUcC/b4EqSj5xvzg/JFrJrfyu/FQ
U/bdYv5x5d5MIFWP6Nt3zSqE0tW01I1J6fUzq6tAwyt8OpIfcAPAvkAWA049sn6c
bejhgNnyPfBEHGG5aM0/GogyW/pEOlu9CzVzeS7SidIz/IWklA4+L1lq4u+rqToV
2XKOwiMYFCHRBQM/pprV8Z4YRxQJNtt8ba83y+WQnfOGxaW3uJyGWVIzdDoLkKxk
E8iv4CTSZ+qPzv6+FbDGZnqZ1hEVgXGrCpCxosgGj4Bi1GgY59XVlM7jExidrpH9
IEdDwvkwCNjEI5AX7jSEFBOrCIlVemh2iAcBagcsbG2IHxEuKlHs5GLwKI1FUXZV
i0hBpbnBPH7ZjyUpVrPPTyjaXw9cASfvW05POJBCtEleF/Y8RmwmREXJ/Aex48hJ
a7RR5VQvcdqwc5HZvK5eE80ihih6ObGZ0S/1xwZtnhOqSn+n6ojClYuWaDMCAwEA
AaOCATcwggEzMCQGCWCGSAGG+EIBDQQXFhVDZXJ0aWZpY2F0IENsaWVudCBTU0ww
HQYDVR0OBBYEFOrbYcL9jL3anR+e1BBuYmi3g0XEMIGdBgNVHSMEgZUwgZKAFL02
oIvKz4poNyScbBtCh7Vw4UZxoXakdDByMQswCQYDVQQGEwJmcjEMMAoGA1UECAwD
aWRmMQ4wDAYDVQQHDAVwYXJpczEOMAwGA1UECgwFdml0YW0xFDASBgNVBAsMC2F1
dGhvcml0aWVzMR8wHQYDVQQDDBZjYV9yb290X2NsaWVudC1zdG9yYWdlggIA4jAJ
BgNVHRIEAjAAMAwGA1UdEwEB/wQCMAAwCwYDVR0PBAQDAgXgMBEGCWCGSAGG+EIB
AQQEAwIHgDATBgNVHSUEDDAKBggrBgEFBQcDAjANBgkqhkiG9w0BAQsFAAOCAgEA
Ug6s51RyNgB9KqXYuT0eyxmd5dZKSvp7Bcy8Fw8hIitDM94rhfhttWMLvP1nVdlX
dw984oIMiNLUozh7VGX9JHyFY06jE1twvunzJhCfXcrLT3Yx/vek3iUlgQf+6xiJ
/klPY+bZQ8WbnlByX7lIi6T9dsq4mQLKvdX1V3vy/y/ayNv2zn01F4HumcilxDbX
MMgVczpvzG5VeSM7cFtZXis6699pqb6NEYeZuLL3zPSRCIBr+2hpY1SIUYWLkHJ0
4T1HMv+EIh27E2mi3aN+W6DNLrtmBtByh/bewD/erAWtzHxUTCK93fSVYGZ070lP
r6f7d6AxKoJU4U3f1sMr2uxGnqXE8DZpXrMi2Vahje85QtAs/XU3e4ffzSq2ZpZv
+BVdGOqEVQ6SBIpeJKNaRHBG0FWdhFn+zm8xr+QpEhAxdqyf4alY8JYVStYqkqBe
PejzP77SckP0pCSoq+i4beKrv2WxrTBTV3kUMQDha0GSemEqrJwwXD5NW9CyJPlA
gV4xhAgJPeYJfCT/ycwYffZ6ct+iJDujK3RYHThc4yIhGW8/LkWi04Q8Sts6ZSpV
53+6TehEfKsbLlYcRV/D/6p8C2j6l/navw9RbqQRG3pTewkKJWCmZhs1siRVRNaU
HgkHk+aGpeE/jEygAn+Zi92EOCimAlJkXAroOaitKpA=
-----END CERTIFICATE-----
