Certificate:
    Data:
        Version: 3 (0x2)
        Serial Number: 251 (0xfb)
        Signature Algorithm: sha256WithRSAEncryption
        Issuer: C=fr, ST=idf, L=paris, O=vitam, OU=authorities, CN=ca_intermediate_client-storage
        Validity
            Not Before: Nov 10 14:36:00 2021 GMT
            Not After : Nov  9 14:36:00 2024 GMT
        Subject: C=fr, ST=idf, L=paris, O=vitam, CN=storage
        Subject Public Key Info:
            Public Key Algorithm: rsaEncryption
                RSA Public-Key: (4096 bit)
                Modulus:
                    00:c9:27:23:e1:2f:76:d8:d8:dc:9e:7d:c8:b9:3b:
                    3a:5d:33:a3:5f:c9:41:33:9b:c6:1f:04:41:70:4b:
                    1f:b9:57:51:d7:47:d4:5a:60:2d:ed:14:20:11:9c:
                    1e:1d:9f:3b:aa:1d:6d:58:84:bf:c0:49:8b:f8:72:
                    79:25:dd:83:19:6a:3c:12:41:1e:c7:d1:2e:f1:73:
                    be:3d:b4:b1:bc:2a:2a:f7:07:26:81:9a:3f:75:8e:
                    e5:d3:68:8f:93:b3:9f:60:66:2c:42:8f:b8:b1:36:
                    84:76:1d:70:23:d4:4e:f7:20:67:8c:09:30:ee:5d:
                    2c:f0:c6:76:bc:88:d7:c8:93:b5:c1:93:ad:0e:63:
                    48:dc:37:0a:64:78:d4:e7:0f:a8:c3:96:f0:84:e1:
                    cc:71:6c:c9:43:80:9b:ca:17:e8:59:34:ec:6b:02:
                    c4:7e:bd:76:d0:65:a4:73:e3:db:06:82:83:0b:f3:
                    11:d9:ef:f5:07:b5:84:3f:8f:42:8b:15:25:08:89:
                    2a:58:97:41:c4:e0:b8:9b:3b:52:8e:74:38:7d:b8:
                    57:9e:d3:27:23:47:49:4c:94:c3:5b:d0:1e:9a:2b:
                    f6:10:11:c8:89:af:f6:db:4c:e1:6f:cc:14:50:43:
                    da:8d:3b:9a:cd:1d:67:48:c7:a0:7e:51:9c:b2:66:
                    5b:03:86:44:58:bc:fb:40:80:01:14:b4:09:04:cc:
                    d5:b3:41:5d:07:18:5d:05:b4:f1:37:f8:21:cf:ec:
                    8b:86:3c:23:4d:04:01:e1:ea:95:3f:77:e7:f5:4d:
                    b3:d7:ad:51:6e:db:54:70:5e:3b:31:24:69:10:58:
                    3e:71:f6:9c:e4:a8:2b:f9:b0:69:56:ca:5b:a9:2d:
                    98:5a:cd:83:06:3d:55:a6:53:60:b0:bc:40:27:f0:
                    2d:8c:4b:43:14:dd:ef:dc:bb:41:b8:df:58:8e:1b:
                    21:2d:8c:a7:bb:50:29:ce:e3:f4:76:32:a0:b1:75:
                    fb:ab:ac:6f:eb:21:a5:aa:7b:02:91:32:78:84:87:
                    c5:7e:4f:18:a4:90:61:03:ba:cc:2b:86:eb:d5:67:
                    a1:a0:ae:01:fa:0a:24:d2:64:84:0d:c4:9b:c6:83:
                    b9:59:f6:36:be:11:a7:fe:14:9a:cf:cf:e3:a6:ed:
                    01:ee:91:06:dd:66:64:7c:19:3a:80:4b:80:f5:28:
                    a4:2e:a2:27:30:28:4c:c4:69:be:82:ed:01:a3:57:
                    50:91:9b:a8:2b:4e:42:7f:94:83:54:a5:b0:fd:98:
                    e8:fe:a7:3c:23:31:7b:c0:19:05:2e:99:a5:2d:df:
                    41:55:a7:22:2c:b5:e8:66:11:b7:d7:75:f7:37:d4:
                    70:fa:63
                Exponent: 65537 (0x10001)
        X509v3 extensions:
            Netscape Comment: 
                Certificat Client SSL
            X509v3 Subject Key Identifier: 
                90:59:A5:42:CE:63:DA:5F:17:E3:A0:1D:FB:81:39:F4:C7:34:11:C1
            X509v3 Authority Key Identifier: 
                keyid:74:E9:8A:68:57:03:F0:99:C4:62:2B:CD:05:E2:91:ED:AF:0E:D0:24
                DirName:/C=fr/ST=idf/L=paris/O=vitam/OU=authorities/CN=ca_root_client-storage
                serial:F8

            X509v3 Issuer Alternative Name: 
                <EMPTY>

            X509v3 Basic Constraints: critical
                CA:FALSE
            X509v3 Key Usage: 
                Digital Signature
            Netscape Cert Type: 
                SSL Client
            X509v3 Extended Key Usage: 
                TLS Web Client Authentication
    Signature Algorithm: sha256WithRSAEncryption
         2a:3e:94:38:1c:29:ab:03:50:46:83:a4:14:d2:4b:8b:c2:1b:
         2d:4b:05:b3:8d:e6:35:68:ed:4a:f5:26:c9:b6:89:d9:de:c0:
         ce:7d:12:79:07:97:bc:d6:52:c0:79:ce:dd:77:45:9f:fd:5e:
         14:70:30:eb:dd:e5:79:3d:e3:06:73:03:ce:da:e1:af:96:e5:
         04:59:cd:60:64:2b:4d:12:a6:aa:45:85:36:67:8d:4f:c7:6b:
         95:5f:be:1a:94:d9:80:1d:27:af:d8:fd:b8:87:e3:2a:5d:f5:
         a7:3c:8f:ee:7a:01:df:37:63:9d:aa:df:5e:95:7e:71:dc:d6:
         8c:f4:a8:a3:00:71:f9:07:2c:5a:55:e2:8e:36:64:ff:8a:8c:
         ba:4a:e7:05:af:9f:4e:f8:e0:c4:f1:c4:9c:2d:e4:c5:5c:f6:
         07:f2:ad:51:4f:d0:f6:ad:ee:1f:cb:6c:45:8e:cb:d6:63:7b:
         54:ac:8e:6f:85:e5:b0:9c:99:92:44:2d:5c:55:6c:03:c5:da:
         23:6f:fa:c6:e4:bd:81:94:2b:13:90:21:3c:b2:4a:1c:21:9e:
         56:b5:c8:d8:e6:b4:21:86:e6:11:ac:7f:81:65:7a:a3:42:72:
         e9:aa:15:2c:1a:3a:31:57:c5:66:71:98:fe:a5:d2:b4:49:04:
         e9:46:dd:1e:ab:9d:ae:ba:d9:eb:b8:82:90:a7:39:7d:b7:76:
         4b:f9:56:9e:c0:be:96:8d:52:0f:cc:a8:de:69:48:71:cb:90:
         e6:d8:0a:d4:f5:5d:68:19:a0:0c:43:e2:93:24:b8:fc:f7:c8:
         5b:2c:78:25:2f:2e:0f:4a:37:22:f6:cc:97:6e:db:56:a6:1d:
         41:4d:ad:f1:6c:df:3c:67:c0:47:c9:ef:de:d3:6a:39:ee:0d:
         d5:93:a9:80:c2:24:97:9b:88:49:a7:7d:30:dd:8f:bb:25:63:
         48:8b:d5:97:ef:fa:45:7b:40:7a:b7:54:1b:41:70:b0:e8:35:
         27:3d:2b:27:16:b3:78:d3:37:cc:0a:b8:b8:fa:bd:14:d4:b4:
         74:01:6a:19:5a:8a:25:11:9c:43:2d:ac:8a:ab:cb:1f:3e:da:
         6f:ea:c4:0c:e8:ea:a8:20:54:4c:d1:00:eb:99:f6:66:1c:2c:
         ac:34:c9:28:ab:7f:48:aa:4a:97:53:e0:fd:9e:61:d3:7c:74:
         6d:61:47:b2:78:88:6a:54:2a:31:3c:c7:d1:0e:9d:d6:b0:47:
         d7:99:bd:b9:50:d7:47:eb:be:34:d2:da:cc:82:51:e4:84:08:
         13:df:c1:8a:a8:7e:b4:1b:ac:8d:9b:c3:17:86:94:7c:e4:c3:
         53:08:a6:e8:4d:e0:f6:f6
-----BEGIN CERTIFICATE-----
MIIGfDCCBGSgAwIBAgICAPswDQYJKoZIhvcNAQELBQAwejELMAkGA1UEBhMCZnIx
DDAKBgNVBAgMA2lkZjEOMAwGA1UEBwwFcGFyaXMxDjAMBgNVBAoMBXZpdGFtMRQw
EgYDVQQLDAthdXRob3JpdGllczEnMCUGA1UEAwweY2FfaW50ZXJtZWRpYXRlX2Ns
aWVudC1zdG9yYWdlMB4XDTIxMTExMDE0MzYwMFoXDTI0MTEwOTE0MzYwMFowTTEL
MAkGA1UEBhMCZnIxDDAKBgNVBAgMA2lkZjEOMAwGA1UEBwwFcGFyaXMxDjAMBgNV
BAoMBXZpdGFtMRAwDgYDVQQDDAdzdG9yYWdlMIICIjANBgkqhkiG9w0BAQEFAAOC
Ag8AMIICCgKCAgEAyScj4S922Njcnn3IuTs6XTOjX8lBM5vGHwRBcEsfuVdR10fU
WmAt7RQgEZweHZ87qh1tWIS/wEmL+HJ5Jd2DGWo8EkEex9Eu8XO+PbSxvCoq9wcm
gZo/dY7l02iPk7OfYGYsQo+4sTaEdh1wI9RO9yBnjAkw7l0s8MZ2vIjXyJO1wZOt
DmNI3DcKZHjU5w+ow5bwhOHMcWzJQ4CbyhfoWTTsawLEfr120GWkc+PbBoKDC/MR
2e/1B7WEP49CixUlCIkqWJdBxOC4mztSjnQ4fbhXntMnI0dJTJTDW9Aemiv2EBHI
ia/220zhb8wUUEPajTuazR1nSMegflGcsmZbA4ZEWLz7QIABFLQJBMzVs0FdBxhd
BbTxN/ghz+yLhjwjTQQB4eqVP3fn9U2z161RbttUcF47MSRpEFg+cfac5Kgr+bBp
VspbqS2YWs2DBj1VplNgsLxAJ/AtjEtDFN3v3LtBuN9YjhshLYynu1ApzuP0djKg
sXX7q6xv6yGlqnsCkTJ4hIfFfk8YpJBhA7rMK4br1WehoK4B+gok0mSEDcSbxoO5
WfY2vhGn/hSaz8/jpu0B7pEG3WZkfBk6gEuA9SikLqInMChMxGm+gu0Bo1dQkZuo
K05Cf5SDVKWw/Zjo/qc8IzF7wBkFLpmlLd9BVaciLLXoZhG313X3N9Rw+mMCAwEA
AaOCATcwggEzMCQGCWCGSAGG+EIBDQQXFhVDZXJ0aWZpY2F0IENsaWVudCBTU0ww
HQYDVR0OBBYEFJBZpULOY9pfF+OgHfuBOfTHNBHBMIGdBgNVHSMEgZUwgZKAFHTp
imhXA/CZxGIrzQXike2vDtAkoXakdDByMQswCQYDVQQGEwJmcjEMMAoGA1UECAwD
aWRmMQ4wDAYDVQQHDAVwYXJpczEOMAwGA1UECgwFdml0YW0xFDASBgNVBAsMC2F1
dGhvcml0aWVzMR8wHQYDVQQDDBZjYV9yb290X2NsaWVudC1zdG9yYWdlggIA+DAJ
BgNVHRIEAjAAMAwGA1UdEwEB/wQCMAAwCwYDVR0PBAQDAgeAMBEGCWCGSAGG+EIB
AQQEAwIHgDATBgNVHSUEDDAKBggrBgEFBQcDAjANBgkqhkiG9w0BAQsFAAOCAgEA
Kj6UOBwpqwNQRoOkFNJLi8IbLUsFs43mNWjtSvUmybaJ2d7Azn0SeQeXvNZSwHnO
3XdFn/1eFHAw693leT3jBnMDztrhr5blBFnNYGQrTRKmqkWFNmeNT8drlV++GpTZ
gB0nr9j9uIfjKl31pzyP7noB3zdjnarfXpV+cdzWjPSoowBx+QcsWlXijjZk/4qM
ukrnBa+fTvjgxPHEnC3kxVz2B/KtUU/Q9q3uH8tsRY7L1mN7VKyOb4XlsJyZkkQt
XFVsA8XaI2/6xuS9gZQrE5AhPLJKHCGeVrXI2Oa0IYbmEax/gWV6o0Jy6aoVLBo6
MVfFZnGY/qXStEkE6UbdHqudrrrZ67iCkKc5fbd2S/lWnsC+lo1SD8yo3mlIccuQ
5tgK1PVdaBmgDEPikyS4/PfIWyx4JS8uD0o3IvbMl27bVqYdQU2t8WzfPGfAR8nv
3tNqOe4N1ZOpgMIkl5uISad9MN2PuyVjSIvVl+/6RXtAerdUG0FwsOg1Jz0rJxaz
eNM3zAq4uPq9FNS0dAFqGVqKJRGcQy2siqvLHz7ab+rEDOjqqCBUTNEA65n2Zhws
rDTJKKt/SKpKl1Pg/Z5h03x0bWFHsniIalQqMTzH0Q6d1rBH15m9uVDXR+u+NNLa
zIJR5IQIE9/Biqh+tBusjZvDF4aUfOTDUwim6E3g9vY=
-----END CERTIFICATE-----
