Certificate:
    Data:
        Version: 3 (0x2)
        Serial Number: 196 (0xc4)
    Signature Algorithm: sha256WithRSAEncryption
        Issuer: C=FR, ST=idf, L=paris, O=Vitam., CN=CA_client
        Validity
            Not Before: Nov 18 14:13:01 2016 GMT
            Not After : Nov 16 14:13:01 2026 GMT
        Subject: C=FR, ST=idf, L=paris, O=Vitam., CN=CA_client_intermediate
        Subject Public Key Info:
            Public Key Algorithm: rsaEncryption
                Public-Key: (4096 bit)
                Modulus:
                    00:ac:e3:fa:3e:ec:02:79:cd:5e:f3:83:7b:1b:e3:
                    85:7e:58:16:b8:8b:bc:c2:52:aa:f9:76:8e:0b:b3:
                    af:bd:65:b4:69:43:97:7c:44:f2:c8:fc:39:15:db:
                    a7:04:b1:4c:f9:0d:1c:f3:d7:e6:83:5c:1f:2e:4b:
                    93:38:b4:4a:45:69:98:51:21:db:07:42:2a:4b:51:
                    cb:fe:04:8f:28:03:4f:15:94:6b:da:58:37:f3:8c:
                    81:10:39:2a:42:41:2d:45:96:37:44:28:31:22:33:
                    f8:5a:e1:f9:ac:84:f9:9f:51:da:36:d1:19:c0:77:
                    65:0a:a6:cf:4f:5b:1f:e7:8d:ef:af:78:3f:80:a4:
                    0b:94:50:74:8d:90:d1:2b:5d:ee:52:5c:c5:11:2c:
                    38:a8:40:b0:0a:af:ee:75:7b:0a:12:82:88:04:2a:
                    cd:62:f6:ee:d8:d6:32:9d:33:bc:ba:85:9e:24:75:
                    4a:fe:34:80:d8:b9:5c:41:a1:83:cc:07:00:33:59:
                    5e:b8:10:b2:99:93:e7:68:a2:8b:0f:d2:3e:63:7a:
                    76:ed:55:42:fb:c6:88:a0:af:d2:10:ce:f8:38:76:
                    0a:24:cf:9a:33:55:66:aa:b4:38:0b:31:49:b0:a5:
                    16:19:1d:e3:3d:2b:4b:84:a0:98:33:d1:af:3b:9e:
                    cf:6c:f8:92:56:5e:68:44:2b:0f:30:3c:05:48:13:
                    1b:69:8c:bf:f5:1f:4d:c2:92:6e:3f:e0:51:c0:87:
                    6a:31:65:68:61:8c:09:40:a9:97:97:d5:aa:e5:69:
                    9a:a2:c6:c7:80:70:a4:24:75:4b:28:da:89:37:e8:
                    9a:e4:4e:5d:4c:65:44:8f:6a:e4:31:6c:f0:27:99:
                    b9:a8:2a:74:9b:c1:0d:44:61:4d:48:e5:62:7f:4d:
                    e9:76:be:27:eb:34:f7:f1:3a:3d:6e:46:6d:d7:79:
                    17:74:c7:f8:7b:5a:a1:f3:16:17:a9:0d:56:d7:0a:
                    8e:e4:75:6f:d0:81:9e:e7:bc:f9:b4:34:a4:e2:87:
                    98:e9:18:aa:65:9a:3e:3a:7b:26:ca:63:29:41:21:
                    f5:40:20:6a:b1:eb:06:8a:a8:8e:dd:4f:c0:ee:ad:
                    47:7e:84:58:b2:33:d4:04:b3:84:0f:31:82:a7:6a:
                    09:0a:ad:e2:03:12:9d:ad:9b:58:55:60:17:5b:c6:
                    b2:84:17:21:17:cc:60:71:6f:55:d8:64:02:03:98:
                    3f:d6:10:99:41:31:53:4d:e1:e3:b6:31:d4:0b:38:
                    95:92:da:ff:5b:70:37:bf:45:00:b3:0c:b5:fa:b5:
                    36:8d:1d:33:b8:64:d9:96:84:a1:f7:c4:82:6c:94:
                    68:ba:47
                Exponent: 65537 (0x10001)
        X509v3 extensions:
            Netscape Comment: 
                CA SSL
            X509v3 Basic Constraints: critical
                CA:TRUE, pathlen:0
            X509v3 Subject Key Identifier: 
                B8:64:05:68:8C:72:F7:D2:70:71:BC:B2:31:0E:E3:31:05:5D:E0:1F
            X509v3 Authority Key Identifier: 
                keyid:8C:5F:BA:59:28:4E:BB:08:3B:10:B2:5B:7B:4F:32:3F:33:86:08:D9
                DirName:/C=FR/ST=idf/L=paris/O=Vitam./CN=CA_client
                serial:C3

            X509v3 Issuer Alternative Name: 
                <EMPTY>

            X509v3 Key Usage: 
                Certificate Sign, CRL Sign
            Netscape Cert Type: 
                SSL CA
    Signature Algorithm: sha256WithRSAEncryption
         5b:a9:1d:25:6e:af:77:1b:87:38:0b:44:0f:ee:82:c7:d9:53:
         dc:c1:9c:a0:7b:46:eb:23:db:fc:53:00:1c:c8:2d:80:ad:75:
         1b:53:a8:19:e1:c8:47:f1:67:22:58:dd:b2:07:e2:eb:b4:1a:
         70:a4:b6:18:89:d0:47:42:ff:e2
-----BEGIN CERTIFICATE-----
MIIEWzCCBAWgAwIBAgICAMQwDQYJKoZIhvcNAQELBQAwUDELMAkGA1UEBhMCRlIx
DDAKBgNVBAgTA2lkZjEOMAwGA1UEBxMFcGFyaXMxDzANBgNVBAoTBlZpdGFtLjES
MBAGA1UEAxQJQ0FfY2xpZW50MB4XDTE2MTExODE0MTMwMVoXDTI2MTExNjE0MTMw
MVowXTELMAkGA1UEBhMCRlIxDDAKBgNVBAgTA2lkZjEOMAwGA1UEBxMFcGFyaXMx
DzANBgNVBAoTBlZpdGFtLjEfMB0GA1UEAxQWQ0FfY2xpZW50X2ludGVybWVkaWF0
ZTCCAiIwDQYJKoZIhvcNAQEBBQADggIPADCCAgoCggIBAKzj+j7sAnnNXvODexvj
hX5YFriLvMJSqvl2jguzr71ltGlDl3xE8sj8ORXbpwSxTPkNHPPX5oNcHy5Lkzi0
SkVpmFEh2wdCKktRy/4EjygDTxWUa9pYN/OMgRA5KkJBLUWWN0QoMSIz+Frh+ayE
+Z9R2jbRGcB3ZQqmz09bH+eN7694P4CkC5RQdI2Q0Std7lJcxREsOKhAsAqv7nV7
ChKCiAQqzWL27tjWMp0zvLqFniR1Sv40gNi5XEGhg8wHADNZXrgQspmT52iiiw/S
PmN6du1VQvvGiKCv0hDO+Dh2CiTPmjNVZqq0OAsxSbClFhkd4z0rS4SgmDPRrzue
z2z4klZeaEQrDzA8BUgTG2mMv/UfTcKSbj/gUcCHajFlaGGMCUCpl5fVquVpmqLG
x4BwpCR1SyjaiTfomuROXUxlRI9q5DFs8CeZuagqdJvBDURhTUjlYn9N6Xa+J+s0
9/E6PW5Gbdd5F3TH+HtaofMWF6kNVtcKjuR1b9CBnue8+bQ0pOKHmOkYqmWaPjp7
JspjKUEh9UAgarHrBoqojt1PwO6tR36EWLIz1ASzhA8xgqdqCQqt4gMSna2bWFVg
F1vGsoQXIRfMYHFvVdhkAgOYP9YQmUExU03h47Yx1As4lZLa/1twN79FALMMtfq1
No0dM7hk2ZaEoffEgmyUaLpHAgMBAAGjgfMwgfAwFQYJYIZIAYb4QgENBAgWBkNB
IFNTTDASBgNVHRMBAf8ECDAGAQH/AgEAMB0GA1UdDgQWBBS4ZAVojHL30nBxvLIx
DuMxBV3gHzB5BgNVHSMEcjBwgBSMX7pZKE67CDsQslt7TzI/M4YI2aFUpFIwUDEL
MAkGA1UEBhMCRlIxDDAKBgNVBAgTA2lkZjEOMAwGA1UEBxMFcGFyaXMxDzANBgNV
BAoTBlZpdGFtLjESMBAGA1UEAxQJQ0FfY2xpZW50ggIAwzAJBgNVHRIEAjAAMAsG
A1UdDwQEAwIBBjARBglghkgBhvhCAQEEBAMCAgQwDQYJKoZIhvcNAQELBQADQQBb
qR0lbq93G4c4C0QP7oLH2VPcwZyge0brI9v8UwAcyC2ArXUbU6gZ4chH8WciWN2y
B+LrtBpwpLYYidBHQv/i
-----END CERTIFICATE-----
