Certificate:
    Data:
        Version: 3 (0x2)
        Serial Number: 235 (0xeb)
    Signature Algorithm: sha256WithRSAEncryption
        Issuer: C=fr, ST=idf, L=paris, O=vitam, OU=authorities, CN=ca_root_client-storage
        Validity
            Not Before: Feb  5 12:46:57 2018 GMT
            Not After : Feb  3 12:46:57 2028 GMT
        Subject: C=fr, ST=idf, L=paris, O=vitam, OU=authorities, CN=ca_intermediate_client-storage
        Subject Public Key Info:
            Public Key Algorithm: rsaEncryption
                Public-Key: (4096 bit)
                Modulus:
                    00:a5:5e:bd:41:02:0b:8f:8d:cb:94:79:a4:98:a7:
                    a7:84:2d:ca:93:c2:c1:95:f2:24:28:f1:5b:03:f6:
                    5f:7e:af:e9:73:0e:d0:44:17:c6:f2:01:71:f9:50:
                    a7:43:cf:58:ee:8d:49:ee:cf:9c:70:0e:f7:11:9e:
                    8d:87:70:2d:64:a6:fb:e8:1b:06:c6:62:6a:0b:1e:
                    f4:45:6f:e3:06:62:63:32:74:43:53:9d:04:a2:63:
                    69:7e:bc:cb:ce:ed:7e:f1:01:75:e5:94:88:14:8c:
                    3a:16:ca:0c:6e:75:3e:d4:9f:76:de:86:8b:b4:9f:
                    a4:2c:3c:f2:94:7b:87:2f:42:01:0b:e3:38:e8:f5:
                    b8:0b:a1:88:cb:54:a4:62:8a:59:4d:e9:0d:c9:20:
                    cf:61:bc:bd:97:28:54:48:61:36:96:65:bc:e5:5f:
                    bf:6f:45:81:2b:67:b7:aa:8c:6b:9f:8b:34:2b:a0:
                    01:b5:72:cd:e5:a6:84:83:c3:5c:b9:fe:6b:cb:1a:
                    00:02:9f:cc:1c:a9:41:b8:bf:c7:3a:59:2b:28:11:
                    08:7b:fd:ed:98:bf:52:b9:d5:d5:ed:74:57:5a:89:
                    17:60:1a:64:e8:ea:08:9a:6e:e0:21:10:6f:87:33:
                    10:25:67:e3:99:1f:24:a1:38:6d:82:11:62:6e:af:
                    1d:40:46:84:4f:14:3f:8c:40:4e:59:3b:67:39:5d:
                    ef:51:6c:50:29:ca:75:5e:17:e0:b3:5b:eb:f3:28:
                    30:ac:91:60:a0:84:c5:f7:45:56:97:9e:4a:3e:d3:
                    57:c1:e6:cf:4c:a3:96:ef:f6:1f:ec:fa:72:1d:78:
                    5e:1e:39:6f:a9:63:98:01:07:57:a4:47:76:8d:43:
                    9b:f7:eb:2c:ff:aa:db:f8:83:60:16:93:07:30:5a:
                    e5:16:04:2b:de:b3:56:39:2a:e7:b7:d3:05:e6:87:
                    a8:a3:f7:0a:7d:2e:79:5c:ae:69:3a:a5:71:55:b2:
                    14:bd:06:24:0e:83:c5:5e:20:77:90:61:05:b9:d1:
                    45:d3:3c:6c:2c:17:6a:a1:04:a8:68:65:fe:70:20:
                    00:4e:f7:18:95:97:7b:a2:2f:80:c7:e8:22:f3:56:
                    5b:cf:f7:a7:9c:cd:8a:c6:27:ae:02:04:69:cf:5d:
                    52:6f:7c:97:ad:df:95:2b:08:40:5d:b5:f0:d0:b5:
                    62:fd:51:23:45:38:21:ad:a3:32:3c:3b:a5:d6:95:
                    3c:f8:6e:31:c4:48:3a:36:80:71:11:95:26:38:ce:
                    3b:14:db:31:7f:23:43:1f:c0:bd:89:76:e7:c5:81:
                    02:79:20:f1:ab:c1:e4:4d:a4:13:fa:bc:c3:f7:20:
                    99:97:e9
                Exponent: 65537 (0x10001)
        X509v3 extensions:
            Netscape Comment: 
                CA Intermediate
            X509v3 Subject Key Identifier: 
                71:2E:00:AF:C0:C9:73:E9:24:D3:59:47:CF:B4:6B:6A:92:FD:06:F5
            X509v3 Authority Key Identifier: 
                keyid:8D:DA:C8:E0:48:C2:B8:A5:5C:BE:F5:BD:E9:8D:91:8A:C6:71:80:2D
                DirName:/C=fr/ST=idf/L=paris/O=vitam/OU=authorities/CN=ca_root_client-storage
                serial:EA

            X509v3 Basic Constraints: critical
                CA:TRUE, pathlen:0
            X509v3 Issuer Alternative Name: 
                <EMPTY>

            X509v3 Key Usage: 
                Certificate Sign, CRL Sign
            Netscape Cert Type: 
                SSL CA
    Signature Algorithm: sha256WithRSAEncryption
         8b:59:b2:7e:e8:3e:64:b0:e5:2c:30:05:55:60:7a:e1:72:62:
         60:5a:de:2f:0e:ed:fa:40:22:78:8f:54:3f:4c:e1:aa:bb:4a:
         c1:0a:d7:e9:2b:78:4a:10:0a:05:0e:a2:70:24:35:80:c4:ae:
         4a:5f:1e:b7:9f:13:f7:af:2d:95:2e:6f:8e:da:d6:82:af:c9:
         49:44:a9:75:e5:8f:0f:a2:dd:ec:aa:9e:33:d4:55:8d:65:b7:
         6d:f9:46:ff:35:d3:de:5f:8b:00:21:3e:6f:52:f2:80:65:52:
         5a:d1:fc:b4:ba:7a:df:e0:69:4d:96:5d:2e:b8:f2:5e:0a:99:
         9a:80:ed:c2:26:fd:88:8b:08:8b:b5:ca:60:6a:10:70:5d:0d:
         61:0e:38:57:07:f7:0c:ed:47:99:6a:7b:23:4f:b7:4f:33:97:
         8a:d6:b6:45:a2:4b:33:fb:f9:69:0c:a2:22:ed:50:77:18:6f:
         86:66:db:b8:4e:b9:6f:5e:93:3a:c8:69:69:aa:d2:0d:87:ab:
         02:03:9d:cf:6b:95:a0:c4:35:4b:3c:15:ec:72:1b:ab:b0:84:
         e3:dc:c2:a2:6f:fc:c0:08:05:28:b7:57:52:82:94:86:dc:23:
         0f:a7:c7:93:f3:f3:06:49:b4:ff:77:6a:a2:c6:ec:aa:1c:80:
         2d:75:e2:a4:f7:d7:ce:5d:cc:d5:9b:2e:3d:f4:28:ae:0f:1b:
         57:bd:c4:76:78:d1:0f:85:80:34:14:76:73:a5:1a:c2:9d:17:
         10:3f:14:50:f3:a3:98:c4:ae:94:e7:50:7d:f9:2f:bb:8d:a1:
         68:d1:b1:dd:6c:ba:31:55:53:38:11:58:31:f4:9b:1a:30:a3:
         e2:3e:4b:f3:f6:a9:b4:83:c0:f9:99:a6:fd:52:19:8d:87:93:
         6f:59:42:67:8b:9d:01:27:6f:95:16:19:a7:ef:01:20:18:3c:
         ad:57:90:fd:1e:14:05:67:8c:2d:9a:aa:99:bb:10:a9:6e:32:
         57:58:c8:73:f2:81:76:b6:af:c1:eb:e8:e9:48:48:1e:ca:99:
         7d:af:d8:72:cc:88:8b:96:37:1a:83:54:9d:12:22:12:10:d4:
         96:00:eb:bc:96:5a:ef:5c:2e:d0:ee:60:46:18:59:21:f8:85:
         9c:77:18:77:d7:39:ba:ed:cc:2c:ec:87:68:3b:7e:3d:30:79:
         0c:7c:a9:b2:6d:1d:f6:7c:58:ab:0e:b3:6d:34:cd:fb:8f:6f:
         61:19:06:c6:71:b9:1f:34:a6:80:89:40:6c:ee:7c:5c:87:1b:
         e8:c7:ee:33:c8:e8:94:7d:86:60:2e:3b:f0:2f:a8:c3:d3:ec:
         94:2e:06:b4:96:14:68:25
-----BEGIN CERTIFICATE-----
MIIGjDCCBHSgAwIBAgICAOswDQYJKoZIhvcNAQELBQAwcjELMAkGA1UEBhMCZnIx
DDAKBgNVBAgMA2lkZjEOMAwGA1UEBwwFcGFyaXMxDjAMBgNVBAoMBXZpdGFtMRQw
EgYDVQQLDAthdXRob3JpdGllczEfMB0GA1UEAwwWY2Ffcm9vdF9jbGllbnQtc3Rv
cmFnZTAeFw0xODAyMDUxMjQ2NTdaFw0yODAyMDMxMjQ2NTdaMHoxCzAJBgNVBAYT
AmZyMQwwCgYDVQQIDANpZGYxDjAMBgNVBAcMBXBhcmlzMQ4wDAYDVQQKDAV2aXRh
bTEUMBIGA1UECwwLYXV0aG9yaXRpZXMxJzAlBgNVBAMMHmNhX2ludGVybWVkaWF0
ZV9jbGllbnQtc3RvcmFnZTCCAiIwDQYJKoZIhvcNAQEBBQADggIPADCCAgoCggIB
AKVevUECC4+Ny5R5pJinp4QtypPCwZXyJCjxWwP2X36v6XMO0EQXxvIBcflQp0PP
WO6NSe7PnHAO9xGejYdwLWSm++gbBsZiagse9EVv4wZiYzJ0Q1OdBKJjaX68y87t
fvEBdeWUiBSMOhbKDG51PtSfdt6Gi7SfpCw88pR7hy9CAQvjOOj1uAuhiMtUpGKK
WU3pDckgz2G8vZcoVEhhNpZlvOVfv29FgStnt6qMa5+LNCugAbVyzeWmhIPDXLn+
a8saAAKfzBypQbi/xzpZKygRCHv97Zi/UrnV1e10V1qJF2AaZOjqCJpu4CEQb4cz
ECVn45kfJKE4bYIRYm6vHUBGhE8UP4xATlk7Zzld71FsUCnKdV4X4LNb6/MoMKyR
YKCExfdFVpeeSj7TV8Hmz0yjlu/2H+z6ch14Xh45b6ljmAEHV6RHdo1Dm/frLP+q
2/iDYBaTBzBa5RYEK96zVjkq57fTBeaHqKP3Cn0ueVyuaTqlcVWyFL0GJA6DxV4g
d5BhBbnRRdM8bCwXaqEEqGhl/nAgAE73GJWXe6IvgMfoIvNWW8/3p5zNisYnrgIE
ac9dUm98l63flSsIQF218NC1Yv1RI0U4Ia2jMjw7pdaVPPhuMcRIOjaAcRGVJjjO
OxTbMX8jQx/AvYl258WBAnkg8avB5E2kE/q8w/cgmZfpAgMBAAGjggEiMIIBHjAe
BglghkgBhvhCAQ0EERYPQ0EgSW50ZXJtZWRpYXRlMB0GA1UdDgQWBBRxLgCvwMlz
6STTWUfPtGtqkv0G9TCBnQYDVR0jBIGVMIGSgBSN2sjgSMK4pVy+9b3pjZGKxnGA
LaF2pHQwcjELMAkGA1UEBhMCZnIxDDAKBgNVBAgMA2lkZjEOMAwGA1UEBwwFcGFy
aXMxDjAMBgNVBAoMBXZpdGFtMRQwEgYDVQQLDAthdXRob3JpdGllczEfMB0GA1UE
AwwWY2Ffcm9vdF9jbGllbnQtc3RvcmFnZYICAOowEgYDVR0TAQH/BAgwBgEB/wIB
ADAJBgNVHRIEAjAAMAsGA1UdDwQEAwIBBjARBglghkgBhvhCAQEEBAMCAgQwDQYJ
KoZIhvcNAQELBQADggIBAItZsn7oPmSw5SwwBVVgeuFyYmBa3i8O7fpAIniPVD9M
4aq7SsEK1+kreEoQCgUOonAkNYDErkpfHrefE/evLZUub47a1oKvyUlEqXXljw+i
3eyqnjPUVY1lt235Rv81095fiwAhPm9S8oBlUlrR/LS6et/gaU2WXS648l4KmZqA
7cIm/YiLCIu1ymBqEHBdDWEOOFcH9wztR5lqeyNPt08zl4rWtkWiSzP7+WkMoiLt
UHcYb4Zm27hOuW9ekzrIaWmq0g2HqwIDnc9rlaDENUs8FexyG6uwhOPcwqJv/MAI
BSi3V1KClIbcIw+nx5Pz8wZJtP93aqLG7KocgC114qT3185dzNWbLj30KK4PG1e9
xHZ40Q+FgDQUdnOlGsKdFxA/FFDzo5jErpTnUH35L7uNoWjRsd1sujFVUzgRWDH0
mxowo+I+S/P2qbSDwPmZpv1SGY2Hk29ZQmeLnQEnb5UWGafvASAYPK1XkP0eFAVn
jC2aqpm7EKluMldYyHPygXa2r8Hr6OlISB7KmX2v2HLMiIuWNxqDVJ0SIhIQ1JYA
67yWWu9cLtDuYEYYWSH4hZx3GHfXObrtzCzsh2g7fj0weQx8qbJtHfZ8WKsOs200
zfuPb2EZBsZxuR80poCJQGzufFyHG+jH7jPI6JR9hmAuO/AvqMPT7JQuBrSWFGgl
-----END CERTIFICATE-----
