Certificate:
    Data:
        Version: 3 (0x2)
        Serial Number: 248 (0xf8)
        Signature Algorithm: sha256WithRSAEncryption
        Issuer: C=fr, ST=idf, L=paris, O=vitam, OU=authorities, CN=ca_root_client-storage
        Validity
            Not Before: Sep 15 12:58:47 2020 GMT
            Not After : Dec 31 23:59:59 9999 GMT
        Subject: C=fr, ST=idf, L=paris, O=vitam, OU=authorities, CN=ca_intermediate_client-storage
        Subject Public Key Info:
            Public Key Algorithm: rsaEncryption
                RSA Public-Key: (4096 bit)
                Modulus:
                    00:9e:02:e9:a6:11:d5:6f:1f:3e:d4:a6:2a:0f:6a:
                    07:2e:60:e0:9f:e2:a9:e8:1e:08:54:f7:d4:e2:2d:
                    09:d8:56:cb:12:7e:eb:25:bd:3e:f9:f1:cd:99:69:
                    f5:2b:22:b4:83:a2:84:7e:ab:81:98:f1:8f:ed:11:
                    c3:25:cb:2b:b9:29:88:8d:02:83:83:6c:01:65:2e:
                    4e:dd:7b:98:2c:2b:a9:a3:dc:2e:6c:44:34:f7:5d:
                    a2:a4:2c:99:06:4b:42:ad:52:da:29:7c:0a:c2:23:
                    eb:0e:1f:e9:3e:8a:0e:9d:81:2b:7e:ab:14:d4:2a:
                    9d:cb:d1:ef:ed:3a:12:1d:7d:aa:c4:ba:d0:33:ae:
                    48:98:71:b9:e9:45:10:84:dd:72:1d:c4:65:a1:47:
                    c9:40:70:2c:95:db:bf:d1:41:52:0e:e8:f9:e4:21:
                    b9:b6:6a:30:57:eb:ea:59:46:65:34:af:b6:91:e7:
                    c9:52:40:0a:73:0c:8d:ea:56:0a:c5:ef:c4:60:62:
                    27:22:dc:95:cc:3f:e0:74:8e:07:c6:b9:a1:6e:e6:
                    c4:99:49:45:57:8b:ba:96:17:4d:01:26:3e:62:5d:
                    1e:f3:d3:38:90:4d:f0:d6:61:31:fb:51:ac:be:8d:
                    f0:42:e7:7e:d8:12:28:98:44:5f:ee:34:d1:3d:7e:
                    63:15:f3:c8:bd:a5:f3:f5:f7:ed:98:0a:d7:f9:43:
                    66:6f:4d:24:08:48:b0:a9:81:39:20:4b:fa:af:1c:
                    11:4a:9c:e4:11:7b:df:a9:45:a1:db:7f:2c:ec:db:
                    22:4f:33:bc:02:e5:7e:5b:0d:ba:e6:9f:85:f2:6d:
                    64:de:b9:81:9c:80:67:9f:fb:16:7d:61:a4:c0:da:
                    e4:dd:8b:1d:61:65:f3:b0:b0:72:7d:25:54:e9:19:
                    b2:26:c5:00:de:4f:c4:e4:56:51:8c:22:4d:05:3f:
                    7e:e5:b7:fd:e2:96:d5:67:6d:9a:c4:f5:52:71:18:
                    d2:49:58:99:3f:c0:ca:9e:82:49:31:18:7e:c4:c6:
                    6c:af:29:18:38:61:8e:14:25:1a:a2:9f:75:f4:8a:
                    17:07:9c:12:6f:58:9a:72:00:2e:fb:7a:a6:5c:41:
                    0c:23:9f:88:cc:2b:7a:f8:5d:33:16:16:ed:77:74:
                    aa:da:af:77:59:d1:12:b5:7a:76:9e:30:64:19:a0:
                    d2:aa:1d:fe:a3:53:93:dc:24:b0:4b:26:2d:0e:75:
                    da:f0:7c:63:26:90:b7:ca:cc:2e:b1:ea:e5:72:38:
                    65:65:cd:ec:50:73:9d:38:73:5b:f6:8d:26:64:68:
                    1d:83:65:5b:b1:56:d6:10:78:7e:3a:ea:f1:52:f0:
                    07:21:37
                Exponent: 65537 (0x10001)
        X509v3 extensions:
            Netscape Comment: 
                CA Intermediate
            X509v3 Subject Key Identifier: 
                74:E9:8A:68:57:03:F0:99:C4:62:2B:CD:05:E2:91:ED:AF:0E:D0:24
            X509v3 Authority Key Identifier: 
                keyid:94:33:94:E8:B8:02:70:52:31:F5:6F:CC:A4:50:FF:19:26:76:41:A0
                DirName:/C=fr/ST=idf/L=paris/O=vitam/OU=authorities/CN=ca_root_client-storage
                serial:F7

            X509v3 Basic Constraints: critical
                CA:TRUE, pathlen:0
            X509v3 Issuer Alternative Name: 
                <EMPTY>

            X509v3 Key Usage: 
                Certificate Sign, CRL Sign
            Netscape Cert Type: 
                SSL CA
    Signature Algorithm: sha256WithRSAEncryption
         b2:1c:e4:b9:d9:de:e9:62:af:92:60:22:4a:6d:59:7d:4b:ac:
         8a:1b:1b:a1:34:61:28:f5:fc:4a:64:ea:df:00:0c:de:bb:d1:
         ea:90:88:78:cc:80:56:fc:ba:e2:2d:d3:c2:e2:0d:42:0b:f0:
         74:ec:97:f1:33:fb:44:fb:62:e2:37:13:0d:0f:40:83:48:73:
         61:98:d3:31:8b:a7:98:b1:30:73:a3:be:a3:5f:5c:38:2d:8f:
         6c:32:74:ee:e6:47:eb:aa:f0:f3:61:d3:1b:80:75:a7:62:d5:
         3c:c9:a6:59:51:4a:0a:57:20:ca:bc:32:8b:da:44:af:95:8b:
         4c:ed:37:ab:71:c3:3a:77:d7:4e:41:85:82:27:f5:2d:c3:02:
         7c:96:83:53:21:3e:78:39:e0:7d:fa:5b:1b:9c:d5:7c:ce:93:
         07:7a:cb:37:64:8a:a1:60:95:ec:ee:46:c8:38:08:bf:eb:5e:
         42:9d:d4:fa:7b:12:8d:ca:7a:89:86:14:d1:1f:42:55:11:60:
         48:94:38:0b:92:16:17:46:03:dc:b0:9a:0c:f6:74:64:2c:ee:
         92:97:9e:6e:19:77:be:7e:37:bf:6d:d3:68:49:b5:87:46:31:
         a6:db:4f:ad:7f:50:a0:a5:2d:66:cb:2e:4c:fc:46:2b:5a:36:
         e9:63:4b:0f:ab:f7:d2:9c:50:f9:10:37:0e:ba:99:af:65:6d:
         38:49:5a:ba:a8:b5:45:db:68:a4:d8:74:7f:7e:ee:b4:ab:c1:
         c5:cc:34:d7:08:c0:f1:1a:c3:98:54:d8:82:8d:24:63:e9:13:
         b7:67:89:a7:e2:84:5d:4d:4c:6e:76:78:4e:d2:fb:a5:07:c1:
         a7:f3:ff:fb:51:38:b6:55:e9:9a:56:77:b1:e1:ea:a7:ef:b5:
         41:70:ff:90:10:27:ae:f1:39:19:25:f5:c2:64:72:45:dd:63:
         00:d1:c1:6c:d8:e5:1a:96:25:59:eb:f9:c6:86:98:22:49:d6:
         6d:7b:d5:13:b9:3c:df:d2:63:0a:60:32:77:b9:61:1f:90:7e:
         2e:08:fa:df:c4:45:3f:d3:ee:b8:5a:59:22:ea:c2:d1:a0:30:
         c3:ec:29:4d:fa:ce:3a:b6:7f:b2:5f:0b:99:da:78:d8:0e:7b:
         ad:cd:c9:9d:8e:40:46:5c:0e:6d:5a:8d:70:92:d4:db:06:df:
         32:f5:cd:4f:b1:bc:94:54:73:d0:b8:54:81:42:ea:10:3d:e8:
         e6:f3:0e:a4:73:55:ae:81:19:99:bf:66:ef:cb:18:a0:7f:47:
         4e:2d:f2:0b:4d:ab:43:1a:af:1b:0f:5c:4d:24:e0:17:28:fe:
         f8:69:a0:2c:15:5e:d6:f0
-----BEGIN CERTIFICATE-----
MIIGjjCCBHagAwIBAgICAPgwDQYJKoZIhvcNAQELBQAwcjELMAkGA1UEBhMCZnIx
DDAKBgNVBAgMA2lkZjEOMAwGA1UEBwwFcGFyaXMxDjAMBgNVBAoMBXZpdGFtMRQw
EgYDVQQLDAthdXRob3JpdGllczEfMB0GA1UEAwwWY2Ffcm9vdF9jbGllbnQtc3Rv
cmFnZTAgFw0yMDA5MTUxMjU4NDdaGA85OTk5MTIzMTIzNTk1OVowejELMAkGA1UE
BhMCZnIxDDAKBgNVBAgMA2lkZjEOMAwGA1UEBwwFcGFyaXMxDjAMBgNVBAoMBXZp
dGFtMRQwEgYDVQQLDAthdXRob3JpdGllczEnMCUGA1UEAwweY2FfaW50ZXJtZWRp
YXRlX2NsaWVudC1zdG9yYWdlMIICIjANBgkqhkiG9w0BAQEFAAOCAg8AMIICCgKC
AgEAngLpphHVbx8+1KYqD2oHLmDgn+Kp6B4IVPfU4i0J2FbLEn7rJb0++fHNmWn1
KyK0g6KEfquBmPGP7RHDJcsruSmIjQKDg2wBZS5O3XuYLCupo9wubEQ0912ipCyZ
BktCrVLaKXwKwiPrDh/pPooOnYErfqsU1Cqdy9Hv7ToSHX2qxLrQM65ImHG56UUQ
hN1yHcRloUfJQHAsldu/0UFSDuj55CG5tmowV+vqWUZlNK+2kefJUkAKcwyN6lYK
xe/EYGInItyVzD/gdI4HxrmhbubEmUlFV4u6lhdNASY+Yl0e89M4kE3w1mEx+1Gs
vo3wQud+2BIomERf7jTRPX5jFfPIvaXz9fftmArX+UNmb00kCEiwqYE5IEv6rxwR
SpzkEXvfqUWh238s7NsiTzO8AuV+Ww265p+F8m1k3rmBnIBnn/sWfWGkwNrk3Ysd
YWXzsLByfSVU6RmyJsUA3k/E5FZRjCJNBT9+5bf94pbVZ22axPVScRjSSViZP8DK
noJJMRh+xMZsrykYOGGOFCUaop919IoXB5wSb1iacgAu+3qmXEEMI5+IzCt6+F0z
Fhbtd3Sq2q93WdEStXp2njBkGaDSqh3+o1OT3CSwSyYtDnXa8HxjJpC3yswuserl
cjhlZc3sUHOdOHNb9o0mZGgdg2VbsVbWEHh+OurxUvAHITcCAwEAAaOCASIwggEe
MB4GCWCGSAGG+EIBDQQRFg9DQSBJbnRlcm1lZGlhdGUwHQYDVR0OBBYEFHTpimhX
A/CZxGIrzQXike2vDtAkMIGdBgNVHSMEgZUwgZKAFJQzlOi4AnBSMfVvzKRQ/xkm
dkGgoXakdDByMQswCQYDVQQGEwJmcjEMMAoGA1UECAwDaWRmMQ4wDAYDVQQHDAVw
YXJpczEOMAwGA1UECgwFdml0YW0xFDASBgNVBAsMC2F1dGhvcml0aWVzMR8wHQYD
VQQDDBZjYV9yb290X2NsaWVudC1zdG9yYWdlggIA9zASBgNVHRMBAf8ECDAGAQH/
AgEAMAkGA1UdEgQCMAAwCwYDVR0PBAQDAgEGMBEGCWCGSAGG+EIBAQQEAwICBDAN
BgkqhkiG9w0BAQsFAAOCAgEAshzkudne6WKvkmAiSm1ZfUusihsboTRhKPX8SmTq
3wAM3rvR6pCIeMyAVvy64i3TwuINQgvwdOyX8TP7RPti4jcTDQ9Ag0hzYZjTMYun
mLEwc6O+o19cOC2PbDJ07uZH66rw82HTG4B1p2LVPMmmWVFKClcgyrwyi9pEr5WL
TO03q3HDOnfXTkGFgif1LcMCfJaDUyE+eDngffpbG5zVfM6TB3rLN2SKoWCV7O5G
yDgIv+teQp3U+nsSjcp6iYYU0R9CVRFgSJQ4C5IWF0YD3LCaDPZ0ZCzukpeebhl3
vn43v23TaEm1h0YxpttPrX9QoKUtZssuTPxGK1o26WNLD6v30pxQ+RA3DrqZr2Vt
OElauqi1RdtopNh0f37utKvBxcw01wjA8RrDmFTYgo0kY+kTt2eJp+KEXU1MbnZ4
TtL7pQfBp/P/+1E4tlXpmlZ3seHqp++1QXD/kBAnrvE5GSX1wmRyRd1jANHBbNjl
GpYlWev5xoaYIknWbXvVE7k839JjCmAyd7lhH5B+Lgj638RFP9PuuFpZIurC0aAw
w+wpTfrOOrZ/sl8Lmdp42A57rc3JnY5ARlwObVqNcJLU2wbfMvXNT7G8lFRz0LhU
gULqED3o5vMOpHNVroEZmb9m78sYoH9HTi3yC02rQxqvGw9cTSTgFyj++GmgLBVe
1vA=
-----END CERTIFICATE-----
