Certificate:
    Data:
        Version: 3 (0x2)
        Serial Number: 220 (0xdc)
    Signature Algorithm: sha256WithRSAEncryption
        Issuer: C=FR, ST=idf, L=paris, O=Vitam., CN=CA_client-storage
        Validity
            Not Before: Mar  6 18:03:42 2017 GMT
            Not After : Mar  4 18:03:42 2027 GMT
        Subject: C=FR, ST=idf, L=paris, O=Vitam., CN=CA_client-storage
        Subject Public Key Info:
            Public Key Algorithm: rsaEncryption
                Public-Key: (4096 bit)
                Modulus:
                    00:c5:84:a6:e1:25:14:fc:3b:29:7d:f2:b1:11:e0:
                    fc:2a:ad:06:13:89:b9:77:75:aa:ef:2c:84:ca:e7:
                    1d:16:60:8f:ab:79:f7:89:48:24:5f:f0:91:1a:b3:
                    e3:f5:af:1e:98:b5:d6:74:db:b4:df:15:12:96:4a:
                    48:09:c6:c0:c4:78:89:15:ad:6c:15:23:cf:2c:13:
                    e8:87:b2:a6:53:f2:84:24:89:ae:48:82:fc:b0:70:
                    78:cd:af:e0:b2:03:99:b1:e5:79:c5:28:07:e3:74:
                    ae:82:65:d2:8b:23:96:de:b4:b0:fd:6f:60:59:c2:
                    3a:22:5f:fe:14:e1:08:91:50:75:f9:37:4f:bd:27:
                    81:f4:99:12:24:6c:50:ea:e1:1f:b1:15:5c:96:a2:
                    8b:24:e2:2c:db:43:69:a0:00:df:1f:9f:70:e7:d2:
                    d6:0c:41:45:c1:19:9a:c4:d4:e6:cd:6b:0f:c4:93:
                    8a:be:6b:dd:ab:7a:88:b2:f1:19:d6:c0:0f:f3:68:
                    7c:99:13:64:3d:d9:7e:22:08:90:81:1a:43:9e:64:
                    05:b3:74:f1:e4:6a:bf:8a:81:4f:76:48:03:50:7f:
                    80:ed:3d:a7:87:ac:e9:71:d4:a3:2f:85:d3:d5:da:
                    91:fe:e9:61:fc:70:e0:56:60:ff:7c:93:f3:35:26:
                    8a:df:74:f5:93:37:ae:47:e7:0f:02:01:14:53:15:
                    e7:a8:3e:31:60:db:db:b7:30:ce:b6:f2:71:3f:98:
                    56:03:90:02:39:09:33:26:4f:31:36:d1:d2:16:c0:
                    c4:c4:a9:2d:3e:74:ea:67:7c:08:77:21:76:ec:e5:
                    3d:39:ee:61:41:e7:f5:a5:60:bb:b7:c7:ab:d0:19:
                    4e:08:96:93:5a:80:a3:48:3b:5e:8e:81:b9:12:d5:
                    37:0d:9a:36:7f:6c:a0:48:d5:5c:02:4b:50:d9:48:
                    2c:9e:ef:dd:45:db:82:9b:b4:1d:59:79:e0:39:fc:
                    26:f1:aa:e4:b6:fb:ea:88:38:9f:3e:b4:0e:2c:a4:
                    80:f5:b5:35:db:ef:04:23:26:88:1c:ad:ae:6d:41:
                    5f:ee:9b:72:bc:12:96:cd:a1:cd:12:04:50:46:9d:
                    96:c9:6d:e5:e4:da:4f:36:82:98:bc:06:66:ae:f8:
                    ec:68:ef:12:77:7a:0e:04:2e:8d:16:2e:7e:67:6f:
                    a3:6b:9b:3f:80:19:c7:95:e8:07:d8:f9:f8:3a:61:
                    d6:2c:1b:7b:df:f5:f7:cc:ea:02:f3:ec:08:0b:1d:
                    11:5b:34:69:e9:74:94:b2:7f:21:60:9c:a5:b8:34:
                    f8:9b:15:06:f7:61:ab:d9:e3:f1:7e:b9:ca:0f:94:
                    97:2f:e1
                Exponent: 65537 (0x10001)
        X509v3 extensions:
            Netscape Comment: 
                CA SSL
            X509v3 Basic Constraints: critical
                CA:TRUE, pathlen:0
            X509v3 Subject Key Identifier: 
                3C:F0:4D:8E:68:3D:40:BD:4A:82:CD:E9:04:67:30:A9:82:DB:AD:80
            X509v3 Authority Key Identifier: 
                keyid:02:E6:AB:E4:12:56:3E:1F:51:E1:93:64:DC:EF:60:95:2E:F2:B7:3C
                DirName:/C=FR/ST=idf/L=paris/O=Vitam./CN=CA_client-storage
                serial:DB

            X509v3 Issuer Alternative Name: 
                <EMPTY>

            X509v3 Key Usage: 
                Certificate Sign, CRL Sign
            Netscape Cert Type: 
                SSL CA
    Signature Algorithm: sha256WithRSAEncryption
         15:1e:6d:a7:b8:62:69:47:b3:37:ab:cb:bb:26:41:bb:da:e0:
         46:42:08:9e:27:05:69:a3:64:2f:9e:4a:a6:65:96:d8:13:99:
         22:47:4c:9f:43:f5:1f:7b:61:97:0c:f6:f6:b8:5d:5d:56:8a:
         18:b5:a1:a5:78:13:5e:aa:fc:42:07:92:ad:c7:3b:26:6b:7d:
         7e:df:77:65:b3:18:82:9e:bb:d4:fc:19:74:35:b5:f4:d6:d3:
         3b:e2:d2:bb:da:25:5d:47:d1:a5:b0:34:ec:10:25:49:59:02:
         29:e7:d6:ce:04:01:39:a5:d5:35:48:fb:74:bf:20:fc:ad:24:
         f6:66:36:20:f2:40:ae:9d:3f:0b:f7:2c:b9:f2:32:e6:68:3e:
         02:66:3c:3d:44:9b:eb:64:b8:98:56:74:b1:ba:c6:d3:bf:29:
         fb:33:2b:97:91:17:27:fb:4f:2e:bb:ea:93:f4:77:46:3e:0c:
         d7:37:17:b7:4c:3b:0a:51:18:32:9d:aa:b9:6e:8f:35:93:7a:
         69:ca:5d:09:61:3b:8b:91:51:40:b8:83:ac:cc:1b:54:03:c9:
         2f:83:03:5c:b5:ec:83:cf:3b:9b:97:de:f9:76:71:a5:45:ab:
         fb:3e:32:58:ac:44:3c:40:c1:6c:1a:e9:f1:dd:e0:5a:53:a7:
         94:02:55:b8
-----BEGIN CERTIFICATE-----
MIIFKTCCBBGgAwIBAgICANwwDQYJKoZIhvcNAQELBQAwWDELMAkGA1UEBhMCRlIx
DDAKBgNVBAgMA2lkZjEOMAwGA1UEBwwFcGFyaXMxDzANBgNVBAoMBlZpdGFtLjEa
MBgGA1UEAwwRQ0FfY2xpZW50LXN0b3JhZ2UwHhcNMTcwMzA2MTgwMzQyWhcNMjcw
MzA0MTgwMzQyWjBYMQswCQYDVQQGEwJGUjEMMAoGA1UECAwDaWRmMQ4wDAYDVQQH
DAVwYXJpczEPMA0GA1UECgwGVml0YW0uMRowGAYDVQQDDBFDQV9jbGllbnQtc3Rv
cmFnZTCCAiIwDQYJKoZIhvcNAQEBBQADggIPADCCAgoCggIBAMWEpuElFPw7KX3y
sRHg/CqtBhOJuXd1qu8shMrnHRZgj6t594lIJF/wkRqz4/WvHpi11nTbtN8VEpZK
SAnGwMR4iRWtbBUjzywT6IeyplPyhCSJrkiC/LBweM2v4LIDmbHlecUoB+N0roJl
0osjlt60sP1vYFnCOiJf/hThCJFQdfk3T70ngfSZEiRsUOrhH7EVXJaiiyTiLNtD
aaAA3x+fcOfS1gxBRcEZmsTU5s1rD8STir5r3at6iLLxGdbAD/NofJkTZD3ZfiII
kIEaQ55kBbN08eRqv4qBT3ZIA1B/gO09p4es6XHUoy+F09Xakf7pYfxw4FZg/3yT
8zUmit909ZM3rkfnDwIBFFMV56g+MWDb27cwzrbycT+YVgOQAjkJMyZPMTbR0hbA
xMSpLT506md8CHchduzlPTnuYUHn9aVgu7fHq9AZTgiWk1qAo0g7Xo6BuRLVNw2a
Nn9soEjVXAJLUNlILJ7v3UXbgpu0HVl54Dn8JvGq5Lb76og4nz60DiykgPW1Ndvv
BCMmiBytrm1BX+6bcrwSls2hzRIEUEadlslt5eTaTzaCmLwGZq747GjvEnd6DgQu
jRYufmdvo2ubP4AZx5XoB9j5+Dph1iwbe9/198zqAvPsCAsdEVs0ael0lLJ/IWCc
pbg0+JsVBvdhq9nj8X65yg+Uly/hAgMBAAGjgfwwgfkwFQYJYIZIAYb4QgENBAgW
BkNBIFNTTDASBgNVHRMBAf8ECDAGAQH/AgEAMB0GA1UdDgQWBBQ88E2OaD1AvUqC
zekEZzCpgtutgDCBgQYDVR0jBHoweIAUAuar5BJWPh9R4ZNk3O9glS7ytzyhXKRa
MFgxCzAJBgNVBAYTAkZSMQwwCgYDVQQIDANpZGYxDjAMBgNVBAcMBXBhcmlzMQ8w
DQYDVQQKDAZWaXRhbS4xGjAYBgNVBAMMEUNBX2NsaWVudC1zdG9yYWdlggIA2zAJ
BgNVHRIEAjAAMAsGA1UdDwQEAwIBBjARBglghkgBhvhCAQEEBAMCAgQwDQYJKoZI
hvcNAQELBQADggEBABUebae4YmlHszery7smQbva4EZCCJ4nBWmjZC+eSqZlltgT
mSJHTJ9D9R97YZcM9va4XV1Wihi1oaV4E16q/EIHkq3HOyZrfX7fd2WzGIKeu9T8
GXQ1tfTW0zvi0rvaJV1H0aWwNOwQJUlZAinn1s4EATml1TVI+3S/IPytJPZmNiDy
QK6dPwv3LLnyMuZoPgJmPD1Em+tkuJhWdLG6xtO/KfszK5eRFyf7Ty676pP0d0Y+
DNc3F7dMOwpRGDKdqrlujzWTemnKXQlhO4uRUUC4g6zMG1QDyS+DA1y17IPPO5uX
3vl2caVFq/s+MlisRDxAwWwa6fHd4FpTp5QCVbg=
-----END CERTIFICATE-----
