Certificate:
    Data:
        Version: 3 (0x2)
        Serial Number: 226 (0xe2)
    Signature Algorithm: sha256WithRSAEncryption
        Issuer: C=fr, ST=idf, L=paris, O=vitam, OU=authorities, CN=ca_root_client-storage
        Validity
            Not Before: Jul 12 14:29:05 2017 GMT
            Not After : Jul 10 14:29:05 2027 GMT
        Subject: C=fr, ST=idf, L=paris, O=vitam, OU=authorities, CN=ca_intermediate_client-storage
        Subject Public Key Info:
            Public Key Algorithm: rsaEncryption
                Public-Key: (4096 bit)
                Modulus:
                    00:be:f1:8e:9f:92:f8:8f:04:78:2f:fe:0b:1d:70:
                    71:2e:65:6d:77:c3:5a:55:ee:bb:e9:24:cd:5d:c8:
                    19:d9:73:cf:a5:32:28:23:15:e5:4a:d7:65:6f:93:
                    a6:6d:62:9a:9c:c9:a1:e6:f8:97:6b:78:75:59:ba:
                    87:31:1c:25:85:ce:14:dd:15:e1:f5:d6:8d:dd:68:
                    61:07:12:65:3e:3e:74:5e:ac:1a:22:43:da:08:09:
                    2b:4c:83:26:d5:e6:b7:63:1e:b3:a5:1c:47:33:33:
                    4a:d6:36:80:58:c1:b1:06:e1:70:e1:73:22:c1:82:
                    02:6a:06:92:8d:d7:7f:39:d9:95:33:fe:44:c3:16:
                    3b:6f:0d:fd:94:eb:06:36:6c:f0:b4:1b:b4:c0:ce:
                    98:81:cd:70:a5:2b:38:58:38:b8:94:58:50:19:31:
                    1a:b5:78:f3:a5:df:a2:64:a7:6c:c2:b4:12:09:4d:
                    02:66:6e:19:e5:ed:de:15:3a:b6:92:0e:10:07:ba:
                    c4:57:dd:ee:68:fc:92:7c:18:d1:b3:17:83:7d:b0:
                    7a:0f:4f:54:99:2b:d7:9d:bc:71:e3:f9:92:79:c6:
                    08:1e:00:89:21:f5:ca:26:09:15:f0:47:44:b1:86:
                    7e:7b:5c:e1:70:73:c4:59:8f:f4:da:24:48:df:95:
                    ca:db:a9:6a:47:70:bf:df:44:bc:3d:4a:66:c9:62:
                    c7:32:0f:02:21:a3:6d:4a:a0:63:47:ae:ee:d9:96:
                    4f:b5:23:98:8f:49:ac:67:86:9f:e4:8d:3d:31:82:
                    fc:81:b4:d4:ea:49:5f:95:5e:01:7f:64:0b:ed:3f:
                    9f:89:86:ef:47:73:c2:4d:1d:4a:32:54:ea:2f:4a:
                    a6:e6:03:3d:b4:8f:14:20:41:eb:6e:05:ca:99:fd:
                    d4:78:53:47:3b:c0:93:09:59:1e:4b:b3:cc:97:2a:
                    d9:eb:ed:68:a0:61:71:ba:ac:b3:5a:ca:f5:88:48:
                    b0:0c:ca:02:42:62:09:9f:dd:1c:c9:f4:1b:a4:d0:
                    15:5e:d8:93:22:51:b9:88:e1:d5:19:b7:85:a1:08:
                    ff:8b:1d:bf:5f:24:0a:95:5c:05:b8:f9:ba:00:8c:
                    63:92:d6:14:74:fd:de:a2:38:bf:a5:d1:3e:3f:ca:
                    da:14:b0:45:a1:2a:4c:5a:fd:df:88:d8:78:d2:b8:
                    15:5e:a4:ba:8a:dd:d6:c2:62:18:6c:27:39:ba:98:
                    d9:f2:47:f1:30:ec:57:d0:68:62:35:98:b4:84:88:
                    da:87:87:27:97:14:36:ce:97:a3:0b:49:c7:4b:5b:
                    56:50:41:6d:83:d6:54:19:b3:a7:4d:24:af:9d:3a:
                    71:bd:3d
                Exponent: 65537 (0x10001)
        X509v3 extensions:
            Netscape Comment: 
                CA Intermediate
            X509v3 Subject Key Identifier: 
                BD:36:A0:8B:CA:CF:8A:68:37:24:9C:6C:1B:42:87:B5:70:E1:46:71
            X509v3 Authority Key Identifier: 
                keyid:BB:C6:40:43:04:BC:FE:2C:48:19:11:53:39:55:0A:8B:B3:94:3C:56
                DirName:/C=fr/ST=idf/L=paris/O=vitam/OU=authorities/CN=ca_root_client-storage
                serial:E1

            X509v3 Basic Constraints: critical
                CA:TRUE, pathlen:0
            X509v3 Issuer Alternative Name: 
                <EMPTY>

            X509v3 Key Usage: 
                Certificate Sign, CRL Sign
            Netscape Cert Type: 
                SSL CA
    Signature Algorithm: sha256WithRSAEncryption
         31:a3:be:48:12:91:9f:d8:94:ad:f0:a1:b9:34:79:3c:ab:48:
         ef:05:cf:92:7c:ba:ba:b0:a3:65:e2:a9:05:2a:21:d6:b5:4e:
         06:8d:aa:a7:47:cd:a6:b7:02:58:84:84:68:0a:a7:cb:d5:b0:
         2c:2a:74:71:12:85:e5:5a:1a:31:f6:70:d0:fc:04:1e:9d:25:
         06:11:71:d8:62:e0:05:d0:5f:92:ec:43:51:c4:50:a6:1d:60:
         04:1f:79:13:0a:25:1d:25:61:2e:09:b1:b8:e3:17:00:ee:71:
         90:d8:0b:cc:35:78:e8:b8:00:53:90:6e:1e:61:9a:f8:dd:d8:
         a1:88:a5:ed:2a:4c:fe:02:97:f5:ef:8a:82:96:21:66:9e:cc:
         74:11:8f:90:d2:08:0e:83:a8:7a:5a:b9:13:0d:c0:59:99:fe:
         9d:14:ea:1e:21:2b:85:32:48:af:2a:92:0b:92:b0:ed:62:0d:
         75:3b:b5:b3:dd:77:f1:95:90:07:9b:4f:b8:d5:46:7a:22:99:
         bb:e5:5b:8c:d8:f2:a6:75:ea:fe:dc:ac:8b:c3:e8:6e:a3:00:
         6d:24:66:d1:ee:f8:6c:fd:48:ca:b1:27:a5:02:cd:07:cd:bd:
         83:33:fd:7e:33:2e:8f:4e:f6:d8:8a:2d:11:7c:27:02:f8:e8:
         ad:8a:bb:7b:f7:11:6e:5f:cb:e0:b0:bc:68:45:6b:cc:36:ab:
         9a:e2:94:d7:30:e9:bd:b8:08:e3:8d:45:75:5c:25:9e:92:44:
         39:db:89:55:71:c5:5a:4e:94:07:a4:2e:ca:ba:97:41:86:77:
         48:4e:75:1d:d1:61:78:6d:1d:0e:ae:b8:34:a5:e9:e1:cb:bf:
         db:01:4d:25:0a:fa:b7:ff:6d:ce:b7:39:46:af:72:77:cf:97:
         2d:9d:46:50:66:bc:a9:de:3c:2d:ee:c7:a4:cd:f6:ab:56:56:
         e3:68:26:46:cf:9f:7a:16:8a:2b:3f:8f:2f:99:85:5c:08:06:
         dc:ea:f9:8d:6e:98:46:af:ae:12:32:57:11:d9:9a:f1:ea:11:
         e2:5b:1d:96:d6:cb:fd:e3:32:c2:d1:90:d4:8c:ab:74:3f:6a:
         7e:5a:e0:15:63:65:60:23:f9:69:cc:bc:ea:24:e0:13:a6:53:
         f4:0c:36:6f:e3:1a:d0:40:e6:aa:5e:ac:94:fa:b8:60:2e:bd:
         98:0d:8d:d1:c1:62:a2:94:a5:ed:f3:6d:6a:8d:1f:5e:2d:a0:
         70:48:48:78:3f:27:25:ad:ba:3a:75:b2:12:54:8a:a9:49:21:
         3c:2e:2e:33:87:11:60:95:6e:df:b0:31:16:a1:08:36:f1:f0:
         61:ec:23:90:54:aa:90:90
-----BEGIN CERTIFICATE-----
MIIGjDCCBHSgAwIBAgICAOIwDQYJKoZIhvcNAQELBQAwcjELMAkGA1UEBhMCZnIx
DDAKBgNVBAgMA2lkZjEOMAwGA1UEBwwFcGFyaXMxDjAMBgNVBAoMBXZpdGFtMRQw
EgYDVQQLDAthdXRob3JpdGllczEfMB0GA1UEAwwWY2Ffcm9vdF9jbGllbnQtc3Rv
cmFnZTAeFw0xNzA3MTIxNDI5MDVaFw0yNzA3MTAxNDI5MDVaMHoxCzAJBgNVBAYT
AmZyMQwwCgYDVQQIDANpZGYxDjAMBgNVBAcMBXBhcmlzMQ4wDAYDVQQKDAV2aXRh
bTEUMBIGA1UECwwLYXV0aG9yaXRpZXMxJzAlBgNVBAMMHmNhX2ludGVybWVkaWF0
ZV9jbGllbnQtc3RvcmFnZTCCAiIwDQYJKoZIhvcNAQEBBQADggIPADCCAgoCggIB
AL7xjp+S+I8EeC/+Cx1wcS5lbXfDWlXuu+kkzV3IGdlzz6UyKCMV5UrXZW+Tpm1i
mpzJoeb4l2t4dVm6hzEcJYXOFN0V4fXWjd1oYQcSZT4+dF6sGiJD2ggJK0yDJtXm
t2Mes6UcRzMzStY2gFjBsQbhcOFzIsGCAmoGko3XfznZlTP+RMMWO28N/ZTrBjZs
8LQbtMDOmIHNcKUrOFg4uJRYUBkxGrV486XfomSnbMK0EglNAmZuGeXt3hU6tpIO
EAe6xFfd7mj8knwY0bMXg32weg9PVJkr1528ceP5knnGCB4AiSH1yiYJFfBHRLGG
fntc4XBzxFmP9NokSN+Vytupakdwv99EvD1KZslixzIPAiGjbUqgY0eu7tmWT7Uj
mI9JrGeGn+SNPTGC/IG01OpJX5VeAX9kC+0/n4mG70dzwk0dSjJU6i9KpuYDPbSP
FCBB624Fypn91HhTRzvAkwlZHkuzzJcq2evtaKBhcbqss1rK9YhIsAzKAkJiCZ/d
HMn0G6TQFV7YkyJRuYjh1Rm3haEI/4sdv18kCpVcBbj5ugCMY5LWFHT93qI4v6XR
Pj/K2hSwRaEqTFr934jYeNK4FV6kuord1sJiGGwnObqY2fJH8TDsV9BoYjWYtISI
2oeHJ5cUNs6XowtJx0tbVlBBbYPWVBmzp00kr506cb09AgMBAAGjggEiMIIBHjAe
BglghkgBhvhCAQ0EERYPQ0EgSW50ZXJtZWRpYXRlMB0GA1UdDgQWBBS9NqCLys+K
aDcknGwbQoe1cOFGcTCBnQYDVR0jBIGVMIGSgBS7xkBDBLz+LEgZEVM5VQqLs5Q8
VqF2pHQwcjELMAkGA1UEBhMCZnIxDDAKBgNVBAgMA2lkZjEOMAwGA1UEBwwFcGFy
aXMxDjAMBgNVBAoMBXZpdGFtMRQwEgYDVQQLDAthdXRob3JpdGllczEfMB0GA1UE
AwwWY2Ffcm9vdF9jbGllbnQtc3RvcmFnZYICAOEwEgYDVR0TAQH/BAgwBgEB/wIB
ADAJBgNVHRIEAjAAMAsGA1UdDwQEAwIBBjARBglghkgBhvhCAQEEBAMCAgQwDQYJ
KoZIhvcNAQELBQADggIBADGjvkgSkZ/YlK3wobk0eTyrSO8Fz5J8urqwo2XiqQUq
Ida1TgaNqqdHzaa3AliEhGgKp8vVsCwqdHESheVaGjH2cND8BB6dJQYRcdhi4AXQ
X5LsQ1HEUKYdYAQfeRMKJR0lYS4JsbjjFwDucZDYC8w1eOi4AFOQbh5hmvjd2KGI
pe0qTP4Cl/XvioKWIWaezHQRj5DSCA6DqHpauRMNwFmZ/p0U6h4hK4UySK8qkguS
sO1iDXU7tbPdd/GVkAebT7jVRnoimbvlW4zY8qZ16v7crIvD6G6jAG0kZtHu+Gz9
SMqxJ6UCzQfNvYMz/X4zLo9O9tiKLRF8JwL46K2Ku3v3EW5fy+CwvGhFa8w2q5ri
lNcw6b24COONRXVcJZ6SRDnbiVVxxVpOlAekLsq6l0GGd0hOdR3RYXhtHQ6uuDSl
6eHLv9sBTSUK+rf/bc63OUavcnfPly2dRlBmvKnePC3ux6TN9qtWVuNoJkbPn3oW
iis/jy+ZhVwIBtzq+Y1umEavrhIyVxHZmvHqEeJbHZbWy/3jMsLRkNSMq3Q/an5a
4BVjZWAj+WnMvOok4BOmU/QMNm/jGtBA5qperJT6uGAuvZgNjdHBYqKUpe3zbWqN
H14toHBISHg/JyWtujp1shJUiqlJITwuLjOHEWCVbt+wMRahCDbx8GHsI5BUqpCQ
-----END CERTIFICATE-----
