Certificate:
    Data:
        Version: 3 (0x2)
        Serial Number: 234 (0xea)
    Signature Algorithm: sha256WithRSAEncryption
        Issuer: C=fr, ST=idf, L=paris, O=vitam, OU=authorities, CN=ca_root_client-storage
        Validity
            Not Before: Feb 21 16:34:57 2018 GMT
            Not After : Feb 19 16:34:57 2028 GMT
        Subject: C=fr, ST=idf, L=paris, O=vitam, OU=authorities, CN=ca_root_client-storage
        Subject Public Key Info:
            Public Key Algorithm: rsaEncryption
                Public-Key: (4096 bit)
                Modulus:
                    00:b4:75:73:ff:2f:1e:d3:06:5a:2d:36:4b:5e:07:
                    e3:71:16:64:27:0b:cb:a7:cc:f9:b3:50:37:eb:bf:
                    c7:33:ca:1f:02:18:33:10:13:d7:35:b9:99:49:e9:
                    f4:f9:44:0e:0f:bf:2e:22:ea:dc:03:8b:31:d4:a3:
                    28:2e:73:63:4c:00:02:58:5e:a7:ec:78:44:5e:a3:
                    2f:71:9a:b8:67:26:59:a7:dd:18:45:06:95:83:01:
                    d0:cf:9e:0f:89:9b:26:ee:a3:ce:d5:70:6e:69:87:
                    15:5b:34:55:1f:76:b7:07:df:33:1b:6f:ad:f8:eb:
                    63:c6:c6:2f:cd:1b:1e:cf:47:62:d9:a2:c0:38:37:
                    c4:84:ad:73:64:80:f8:a8:a5:cd:24:bc:08:ba:59:
                    93:c5:89:f2:65:4e:25:2f:e0:f3:6b:d7:8f:ed:67:
                    18:47:34:a0:42:a7:1d:08:12:36:16:cb:d5:e6:66:
                    69:26:d8:b7:c9:54:14:64:79:74:1e:70:6a:b6:77:
                    5b:88:87:22:99:fc:2c:3a:28:ac:18:f4:12:0b:b0:
                    bd:c3:9d:29:6a:b0:f7:65:12:74:e5:b0:ee:52:04:
                    09:46:c4:ba:0d:80:96:32:9f:57:e0:84:5d:ad:c2:
                    42:a6:71:ea:d9:cd:4b:3b:38:de:5a:c4:9b:1a:46:
                    aa:49:c5:1a:77:d5:18:99:ba:07:e4:a0:a8:71:e6:
                    85:2d:3b:1a:52:d9:e5:fc:94:f3:aa:2b:ef:33:3f:
                    b1:d3:47:12:d1:0d:e3:68:70:c8:10:87:94:f9:cb:
                    d7:5e:16:7d:6e:50:ad:79:32:80:b0:7f:5e:81:cc:
                    7d:56:7e:b7:11:24:dc:a9:d7:ce:0b:bc:50:47:9b:
                    c2:05:5d:e7:1f:98:71:61:e2:e6:ab:79:a1:f3:97:
                    3b:16:f5:71:d1:39:23:b7:d7:43:03:74:78:d1:35:
                    a6:89:43:e4:e1:bc:6c:b1:df:9f:dc:3c:b9:cc:ff:
                    4e:df:b9:7e:0b:e6:d7:29:07:83:dc:0f:5b:ef:4d:
                    d8:5e:49:a1:5b:04:41:15:70:31:a2:68:24:bf:6d:
                    f2:9a:0f:1c:88:1f:39:a0:fb:4e:fb:31:42:f0:44:
                    8f:95:0f:e0:ab:13:1a:5e:97:55:c6:37:59:80:06:
                    6c:65:e4:55:b5:a1:83:95:8e:58:ce:e0:26:50:23:
                    3f:56:09:90:26:d7:9d:c4:79:d5:db:3e:50:f9:28:
                    69:e4:69:da:8b:ab:0c:87:4c:da:a4:e0:70:cc:08:
                    3e:38:15:85:2d:7f:1e:dc:d6:1c:b8:0d:25:31:cb:
                    a3:25:0c:36:fa:4a:d1:51:c3:4c:c2:29:fa:e7:b4:
                    1c:4c:1d
                Exponent: 65537 (0x10001)
        X509v3 extensions:
            Netscape Comment: 
                CA Root
            X509v3 Subject Key Identifier: 
                35:9F:85:06:1F:55:33:27:22:E3:8E:A6:33:03:72:18:53:8E:C2:BB
            X509v3 Authority Key Identifier: 
                keyid:35:9F:85:06:1F:55:33:27:22:E3:8E:A6:33:03:72:18:53:8E:C2:BB

            X509v3 Basic Constraints: critical
                CA:TRUE, pathlen:1
            X509v3 Key Usage: 
                Certificate Sign, CRL Sign
            Netscape Cert Type: 
                SSL CA
    Signature Algorithm: sha256WithRSAEncryption
         23:31:d4:18:8b:9d:1e:5d:c9:30:fe:2e:49:fb:f1:a1:b6:a1:
         4b:52:96:0d:e2:f5:61:ae:d6:53:a6:17:33:d3:53:ed:1b:99:
         38:cd:c6:14:88:52:a5:45:82:ca:08:aa:83:7e:14:06:51:4b:
         30:d0:31:8b:f3:72:8c:97:c1:20:2e:7c:24:f6:ea:0f:3c:0e:
         fb:f1:ea:b3:f9:05:27:1d:1b:a8:8d:81:b5:00:6e:c0:ae:21:
         b6:11:89:0f:30:72:8c:14:4e:cf:99:47:9f:92:4c:d3:dd:6e:
         ed:56:8c:9a:ce:a9:f9:de:cf:1a:d8:ac:ee:55:56:99:89:05:
         54:78:1d:8b:f2:09:44:5f:3b:0b:3e:84:b9:9a:bc:bd:82:b3:
         ab:a4:99:ea:c6:31:70:c6:9d:88:c3:5b:7a:cf:35:cf:e4:a9:
         3d:84:71:40:6f:9c:96:88:c9:05:2f:e3:88:60:f6:a2:77:4f:
         d2:19:a8:87:d9:1e:e5:f9:61:23:08:12:ad:be:2c:88:b4:7e:
         1f:46:c3:be:c0:eb:a9:af:c4:68:83:e2:d7:c6:8d:39:c7:ca:
         81:e5:07:0c:9a:65:f6:56:01:00:75:05:0c:ce:9d:d9:31:b1:
         08:67:9f:d0:3e:15:38:fa:c0:58:96:d1:46:34:45:0f:bf:15:
         ed:22:a0:4e:2b:ad:b1:f3:4c:55:bb:7d:d0:4e:e6:3f:cc:8c:
         86:6e:1b:4d:60:63:b9:20:21:8b:1f:8f:c7:9a:3d:e1:18:d9:
         d6:ef:10:c7:98:14:b1:55:a6:d0:af:6d:5c:03:b5:34:55:14:
         43:d5:cd:ad:3f:3c:2a:e0:be:14:17:65:31:e6:91:3d:3f:74:
         c7:c2:6a:58:8a:cc:6d:73:46:87:68:08:43:73:be:25:5c:14:
         1b:2a:d4:79:fb:9e:cc:6e:2a:30:5f:30:e5:38:34:6d:52:2c:
         48:95:e4:34:87:ba:53:05:76:00:72:e1:29:ef:ec:8f:d9:a8:
         12:3e:9b:42:bd:48:22:9c:ea:69:82:49:40:5b:c4:e5:a2:60:
         93:6d:83:8b:a4:89:8b:1d:8c:0a:fb:b4:20:7c:08:2f:68:0b:
         d3:94:5e:4f:91:4e:fe:e2:36:b9:61:db:44:ba:bb:36:58:9b:
         49:91:2b:d9:ff:7e:f2:da:ba:9f:95:9f:72:92:24:c2:4e:58:
         e1:8f:14:4a:92:69:05:7f:39:0c:b6:b6:90:42:d6:45:f4:04:
         32:1e:5e:1b:f3:c1:dd:ec:6b:83:fb:9a:2b:42:fd:1e:8a:81:
         f1:61:c3:ed:03:9e:db:68:29:ba:ea:f7:25:70:66:30:ba:5e:
         03:b4:da:60:fc:b0:b0:c7
-----BEGIN CERTIFICATE-----
MIIF8DCCA9igAwIBAgICAOowDQYJKoZIhvcNAQELBQAwcjELMAkGA1UEBhMCZnIx
DDAKBgNVBAgMA2lkZjEOMAwGA1UEBwwFcGFyaXMxDjAMBgNVBAoMBXZpdGFtMRQw
EgYDVQQLDAthdXRob3JpdGllczEfMB0GA1UEAwwWY2Ffcm9vdF9jbGllbnQtc3Rv
cmFnZTAeFw0xODAyMjExNjM0NTdaFw0yODAyMTkxNjM0NTdaMHIxCzAJBgNVBAYT
AmZyMQwwCgYDVQQIDANpZGYxDjAMBgNVBAcMBXBhcmlzMQ4wDAYDVQQKDAV2aXRh
bTEUMBIGA1UECwwLYXV0aG9yaXRpZXMxHzAdBgNVBAMMFmNhX3Jvb3RfY2xpZW50
LXN0b3JhZ2UwggIiMA0GCSqGSIb3DQEBAQUAA4ICDwAwggIKAoICAQC0dXP/Lx7T
BlotNkteB+NxFmQnC8unzPmzUDfrv8czyh8CGDMQE9c1uZlJ6fT5RA4Pvy4i6twD
izHUoyguc2NMAAJYXqfseEReoy9xmrhnJlmn3RhFBpWDAdDPng+Jmybuo87VcG5p
hxVbNFUfdrcH3zMbb63462PGxi/NGx7PR2LZosA4N8SErXNkgPiopc0kvAi6WZPF
ifJlTiUv4PNr14/tZxhHNKBCpx0IEjYWy9XmZmkm2LfJVBRkeXQecGq2d1uIhyKZ
/Cw6KKwY9BILsL3DnSlqsPdlEnTlsO5SBAlGxLoNgJYyn1fghF2twkKmcerZzUs7
ON5axJsaRqpJxRp31RiZugfkoKhx5oUtOxpS2eX8lPOqK+8zP7HTRxLRDeNocMgQ
h5T5y9deFn1uUK15MoCwf16BzH1WfrcRJNyp184LvFBHm8IFXecfmHFh4uareaHz
lzsW9XHROSO310MDdHjRNaaJQ+ThvGyx35/cPLnM/07fuX4L5tcpB4PcD1vvTdhe
SaFbBEEVcDGiaCS/bfKaDxyIHzmg+077MULwRI+VD+CrExpel1XGN1mABmxl5FW1
oYOVjljO4CZQIz9WCZAm153EedXbPlD5KGnkadqLqwyHTNqk4HDMCD44FYUtfx7c
1hy4DSUxy6MlDDb6StFRw0zCKfrntBxMHQIDAQABo4GPMIGMMBYGCWCGSAGG+EIB
DQQJFgdDQSBSb290MB0GA1UdDgQWBBQ1n4UGH1UzJyLjjqYzA3IYU47CuzAfBgNV
HSMEGDAWgBQ1n4UGH1UzJyLjjqYzA3IYU47CuzASBgNVHRMBAf8ECDAGAQH/AgEB
MAsGA1UdDwQEAwIBBjARBglghkgBhvhCAQEEBAMCAgQwDQYJKoZIhvcNAQELBQAD
ggIBACMx1BiLnR5dyTD+Lkn78aG2oUtSlg3i9WGu1lOmFzPTU+0bmTjNxhSIUqVF
gsoIqoN+FAZRSzDQMYvzcoyXwSAufCT26g88Dvvx6rP5BScdG6iNgbUAbsCuIbYR
iQ8wcowUTs+ZR5+STNPdbu1WjJrOqfnezxrYrO5VVpmJBVR4HYvyCURfOws+hLma
vL2Cs6ukmerGMXDGnYjDW3rPNc/kqT2EcUBvnJaIyQUv44hg9qJ3T9IZqIfZHuX5
YSMIEq2+LIi0fh9Gw77A66mvxGiD4tfGjTnHyoHlBwyaZfZWAQB1BQzOndkxsQhn
n9A+FTj6wFiW0UY0RQ+/Fe0ioE4rrbHzTFW7fdBO5j/MjIZuG01gY7kgIYsfj8ea
PeEY2dbvEMeYFLFVptCvbVwDtTRVFEPVza0/PCrgvhQXZTHmkT0/dMfCaliKzG1z
RodoCENzviVcFBsq1Hn7nsxuKjBfMOU4NG1SLEiV5DSHulMFdgBy4Snv7I/ZqBI+
m0K9SCKc6mmCSUBbxOWiYJNtg4ukiYsdjAr7tCB8CC9oC9OUXk+RTv7iNrlh20S6
uzZYm0mRK9n/fvLaup+Vn3KSJMJOWOGPFEqSaQV/OQy2tpBC1kX0BDIeXhvzwd3s
a4P7mitC/R6KgfFhw+0DnttoKbrq9yVwZjC6XgO02mD8sLDH
-----END CERTIFICATE-----
