Certificate:
    Data:
        Version: 3 (0x2)
        Serial Number: 219 (0xdb)
    Signature Algorithm: sha256WithRSAEncryption
        Issuer: C=FR, ST=idf, L=paris, O=Vitam., CN=CA_client-storage
        Validity
            Not Before: Mar  6 18:03:40 2017 GMT
            Not After : Mar  4 18:03:40 2027 GMT
        Subject: C=FR, ST=idf, L=paris, O=Vitam., CN=CA_client-storage
        Subject Public Key Info:
            Public Key Algorithm: rsaEncryption
                Public-Key: (2048 bit)
                Modulus:
                    00:b2:a9:35:9f:e0:f0:db:12:8c:b9:67:c8:8c:39:
                    94:86:34:fe:1f:d3:aa:e0:e7:77:35:db:a7:c2:2a:
                    1d:e9:3f:1e:8a:b1:d6:7d:dd:73:2e:61:5f:c5:a3:
                    1d:ed:7d:15:13:3d:d9:dc:24:52:5b:52:2a:be:d9:
                    f0:5c:1d:94:ee:e5:9a:01:03:15:bc:b3:4d:f9:d9:
                    f3:c6:0b:b0:5f:26:e0:e9:d7:31:fb:cb:09:38:c3:
                    af:52:bd:6c:f9:99:bd:e7:1e:32:95:35:c5:6a:30:
                    97:7a:8a:88:40:b4:e9:1a:b3:54:88:9e:8a:55:80:
                    05:87:59:9c:91:9f:a9:b8:f1:83:cf:8f:bf:38:e0:
                    6e:ab:75:60:8a:90:8e:c1:d4:4e:b9:c9:15:ea:e7:
                    bc:4a:8a:d5:3c:96:17:e1:e2:e9:89:90:90:64:b8:
                    ef:5f:cb:a6:f5:fd:da:d9:cc:ab:d7:94:72:7a:2f:
                    d3:d5:bf:55:45:58:56:cd:78:89:99:f2:a5:8d:62:
                    aa:b5:79:27:3e:a9:4e:b8:42:32:57:fb:d8:3a:be:
                    d6:e9:e3:1d:7e:53:90:c7:86:e4:35:d3:b8:a8:fb:
                    69:55:62:0e:d6:cd:2b:0b:c7:4d:60:eb:dd:39:27:
                    69:f3:3d:26:6b:32:63:ce:1c:e8:71:f8:39:a3:11:
                    7f:b5
                Exponent: 65537 (0x10001)
        X509v3 extensions:
            X509v3 Subject Key Identifier: 
                02:E6:AB:E4:12:56:3E:1F:51:E1:93:64:DC:EF:60:95:2E:F2:B7:3C
            X509v3 Authority Key Identifier: 
                keyid:02:E6:AB:E4:12:56:3E:1F:51:E1:93:64:DC:EF:60:95:2E:F2:B7:3C

            X509v3 Basic Constraints: 
                CA:TRUE
    Signature Algorithm: sha256WithRSAEncryption
         5f:bd:d0:c3:e6:db:bb:13:1f:73:6c:0a:79:dc:6f:da:5e:99:
         bb:1f:86:64:fb:a6:8b:c9:95:7f:b4:dc:c1:7a:94:a3:a6:eb:
         07:d8:9f:03:d7:08:0d:2d:bb:c4:d7:94:c9:9b:33:37:f4:e7:
         f2:a6:b2:2d:6e:bc:d1:0e:3b:c0:54:b4:d3:8a:99:55:d4:4e:
         6a:54:be:65:35:d3:11:a8:d2:e6:5f:f4:d0:a8:10:52:be:70:
         4e:e8:95:24:5b:a4:5a:ba:a4:84:fd:30:c0:60:19:dd:9a:9c:
         b8:41:6e:ae:b3:58:37:ca:2f:f9:f2:64:b7:22:0f:0a:16:41:
         84:e6:5d:dd:56:66:10:e5:0c:91:13:e9:c1:a7:98:8e:46:49:
         ac:ec:5d:4c:5b:e8:19:97:8b:3c:40:d1:ac:e9:6a:1b:10:5d:
         be:91:ca:c1:9a:ba:7c:64:f3:83:53:74:a1:df:a8:2a:41:22:
         2b:5f:31:d9:4b:a0:3f:43:3d:ae:54:c3:6b:6b:2b:86:fa:9c:
         36:0a:d0:74:19:d2:ba:24:1d:6e:19:9b:8f:0c:67:e2:54:2e:
         d9:70:b0:9c:52:67:1a:fb:03:bf:9e:bc:73:57:32:db:46:62:
         ce:64:50:e4:06:a2:66:05:52:82:68:18:d2:92:1c:04:a6:63:
         0b:40:ee:83
-----BEGIN CERTIFICATE-----
MIIDfDCCAmSgAwIBAgICANswDQYJKoZIhvcNAQELBQAwWDELMAkGA1UEBhMCRlIx
DDAKBgNVBAgMA2lkZjEOMAwGA1UEBwwFcGFyaXMxDzANBgNVBAoMBlZpdGFtLjEa
MBgGA1UEAwwRQ0FfY2xpZW50LXN0b3JhZ2UwHhcNMTcwMzA2MTgwMzQwWhcNMjcw
MzA0MTgwMzQwWjBYMQswCQYDVQQGEwJGUjEMMAoGA1UECAwDaWRmMQ4wDAYDVQQH
DAVwYXJpczEPMA0GA1UECgwGVml0YW0uMRowGAYDVQQDDBFDQV9jbGllbnQtc3Rv
cmFnZTCCASIwDQYJKoZIhvcNAQEBBQADggEPADCCAQoCggEBALKpNZ/g8NsSjLln
yIw5lIY0/h/TquDndzXbp8IqHek/Hoqx1n3dcy5hX8WjHe19FRM92dwkUltSKr7Z
8FwdlO7lmgEDFbyzTfnZ88YLsF8m4OnXMfvLCTjDr1K9bPmZveceMpU1xWowl3qK
iEC06RqzVIieilWABYdZnJGfqbjxg8+Pvzjgbqt1YIqQjsHUTrnJFernvEqK1TyW
F+Hi6YmQkGS471/LpvX92tnMq9eUcnov09W/VUVYVs14iZnypY1iqrV5Jz6pTrhC
Mlf72Dq+1unjHX5TkMeG5DXTuKj7aVViDtbNKwvHTWDr3TknafM9JmsyY84c6HH4
OaMRf7UCAwEAAaNQME4wHQYDVR0OBBYEFALmq+QSVj4fUeGTZNzvYJUu8rc8MB8G
A1UdIwQYMBaAFALmq+QSVj4fUeGTZNzvYJUu8rc8MAwGA1UdEwQFMAMBAf8wDQYJ
KoZIhvcNAQELBQADggEBAF+90MPm27sTH3NsCnncb9pembsfhmT7povJlX+03MF6
lKOm6wfYnwPXCA0tu8TXlMmbMzf05/Kmsi1uvNEOO8BUtNOKmVXUTmpUvmU10xGo
0uZf9NCoEFK+cE7olSRbpFq6pIT9MMBgGd2anLhBbq6zWDfKL/nyZLciDwoWQYTm
Xd1WZhDlDJET6cGnmI5GSazsXUxb6BmXizxA0azpahsQXb6RysGaunxk84NTdKHf
qCpBIitfMdlLoD9DPa5Uw2trK4b6nDYK0HQZ0rokHW4Zm48MZ+JULtlwsJxSZxr7
A7+evHNXMttGYs5kUOQGomYFUoJoGNKSHASmYwtA7oM=
-----END CERTIFICATE-----
