Certificate:
    Data:
        Version: 3 (0x2)
        Serial Number: 234 (0xea)
    Signature Algorithm: sha256WithRSAEncryption
        Issuer: C=fr, ST=idf, L=paris, O=vitam, OU=authorities, CN=ca_root_client-storage
        Validity
            Not Before: Feb  5 12:46:56 2018 GMT
            Not After : Feb  3 12:46:56 2028 GMT
        Subject: C=fr, ST=idf, L=paris, O=vitam, OU=authorities, CN=ca_root_client-storage
        Subject Public Key Info:
            Public Key Algorithm: rsaEncryption
                Public-Key: (4096 bit)
                Modulus:
                    00:c8:e4:a7:00:6a:fe:66:4d:5b:c8:45:bc:4c:63:
                    95:04:61:fb:1c:ad:18:ad:20:88:4f:fb:9e:fb:61:
                    bd:38:fb:c5:27:50:8a:57:b2:61:c5:a7:1d:a2:a5:
                    e2:96:0d:55:f4:6f:2d:84:b2:ec:70:36:89:08:a9:
                    a2:f1:aa:95:a1:50:d8:0f:15:97:f2:8c:3e:9e:c1:
                    bd:bb:5a:55:65:4e:ad:3e:ad:8d:c0:7f:ec:93:ce:
                    be:a8:db:a0:b5:d2:a1:6a:71:ff:49:ba:1d:90:ab:
                    c9:9f:33:ac:88:e8:11:e0:32:48:0e:e1:aa:94:a2:
                    43:a5:e6:af:76:05:6b:fc:1a:16:79:dd:bc:f3:43:
                    ec:b5:1c:ce:6d:99:83:27:6f:18:dd:0c:b8:1e:8f:
                    f6:79:5d:05:d2:09:6f:0a:85:65:29:a3:2d:61:16:
                    f2:b0:0e:b3:f7:9d:76:35:86:3d:8f:ee:d7:cd:37:
                    6c:91:08:36:df:a3:80:f3:63:3a:da:01:d3:77:99:
                    f8:42:5e:32:79:a7:38:27:b9:70:0b:70:46:69:f2:
                    ca:28:6e:67:eb:4c:03:c5:bf:9b:75:d6:fe:bf:bd:
                    7f:35:dc:d6:dd:9c:b5:5d:f5:c3:13:47:8d:c3:9d:
                    a9:5d:16:b4:45:b6:e6:0b:f9:21:dc:08:9a:b7:54:
                    6e:4b:dc:fb:5e:b2:e9:38:95:ac:a4:e9:11:3d:81:
                    1d:15:53:bf:0d:a2:c9:54:49:97:ff:dc:ac:89:a4:
                    5d:7c:c5:4b:03:45:59:69:23:bf:ff:9d:23:91:9b:
                    24:bd:ce:22:ff:70:77:48:84:f1:87:51:0d:81:08:
                    8d:14:68:d7:c5:b6:a8:c9:6f:31:4b:6c:4f:3e:7d:
                    5b:d8:66:b0:82:b1:d3:9f:e0:69:88:f8:27:39:35:
                    b7:b8:59:aa:ae:d9:04:74:00:6f:3d:5c:9d:03:31:
                    f3:28:00:a3:04:b6:be:58:bd:ab:37:86:68:3a:6b:
                    bf:f6:ca:c5:f5:4f:0c:c7:fc:27:6f:47:d0:b1:43:
                    81:2b:e0:69:cd:c0:db:65:d3:0f:37:71:f5:d3:91:
                    fb:de:9e:cd:52:f9:f6:2a:db:7b:71:43:3b:c4:49:
                    a5:f0:69:7e:73:77:b1:0e:04:0c:16:9d:83:98:7a:
                    fa:d8:22:72:5f:c5:2e:ca:2f:01:5d:e1:02:01:2d:
                    ac:4c:fd:78:c8:b1:2f:ee:9c:e5:bb:94:e5:af:03:
                    11:9b:bb:fd:55:01:1d:b1:9a:f1:8b:b3:cc:3c:a8:
                    77:d8:f6:8f:6e:5f:ed:ea:47:aa:89:b9:31:c6:d7:
                    c3:8b:6a:5f:fe:45:70:65:a7:08:82:f4:7c:99:9c:
                    74:eb:11
                Exponent: 65537 (0x10001)
        X509v3 extensions:
            Netscape Comment: 
                CA Root
            X509v3 Subject Key Identifier: 
                8D:DA:C8:E0:48:C2:B8:A5:5C:BE:F5:BD:E9:8D:91:8A:C6:71:80:2D
            X509v3 Authority Key Identifier: 
                keyid:8D:DA:C8:E0:48:C2:B8:A5:5C:BE:F5:BD:E9:8D:91:8A:C6:71:80:2D

            X509v3 Basic Constraints: critical
                CA:TRUE, pathlen:1
            X509v3 Key Usage: 
                Certificate Sign, CRL Sign
            Netscape Cert Type: 
                SSL CA
    Signature Algorithm: sha256WithRSAEncryption
         6d:be:86:1b:90:42:8a:2e:a2:fe:c6:f3:1b:86:dd:8c:f7:59:
         96:00:f4:7c:15:7f:13:d3:1d:9b:95:de:70:23:d3:4f:e6:aa:
         81:14:6c:fa:5e:df:37:c6:78:e6:5c:74:3c:72:59:f3:82:f2:
         86:dc:e2:d1:bb:30:11:83:63:ee:f9:6c:77:28:83:ec:50:27:
         b6:6c:9e:62:96:3d:9c:19:86:86:53:b6:9f:a9:d7:00:df:bf:
         8e:91:a1:e0:d2:74:bd:73:f1:dc:72:99:3d:98:4d:6b:b7:cb:
         6a:ab:ed:78:e9:ef:f6:c6:8a:31:56:ba:fc:9f:f2:6c:f3:83:
         de:96:9e:1c:3e:8d:44:0a:8c:a8:15:c3:e6:d5:e1:70:3a:8c:
         3c:c4:d4:6b:d6:02:a0:90:de:a8:25:5c:ba:87:23:ed:eb:77:
         44:d7:38:d7:41:0e:99:f2:bd:be:86:a1:af:9b:3c:64:d1:75:
         44:b7:59:bb:16:e3:a6:07:0e:9a:07:24:11:58:31:3e:73:4c:
         a2:d6:07:a0:41:03:35:7d:3a:d5:80:a9:72:24:f8:7a:ea:61:
         f3:92:c1:2b:6c:2b:dc:eb:e3:5f:d5:2b:3c:74:9f:d8:f8:49:
         78:13:da:c3:83:c0:ad:95:94:72:dc:01:d3:77:3f:68:45:6c:
         63:10:a4:c0:3a:47:f8:e2:ca:6f:56:f2:ae:3a:ec:7e:fc:99:
         e9:e8:17:4b:30:b9:ef:e8:c1:2a:4f:b0:70:9c:cc:5c:51:70:
         6a:8c:f7:59:74:c0:6a:14:04:65:12:e8:0b:62:e6:47:92:17:
         88:75:c4:ad:ee:c1:45:d7:04:c5:9e:06:0e:7d:97:50:48:ff:
         e4:0d:e3:c4:51:a5:e8:27:c7:b9:b5:d7:f1:3b:01:73:80:cd:
         55:6c:57:91:e7:a3:40:cf:4c:fe:c3:f0:c4:3c:2d:c4:5c:4a:
         7c:67:f4:3a:f2:61:62:89:0e:93:b5:01:63:51:c0:11:18:98:
         18:6b:7a:a7:d4:06:f4:58:10:76:9a:50:61:24:df:e1:c3:1e:
         b2:ad:6c:38:6c:4e:17:00:d1:7e:bb:72:5e:56:54:9a:5e:16:
         de:0c:4b:7c:7e:96:b5:a0:95:9c:84:19:69:04:0c:6c:09:94:
         90:e5:8f:34:1d:17:5a:81:ce:f9:26:c0:6a:ba:fc:56:81:76:
         bd:7b:01:7a:9c:7b:d1:0e:3f:3d:29:1a:25:e6:c8:b8:e9:48:
         86:d4:cc:17:98:08:7e:f2:4f:8a:bd:3c:ba:c3:bd:38:41:d4:
         90:7f:aa:1e:6c:20:8e:6d:02:8a:23:1f:e6:42:1b:eb:30:fa:
         1a:7a:df:cc:7d:fa:ec:36
-----BEGIN CERTIFICATE-----
MIIF8DCCA9igAwIBAgICAOowDQYJKoZIhvcNAQELBQAwcjELMAkGA1UEBhMCZnIx
DDAKBgNVBAgMA2lkZjEOMAwGA1UEBwwFcGFyaXMxDjAMBgNVBAoMBXZpdGFtMRQw
EgYDVQQLDAthdXRob3JpdGllczEfMB0GA1UEAwwWY2Ffcm9vdF9jbGllbnQtc3Rv
cmFnZTAeFw0xODAyMDUxMjQ2NTZaFw0yODAyMDMxMjQ2NTZaMHIxCzAJBgNVBAYT
AmZyMQwwCgYDVQQIDANpZGYxDjAMBgNVBAcMBXBhcmlzMQ4wDAYDVQQKDAV2aXRh
bTEUMBIGA1UECwwLYXV0aG9yaXRpZXMxHzAdBgNVBAMMFmNhX3Jvb3RfY2xpZW50
LXN0b3JhZ2UwggIiMA0GCSqGSIb3DQEBAQUAA4ICDwAwggIKAoICAQDI5KcAav5m
TVvIRbxMY5UEYfscrRitIIhP+577Yb04+8UnUIpXsmHFpx2ipeKWDVX0by2Esuxw
NokIqaLxqpWhUNgPFZfyjD6ewb27WlVlTq0+rY3Af+yTzr6o26C10qFqcf9Juh2Q
q8mfM6yI6BHgMkgO4aqUokOl5q92BWv8GhZ53bzzQ+y1HM5tmYMnbxjdDLgej/Z5
XQXSCW8KhWUpoy1hFvKwDrP3nXY1hj2P7tfNN2yRCDbfo4DzYzraAdN3mfhCXjJ5
pzgnuXALcEZp8soobmfrTAPFv5t11v6/vX813NbdnLVd9cMTR43DnaldFrRFtuYL
+SHcCJq3VG5L3Ptesuk4layk6RE9gR0VU78NoslUSZf/3KyJpF18xUsDRVlpI7//
nSORmyS9ziL/cHdIhPGHUQ2BCI0UaNfFtqjJbzFLbE8+fVvYZrCCsdOf4GmI+Cc5
Nbe4Waqu2QR0AG89XJ0DMfMoAKMEtr5Yvas3hmg6a7/2ysX1TwzH/CdvR9CxQ4Er
4GnNwNtl0w83cfXTkfvens1S+fYq23txQzvESaXwaX5zd7EOBAwWnYOYevrYInJf
xS7KLwFd4QIBLaxM/XjIsS/unOW7lOWvAxGbu/1VAR2xmvGLs8w8qHfY9o9uX+3q
R6qJuTHG18OLal/+RXBlpwiC9HyZnHTrEQIDAQABo4GPMIGMMBYGCWCGSAGG+EIB
DQQJFgdDQSBSb290MB0GA1UdDgQWBBSN2sjgSMK4pVy+9b3pjZGKxnGALTAfBgNV
HSMEGDAWgBSN2sjgSMK4pVy+9b3pjZGKxnGALTASBgNVHRMBAf8ECDAGAQH/AgEB
MAsGA1UdDwQEAwIBBjARBglghkgBhvhCAQEEBAMCAgQwDQYJKoZIhvcNAQELBQAD
ggIBAG2+hhuQQoouov7G8xuG3Yz3WZYA9HwVfxPTHZuV3nAj00/mqoEUbPpe3zfG
eOZcdDxyWfOC8obc4tG7MBGDY+75bHcog+xQJ7ZsnmKWPZwZhoZTtp+p1wDfv46R
oeDSdL1z8dxymT2YTWu3y2qr7Xjp7/bGijFWuvyf8mzzg96Wnhw+jUQKjKgVw+bV
4XA6jDzE1GvWAqCQ3qglXLqHI+3rd0TXONdBDpnyvb6Goa+bPGTRdUS3WbsW46YH
DpoHJBFYMT5zTKLWB6BBAzV9OtWAqXIk+HrqYfOSwStsK9zr41/VKzx0n9j4SXgT
2sODwK2VlHLcAdN3P2hFbGMQpMA6R/jiym9W8q467H78menoF0swue/owSpPsHCc
zFxRcGqM91l0wGoUBGUS6Ati5keSF4h1xK3uwUXXBMWeBg59l1BI/+QN48RRpegn
x7m11/E7AXOAzVVsV5Hno0DPTP7D8MQ8LcRcSnxn9DryYWKJDpO1AWNRwBEYmBhr
eqfUBvRYEHaaUGEk3+HDHrKtbDhsThcA0X67cl5WVJpeFt4MS3x+lrWglZyEGWkE
DGwJlJDljzQdF1qBzvkmwGq6/FaBdr17AXqce9EOPz0pGiXmyLjpSIbUzBeYCH7y
T4q9PLrDvThB1JB/qh5sII5tAoojH+ZCG+sw+hp638x9+uw2
-----END CERTIFICATE-----
