Certificate:
    Data:
        Version: 3 (0x2)
        Serial Number: 231 (0xe7)
    Signature Algorithm: sha256WithRSAEncryption
        Issuer: C=fr, ST=idf, L=paris, O=vitam, OU=authorities, CN=ca_root_client-storage
        Validity
            Not Before: Aug  9 16:04:06 2017 GMT
            Not After : Aug  7 16:04:06 2027 GMT
        Subject: C=fr, ST=idf, L=paris, O=vitam, OU=authorities, CN=ca_root_client-storage
        Subject Public Key Info:
            Public Key Algorithm: rsaEncryption
                Public-Key: (4096 bit)
                Modulus:
                    00:ca:45:96:75:14:b0:c6:a9:65:74:34:7a:07:c2:
                    f7:6e:0f:06:d7:c9:f0:c7:bf:99:62:27:f2:d8:6f:
                    79:a1:28:4d:11:e2:76:cc:91:4c:18:ba:e2:c8:87:
                    fc:7c:fd:fd:35:31:ec:15:51:c4:19:b7:41:cc:27:
                    7f:ae:e8:ee:4b:1a:86:2e:5f:29:5e:10:20:8d:09:
                    99:e5:69:7b:80:b5:65:cb:33:95:da:a8:33:7a:f5:
                    7d:0e:90:dc:c3:f3:9a:6a:ea:8d:17:62:86:d0:96:
                    16:87:33:6f:23:bb:55:52:eb:ac:bd:62:4b:b6:6e:
                    b8:37:36:a0:cb:9f:34:f1:b4:df:8a:b6:b2:74:0f:
                    17:25:df:43:13:ca:d8:35:60:af:54:50:3d:59:18:
                    35:8e:9e:4a:96:91:f5:89:5a:94:a0:98:f3:85:72:
                    00:7c:c9:1f:94:86:9e:4d:1f:a0:85:f1:be:4e:ca:
                    78:cc:fb:70:9b:ad:bc:4b:11:ef:08:39:ef:18:45:
                    0b:83:a2:b7:18:64:f5:0c:b0:2e:21:9c:da:b6:2d:
                    30:0c:2a:0d:1c:9a:11:d4:c1:76:e7:49:af:39:c1:
                    f7:08:fe:4b:d9:27:f9:89:a2:42:b6:37:ca:22:79:
                    71:04:bd:1a:cd:78:ee:4e:dc:fd:f1:dc:29:21:05:
                    ed:54:cb:13:04:49:d1:83:14:59:02:f3:b2:60:2a:
                    ef:a0:7f:11:9b:a3:5f:3b:fd:06:70:02:7b:a4:45:
                    db:13:d9:ea:5f:0d:01:f1:99:3c:c1:c5:54:fa:4e:
                    bf:66:4d:be:3b:15:7a:bf:e9:39:b7:61:39:d9:5b:
                    72:b2:a7:27:1d:d0:55:c7:49:6f:51:7c:06:6d:4f:
                    f8:7d:2b:76:3c:f9:18:d9:2e:44:10:5e:42:fd:37:
                    fe:0d:48:a8:06:e7:7a:a9:56:27:4d:d1:3a:b3:c4:
                    d7:e8:f6:45:35:50:16:ec:19:82:09:7d:db:7b:48:
                    5b:19:6b:d9:14:bd:65:66:44:b7:fd:31:01:8a:e9:
                    2d:a9:92:d3:68:fb:7f:40:53:30:79:b8:75:e9:a4:
                    af:42:f1:e9:e8:a6:69:d9:3c:67:01:4e:a6:3b:e8:
                    ad:88:5e:c8:d0:db:54:44:22:40:6d:87:56:ab:bf:
                    7f:ce:6e:8c:cb:35:de:a4:a3:35:8f:9a:2c:c0:b6:
                    2d:2a:91:54:25:cd:9e:88:a5:99:b7:47:83:34:08:
                    70:77:e6:b4:1f:18:f2:e6:ac:63:67:90:c3:98:03:
                    71:0b:d3:4d:3b:31:c3:3c:a4:27:0d:16:3d:9e:db:
                    c2:1d:7d:8f:e3:45:f6:65:65:1b:9b:28:c0:c6:ab:
                    b1:72:b3
                Exponent: 65537 (0x10001)
        X509v3 extensions:
            Netscape Comment: 
                CA Root
            X509v3 Subject Key Identifier: 
                A2:81:49:77:F6:D9:5A:7D:5F:A7:B2:40:3A:BB:9F:C5:D6:C3:1F:9A
            X509v3 Authority Key Identifier: 
                keyid:A2:81:49:77:F6:D9:5A:7D:5F:A7:B2:40:3A:BB:9F:C5:D6:C3:1F:9A

            X509v3 Basic Constraints: critical
                CA:TRUE, pathlen:1
            X509v3 Key Usage: 
                Certificate Sign, CRL Sign
            Netscape Cert Type: 
                SSL CA
    Signature Algorithm: sha256WithRSAEncryption
         93:40:84:df:3e:67:7e:55:2c:84:67:87:63:f0:a3:0e:d7:61:
         3f:c4:c0:bc:24:f0:30:4e:a6:74:78:4a:ee:b8:83:50:65:1e:
         04:d9:9b:3f:b3:e1:26:54:97:d8:aa:1f:6c:0c:5c:01:cd:49:
         df:1f:45:b4:5c:e8:13:e6:d9:79:97:c2:03:df:9b:cb:08:3f:
         6a:04:7d:1d:b0:27:f5:e3:c0:8d:da:3c:65:a6:df:b9:ee:60:
         e5:95:a0:dc:da:6c:f5:e4:5a:31:a5:da:9a:c9:a9:f7:86:46:
         8a:17:41:ea:f1:31:af:ca:b5:40:ae:94:a8:14:4d:5e:f9:ee:
         4d:27:06:6c:d8:25:95:1e:a2:19:05:42:9c:25:be:25:fc:ba:
         71:db:e9:bc:5a:ba:38:bc:2d:2c:62:e4:78:44:bd:68:23:81:
         a2:0b:62:4a:a4:bc:00:8c:7c:7f:15:51:79:93:91:06:ef:17:
         e1:0f:67:eb:35:5d:d8:f3:94:60:d4:4c:da:8b:c5:8c:15:70:
         cd:5a:df:33:d5:8d:45:31:ba:70:89:ec:55:1e:f4:41:bf:32:
         e2:6a:3c:35:87:5b:bd:b5:4c:37:61:cb:18:07:e7:4a:63:5f:
         12:1e:a7:aa:ca:49:13:da:90:53:95:d2:02:ec:a7:6c:0a:55:
         2b:94:f8:e8:cb:bd:aa:b3:e5:54:28:44:13:4a:d9:66:68:5e:
         67:af:75:f9:99:d9:be:46:c0:1f:fc:19:12:df:6e:dd:76:03:
         76:42:b7:91:22:e6:90:7d:e2:17:98:56:2a:2c:6e:0e:b9:05:
         56:4f:64:2f:2a:8a:18:ae:3e:a7:35:04:77:da:86:76:37:e0:
         5d:01:70:3a:db:f5:e7:b2:98:5a:df:ca:56:10:b0:94:c5:d8:
         c4:f5:4d:69:6b:b4:96:d7:6b:0f:1e:e0:31:e2:c5:74:c5:fb:
         d9:13:32:d0:44:3a:ef:6a:65:f2:43:d3:c8:93:fa:63:d9:41:
         a5:cd:82:8d:17:77:f4:a1:f9:33:cd:47:9e:ac:38:16:1b:08:
         e5:82:b0:93:cc:04:fb:04:aa:df:e5:93:4e:73:ba:87:21:51:
         ee:3a:e2:98:53:cb:6e:60:25:e9:b5:a5:69:cd:19:02:8d:2b:
         44:06:41:b9:7a:6c:f5:83:85:e2:53:74:b2:69:b8:67:0c:76:
         38:ee:6e:2e:ab:57:31:61:c5:56:3c:2c:c5:bb:e4:71:c8:f4:
         21:cc:eb:d0:45:40:cc:07:08:55:ad:05:9f:46:bf:50:ae:ad:
         70:8e:79:e1:18:a4:dd:87:7a:1b:69:48:21:14:69:7a:a7:b1:
         72:3f:5b:94:9b:2e:8f:b8
-----BEGIN CERTIFICATE-----
MIIF8DCCA9igAwIBAgICAOcwDQYJKoZIhvcNAQELBQAwcjELMAkGA1UEBhMCZnIx
DDAKBgNVBAgMA2lkZjEOMAwGA1UEBwwFcGFyaXMxDjAMBgNVBAoMBXZpdGFtMRQw
EgYDVQQLDAthdXRob3JpdGllczEfMB0GA1UEAwwWY2Ffcm9vdF9jbGllbnQtc3Rv
cmFnZTAeFw0xNzA4MDkxNjA0MDZaFw0yNzA4MDcxNjA0MDZaMHIxCzAJBgNVBAYT
AmZyMQwwCgYDVQQIDANpZGYxDjAMBgNVBAcMBXBhcmlzMQ4wDAYDVQQKDAV2aXRh
bTEUMBIGA1UECwwLYXV0aG9yaXRpZXMxHzAdBgNVBAMMFmNhX3Jvb3RfY2xpZW50
LXN0b3JhZ2UwggIiMA0GCSqGSIb3DQEBAQUAA4ICDwAwggIKAoICAQDKRZZ1FLDG
qWV0NHoHwvduDwbXyfDHv5liJ/LYb3mhKE0R4nbMkUwYuuLIh/x8/f01MewVUcQZ
t0HMJ3+u6O5LGoYuXyleECCNCZnlaXuAtWXLM5XaqDN69X0OkNzD85pq6o0XYobQ
lhaHM28ju1VS66y9Yku2brg3NqDLnzTxtN+KtrJ0Dxcl30MTytg1YK9UUD1ZGDWO
nkqWkfWJWpSgmPOFcgB8yR+Uhp5NH6CF8b5OynjM+3CbrbxLEe8IOe8YRQuDorcY
ZPUMsC4hnNq2LTAMKg0cmhHUwXbnSa85wfcI/kvZJ/mJokK2N8oieXEEvRrNeO5O
3P3x3CkhBe1UyxMESdGDFFkC87JgKu+gfxGbo187/QZwAnukRdsT2epfDQHxmTzB
xVT6Tr9mTb47FXq/6Tm3YTnZW3Kypycd0FXHSW9RfAZtT/h9K3Y8+RjZLkQQXkL9
N/4NSKgG53qpVidN0TqzxNfo9kU1UBbsGYIJfdt7SFsZa9kUvWVmRLf9MQGK6S2p
ktNo+39AUzB5uHXppK9C8enopmnZPGcBTqY76K2IXsjQ21REIkBth1arv3/ObozL
Nd6kozWPmizAti0qkVQlzZ6IpZm3R4M0CHB35rQfGPLmrGNnkMOYA3EL0007McM8
pCcNFj2e28IdfY/jRfZlZRubKMDGq7FyswIDAQABo4GPMIGMMBYGCWCGSAGG+EIB
DQQJFgdDQSBSb290MB0GA1UdDgQWBBSigUl39tlafV+nskA6u5/F1sMfmjAfBgNV
HSMEGDAWgBSigUl39tlafV+nskA6u5/F1sMfmjASBgNVHRMBAf8ECDAGAQH/AgEB
MAsGA1UdDwQEAwIBBjARBglghkgBhvhCAQEEBAMCAgQwDQYJKoZIhvcNAQELBQAD
ggIBAJNAhN8+Z35VLIRnh2Pwow7XYT/EwLwk8DBOpnR4Su64g1BlHgTZmz+z4SZU
l9iqH2wMXAHNSd8fRbRc6BPm2XmXwgPfm8sIP2oEfR2wJ/XjwI3aPGWm37nuYOWV
oNzabPXkWjGl2prJqfeGRooXQerxMa/KtUCulKgUTV757k0nBmzYJZUeohkFQpwl
viX8unHb6bxauji8LSxi5HhEvWgjgaILYkqkvACMfH8VUXmTkQbvF+EPZ+s1Xdjz
lGDUTNqLxYwVcM1a3zPVjUUxunCJ7FUe9EG/MuJqPDWHW721TDdhyxgH50pjXxIe
p6rKSRPakFOV0gLsp2wKVSuU+OjLvaqz5VQoRBNK2WZoXmevdfmZ2b5GwB/8GRLf
bt12A3ZCt5Ei5pB94heYViosbg65BVZPZC8qihiuPqc1BHfahnY34F0BcDrb9eey
mFrfylYQsJTF2MT1TWlrtJbXaw8e4DHixXTF+9kTMtBEOu9qZfJD08iT+mPZQaXN
go0Xd/Sh+TPNR56sOBYbCOWCsJPMBPsEqt/lk05zuochUe464phTy25gJem1pWnN
GQKNK0QGQbl6bPWDheJTdLJpuGcMdjjubi6rVzFhxVY8LMW75HHI9CHM69BFQMwH
CFWtBZ9Gv1CurXCOeeEYpN2HehtpSCEUaXqnsXI/W5SbLo+4
-----END CERTIFICATE-----
