Certificate:
    Data:
        Version: 3 (0x2)
        Serial Number: 3 (0x3)
        Signature Algorithm: sha256WithRSAEncryption
        Issuer: C=FR, L=Paris, O=VITAM
        Validity
            Not Before: Sep 17 13:12:12 2020 GMT
            Not After : Dec 31 23:59:59 9999 GMT
        Subject: C=FR, L=Paris, O=VITAM, CN=userAdmin
        Subject Public Key Info:
            Public Key Algorithm: rsaEncryption
                RSA Public-Key: (4096 bit)
                Modulus:
                    00:ea:69:6d:67:e3:36:3a:23:97:64:85:4d:9a:3a:
                    d2:b5:2d:49:ae:f5:e7:18:76:50:a3:c2:47:2b:4a:
                    89:4a:0a:3b:4c:5a:85:6e:92:27:5e:b1:1f:9f:e2:
                    c4:67:23:2f:ad:a3:0c:10:e8:f6:60:05:5b:05:2c:
                    c0:31:be:e3:93:00:5e:8a:58:1d:5e:9c:89:9b:ee:
                    4a:43:c7:ea:43:30:a3:eb:d8:e9:e4:2d:82:dc:5a:
                    03:a5:04:ae:cf:18:33:b2:ec:3f:da:40:2a:3e:54:
                    04:b1:45:c7:37:50:51:c0:e2:ec:aa:ca:8d:cb:23:
                    dc:24:2a:c1:33:75:a1:5f:47:7d:39:a6:5b:77:16:
                    58:56:45:76:e1:66:db:20:58:a3:79:cb:79:e3:7c:
                    9a:37:bd:16:44:81:2c:5d:98:eb:3a:4e:ef:4e:a9:
                    4a:fc:df:bc:86:f2:8b:56:2a:84:78:a9:5b:ba:f8:
                    a8:07:27:62:de:79:5a:28:18:06:09:f0:76:60:1d:
                    ec:98:34:de:26:6e:20:38:d5:e6:90:89:f3:2f:ab:
                    46:7e:9f:ec:ca:c5:92:10:1e:46:a2:dd:01:8e:6a:
                    96:1a:1d:74:f7:ce:e7:f7:d9:99:81:57:e2:1e:d5:
                    8e:90:a3:20:d0:53:fe:65:d8:27:a8:96:1b:bd:46:
                    93:a8:3b:ff:dc:f4:a8:01:b6:ac:9d:6c:d9:0d:d8:
                    5d:fc:ac:19:11:22:6d:4c:4f:d3:67:ed:1a:93:96:
                    2a:8e:fd:24:62:00:90:21:ce:25:84:12:60:18:59:
                    ba:f5:78:35:69:96:aa:83:02:a0:75:cf:bf:ed:35:
                    8b:89:76:3e:d1:ba:e0:90:b7:39:d9:f2:11:70:2b:
                    f1:1f:6e:6d:cf:e6:80:f2:3c:73:8b:d4:a9:ee:e5:
                    fc:06:80:01:0f:43:d6:63:69:78:1a:a5:35:03:5c:
                    a5:c7:00:a8:9d:23:ad:89:b8:23:ea:73:31:60:5e:
                    ea:01:d5:14:db:9b:b5:93:d7:af:02:40:31:9c:12:
                    e3:b9:4d:28:c8:dc:b0:cf:a9:01:9e:96:fb:28:90:
                    76:b0:e4:71:35:e2:da:52:71:e9:78:bb:64:36:44:
                    3b:50:48:2c:e7:9c:39:3e:92:db:90:ce:b3:10:ed:
                    74:16:bf:32:74:19:12:7c:98:c9:3e:78:b4:ba:09:
                    ce:fa:5e:50:73:52:72:51:89:da:33:44:e8:b1:5e:
                    e5:b0:e7:63:dc:46:7e:73:44:a6:4c:b0:b0:24:e9:
                    b7:43:8d:a9:74:47:93:2c:d0:1d:ab:0a:7d:d9:a9:
                    4c:a9:26:0e:93:69:71:31:68:45:3d:30:4e:de:84:
                    c7:58:93
                Exponent: 65537 (0x10001)
        X509v3 extensions:
            Netscape Comment: 
                xca certificate
            X509v3 Subject Key Identifier: 
                C9:40:34:15:1A:83:48:AE:34:26:D2:83:57:54:5A:3F:ED:F4:B3:B3
            X509v3 Basic Constraints: critical
                CA:FALSE
            X509v3 Key Usage: 
                Digital Signature, Key Encipherment, Data Encipherment
            Netscape Cert Type: 
                SSL Client, S/MIME
    Signature Algorithm: sha256WithRSAEncryption
         0a:ff:3d:e1:b0:13:b4:ea:f8:cf:90:c6:07:e8:b4:dc:28:2d:
         7d:ee:93:4f:b3:f5:c4:6e:5f:fd:b9:aa:6b:78:49:e9:26:61:
         86:3d:a7:6a:68:2e:68:1d:4b:57:79:e5:58:b8:94:41:9f:3e:
         6a:8a:aa:60:34:83:73:1a:54:e3:96:39:f3:01:9b:53:9e:e5:
         5c:f4:66:e6:79:a4:c7:e4:98:16:d6:fe:06:8a:9d:a7:68:e9:
         89:8b:20:4a:93:6e:39:db:7c:a4:6e:cc:87:da:72:4c:36:b2:
         2b:f6:f7:c1:5d:80:ac:20:16:d3:41:2e:4d:24:e7:5f:ce:14:
         a4:c3:ba:93:65:ad:e7:31:a9:bf:3d:00:6c:84:e5:78:d1:dd:
         84:d5:a2:d8:cf:b6:db:29:9a:d6:eb:f5:69:b1:8c:93:47:6a:
         bb:42:49:ab:6c:ff:8e:19:19:52:6b:e2:3e:2a:29:8e:cc:69:
         ea:4f:99:08:74:58:cc:ac:88:42:32:3f:55:d3:bc:52:44:d5:
         12:45:ca:08:f5:d6:a0:74:26:57:75:89:2a:9d:09:82:09:33:
         99:6c:2a:86:a4:e6:31:b2:b2:1a:b4:44:0f:96:b2:f0:4a:a3:
         4c:d2:c9:90:9c:f1:71:36:c6:73:77:75:d0:ad:69:aa:e7:70:
         5a:5a:80:9a:8a:4c:f6:74:7f:c8:ee:88:3c:4d:43:ed:a4:22:
         3b:4a:f7:f2:e3:96:37:1f:59:80:3b:6b:ba:37:7d:a4:63:3e:
         42:3d:9f:07:13:60:c0:ff:a9:e9:f8:a3:6a:51:83:86:3b:a1:
         94:d5:9c:66:0c:6b:3a:d9:de:4d:fa:01:3c:35:9b:65:f7:d4:
         00:38:1f:35:fc:b0:cd:72:21:24:40:a9:79:00:c5:d3:3e:55:
         5b:4c:77:fc:8d:1d:1d:6f:e8:11:73:28:9a:79:55:bd:8e:7c:
         b8:a3:1d:81:3f:48:be:2b:d9:d9:a2:19:f0:ce:9a:d0:16:05:
         42:ae:f4:15:2e:2b:3b:18:36:82:e5:e1:7e:7d:13:da:89:1a:
         7d:e9:a8:e1:5d:d5:e1:29:23:96:eb:52:3e:28:98:14:09:c7:
         de:09:0c:30:67:4c:71:4b:3d:14:82:d0:f3:2e:70:96:d6:40:
         58:63:27:18:c9:c3:90:5a:f9:6a:a0:63:4c:c7:9e:9d:f0:38:
         f0:c8:b1:8f:ab:1f:3a:fc:e2:08:36:61:61:6d:67:c9:c3:d9:
         78:fc:15:3e:58:2e:3b:5d:cf:4c:43:62:02:02:4b:f6:41:dc:
         6f:03:51:4e:15:35:bb:8d:cb:2f:09:c1:2d:8c:65:36:bc:48:
         41:b5:44:e6:27:74:fe:c8
-----BEGIN CERTIFICATE-----
MIIFWjCCA0KgAwIBAgIBAzANBgkqhkiG9w0BAQsFADAtMQswCQYDVQQGEwJGUjEO
MAwGA1UEBwwFUGFyaXMxDjAMBgNVBAoMBVZJVEFNMCAXDTIwMDkxNzEzMTIxMloY
Dzk5OTkxMjMxMjM1OTU5WjBBMQswCQYDVQQGEwJGUjEOMAwGA1UEBwwFUGFyaXMx
DjAMBgNVBAoMBVZJVEFNMRIwEAYDVQQDDAl1c2VyQWRtaW4wggIiMA0GCSqGSIb3
DQEBAQUAA4ICDwAwggIKAoICAQDqaW1n4zY6I5dkhU2aOtK1LUmu9ecYdlCjwkcr
SolKCjtMWoVukidesR+f4sRnIy+towwQ6PZgBVsFLMAxvuOTAF6KWB1enImb7kpD
x+pDMKPr2OnkLYLcWgOlBK7PGDOy7D/aQCo+VASxRcc3UFHA4uyqyo3LI9wkKsEz
daFfR305plt3FlhWRXbhZtsgWKN5y3njfJo3vRZEgSxdmOs6Tu9OqUr837yG8otW
KoR4qVu6+KgHJ2LeeVooGAYJ8HZgHeyYNN4mbiA41eaQifMvq0Z+n+zKxZIQHkai
3QGOapYaHXT3zuf32ZmBV+Ie1Y6QoyDQU/5l2Ceolhu9RpOoO//c9KgBtqydbNkN
2F38rBkRIm1MT9Nn7RqTliqO/SRiAJAhziWEEmAYWbr1eDVplqqDAqB1z7/tNYuJ
dj7RuuCQtznZ8hFwK/Efbm3P5oDyPHOL1Knu5fwGgAEPQ9ZjaXgapTUDXKXHAKid
I62JuCPqczFgXuoB1RTbm7WT168CQDGcEuO5TSjI3LDPqQGelvsokHaw5HE14tpS
cel4u2Q2RDtQSCznnDk+ktuQzrMQ7XQWvzJ0GRJ8mMk+eLS6Cc76XlBzUnJRidoz
ROixXuWw52PcRn5zRKZMsLAk6bdDjal0R5Ms0B2rCn3ZqUypJg6TaXExaEU9ME7e
hMdYkwIDAQABo28wbTAeBglghkgBhvhCAQ0EERYPeGNhIGNlcnRpZmljYXRlMB0G
A1UdDgQWBBTJQDQVGoNIrjQm0oNXVFo/7fSzszAMBgNVHRMBAf8EAjAAMAsGA1Ud
DwQEAwIEsDARBglghkgBhvhCAQEEBAMCBaAwDQYJKoZIhvcNAQELBQADggIBAAr/
PeGwE7Tq+M+QxgfotNwoLX3uk0+z9cRuX/25qmt4SekmYYY9p2poLmgdS1d55Vi4
lEGfPmqKqmA0g3MaVOOWOfMBm1Oe5Vz0ZuZ5pMfkmBbW/gaKnado6YmLIEqTbjnb
fKRuzIfackw2siv298FdgKwgFtNBLk0k51/OFKTDupNlrecxqb89AGyE5XjR3YTV
otjPttspmtbr9WmxjJNHartCSats/44ZGVJr4j4qKY7MaepPmQh0WMysiEIyP1XT
vFJE1RJFygj11qB0Jld1iSqdCYIJM5lsKoak5jGyshq0RA+WsvBKo0zSyZCc8XE2
xnN3ddCtaarncFpagJqKTPZ0f8juiDxNQ+2kIjtK9/LjljcfWYA7a7o3faRjPkI9
nwcTYMD/qen4o2pRg4Y7oZTVnGYMazrZ3k36ATw1m2X31AA4HzX8sM1yISRAqXkA
xdM+VVtMd/yNHR1v6BFzKJp5Vb2OfLijHYE/SL4r2dmiGfDOmtAWBUKu9BUuKzsY
NoLl4X59E9qJGn3pqOFd1eEpI5brUj4omBQJx94JDDBnTHFLPRSC0PMucJbWQFhj
JxjJw5Ba+WqgY0zHnp3wOPDIsY+rHzr84gg2YWFtZ8nD2Xj8FT5YLjtdz0xDYgIC
S/ZB3G8DUU4VNbuNyy8JwS2MZTa8SEG1ROYndP7I
-----END CERTIFICATE-----
