Certificate:
    Data:
        Version: 3 (0x2)
        Serial Number: 4 (0x4)
        Signature Algorithm: sha256WithRSAEncryption
        Issuer: C=FR, L=Paris, O=VITAM
        Validity
            Not Before: Sep 17 13:12:13 2020 GMT
            Not After : Dec 31 23:59:59 9999 GMT
        Subject: C=FR, L=Paris, O=VITAM, CN=userUser
        Subject Public Key Info:
            Public Key Algorithm: rsaEncryption
                RSA Public-Key: (4096 bit)
                Modulus:
                    00:ae:7b:12:20:9b:31:4c:fc:f3:62:a5:f0:9e:f6:
                    70:94:d5:47:d1:4d:12:16:b5:c8:c9:4d:27:e0:2f:
                    25:19:c3:d8:6a:f3:71:13:4b:f2:65:c7:89:6f:68:
                    76:37:12:b0:70:8a:eb:09:81:8f:5c:d3:43:0e:48:
                    3a:ad:cb:0c:d4:51:75:85:36:3b:33:60:bf:0c:02:
                    40:3b:d4:e3:85:d6:eb:5a:b3:6d:a3:c3:4e:3d:c2:
                    f4:06:e5:fe:27:ac:c9:e7:8b:c0:f9:44:48:ee:19:
                    f8:57:39:f0:da:3f:da:69:57:55:8c:82:97:f7:62:
                    80:48:51:0d:24:9a:6f:e3:5a:c9:80:26:cb:de:e2:
                    ef:7c:28:5a:ff:8c:a9:a8:0b:db:09:f6:4b:3c:28:
                    54:f8:59:f9:e7:7f:16:38:86:5a:71:0c:e3:52:6a:
                    65:e0:d1:1f:2d:60:6c:e4:9c:cd:3b:f1:22:c0:e2:
                    59:68:8d:78:4a:66:34:4a:b4:7c:45:ff:09:da:77:
                    72:4f:59:40:56:05:45:ff:01:e3:30:b1:26:85:76:
                    59:89:e0:1b:d3:22:36:f2:7f:85:33:17:41:f9:bd:
                    5b:de:76:4c:fc:6a:0c:80:85:87:d8:df:11:c3:05:
                    6e:25:da:05:d8:4d:22:e3:a0:2d:31:69:4f:7a:c8:
                    89:04:05:cc:73:13:53:16:50:a5:4a:f0:b0:94:91:
                    65:1a:78:42:f8:90:fb:dd:bd:dc:65:d4:6d:6f:fa:
                    1b:1b:d2:a7:e5:f4:f3:f4:2b:06:a8:97:3a:17:81:
                    2f:bf:ce:d4:d3:ff:94:0f:2a:50:36:5e:5c:fa:89:
                    83:85:03:3f:a8:f4:34:73:7e:58:a9:9d:03:4f:b6:
                    67:d9:49:d6:bf:ef:b8:4c:6c:fd:86:c3:0e:df:03:
                    b7:b3:d5:2f:af:c3:98:bb:cb:62:ef:b4:ba:84:1f:
                    03:51:df:b1:f0:6e:c5:f0:84:0c:30:a1:19:73:ae:
                    9f:bf:7e:43:ea:7a:d6:99:ce:ad:13:7d:e9:fe:24:
                    4a:68:73:74:db:6c:b2:24:15:a0:9d:67:e5:dc:c9:
                    45:8f:26:e2:95:28:9a:fb:40:ab:bb:1c:1d:4e:12:
                    ee:81:60:aa:97:a3:e1:55:8f:f8:5c:6e:54:fa:d2:
                    f9:2c:f5:a9:af:6e:47:e9:fa:74:48:79:b4:f9:c3:
                    51:98:7c:88:aa:50:c1:94:fc:12:5d:c8:f0:97:f7:
                    44:3e:53:f3:09:f8:c1:e6:b2:6a:5f:cb:8c:62:c8:
                    55:b3:68:31:05:40:a8:f1:4b:70:e9:b9:fa:e8:8d:
                    59:eb:d7:03:6e:e2:25:70:8b:ab:65:26:46:86:f2:
                    b4:ac:77
                Exponent: 65537 (0x10001)
        X509v3 extensions:
            Netscape Comment: 
                xca certificate
            X509v3 Subject Key Identifier: 
                24:A0:30:2F:24:6C:67:C4:FD:FC:85:46:F8:04:58:F0:2F:06:C1:89
            X509v3 Basic Constraints: critical
                CA:FALSE
            X509v3 Key Usage: 
                Digital Signature, Key Encipherment, Data Encipherment
            Netscape Cert Type: 
                SSL Client, S/MIME
    Signature Algorithm: sha256WithRSAEncryption
         82:47:c4:15:1f:ef:66:28:2a:f7:59:9a:23:97:40:71:ab:d6:
         66:50:24:e6:fe:2c:dd:3e:a3:b1:21:f3:b7:28:93:93:0a:7f:
         56:7a:57:4e:a8:41:aa:aa:d6:98:88:a5:8f:1a:9c:74:e6:8e:
         f6:c3:0a:e3:a4:10:f8:a4:3b:71:d4:2b:45:91:25:79:07:43:
         f8:4f:4b:f8:59:e0:10:05:fd:bd:7d:71:39:2d:ee:94:c9:a2:
         71:19:9e:b0:cc:48:86:4f:81:de:f8:09:48:fc:ee:73:0d:e5:
         57:46:d9:c6:75:f3:7e:2e:4f:ff:7c:2d:0c:0b:d3:de:d3:c5:
         22:60:94:5b:e0:f7:ea:78:96:16:96:40:6c:5e:b6:33:c3:04:
         57:a9:33:f9:50:ca:d2:aa:6c:6a:21:ec:5b:49:34:aa:a9:cb:
         23:a4:81:9c:2d:8b:7e:c4:21:34:ad:92:5e:c2:07:b1:40:54:
         c2:61:30:61:52:d7:9e:df:37:60:68:74:8c:f9:7a:40:b0:a0:
         ea:03:6c:96:7f:f1:3d:55:f4:a2:b2:6e:ed:34:78:cf:8e:7c:
         28:33:e4:da:e1:8d:36:c0:48:8d:3c:5b:85:76:f1:21:c6:37:
         eb:1b:c9:dc:7a:0b:81:37:1f:64:0d:56:73:7d:38:62:6b:c2:
         09:80:84:59:59:1c:d5:bb:3a:dd:11:33:a5:96:78:8b:50:f7:
         44:5a:37:bb:39:fb:b1:fb:04:16:54:eb:98:ee:bf:c2:15:98:
         91:07:cb:20:1b:31:b9:e4:3d:1f:de:9f:9a:e6:46:9d:17:b9:
         9a:fc:91:b7:c9:4a:d5:f8:31:65:58:b5:cf:23:7e:a9:aa:b6:
         e9:22:fb:1c:fe:0f:a4:d7:9c:61:22:d2:bd:1b:48:f3:5f:e7:
         18:b3:72:1b:01:89:5e:de:60:53:aa:69:34:f5:10:5a:26:64:
         aa:be:90:12:3e:50:39:dc:08:c1:4a:13:34:06:0b:de:43:79:
         8a:dd:56:3a:8f:9c:83:af:b5:6a:8e:61:bc:17:3b:43:3f:b0:
         83:26:f6:e3:e2:d4:c4:a2:78:1c:b8:40:38:8d:b2:7d:2d:57:
         3e:70:3a:c6:01:68:91:c3:ea:c4:8b:6c:0e:00:4a:6c:28:f7:
         3d:97:fa:32:15:c0:1a:76:a9:c9:de:cf:9b:d8:27:4b:f1:5f:
         fb:49:91:f0:4b:d2:32:a1:39:0f:9b:bf:c4:06:d4:49:0c:27:
         a0:6f:3b:f2:b7:73:5c:7d:88:28:f9:8b:7a:7a:a4:e1:cf:a0:
         2d:e5:d7:3c:db:df:2e:a0:37:8c:ec:2b:0f:29:e4:80:12:aa:
         b8:20:1f:c0:ca:ad:ec:15
-----BEGIN CERTIFICATE-----
MIIFWTCCA0GgAwIBAgIBBDANBgkqhkiG9w0BAQsFADAtMQswCQYDVQQGEwJGUjEO
MAwGA1UEBwwFUGFyaXMxDjAMBgNVBAoMBVZJVEFNMCAXDTIwMDkxNzEzMTIxM1oY
Dzk5OTkxMjMxMjM1OTU5WjBAMQswCQYDVQQGEwJGUjEOMAwGA1UEBwwFUGFyaXMx
DjAMBgNVBAoMBVZJVEFNMREwDwYDVQQDDAh1c2VyVXNlcjCCAiIwDQYJKoZIhvcN
AQEBBQADggIPADCCAgoCggIBAK57EiCbMUz882Kl8J72cJTVR9FNEha1yMlNJ+Av
JRnD2GrzcRNL8mXHiW9odjcSsHCK6wmBj1zTQw5IOq3LDNRRdYU2OzNgvwwCQDvU
44XW61qzbaPDTj3C9Abl/iesyeeLwPlESO4Z+Fc58No/2mlXVYyCl/digEhRDSSa
b+NayYAmy97i73woWv+MqagL2wn2SzwoVPhZ+ed/FjiGWnEM41JqZeDRHy1gbOSc
zTvxIsDiWWiNeEpmNEq0fEX/Cdp3ck9ZQFYFRf8B4zCxJoV2WYngG9MiNvJ/hTMX
Qfm9W952TPxqDICFh9jfEcMFbiXaBdhNIuOgLTFpT3rIiQQFzHMTUxZQpUrwsJSR
ZRp4QviQ+9293GXUbW/6GxvSp+X08/QrBqiXOheBL7/O1NP/lA8qUDZeXPqJg4UD
P6j0NHN+WKmdA0+2Z9lJ1r/vuExs/YbDDt8Dt7PVL6/DmLvLYu+0uoQfA1HfsfBu
xfCEDDChGXOun79+Q+p61pnOrRN96f4kSmhzdNtssiQVoJ1n5dzJRY8m4pUomvtA
q7scHU4S7oFgqpej4VWP+FxuVPrS+Sz1qa9uR+n6dEh5tPnDUZh8iKpQwZT8El3I
8Jf3RD5T8wn4weayal/LjGLIVbNoMQVAqPFLcOm5+uiNWevXA27iJXCLq2UmRoby
tKx3AgMBAAGjbzBtMB4GCWCGSAGG+EIBDQQRFg94Y2EgY2VydGlmaWNhdGUwHQYD
VR0OBBYEFCSgMC8kbGfE/fyFRvgEWPAvBsGJMAwGA1UdEwEB/wQCMAAwCwYDVR0P
BAQDAgSwMBEGCWCGSAGG+EIBAQQEAwIFoDANBgkqhkiG9w0BAQsFAAOCAgEAgkfE
FR/vZigq91maI5dAcavWZlAk5v4s3T6jsSHztyiTkwp/VnpXTqhBqqrWmIiljxqc
dOaO9sMK46QQ+KQ7cdQrRZEleQdD+E9L+FngEAX9vX1xOS3ulMmicRmesMxIhk+B
3vgJSPzucw3lV0bZxnXzfi5P/3wtDAvT3tPFImCUW+D36niWFpZAbF62M8MEV6kz
+VDK0qpsaiHsW0k0qqnLI6SBnC2LfsQhNK2SXsIHsUBUwmEwYVLXnt83YGh0jPl6
QLCg6gNsln/xPVX0orJu7TR4z458KDPk2uGNNsBIjTxbhXbxIcY36xvJ3HoLgTcf
ZA1Wc304YmvCCYCEWVkc1bs63REzpZZ4i1D3RFo3uzn7sfsEFlTrmO6/whWYkQfL
IBsxueQ9H96fmuZGnRe5mvyRt8lK1fgxZVi1zyN+qaq26SL7HP4PpNecYSLSvRtI
81/nGLNyGwGJXt5gU6ppNPUQWiZkqr6QEj5QOdwIwUoTNAYL3kN5it1WOo+cg6+1
ao5hvBc7Qz+wgyb24+LUxKJ4HLhAOI2yfS1XPnA6xgFokcPqxItsDgBKbCj3PZf6
MhXAGnapyd7Pm9gnS/Ff+0mR8EvSMqE5D5u/xAbUSQwnoG878rdzXH2IKPmLenqk
4c+gLeXXPNvfLqA3jOwrDynkgBKquCAfwMqt7BU=
-----END CERTIFICATE-----
