Certificate:
    Data:
        Version: 3 (0x2)
        Serial Number: 2 (0x2)
        Signature Algorithm: sha256WithRSAEncryption
        Issuer: C=FR, L=Paris, O=VITAM
        Validity
            Not Before: Sep 17 13:12:12 2020 GMT
            Not After : Dec 31 23:59:59 9999 GMT
        Subject: C=FR, L=Paris, O=VITAM
        Subject Public Key Info:
            Public Key Algorithm: rsaEncryption
                RSA Public-Key: (4096 bit)
                Modulus:
                    00:d6:79:af:2d:18:6b:14:61:0e:85:94:2b:d7:eb:
                    a1:49:07:ed:dc:03:b9:79:e9:2c:e6:7c:77:93:68:
                    e4:8e:37:ea:d8:c2:13:78:a0:76:4c:b7:1c:92:1b:
                    40:00:34:bc:c6:ba:d7:fb:fa:e6:88:31:32:88:57:
                    c2:b7:5e:5e:ce:4c:8f:13:62:72:11:ea:13:bf:bb:
                    91:9f:c2:46:2e:e5:ff:24:15:6b:d8:18:55:2d:55:
                    6d:5f:42:77:6f:df:4d:32:17:54:82:e0:f2:f0:ff:
                    6b:1c:a0:d0:a7:1b:1c:b5:f0:72:3f:25:2b:40:2b:
                    8c:b6:12:3c:c4:75:a5:35:e1:68:5c:99:90:ad:4d:
                    24:9a:ca:82:ca:d7:b9:99:e9:90:f0:15:93:54:32:
                    cb:e5:f4:97:93:82:68:7f:ad:2e:83:90:ff:ec:4f:
                    c3:e0:d2:3a:4c:c6:9f:c7:c9:6a:21:07:86:8f:ce:
                    a0:d6:b9:01:d6:e7:2b:d7:3e:e9:36:9b:51:73:5f:
                    31:26:bb:31:84:36:cb:fa:1d:ff:af:2b:7a:a3:2f:
                    3d:51:f2:df:00:72:dd:fd:c6:e6:ae:40:4a:49:33:
                    fc:5d:de:a3:b2:05:03:63:21:f9:72:88:24:28:3d:
                    92:e8:ac:bb:d5:31:58:d4:94:6f:82:17:f2:18:63:
                    8f:86:e4:b0:55:70:22:0b:7f:d2:cd:ce:cc:e1:80:
                    09:37:46:47:6a:21:b2:1f:f8:04:de:ee:b0:12:bc:
                    be:0e:07:f8:ee:b3:17:2a:b4:46:b0:c9:7b:27:9f:
                    d2:3a:dd:7b:be:e1:8c:44:bf:c3:cc:d0:27:06:29:
                    a3:73:24:6f:f7:91:43:6a:b4:8d:73:9f:5c:33:ab:
                    c0:e4:83:76:dd:6a:3a:ff:4b:02:f4:7e:94:83:78:
                    bd:96:a6:6f:6f:f5:a2:3b:e1:02:cf:a8:2c:c1:8c:
                    6c:57:a1:07:f2:57:2a:9e:03:78:25:bb:b2:38:8e:
                    ae:c2:f0:ce:fd:e9:2d:c3:bc:db:c9:11:5c:02:d2:
                    12:6b:39:f3:ce:73:8c:86:38:bb:9b:d2:8e:e7:dc:
                    95:60:bb:a3:d3:11:61:8e:6b:10:f4:ae:85:0e:b9:
                    1c:4d:30:7b:f0:20:0c:4f:16:51:80:d4:f4:bf:83:
                    6e:da:7c:c8:b9:9a:1a:7e:ff:7a:0d:3f:21:49:68:
                    52:25:35:0c:3c:f0:9f:fe:40:73:04:0f:66:ea:e4:
                    b6:6c:09:19:ee:fb:88:82:fe:6d:bf:02:36:c9:8b:
                    f8:00:9d:71:43:10:47:ab:a1:e3:3f:b9:9f:54:65:
                    e2:db:2b:1a:ec:5b:c2:d4:f1:9f:1e:4d:05:75:0a:
                    66:28:0f
                Exponent: 65537 (0x10001)
        X509v3 extensions:
            Netscape Comment: 
                xca certificate
            X509v3 Subject Key Identifier: 
                A3:50:C4:BC:43:26:A2:79:B2:0D:13:C7:F8:63:4B:DD:E9:39:39:62
            X509v3 Basic Constraints: critical
                CA:FALSE
            X509v3 Key Usage: 
                Digital Signature, Key Encipherment, Data Encipherment
            Netscape Cert Type: 
                SSL Client, S/MIME
    Signature Algorithm: sha256WithRSAEncryption
         56:a4:b0:eb:69:c8:b9:7b:47:4f:f4:95:dd:c9:7a:09:5b:4c:
         55:9e:bc:d2:66:ee:25:96:ed:2c:58:a6:75:ae:49:19:84:cb:
         f8:43:64:2f:2f:ae:9c:ff:3c:2d:03:1a:93:60:4d:de:95:b0:
         5a:a3:d8:e9:52:34:1c:b7:fc:ab:76:23:3c:d8:07:07:05:f0:
         28:a2:73:d4:b1:35:6c:c3:c6:a7:3c:7d:21:53:dd:bd:dd:fb:
         e0:40:76:f8:e8:08:47:9d:da:be:37:30:0a:c8:32:b4:60:1d:
         32:e4:1b:4b:82:7d:83:47:8a:74:05:29:11:9f:40:13:db:be:
         b0:b0:d6:18:99:69:39:45:f8:05:b4:c7:18:ca:b6:b2:3b:98:
         2f:21:07:d2:0f:ed:74:0a:e9:90:ed:03:19:cc:58:87:bd:ab:
         e3:ea:79:d5:91:f9:c5:44:fd:85:2a:eb:73:27:3d:44:be:8b:
         15:8a:5c:d4:6d:99:e3:4b:32:88:7e:ad:2b:3d:a7:1a:9a:1c:
         51:8a:a9:f9:8d:8f:ff:3c:77:31:5b:38:53:9e:53:31:9d:9b:
         68:8f:c5:10:d1:c9:cc:13:da:9c:0d:9a:58:0c:de:62:ec:26:
         6c:77:c2:36:0f:59:ba:4d:35:d3:73:41:63:e5:a7:b9:eb:83:
         55:2c:81:6e:30:2f:a9:79:12:07:6a:f0:86:75:b6:04:1e:6b:
         38:bf:6c:6d:f2:87:f0:7f:0d:27:1d:fa:8f:81:42:8d:7f:b1:
         01:50:89:6d:a1:f0:ee:71:c4:7b:71:1d:af:bd:a3:68:6d:e0:
         87:67:52:7f:d7:32:fe:99:4c:73:41:9d:fe:3c:9f:8b:3e:db:
         5a:aa:2a:dd:eb:cb:08:fe:b9:b7:29:2a:14:ae:02:5b:bf:7b:
         14:29:f5:a6:66:ed:98:3d:44:3c:c8:d4:2b:dc:51:8a:41:4a:
         2e:74:71:d5:c6:28:34:24:f0:88:a5:68:b3:b5:31:78:77:a1:
         23:33:62:4d:5c:81:1d:04:e2:4b:8b:83:40:e5:98:7f:25:21:
         6b:37:d2:3f:9d:bc:22:8d:e6:fb:b6:4d:22:99:0b:3c:4e:ea:
         d8:b3:2d:2c:ec:a2:0b:ab:38:72:24:29:b7:82:75:2a:f3:00:
         ab:1e:45:fd:62:cf:81:74:62:f1:f1:f4:5d:a1:25:d6:e9:12:
         f7:12:30:06:29:a3:87:19:a1:59:44:1c:a2:7c:39:76:b6:48:
         fa:7b:f2:90:ac:0d:e0:3a:b0:45:71:0c:40:7b:d6:24:b6:43:
         34:a6:49:4f:92:8b:43:2d:30:30:f5:fc:e5:2b:1e:cb:09:ed:
         76:15:20:72:a7:33:9a:53
-----BEGIN CERTIFICATE-----
MIIFRjCCAy6gAwIBAgIBAjANBgkqhkiG9w0BAQsFADAtMQswCQYDVQQGEwJGUjEO
MAwGA1UEBwwFUGFyaXMxDjAMBgNVBAoMBVZJVEFNMCAXDTIwMDkxNzEzMTIxMloY
Dzk5OTkxMjMxMjM1OTU5WjAtMQswCQYDVQQGEwJGUjEOMAwGA1UEBwwFUGFyaXMx
DjAMBgNVBAoMBVZJVEFNMIICIjANBgkqhkiG9w0BAQEFAAOCAg8AMIICCgKCAgEA
1nmvLRhrFGEOhZQr1+uhSQft3AO5eeks5nx3k2jkjjfq2MITeKB2TLcckhtAADS8
xrrX+/rmiDEyiFfCt15ezkyPE2JyEeoTv7uRn8JGLuX/JBVr2BhVLVVtX0J3b99N
MhdUguDy8P9rHKDQpxsctfByPyUrQCuMthI8xHWlNeFoXJmQrU0kmsqCyte5memQ
8BWTVDLL5fSXk4Jof60ug5D/7E/D4NI6TMafx8lqIQeGj86g1rkB1ucr1z7pNptR
c18xJrsxhDbL+h3/ryt6oy89UfLfAHLd/cbmrkBKSTP8Xd6jsgUDYyH5cogkKD2S
6Ky71TFY1JRvghfyGGOPhuSwVXAiC3/Szc7M4YAJN0ZHaiGyH/gE3u6wEry+Dgf4
7rMXKrRGsMl7J5/SOt17vuGMRL/DzNAnBimjcyRv95FDarSNc59cM6vA5IN23Wo6
/0sC9H6Ug3i9lqZvb/WiO+ECz6gswYxsV6EH8lcqngN4JbuyOI6uwvDO/ektw7zb
yRFcAtISaznzznOMhji7m9KO59yVYLuj0xFhjmsQ9K6FDrkcTTB78CAMTxZRgNT0
v4Nu2nzIuZoafv96DT8hSWhSJTUMPPCf/kBzBA9m6uS2bAkZ7vuIgv5tvwI2yYv4
AJ1xQxBHq6HjP7mfVGXi2ysa7FvC1PGfHk0FdQpmKA8CAwEAAaNvMG0wHgYJYIZI
AYb4QgENBBEWD3hjYSBjZXJ0aWZpY2F0ZTAdBgNVHQ4EFgQUo1DEvEMmonmyDRPH
+GNL3ek5OWIwDAYDVR0TAQH/BAIwADALBgNVHQ8EBAMCBLAwEQYJYIZIAYb4QgEB
BAQDAgWgMA0GCSqGSIb3DQEBCwUAA4ICAQBWpLDraci5e0dP9JXdyXoJW0xVnrzS
Zu4llu0sWKZ1rkkZhMv4Q2QvL66c/zwtAxqTYE3elbBao9jpUjQct/yrdiM82AcH
BfAoonPUsTVsw8anPH0hU9293fvgQHb46AhHndq+NzAKyDK0YB0y5BtLgn2DR4p0
BSkRn0AT276wsNYYmWk5RfgFtMcYyrayO5gvIQfSD+10CumQ7QMZzFiHvavj6nnV
kfnFRP2FKutzJz1EvosVilzUbZnjSzKIfq0rPacamhxRiqn5jY//PHcxWzhTnlMx
nZtoj8UQ0cnME9qcDZpYDN5i7CZsd8I2D1m6TTXTc0Fj5ae564NVLIFuMC+peRIH
avCGdbYEHms4v2xt8ofwfw0nHfqPgUKNf7EBUIltofDuccR7cR2vvaNobeCHZ1J/
1zL+mUxzQZ3+PJ+LPttaqird68sI/rm3KSoUrgJbv3sUKfWmZu2YPUQ8yNQr3FGK
QUoudHHVxig0JPCIpWiztTF4d6EjM2JNXIEdBOJLi4NA5Zh/JSFrN9I/nbwijeb7
tk0imQs8TurYsy0s7KILqzhyJCm3gnUq8wCrHkX9Ys+BdGLx8fRdoSXW6RL3EjAG
KaOHGaFZRByifDl2tkj6e/KQrA3gOrBFcQxAe9YktkM0pklPkotDLTAw9fzlKx7L
Ce12FSBypzOaUw==
-----END CERTIFICATE-----
