Certificate:
    Data:
        Version: 3 (0x2)
        Serial Number: 316 (0x13c)
        Signature Algorithm: sha256WithRSAEncryption
        Issuer: C=fr, ST=idf, L=paris, O=vitam, OU=authorities, CN=ca_intermediate_client-external
        Validity
            Not Before: Nov 10 14:35:56 2021 GMT
            Not After : Nov  9 14:35:56 2024 GMT
        Subject: C=fr, ST=idf, L=paris, O=vitam, CN=ihm-recette
        Subject Public Key Info:
            Public Key Algorithm: rsaEncryption
                RSA Public-Key: (4096 bit)
                Modulus:
                    00:b4:30:aa:f2:2f:b4:5d:74:aa:75:69:0e:a0:95:
                    60:0c:e6:15:32:34:db:2c:34:61:a5:46:98:e1:4d:
                    16:d8:ab:31:01:3d:e6:89:1b:40:a6:93:34:90:9f:
                    3a:c8:d6:ff:22:25:45:c6:52:7f:24:af:e9:16:3f:
                    97:81:b1:17:22:bd:1b:12:ca:af:1c:8b:d5:2c:5c:
                    dd:f1:e4:59:4e:de:31:76:0e:9f:40:9a:1c:64:60:
                    3b:71:19:74:a9:42:1f:93:3f:99:77:21:ff:01:64:
                    37:b8:e5:25:f2:d2:ad:1a:4d:e1:cf:95:08:00:3c:
                    31:13:c1:b4:dc:4e:1d:e5:09:09:5e:99:46:b4:2d:
                    88:40:83:1a:1a:a3:0a:9b:bc:a1:91:ec:48:b4:35:
                    cc:53:d3:69:78:98:3e:64:ab:02:cc:bc:ab:6a:7c:
                    46:ac:b0:d5:b7:1a:83:88:6e:9d:c1:00:86:e7:df:
                    01:3d:31:a1:a2:e6:5d:1f:fe:a7:93:1c:d7:b4:f3:
                    b2:c4:74:18:00:f7:7f:2f:2b:23:26:8e:1d:13:e3:
                    5c:9c:28:54:36:2f:10:30:16:35:63:0d:82:70:29:
                    3b:3a:61:50:7b:21:1c:d3:d5:d9:9d:e0:38:4f:ac:
                    92:e9:e4:4e:0d:9c:92:ca:e7:43:8c:3f:71:91:94:
                    05:e1:43:9f:13:f5:b0:2e:ce:15:1d:b4:22:25:f9:
                    21:82:50:82:6b:dd:c8:c8:4c:1c:0a:04:14:b9:43:
                    4f:9f:f4:a6:6b:dc:2b:e2:24:8d:cf:42:4a:b5:55:
                    8a:a4:bb:ff:bd:b7:e1:0d:1d:f4:be:48:d5:e6:60:
                    07:fa:d7:33:60:9a:da:6b:9a:87:1e:6b:c8:ce:d7:
                    d1:9f:00:e0:f8:70:1c:61:58:c2:6e:5c:78:31:07:
                    6e:a0:11:6e:65:f8:9f:0e:26:3e:24:8a:f6:10:80:
                    76:47:bf:6d:49:5e:76:8f:5c:80:0b:4b:b7:4e:14:
                    e8:fa:f1:2f:af:ba:13:44:7b:fd:9f:29:08:6f:8c:
                    83:38:35:ae:1b:ee:1e:c9:cd:02:b8:bc:ca:80:3e:
                    38:17:c1:7e:3a:5d:ce:d1:4c:01:9f:52:67:4d:8a:
                    3c:3d:6e:cf:96:f4:7a:0f:cf:91:55:e6:ec:79:20:
                    b9:dc:74:56:8e:1f:f4:94:e1:eb:37:11:f3:a3:9c:
                    41:5c:51:d3:a9:29:d9:8c:63:00:b2:56:7a:af:95:
                    d0:82:5e:63:95:29:1f:bd:3c:d9:a6:a0:3d:db:a0:
                    ad:73:41:0a:25:50:bc:50:7f:b8:d1:1c:12:94:07:
                    23:b9:ca:60:1c:5f:7c:1f:a8:d9:c6:09:33:d6:50:
                    ba:60:1f
                Exponent: 65537 (0x10001)
        X509v3 extensions:
            Netscape Comment: 
                Certificat Client SSL
            X509v3 Subject Key Identifier: 
                39:88:3B:0A:56:F6:B4:53:EF:44:5A:FB:54:06:8B:96:B8:7C:B5:33
            X509v3 Authority Key Identifier: 
                keyid:D1:7F:00:C3:F0:94:D6:CB:E3:AE:F7:23:18:2E:1E:BA:53:66:F2:F8
                DirName:/C=fr/ST=idf/L=paris/O=vitam/OU=authorities/CN=ca_root_client-external
                serial:01:2D

            X509v3 Issuer Alternative Name: 
                <EMPTY>

            X509v3 Basic Constraints: critical
                CA:FALSE
            X509v3 Key Usage: 
                Digital Signature
            Netscape Cert Type: 
                SSL Client
            X509v3 Extended Key Usage: 
                TLS Web Client Authentication
    Signature Algorithm: sha256WithRSAEncryption
         4c:ce:87:44:6a:cf:50:d6:cc:3d:b7:c5:55:47:2b:78:74:1d:
         32:45:a4:c9:11:a6:59:c7:2d:4e:12:d5:89:c0:bb:6a:48:c8:
         23:38:29:4e:05:9d:93:bd:01:1d:ab:8f:52:bd:34:f7:b6:d8:
         30:97:fb:a9:12:1c:5d:8d:7e:ab:a5:32:d4:67:50:6f:a7:d2:
         f6:2e:48:9e:c0:da:ee:02:16:3b:df:13:88:fd:dc:b9:66:fc:
         58:6d:39:23:83:9e:fa:c1:23:09:1f:6e:f3:9b:95:97:83:38:
         72:bd:8a:f3:e8:52:1f:ad:ce:64:38:66:17:34:50:3c:e4:74:
         0e:87:c2:31:f0:6d:e0:20:13:7f:00:b5:9a:d2:55:64:b0:f6:
         46:2f:1e:14:3a:9e:f6:19:4b:db:33:c5:8e:03:cf:70:3c:e9:
         c8:49:f0:c0:8a:c2:c3:bc:50:82:02:54:35:53:c7:af:75:93:
         7f:b0:93:af:e7:4e:47:81:a8:49:06:47:05:ba:49:f4:89:6a:
         05:0c:46:4f:8e:6c:36:00:93:69:26:83:ea:8d:e7:5b:ab:40:
         5c:8c:16:47:cb:9c:f5:58:1c:0d:91:d8:8f:8e:27:3b:7a:41:
         90:99:27:1a:c1:44:25:21:a1:22:09:32:6d:93:73:f0:13:dc:
         3d:b9:71:34:5a:42:59:18:d8:e1:2f:62:50:5a:10:33:16:f6:
         7f:5b:76:7c:e7:5a:b4:af:b0:a3:82:4d:fb:b7:04:57:9c:8c:
         7c:07:2c:b1:c4:5e:bd:a5:81:d8:b9:8c:ef:e1:c5:e0:63:67:
         8c:37:2a:62:56:60:d1:c0:51:9c:05:b7:14:e6:f9:f0:c3:d1:
         35:5a:0b:76:e0:3c:d1:0c:da:42:d7:bd:15:4a:73:0b:c5:74:
         32:f6:62:68:7f:58:ab:0a:0f:96:47:c2:da:65:89:51:2a:af:
         9b:e5:be:fd:d1:fd:5e:74:ca:80:e3:cf:4b:4e:57:95:e5:69:
         dc:be:21:5e:0f:17:6e:74:f0:7f:1c:86:40:20:5b:05:d4:25:
         cc:f6:a8:8e:04:2b:b0:ea:42:32:dc:c8:f8:d7:6a:b9:32:90:
         6a:78:65:d9:86:e3:70:d6:52:94:a8:06:f4:85:f5:83:94:08:
         d1:e4:f1:cb:6c:3b:57:27:80:c1:19:77:2a:e2:63:de:b9:b7:
         ba:e2:6e:d9:3e:f1:ee:db:37:4e:67:ca:07:2a:fc:7b:e9:02:
         93:74:c5:3a:e6:45:97:a1:ce:af:9b:4c:9b:b8:b8:92:d5:0b:
         24:94:ed:28:18:17:fb:e0:ec:17:3e:c2:75:82:e3:11:23:15:
         c1:53:f9:3f:dd:95:64:d6
-----BEGIN CERTIFICATE-----
MIIGgjCCBGqgAwIBAgICATwwDQYJKoZIhvcNAQELBQAwezELMAkGA1UEBhMCZnIx
DDAKBgNVBAgMA2lkZjEOMAwGA1UEBwwFcGFyaXMxDjAMBgNVBAoMBXZpdGFtMRQw
EgYDVQQLDAthdXRob3JpdGllczEoMCYGA1UEAwwfY2FfaW50ZXJtZWRpYXRlX2Ns
aWVudC1leHRlcm5hbDAeFw0yMTExMTAxNDM1NTZaFw0yNDExMDkxNDM1NTZaMFEx
CzAJBgNVBAYTAmZyMQwwCgYDVQQIDANpZGYxDjAMBgNVBAcMBXBhcmlzMQ4wDAYD
VQQKDAV2aXRhbTEUMBIGA1UEAwwLaWhtLXJlY2V0dGUwggIiMA0GCSqGSIb3DQEB
AQUAA4ICDwAwggIKAoICAQC0MKryL7RddKp1aQ6glWAM5hUyNNssNGGlRpjhTRbY
qzEBPeaJG0CmkzSQnzrI1v8iJUXGUn8kr+kWP5eBsRcivRsSyq8ci9UsXN3x5FlO
3jF2Dp9AmhxkYDtxGXSpQh+TP5l3If8BZDe45SXy0q0aTeHPlQgAPDETwbTcTh3l
CQlemUa0LYhAgxoaowqbvKGR7Ei0NcxT02l4mD5kqwLMvKtqfEassNW3GoOIbp3B
AIbn3wE9MaGi5l0f/qeTHNe087LEdBgA938vKyMmjh0T41ycKFQ2LxAwFjVjDYJw
KTs6YVB7IRzT1dmd4DhPrJLp5E4NnJLK50OMP3GRlAXhQ58T9bAuzhUdtCIl+SGC
UIJr3cjITBwKBBS5Q0+f9KZr3CviJI3PQkq1VYqku/+9t+ENHfS+SNXmYAf61zNg
mtprmocea8jO19GfAOD4cBxhWMJuXHgxB26gEW5l+J8OJj4kivYQgHZHv21JXnaP
XIALS7dOFOj68S+vuhNEe/2fKQhvjIM4Na4b7h7JzQK4vMqAPjgXwX46Xc7RTAGf
UmdNijw9bs+W9HoPz5FV5ux5ILncdFaOH/SU4es3EfOjnEFcUdOpKdmMYwCyVnqv
ldCCXmOVKR+9PNmmoD3boK1zQQolULxQf7jRHBKUByO5ymAcX3wfqNnGCTPWULpg
HwIDAQABo4IBODCCATQwJAYJYIZIAYb4QgENBBcWFUNlcnRpZmljYXQgQ2xpZW50
IFNTTDAdBgNVHQ4EFgQUOYg7Clb2tFPvRFr7VAaLlrh8tTMwgZ4GA1UdIwSBljCB
k4AU0X8Aw/CU1svjrvcjGC4eulNm8vihd6R1MHMxCzAJBgNVBAYTAmZyMQwwCgYD
VQQIDANpZGYxDjAMBgNVBAcMBXBhcmlzMQ4wDAYDVQQKDAV2aXRhbTEUMBIGA1UE
CwwLYXV0aG9yaXRpZXMxIDAeBgNVBAMMF2NhX3Jvb3RfY2xpZW50LWV4dGVybmFs
ggIBLTAJBgNVHRIEAjAAMAwGA1UdEwEB/wQCMAAwCwYDVR0PBAQDAgeAMBEGCWCG
SAGG+EIBAQQEAwIHgDATBgNVHSUEDDAKBggrBgEFBQcDAjANBgkqhkiG9w0BAQsF
AAOCAgEATM6HRGrPUNbMPbfFVUcreHQdMkWkyRGmWcctThLVicC7akjIIzgpTgWd
k70BHauPUr0097bYMJf7qRIcXY1+q6Uy1GdQb6fS9i5InsDa7gIWO98TiP3cuWb8
WG05I4Oe+sEjCR9u85uVl4M4cr2K8+hSH63OZDhmFzRQPOR0DofCMfBt4CATfwC1
mtJVZLD2Ri8eFDqe9hlL2zPFjgPPcDzpyEnwwIrCw7xQggJUNVPHr3WTf7CTr+dO
R4GoSQZHBbpJ9IlqBQxGT45sNgCTaSaD6o3nW6tAXIwWR8uc9VgcDZHYj44nO3pB
kJknGsFEJSGhIgkybZNz8BPcPblxNFpCWRjY4S9iUFoQMxb2f1t2fOdatK+wo4JN
+7cEV5yMfAcsscRevaWB2LmM7+HF4GNnjDcqYlZg0cBRnAW3FOb58MPRNVoLduA8
0QzaQte9FUpzC8V0MvZiaH9YqwoPlkfC2mWJUSqvm+W+/dH9XnTKgOPPS05XleVp
3L4hXg8XbnTwfxyGQCBbBdQlzPaojgQrsOpCMtzI+NdquTKQanhl2YbjcNZSlKgG
9IX1g5QI0eTxy2w7VyeAwRl3KuJj3rm3uuJu2T7x7ts3TmfKByr8e+kCk3TFOuZF
l6HOr5tMm7i4ktULJJTtKBgX++DsFz7CdYLjESMVwVP5P92VZNY=
-----END CERTIFICATE-----
