Certificate:
    Data:
        Version: 3 (0x2)
        Serial Number: 261 (0x105)
    Signature Algorithm: sha256WithRSAEncryption
        Issuer: C=fr, ST=idf, L=paris, O=vitam, OU=authorities, CN=ca_intermediate_client-external
        Validity
            Not Before: Feb  5 12:57:37 2018 GMT
            Not After : Feb  4 12:57:37 2021 GMT
        Subject: C=fr, ST=idf, L=paris, O=vitam, CN=ihm-recette
        Subject Public Key Info:
            Public Key Algorithm: rsaEncryption
                Public-Key: (4096 bit)
                Modulus:
                    00:d9:15:74:11:20:ac:2e:3a:7c:53:de:b9:87:70:
                    30:bd:2e:86:17:ce:71:58:00:ec:2c:00:4b:db:8e:
                    5c:45:5e:3e:60:97:42:9e:24:2f:0d:77:2e:08:5d:
                    51:9f:55:da:af:e5:a9:be:f2:69:32:56:85:92:33:
                    17:23:b7:98:8f:33:dd:1c:95:a7:c3:25:da:6d:13:
                    43:98:83:3e:49:93:eb:2b:19:e2:2d:0c:16:72:d4:
                    01:3e:a3:00:d4:75:e9:77:6e:92:52:d5:ce:4f:f4:
                    b9:85:25:ab:c9:b1:35:f4:b2:5d:6a:fe:b3:09:5c:
                    c3:d1:d8:6c:dc:d0:37:7a:2b:3c:06:80:c1:63:b7:
                    cd:a0:07:68:c7:8f:c6:9e:d2:0c:49:80:19:a9:eb:
                    39:6b:cf:f9:27:11:aa:cf:f2:fc:0f:4c:df:6e:48:
                    8c:3b:30:88:c0:c6:da:ab:72:4d:30:b5:0b:35:68:
                    89:df:b5:84:ea:1f:d3:b9:74:5b:8e:61:e3:d2:aa:
                    9b:0f:44:47:62:24:aa:50:ab:99:e7:84:f6:37:a6:
                    4b:d8:a6:9c:0e:9f:d3:e7:12:c4:62:f5:35:0e:87:
                    4c:27:62:57:c1:5a:86:28:bd:4f:bb:cb:bc:92:48:
                    e7:7d:1f:4e:b6:f5:b9:75:e9:3b:5f:90:d4:90:e3:
                    47:c8:cd:fa:ce:5c:59:bc:7f:cd:21:98:36:fb:88:
                    85:3a:c9:8f:ea:ec:69:b0:6d:d3:41:c1:46:2f:2f:
                    48:c3:67:af:5a:01:81:bd:f4:3c:92:99:b4:1b:b2:
                    5a:bc:82:92:36:de:96:d6:d6:40:0a:2b:fd:54:36:
                    9d:65:58:f6:d9:0b:c8:c7:36:75:2f:d3:04:03:71:
                    2b:53:db:02:35:ca:8f:eb:8e:ae:78:72:96:05:81:
                    47:20:1e:bf:be:63:9f:3b:52:0f:c7:78:a0:51:b1:
                    9b:cf:be:f7:96:49:90:e0:8a:1c:ba:ec:49:e8:2d:
                    7f:29:56:1e:4d:84:63:84:29:8a:11:38:23:1a:ac:
                    6a:d1:73:63:de:13:67:0e:8a:6c:ab:70:73:16:65:
                    67:05:4b:87:42:44:e0:3b:be:3c:b8:58:f5:cb:9d:
                    52:b8:e1:ae:06:d6:56:45:a0:85:88:a0:51:ee:40:
                    d6:ad:36:6f:dd:57:73:57:90:20:26:ad:4a:3e:c3:
                    3c:c1:d9:b0:fb:28:2b:29:37:e9:71:9e:99:1f:67:
                    fc:ee:a7:d2:d5:16:a4:78:e4:d9:a0:2d:70:dd:cf:
                    51:56:15:f9:cc:44:30:75:eb:2d:aa:70:09:a5:d0:
                    10:e2:aa:2e:40:35:28:f2:0c:0c:f4:0f:16:a5:04:
                    c5:38:15
                Exponent: 65537 (0x10001)
        X509v3 extensions:
            Netscape Comment: 
                Certificat Client SSL
            X509v3 Subject Key Identifier: 
                5E:2B:7B:34:B3:22:69:8E:17:48:E6:E8:DE:16:0B:4B:E1:02:72:F3
            X509v3 Authority Key Identifier: 
                keyid:99:4E:FD:BA:7D:CF:EE:E1:A9:EA:F5:DA:73:BD:4A:D1:46:DA:D7:7C
                DirName:/C=fr/ST=idf/L=paris/O=vitam/OU=authorities/CN=ca_root_client-external
                serial:FC

            X509v3 Issuer Alternative Name: 
                <EMPTY>

            X509v3 Basic Constraints: critical
                CA:FALSE
            X509v3 Key Usage: 
                Digital Signature, Non Repudiation, Key Encipherment
            Netscape Cert Type: 
                SSL Client
            X509v3 Extended Key Usage: 
                TLS Web Client Authentication
    Signature Algorithm: sha256WithRSAEncryption
         0c:98:30:2e:07:68:13:b5:bb:68:59:63:65:e4:6b:56:ea:09:
         f9:db:4b:15:d8:f1:34:27:fd:a6:8e:36:5f:28:6a:0e:51:d6:
         fe:c4:ea:c6:00:b2:7c:8f:8d:13:eb:55:cf:de:42:56:73:d7:
         a8:74:c0:d0:fe:27:d4:42:0b:91:21:3e:e0:4b:84:21:b7:d5:
         87:91:2c:49:6c:fa:d5:1d:b5:9f:61:7d:31:f4:b1:05:b3:dd:
         96:44:5e:8a:a1:bf:45:ff:9e:e8:36:b3:c6:0d:15:d7:c0:30:
         ce:c0:24:36:f2:1a:30:0e:19:78:d6:92:57:0d:4b:24:39:2a:
         d8:85:17:bd:32:53:99:62:18:53:a3:e9:c4:5f:28:b8:18:f5:
         87:81:dc:05:2c:ad:85:61:69:70:40:70:46:cd:96:15:1a:a4:
         04:24:a9:14:f8:d0:2a:b3:77:87:be:42:78:6d:72:d5:70:0a:
         fe:87:14:21:bb:3f:84:49:26:cc:97:1b:ce:ee:7e:b7:3a:97:
         3c:fe:24:3f:01:29:7d:01:5a:6b:18:da:9e:94:0c:20:83:05:
         46:04:94:b9:57:75:66:66:6a:67:b2:48:8a:f8:f9:13:a9:39:
         69:76:24:b7:7c:c1:1d:e1:b3:16:bb:f0:1c:a0:1a:e8:fc:36:
         2d:d5:87:ae:43:24:3e:57:e4:4b:3e:ca:ab:9f:7c:a5:89:ec:
         e0:4b:04:68:93:27:f0:44:c0:81:da:4a:b0:b5:d3:ed:ee:19:
         04:a7:60:cc:c6:2c:d0:ed:00:62:35:63:ea:33:82:23:30:5a:
         d8:b0:3f:01:51:51:d0:1a:7a:1a:7f:8c:e8:27:c9:a4:22:55:
         11:e8:c8:9c:43:50:e1:58:a3:23:ff:a1:e3:32:ed:e9:d6:fe:
         08:07:8d:d5:91:01:d5:65:a6:2c:88:1f:f0:63:a1:3e:88:57:
         4a:3d:63:b2:e0:35:d7:6d:fa:8d:76:16:27:03:fc:ed:42:62:
         7e:c4:f8:e9:a8:2d:85:76:07:c6:95:cd:1b:31:b6:a5:eb:46:
         95:f4:d0:9c:fe:5a:50:ba:33:e7:0a:d5:6b:92:01:ba:ec:72:
         76:d1:31:74:19:44:9b:55:a9:bf:eb:d0:ee:20:a5:18:ca:5b:
         3b:4b:93:99:1b:3e:d3:60:3a:bb:2a:19:53:ac:fd:83:fa:83:
         17:05:52:f8:f5:27:54:16:b3:de:0c:b5:9f:b5:b4:f0:64:a6:
         ca:8d:0e:cc:eb:37:e0:6c:17:36:a8:4b:ad:a8:7f:6c:93:9e:
         b4:f9:02:55:b6:da:b0:b9:c8:07:cb:9b:39:cf:5f:87:8a:c8:
         2b:91:38:48:35:b4:17:9d
-----BEGIN CERTIFICATE-----
MIIGgjCCBGqgAwIBAgICAQUwDQYJKoZIhvcNAQELBQAwezELMAkGA1UEBhMCZnIx
DDAKBgNVBAgMA2lkZjEOMAwGA1UEBwwFcGFyaXMxDjAMBgNVBAoMBXZpdGFtMRQw
EgYDVQQLDAthdXRob3JpdGllczEoMCYGA1UEAwwfY2FfaW50ZXJtZWRpYXRlX2Ns
aWVudC1leHRlcm5hbDAeFw0xODAyMDUxMjU3MzdaFw0yMTAyMDQxMjU3MzdaMFEx
CzAJBgNVBAYTAmZyMQwwCgYDVQQIDANpZGYxDjAMBgNVBAcMBXBhcmlzMQ4wDAYD
VQQKDAV2aXRhbTEUMBIGA1UEAwwLaWhtLXJlY2V0dGUwggIiMA0GCSqGSIb3DQEB
AQUAA4ICDwAwggIKAoICAQDZFXQRIKwuOnxT3rmHcDC9LoYXznFYAOwsAEvbjlxF
Xj5gl0KeJC8Ndy4IXVGfVdqv5am+8mkyVoWSMxcjt5iPM90clafDJdptE0OYgz5J
k+srGeItDBZy1AE+owDUdel3bpJS1c5P9LmFJavJsTX0sl1q/rMJXMPR2Gzc0Dd6
KzwGgMFjt82gB2jHj8ae0gxJgBmp6zlrz/knEarP8vwPTN9uSIw7MIjAxtqrck0w
tQs1aInftYTqH9O5dFuOYePSqpsPREdiJKpQq5nnhPY3pkvYppwOn9PnEsRi9TUO
h0wnYlfBWoYovU+7y7ySSOd9H0629bl16TtfkNSQ40fIzfrOXFm8f80hmDb7iIU6
yY/q7GmwbdNBwUYvL0jDZ69aAYG99DySmbQbslq8gpI23pbW1kAKK/1UNp1lWPbZ
C8jHNnUv0wQDcStT2wI1yo/rjq54cpYFgUcgHr++Y587Ug/HeKBRsZvPvveWSZDg
ihy67EnoLX8pVh5NhGOEKYoROCMarGrRc2PeE2cOimyrcHMWZWcFS4dCROA7vjy4
WPXLnVK44a4G1lZFoIWIoFHuQNatNm/dV3NXkCAmrUo+wzzB2bD7KCspN+lxnpkf
Z/zup9LVFqR45NmgLXDdz1FWFfnMRDB16y2qcAml0BDiqi5ANSjyDAz0DxalBMU4
FQIDAQABo4IBODCCATQwJAYJYIZIAYb4QgENBBcWFUNlcnRpZmljYXQgQ2xpZW50
IFNTTDAdBgNVHQ4EFgQUXit7NLMiaY4XSObo3hYLS+ECcvMwgZ4GA1UdIwSBljCB
k4AUmU79un3P7uGp6vXac71K0Uba13yhd6R1MHMxCzAJBgNVBAYTAmZyMQwwCgYD
VQQIDANpZGYxDjAMBgNVBAcMBXBhcmlzMQ4wDAYDVQQKDAV2aXRhbTEUMBIGA1UE
CwwLYXV0aG9yaXRpZXMxIDAeBgNVBAMMF2NhX3Jvb3RfY2xpZW50LWV4dGVybmFs
ggIA/DAJBgNVHRIEAjAAMAwGA1UdEwEB/wQCMAAwCwYDVR0PBAQDAgXgMBEGCWCG
SAGG+EIBAQQEAwIHgDATBgNVHSUEDDAKBggrBgEFBQcDAjANBgkqhkiG9w0BAQsF
AAOCAgEADJgwLgdoE7W7aFljZeRrVuoJ+dtLFdjxNCf9po42XyhqDlHW/sTqxgCy
fI+NE+tVz95CVnPXqHTA0P4n1EILkSE+4EuEIbfVh5EsSWz61R21n2F9MfSxBbPd
lkReiqG/Rf+e6Dazxg0V18AwzsAkNvIaMA4ZeNaSVw1LJDkq2IUXvTJTmWIYU6Pp
xF8ouBj1h4HcBSythWFpcEBwRs2WFRqkBCSpFPjQKrN3h75CeG1y1XAK/ocUIbs/
hEkmzJcbzu5+tzqXPP4kPwEpfQFaaxjanpQMIIMFRgSUuVd1ZmZqZ7JIivj5E6k5
aXYkt3zBHeGzFrvwHKAa6Pw2LdWHrkMkPlfkSz7Kq598pYns4EsEaJMn8ETAgdpK
sLXT7e4ZBKdgzMYs0O0AYjVj6jOCIzBa2LA/AVFR0Bp6Gn+M6CfJpCJVEejInENQ
4VijI/+h4zLt6db+CAeN1ZEB1WWmLIgf8GOhPohXSj1jsuA11236jXYWJwP87UJi
fsT46agthXYHxpXNGzG2petGlfTQnP5aULoz5wrVa5IBuuxydtExdBlEm1Wpv+vQ
7iClGMpbO0uTmRs+02A6uyoZU6z9g/qDFwVS+PUnVBaz3gy1n7W08GSmyo0OzOs3
4GwXNqhLrah/bJOetPkCVbbasLnIB8ubOc9fh4rIK5E4SDW0F50=
-----END CERTIFICATE-----
