Certificate:
    Data:
        Version: 3 (0x2)
        Serial Number: 298 (0x12a)
    Signature Algorithm: sha256WithRSAEncryption
        Issuer: C=fr, ST=idf, L=paris, O=vitam, OU=authorities, CN=ca_intermediate_client-external
        Validity
            Not Before: Oct 19 08:41:07 2018 GMT
            Not After : Oct 18 08:41:07 2021 GMT
        Subject: C=fr, ST=idf, L=paris, O=vitam, CN=ihm-recette
        Subject Public Key Info:
            Public Key Algorithm: rsaEncryption
                Public-Key: (4096 bit)
                Modulus:
                    00:cd:25:aa:c8:9c:3d:f3:e7:a2:a2:68:07:73:bb:
                    75:d8:cb:40:7f:71:3a:56:80:b4:a9:e1:a8:b8:b4:
                    d8:e4:54:45:aa:f8:ce:3e:c6:f5:fd:fd:21:b5:72:
                    ab:c6:76:77:e6:24:7d:62:a3:63:04:73:8d:9d:a5:
                    7f:56:d3:84:f1:43:10:e6:01:03:66:c0:d4:ed:f9:
                    a0:5b:41:3a:c4:2e:17:7f:ca:8e:67:37:b1:76:40:
                    86:08:9b:c3:2f:92:c1:94:b1:95:b2:27:09:49:90:
                    22:06:07:b4:d9:b3:93:4a:05:d5:69:ae:b2:21:92:
                    83:5d:74:fa:bc:77:bd:f1:aa:68:fd:cb:58:dd:8e:
                    a5:8f:ba:e6:55:03:a9:d6:68:fc:5e:9f:f2:a7:23:
                    6e:b5:bf:41:a6:9c:9e:48:30:a4:5e:87:ae:3a:64:
                    68:60:7f:62:d4:75:f1:1c:a7:77:4f:37:3f:12:f5:
                    81:0e:4c:47:c8:55:36:b5:03:1a:be:7a:a9:ef:8c:
                    ee:40:42:65:d0:a2:9a:94:b0:df:9e:15:fa:94:b0:
                    c2:84:5c:22:db:5e:f5:05:36:75:e3:65:a8:cc:5a:
                    4c:e5:82:ad:5b:b3:21:55:19:b5:1e:12:ba:f6:d8:
                    46:9a:60:6f:da:16:98:b3:d2:f7:3b:0d:8b:5b:52:
                    a5:9c:b1:2a:8a:51:25:7a:79:91:1b:cf:ac:47:60:
                    5b:0c:e7:5d:2d:9f:43:23:3a:e7:9b:ca:08:9e:83:
                    25:9d:83:8d:37:20:f7:3b:4c:3d:a2:03:03:12:8a:
                    d7:3d:0e:6d:7b:a2:dc:fb:92:8e:29:2e:f9:9e:cc:
                    6e:dc:10:84:fb:71:b2:9d:ef:23:d4:52:11:3b:3b:
                    d7:21:f4:1b:02:4f:51:83:06:9c:08:2d:9d:a1:f6:
                    9f:ac:20:94:0a:94:ad:a3:64:6c:14:8e:4d:8b:e6:
                    c2:ae:c3:70:27:89:f0:e2:36:db:99:70:a1:d8:8b:
                    9e:b5:48:76:91:9a:6d:91:51:04:97:85:b2:0a:fa:
                    45:5d:65:0e:c1:13:b7:5d:a6:cd:d7:01:d4:be:f5:
                    4e:54:f8:ef:f0:59:2d:30:93:07:0d:94:b7:2b:cc:
                    66:84:cd:8d:cd:cd:e1:81:15:f7:10:95:8f:a8:0f:
                    7e:91:06:8a:ee:ed:83:65:32:b6:54:b1:07:f9:03:
                    85:8e:c5:c1:b9:13:8e:fc:9c:2d:ae:d1:cf:d4:d8:
                    88:bc:44:71:73:f6:0c:45:9c:f2:cb:04:93:ed:52:
                    e2:48:67:3f:56:e8:73:96:5c:38:8f:3c:63:8f:a2:
                    27:78:3b:ce:83:f0:66:fd:04:d4:ce:22:0c:50:c9:
                    b6:70:e5
                Exponent: 65537 (0x10001)
        X509v3 extensions:
            Netscape Comment: 
                Certificat Client SSL
            X509v3 Subject Key Identifier: 
                4C:21:D2:5F:73:33:10:E6:F9:20:E5:3C:F1:B3:FA:44:D1:A4:0E:8B
            X509v3 Authority Key Identifier: 
                keyid:C9:3C:3C:C8:A5:F9:D0:93:F8:D5:E2:7E:36:7A:C6:91:ED:2A:7B:AC
                DirName:/C=fr/ST=idf/L=paris/O=vitam/OU=authorities/CN=ca_root_client-external
                serial:01:26

            X509v3 Issuer Alternative Name: 
                <EMPTY>

            X509v3 Basic Constraints: critical
                CA:FALSE
            X509v3 Key Usage: 
                Digital Signature
            Netscape Cert Type: 
                SSL Client
            X509v3 Extended Key Usage: 
                TLS Web Client Authentication
    Signature Algorithm: sha256WithRSAEncryption
         10:1c:67:f1:d9:26:3d:60:b3:ad:a2:95:bf:8c:3e:94:30:3c:
         6e:fb:92:db:3e:7d:2d:e1:06:98:94:df:9d:f2:25:16:5e:14:
         97:fa:ce:db:6c:23:b1:95:b0:23:cf:fa:73:c3:89:34:71:4e:
         6b:6e:b7:fb:67:db:31:63:b9:50:0a:84:73:31:cb:6b:09:7e:
         81:66:fd:a8:81:3b:29:6c:24:0e:82:d8:75:23:ee:ee:0a:10:
         c6:19:c2:91:ce:d5:a0:dd:0e:89:f6:a0:54:1b:7a:f4:d8:c3:
         9a:61:bb:06:9e:88:6d:d3:e7:ff:3d:dc:7e:88:51:ae:91:ab:
         40:24:61:8f:da:8b:28:74:e2:8e:29:3b:41:16:5f:22:2e:ee:
         44:b2:a7:66:40:a3:57:16:76:ac:3d:cc:7b:78:29:a5:6a:bb:
         68:8b:e1:d0:4d:8d:07:85:b9:f7:dd:f0:d2:22:d2:51:c6:24:
         f1:5e:e2:9e:6f:f9:8c:ab:c8:93:d7:7e:9c:d3:00:c6:3a:41:
         8c:a5:28:4e:1e:66:fc:25:9a:e9:80:ea:88:04:59:91:2e:42:
         a9:8a:59:ba:5c:be:a8:e4:f2:14:8c:4a:45:73:62:2a:13:b6:
         21:1a:20:54:bf:a5:42:0c:0a:8f:85:71:ea:0c:49:2e:b4:5e:
         c9:75:ea:d7:2a:6d:6d:18:73:4a:ad:75:00:78:72:2b:50:cf:
         b2:4d:67:a9:df:78:9b:2d:f6:fe:fe:af:f3:66:58:db:29:fd:
         3b:25:0d:7f:b1:56:88:79:df:51:dc:d0:33:d9:bc:b1:33:93:
         e9:77:c6:c2:af:79:b5:79:a0:ce:bf:fa:f4:a7:27:2e:a8:a6:
         53:96:4b:d8:b3:ce:18:2f:fe:26:da:7c:cb:3c:5a:f1:a4:e8:
         78:bf:ad:b5:8c:96:54:8b:38:10:48:de:5d:17:91:f4:15:c8:
         64:43:d9:b7:14:c1:43:4e:e9:49:a5:81:14:5c:91:84:5f:6c:
         c6:5c:a8:41:18:2b:48:dc:07:70:a4:1e:51:25:a5:ec:d2:4c:
         2b:45:60:5a:94:30:ea:c9:d0:89:cf:d4:34:6b:2e:c7:f0:0a:
         c2:04:67:aa:41:d2:ac:1a:3e:1d:d6:4c:2c:0a:cd:63:45:b5:
         e3:e4:0c:4b:eb:85:03:4d:63:e8:67:60:b0:4b:dc:2c:8f:0c:
         22:fa:54:41:31:c4:44:d4:35:d1:86:3f:71:73:ce:21:4e:c3:
         a9:cf:39:b2:2c:30:94:92:17:3e:ee:8e:7f:0d:fd:ca:7f:8c:
         25:10:4d:22:12:de:71:98:d3:5c:4e:c9:22:c4:aa:72:29:aa:
         08:9b:d4:ba:76:86:0a:7d
-----BEGIN CERTIFICATE-----
MIIGgjCCBGqgAwIBAgICASowDQYJKoZIhvcNAQELBQAwezELMAkGA1UEBhMCZnIx
DDAKBgNVBAgMA2lkZjEOMAwGA1UEBwwFcGFyaXMxDjAMBgNVBAoMBXZpdGFtMRQw
EgYDVQQLDAthdXRob3JpdGllczEoMCYGA1UEAwwfY2FfaW50ZXJtZWRpYXRlX2Ns
aWVudC1leHRlcm5hbDAeFw0xODEwMTkwODQxMDdaFw0yMTEwMTgwODQxMDdaMFEx
CzAJBgNVBAYTAmZyMQwwCgYDVQQIDANpZGYxDjAMBgNVBAcMBXBhcmlzMQ4wDAYD
VQQKDAV2aXRhbTEUMBIGA1UEAwwLaWhtLXJlY2V0dGUwggIiMA0GCSqGSIb3DQEB
AQUAA4ICDwAwggIKAoICAQDNJarInD3z56KiaAdzu3XYy0B/cTpWgLSp4ai4tNjk
VEWq+M4+xvX9/SG1cqvGdnfmJH1io2MEc42dpX9W04TxQxDmAQNmwNTt+aBbQTrE
Lhd/yo5nN7F2QIYIm8MvksGUsZWyJwlJkCIGB7TZs5NKBdVprrIhkoNddPq8d73x
qmj9y1jdjqWPuuZVA6nWaPxen/KnI261v0GmnJ5IMKReh646ZGhgf2LUdfEcp3dP
Nz8S9YEOTEfIVTa1Axq+eqnvjO5AQmXQopqUsN+eFfqUsMKEXCLbXvUFNnXjZajM
Wkzlgq1bsyFVGbUeErr22EaaYG/aFpiz0vc7DYtbUqWcsSqKUSV6eZEbz6xHYFsM
510tn0MjOuebygiegyWdg403IPc7TD2iAwMSitc9Dm17otz7ko4pLvmezG7cEIT7
cbKd7yPUUhE7O9ch9BsCT1GDBpwILZ2h9p+sIJQKlK2jZGwUjk2L5sKuw3AnifDi
NtuZcKHYi561SHaRmm2RUQSXhbIK+kVdZQ7BE7ddps3XAdS+9U5U+O/wWS0wkwcN
lLcrzGaEzY3NzeGBFfcQlY+oD36RBoru7YNlMrZUsQf5A4WOxcG5E478nC2u0c/U
2Ii8RHFz9gxFnPLLBJPtUuJIZz9W6HOWXDiPPGOPoid4O86D8Gb9BNTOIgxQybZw
5QIDAQABo4IBODCCATQwJAYJYIZIAYb4QgENBBcWFUNlcnRpZmljYXQgQ2xpZW50
IFNTTDAdBgNVHQ4EFgQUTCHSX3MzEOb5IOU88bP6RNGkDoswgZ4GA1UdIwSBljCB
k4AUyTw8yKX50JP41eJ+NnrGke0qe6yhd6R1MHMxCzAJBgNVBAYTAmZyMQwwCgYD
VQQIDANpZGYxDjAMBgNVBAcMBXBhcmlzMQ4wDAYDVQQKDAV2aXRhbTEUMBIGA1UE
CwwLYXV0aG9yaXRpZXMxIDAeBgNVBAMMF2NhX3Jvb3RfY2xpZW50LWV4dGVybmFs
ggIBJjAJBgNVHRIEAjAAMAwGA1UdEwEB/wQCMAAwCwYDVR0PBAQDAgeAMBEGCWCG
SAGG+EIBAQQEAwIHgDATBgNVHSUEDDAKBggrBgEFBQcDAjANBgkqhkiG9w0BAQsF
AAOCAgEAEBxn8dkmPWCzraKVv4w+lDA8bvuS2z59LeEGmJTfnfIlFl4Ul/rO22wj
sZWwI8/6c8OJNHFOa263+2fbMWO5UAqEczHLawl+gWb9qIE7KWwkDoLYdSPu7goQ
xhnCkc7VoN0OifagVBt69NjDmmG7Bp6IbdPn/z3cfohRrpGrQCRhj9qLKHTijik7
QRZfIi7uRLKnZkCjVxZ2rD3Me3gppWq7aIvh0E2NB4W5993w0iLSUcYk8V7inm/5
jKvIk9d+nNMAxjpBjKUoTh5m/CWa6YDqiARZkS5CqYpZuly+qOTyFIxKRXNiKhO2
IRogVL+lQgwKj4Vx6gxJLrReyXXq1yptbRhzSq11AHhyK1DPsk1nqd94my32/v6v
82ZY2yn9OyUNf7FWiHnfUdzQM9m8sTOT6XfGwq95tXmgzr/69KcnLqimU5ZL2LPO
GC/+Jtp8yzxa8aToeL+ttYyWVIs4EEjeXReR9BXIZEPZtxTBQ07pSaWBFFyRhF9s
xlyoQRgrSNwHcKQeUSWl7NJMK0VgWpQw6snQic/UNGsux/AKwgRnqkHSrBo+HdZM
LArNY0W14+QMS+uFA01j6GdgsEvcLI8MIvpUQTHERNQ10YY/cXPOIU7Dqc85siww
lJIXPu6Ofw39yn+MJRBNIhLecZjTXE7JIsSqcimqCJvUunaGCn0=
-----END CERTIFICATE-----
