Certificate:
    Data:
        Version: 3 (0x2)
        Serial Number: 238 (0xee)
    Signature Algorithm: sha256WithRSAEncryption
        Issuer: C=fr, ST=idf, L=paris, O=vitam, OU=authorities, CN=ca_intermediate_client-external
        Validity
            Not Before: Jul 12 14:29:58 2017 GMT
            Not After : Jul 11 14:29:58 2020 GMT
        Subject: C=fr, ST=idf, L=paris, O=vitam, CN=ihm-recette
        Subject Public Key Info:
            Public Key Algorithm: rsaEncryption
                Public-Key: (4096 bit)
                Modulus:
                    00:a0:00:d2:16:1b:ff:79:19:25:fa:4b:ea:4e:ca:
                    01:14:50:4e:a7:c5:33:a6:17:bc:03:64:1e:ac:45:
                    d0:84:c0:ae:03:a0:b8:05:5f:1b:8d:a6:13:49:d8:
                    b5:1b:01:c0:43:b7:75:22:c7:22:e2:94:1e:87:46:
                    ff:ee:ba:7c:a8:c6:e5:a6:c7:73:fd:38:2d:9f:73:
                    cf:be:2a:44:7b:a3:18:fe:ba:9c:d0:d6:d2:29:e8:
                    17:29:0b:60:da:81:4a:89:c6:57:2c:a0:6a:72:b5:
                    32:20:47:72:78:46:10:2d:ee:91:59:bb:09:3f:22:
                    55:3a:0b:8a:1c:af:1f:24:9c:d0:f5:e4:58:5a:43:
                    c8:98:d3:55:cb:e1:30:46:32:b4:60:a4:d7:b0:95:
                    52:86:71:98:d5:1b:bb:82:da:63:d3:a4:ca:2b:ed:
                    16:38:50:7f:3f:a3:e1:66:b7:99:e6:f2:03:a5:13:
                    b7:35:a4:cf:c6:c7:0c:6e:1e:59:83:1a:ae:61:1b:
                    f0:41:57:a5:c5:d2:f5:f5:9c:f9:df:f3:86:8b:f3:
                    c8:63:e3:bc:e6:c1:c3:5e:98:51:95:e4:b5:48:51:
                    ac:ad:29:74:b3:7b:38:fe:c4:83:1d:6e:8a:27:4d:
                    3e:71:e0:eb:f4:14:8c:5a:15:5c:d9:40:99:bb:02:
                    a5:12:05:a0:39:30:51:cc:47:bc:43:a2:01:2d:3d:
                    0d:2b:55:74:e5:e2:89:66:1a:22:8c:c0:19:ab:93:
                    bb:3c:32:9a:31:59:ed:6f:03:19:89:c6:08:8a:1c:
                    88:60:4d:62:fe:96:f3:88:21:6f:a0:36:90:8c:38:
                    17:92:5a:49:d3:55:05:83:b5:ea:bc:75:30:a1:fe:
                    d6:ca:30:74:b5:a4:d8:64:6a:57:54:6b:e4:9b:1c:
                    3f:5d:7e:ea:ef:e4:c0:65:f8:ce:46:67:e9:b4:97:
                    b9:4c:ac:1c:5c:cc:c2:36:2e:61:b5:43:e7:a2:00:
                    32:e4:28:71:ed:ad:98:9e:83:0e:cd:08:78:a9:be:
                    da:0c:a0:75:f2:be:da:a2:96:60:f6:02:15:62:cc:
                    e5:9b:bc:2f:0a:92:15:eb:67:ee:29:a0:8b:da:29:
                    97:1e:67:df:cf:4f:32:41:be:a7:e5:8a:a7:9d:36:
                    4e:ac:02:3a:4f:ff:54:6c:bf:1b:f8:02:d1:9d:d9:
                    98:d5:c5:2d:7f:ef:b9:83:a8:76:5c:2b:0d:e3:c1:
                    28:72:92:f5:36:1b:9c:cf:fd:5b:48:10:48:5c:a9:
                    b8:38:9f:ca:4d:4c:20:7f:db:39:8b:4d:a5:1a:b8:
                    43:1f:40:15:0a:42:9d:2c:10:fa:22:e5:9b:af:27:
                    40:60:47
                Exponent: 65537 (0x10001)
        X509v3 extensions:
            Netscape Comment: 
                Certificat Client SSL
            X509v3 Subject Key Identifier: 
                2E:76:5D:B1:31:84:D6:AD:15:C5:53:CE:15:1E:E1:6A:64:3F:29:9D
            X509v3 Authority Key Identifier: 
                keyid:9F:47:4A:13:86:86:E6:CE:B1:7D:B0:A9:CD:A8:A0:9D:7D:A6:A5:F1
                DirName:/C=fr/ST=idf/L=paris/O=vitam/OU=authorities/CN=ca_root_client-external
                serial:EC

            X509v3 Issuer Alternative Name: 
                <EMPTY>

            X509v3 Basic Constraints: critical
                CA:FALSE
            X509v3 Key Usage: 
                Digital Signature, Non Repudiation, Key Encipherment
            Netscape Cert Type: 
                SSL Client
            X509v3 Extended Key Usage: 
                TLS Web Client Authentication
    Signature Algorithm: sha256WithRSAEncryption
         66:30:59:ed:cf:d0:00:66:21:0b:3d:2d:a7:64:db:44:b9:2c:
         c6:55:c5:e9:7c:23:5e:93:c5:26:80:1d:e6:79:14:32:ea:1b:
         f3:26:3c:f5:81:98:76:b9:f8:65:bf:95:61:db:e1:ae:a2:f6:
         90:8c:ca:fa:b5:6e:7e:4b:dd:e6:3f:b7:90:fd:f4:7b:bb:be:
         dd:af:bc:e3:1d:9e:52:f8:9c:14:2e:82:03:ae:74:67:20:f4:
         fd:71:66:35:44:a7:3b:fd:b6:a6:94:43:37:3c:5a:38:f2:1a:
         d8:e8:e0:16:bf:03:51:83:9c:79:10:18:03:b7:40:2b:8e:d1:
         9b:61:3c:39:e4:f9:65:a0:f2:cf:c0:31:4c:24:8c:6e:5f:2c:
         72:b4:24:b5:71:20:be:6e:4c:4d:f0:54:d3:be:a3:52:51:f5:
         aa:d8:79:d6:f4:39:1c:61:d9:0c:2d:a9:ce:9b:55:40:87:06:
         28:42:95:6e:5e:4e:ea:27:e4:4b:9a:ae:15:e9:b0:66:90:b6:
         18:fb:e7:8b:8b:85:8b:64:cf:c0:6f:3d:33:e2:60:8b:ff:e3:
         ce:f4:8a:9a:61:02:f8:f7:7f:c4:94:39:94:70:fd:aa:6b:9f:
         26:65:67:c7:e2:e3:61:2d:58:d2:80:01:6e:7f:f0:c4:1d:34:
         ee:66:cf:ef:0f:0f:ec:35:a9:78:d0:64:63:3b:95:a8:b3:88:
         1c:f0:a3:3b:76:10:29:93:e7:1a:db:e8:03:3a:99:4c:24:44:
         8d:75:fe:97:3e:8e:1f:d2:d0:a7:b4:75:56:a4:13:5d:67:9f:
         83:0c:87:85:1f:48:41:44:2c:90:8f:0a:44:32:fc:a3:b8:f6:
         40:ab:f2:3f:c1:8f:39:34:f5:f2:ef:3a:f5:7d:43:94:be:f8:
         f6:4d:92:5f:39:5a:63:e6:ed:d4:b3:87:03:0f:3a:f2:8a:6e:
         68:e7:15:e9:5e:d2:07:8b:c3:4b:a2:5a:9a:38:c1:5c:03:9b:
         de:8b:30:2d:af:a7:dc:b6:50:d0:35:c9:ab:76:a1:ce:ec:86:
         7d:44:74:ff:b3:1b:e1:65:ce:7d:8b:1b:d6:0d:15:d6:fa:a7:
         a9:01:2c:ac:8f:cc:e2:3a:fa:c4:ec:56:2d:3a:96:7d:ee:dc:
         c6:85:c5:fa:f2:3a:2c:70:5a:5e:c3:8b:d9:6a:d7:18:94:33:
         3a:b8:c1:ac:f9:da:ca:6d:a9:01:fd:5e:5e:7c:d5:97:14:20:
         86:51:5c:da:73:75:df:d0:b6:a2:7f:31:db:17:f0:af:62:c6:
         df:43:8d:e2:d0:cd:82:52:9d:72:50:e8:8e:17:40:4d:14:90:
         7b:fe:f0:f8:4b:6d:d3:13
-----BEGIN CERTIFICATE-----
MIIGgjCCBGqgAwIBAgICAO4wDQYJKoZIhvcNAQELBQAwezELMAkGA1UEBhMCZnIx
DDAKBgNVBAgMA2lkZjEOMAwGA1UEBwwFcGFyaXMxDjAMBgNVBAoMBXZpdGFtMRQw
EgYDVQQLDAthdXRob3JpdGllczEoMCYGA1UEAwwfY2FfaW50ZXJtZWRpYXRlX2Ns
aWVudC1leHRlcm5hbDAeFw0xNzA3MTIxNDI5NThaFw0yMDA3MTExNDI5NThaMFEx
CzAJBgNVBAYTAmZyMQwwCgYDVQQIDANpZGYxDjAMBgNVBAcMBXBhcmlzMQ4wDAYD
VQQKDAV2aXRhbTEUMBIGA1UEAwwLaWhtLXJlY2V0dGUwggIiMA0GCSqGSIb3DQEB
AQUAA4ICDwAwggIKAoICAQCgANIWG/95GSX6S+pOygEUUE6nxTOmF7wDZB6sRdCE
wK4DoLgFXxuNphNJ2LUbAcBDt3UixyLilB6HRv/uunyoxuWmx3P9OC2fc8++KkR7
oxj+upzQ1tIp6BcpC2DagUqJxlcsoGpytTIgR3J4RhAt7pFZuwk/IlU6C4ocrx8k
nND15FhaQ8iY01XL4TBGMrRgpNewlVKGcZjVG7uC2mPTpMor7RY4UH8/o+Fmt5nm
8gOlE7c1pM/GxwxuHlmDGq5hG/BBV6XF0vX1nPnf84aL88hj47zmwcNemFGV5LVI
UaytKXSzezj+xIMdboonTT5x4Ov0FIxaFVzZQJm7AqUSBaA5MFHMR7xDogEtPQ0r
VXTl4olmGiKMwBmrk7s8MpoxWe1vAxmJxgiKHIhgTWL+lvOIIW+gNpCMOBeSWknT
VQWDteq8dTCh/tbKMHS1pNhkaldUa+SbHD9dfurv5MBl+M5GZ+m0l7lMrBxczMI2
LmG1Q+eiADLkKHHtrZiegw7NCHipvtoMoHXyvtqilmD2AhVizOWbvC8KkhXrZ+4p
oIvaKZceZ9/PTzJBvqfliqedNk6sAjpP/1Rsvxv4AtGd2ZjVxS1/77mDqHZcKw3j
wShykvU2G5zP/VtIEEhcqbg4n8pNTCB/2zmLTaUauEMfQBUKQp0sEPoi5ZuvJ0Bg
RwIDAQABo4IBODCCATQwJAYJYIZIAYb4QgENBBcWFUNlcnRpZmljYXQgQ2xpZW50
IFNTTDAdBgNVHQ4EFgQULnZdsTGE1q0VxVPOFR7hamQ/KZ0wgZ4GA1UdIwSBljCB
k4AUn0dKE4aG5s6xfbCpzaignX2mpfGhd6R1MHMxCzAJBgNVBAYTAmZyMQwwCgYD
VQQIDANpZGYxDjAMBgNVBAcMBXBhcmlzMQ4wDAYDVQQKDAV2aXRhbTEUMBIGA1UE
CwwLYXV0aG9yaXRpZXMxIDAeBgNVBAMMF2NhX3Jvb3RfY2xpZW50LWV4dGVybmFs
ggIA7DAJBgNVHRIEAjAAMAwGA1UdEwEB/wQCMAAwCwYDVR0PBAQDAgXgMBEGCWCG
SAGG+EIBAQQEAwIHgDATBgNVHSUEDDAKBggrBgEFBQcDAjANBgkqhkiG9w0BAQsF
AAOCAgEAZjBZ7c/QAGYhCz0tp2TbRLksxlXF6XwjXpPFJoAd5nkUMuob8yY89YGY
drn4Zb+VYdvhrqL2kIzK+rVufkvd5j+3kP30e7u+3a+84x2eUvicFC6CA650ZyD0
/XFmNUSnO/22ppRDNzxaOPIa2OjgFr8DUYOceRAYA7dAK47Rm2E8OeT5ZaDyz8Ax
TCSMbl8scrQktXEgvm5MTfBU076jUlH1qth51vQ5HGHZDC2pzptVQIcGKEKVbl5O
6ifkS5quFemwZpC2GPvni4uFi2TPwG89M+Jgi//jzvSKmmEC+Pd/xJQ5lHD9qmuf
JmVnx+LjYS1Y0oABbn/wxB007mbP7w8P7DWpeNBkYzuVqLOIHPCjO3YQKZPnGtvo
AzqZTCREjXX+lz6OH9LQp7R1VqQTXWefgwyHhR9IQUQskI8KRDL8o7j2QKvyP8GP
OTT18u869X1DlL749k2SXzlaY+bt1LOHAw868opuaOcV6V7SB4vDS6JamjjBXAOb
3oswLa+n3LZQ0DXJq3ahzuyGfUR0/7Mb4WXOfYsb1g0V1vqnqQEsrI/M4jr6xOxW
LTqWfe7cxoXF+vI6LHBaXsOL2WrXGJQzOrjBrPnaym2pAf1eXnzVlxQghlFc2nN1
39C2on8x2xfwr2LG30ON4tDNglKdclDojhdATRSQe/7w+Ett0xM=
-----END CERTIFICATE-----
