Certificate:
    Data:
        Version: 3 (0x2)
        Serial Number: 248 (0xf8)
    Signature Algorithm: sha256WithRSAEncryption
        Issuer: C=fr, ST=idf, L=paris, O=vitam, OU=authorities, CN=ca_intermediate_client-external
        Validity
            Not Before: Aug  9 16:04:53 2017 GMT
            Not After : Aug  8 16:04:53 2020 GMT
        Subject: C=fr, ST=idf, L=paris, O=vitam, CN=ihm-recette
        Subject Public Key Info:
            Public Key Algorithm: rsaEncryption
                Public-Key: (4096 bit)
                Modulus:
                    00:ba:78:0d:73:97:1a:f2:eb:95:31:79:05:80:3f:
                    94:38:24:cb:99:2b:3a:54:60:0c:fe:2b:96:b6:ce:
                    e1:d6:28:8c:a4:c5:99:81:6a:dd:b2:57:fc:48:07:
                    16:b5:bb:f0:04:5c:77:8e:97:26:69:71:de:f5:07:
                    ed:83:e2:d7:a2:d2:27:cc:da:75:c4:8b:e1:5a:9a:
                    9c:18:3b:7c:f6:da:35:f7:7a:e5:18:a4:6d:71:f2:
                    5d:86:d6:c0:20:29:12:bd:18:d0:e9:8d:62:ba:62:
                    62:11:5c:d7:4c:96:d5:37:49:23:a3:22:70:f7:b7:
                    92:5d:29:5b:42:6b:9c:9e:6f:32:91:ef:77:d6:09:
                    6e:32:2b:a4:00:6a:79:df:c4:22:31:d7:f1:ca:73:
                    9b:e3:f6:75:9a:81:49:cc:fa:6e:aa:9d:48:e6:40:
                    a5:29:59:e0:e5:d9:17:ad:4d:07:02:37:9a:7d:d0:
                    cc:fd:ad:5f:83:0e:46:a2:49:97:8a:c5:8a:ef:4e:
                    e4:23:49:49:f5:1f:49:07:9b:41:e3:d3:e5:14:f0:
                    73:64:06:9d:00:c5:ab:80:fc:fc:bf:42:06:0f:f9:
                    c6:5d:e5:b4:7d:14:8c:f9:77:82:66:e8:40:96:b2:
                    c4:95:9a:d3:c6:1a:6e:ab:87:41:29:72:37:ca:30:
                    43:81:dd:43:7e:b3:8d:a1:90:58:88:0f:58:19:14:
                    35:0a:b8:9b:49:25:7c:28:23:fc:48:99:78:74:08:
                    cf:89:34:dc:7e:1f:ba:cd:76:17:78:f4:e3:24:ef:
                    0d:ab:d4:5c:43:09:d7:f0:dc:4b:23:ca:ac:24:c2:
                    8a:27:25:1c:a8:72:01:91:4b:cb:6c:73:4d:5a:32:
                    e4:1e:61:88:40:6d:bd:6f:2c:70:d6:e1:4e:ba:0a:
                    f5:5c:4d:d3:c0:d5:f4:fd:21:44:36:6b:7f:e5:fa:
                    49:15:66:60:7e:b2:0d:bf:db:6e:42:bb:0e:35:54:
                    e4:de:b2:9c:72:83:83:9a:f6:f3:fb:36:7c:74:2a:
                    ef:87:97:16:f6:e9:dc:ab:c6:12:65:0e:0d:54:49:
                    0f:ce:41:16:73:fa:a8:3a:77:02:8f:42:ad:f4:f2:
                    9b:c5:9d:a3:ae:41:f0:b6:a4:26:6c:4d:4e:54:7e:
                    5a:2b:e3:c1:77:62:b2:5b:d8:a4:7a:9c:40:c1:fe:
                    33:d4:f1:d4:5c:53:40:bf:1f:95:52:d1:92:de:22:
                    b3:9a:8a:57:f4:9a:bc:69:1b:77:9c:d2:4c:a8:f9:
                    54:72:48:58:d0:d5:2c:b1:a1:e5:6f:19:bc:51:38:
                    ce:6f:da:bf:83:86:a2:e7:5a:f4:a1:fd:e0:99:83:
                    e8:ee:df
                Exponent: 65537 (0x10001)
        X509v3 extensions:
            Netscape Comment: 
                Certificat Client SSL
            X509v3 Subject Key Identifier: 
                80:90:CB:8B:03:C2:D8:A2:97:EE:11:C6:9B:C1:3B:D1:E9:9D:4A:1E
            X509v3 Authority Key Identifier: 
                keyid:96:3E:D4:77:D3:84:42:19:D3:62:5C:41:7C:64:76:26:5C:39:95:0D
                DirName:/C=fr/ST=idf/L=paris/O=vitam/OU=authorities/CN=ca_root_client-external
                serial:F6

            X509v3 Issuer Alternative Name: 
                <EMPTY>

            X509v3 Basic Constraints: critical
                CA:FALSE
            X509v3 Key Usage: 
                Digital Signature, Non Repudiation, Key Encipherment
            Netscape Cert Type: 
                SSL Client
            X509v3 Extended Key Usage: 
                TLS Web Client Authentication
    Signature Algorithm: sha256WithRSAEncryption
         2b:b1:ef:27:7d:2d:8e:27:d4:a4:05:41:21:12:e2:7b:1d:8b:
         8e:d7:32:19:cc:b7:76:d1:3c:40:4a:fb:10:d5:c4:56:f6:bc:
         e7:fb:47:78:75:7b:52:24:de:17:c1:1b:1c:c0:6e:84:fe:f4:
         ba:50:a5:88:02:f0:6f:18:82:0d:87:bf:f2:ca:24:7e:a0:2a:
         73:4c:05:db:93:3c:d3:30:34:06:b8:1d:38:8f:87:82:8f:4c:
         da:80:4b:2a:a3:96:25:d9:67:4b:9d:0e:61:35:79:8b:84:5b:
         b2:27:c5:6e:d0:99:96:c6:b6:29:55:0e:9f:a9:64:89:a6:bf:
         59:8f:69:8b:ee:ee:b0:a3:81:7e:32:f1:19:ea:4a:8a:5f:46:
         4f:47:67:fd:c6:1a:ab:22:8e:fb:05:d4:a7:3e:be:b1:01:65:
         e1:7c:90:46:24:81:4d:f3:c7:5f:b4:bb:c0:2a:22:dc:dc:37:
         47:49:de:18:a0:ef:65:b1:54:f8:16:02:2c:5c:48:6a:c8:00:
         6a:2d:44:a1:1d:38:3f:f2:72:f9:2c:88:35:d7:97:3e:e3:76:
         5c:ac:87:4e:71:23:51:48:8c:35:07:c5:00:01:d8:4e:3c:f7:
         a2:8c:89:74:9e:93:de:23:40:f9:38:be:a7:41:11:a4:ce:21:
         82:c3:1c:79:42:7f:3b:37:6c:11:49:73:c6:ca:c6:e1:37:0a:
         ab:64:ed:37:49:87:75:88:45:29:62:02:75:06:79:3e:19:0b:
         50:c9:cb:96:fe:10:37:53:2e:a4:73:ff:03:eb:33:8e:be:b2:
         a6:aa:cc:cd:f8:3e:f9:71:7a:39:e1:a1:19:68:60:63:1e:1c:
         7c:61:6c:74:36:31:94:c8:74:d4:64:85:d8:4a:72:94:ee:b7:
         0e:46:c7:f8:41:02:d6:2d:62:d9:63:24:cb:63:5b:36:e2:18:
         bd:4c:85:a2:15:76:fc:1c:f1:66:21:70:a4:b0:16:fb:d5:1e:
         7f:07:c7:0e:45:25:11:ea:05:ee:19:4c:c7:ad:4e:57:df:29:
         27:0e:6f:92:dc:3b:00:b2:9f:95:cc:5c:01:64:8c:e5:da:c3:
         40:18:5e:44:26:6b:7d:b2:bc:c0:55:60:0b:b9:25:2a:b8:de:
         ed:70:a5:e6:df:41:c2:2f:0a:7d:0d:91:88:11:22:83:cc:0e:
         da:7c:57:63:b0:e8:d7:90:7e:a6:63:30:e0:8d:28:18:64:1e:
         7d:cb:78:cd:f7:33:8b:43:b2:ea:93:1b:8c:8e:ac:1e:c2:ec:
         b7:4c:41:da:8d:e7:05:d0:55:7d:30:dc:81:3b:55:45:ce:9c:
         dd:72:33:a5:06:8f:0d:80
-----BEGIN CERTIFICATE-----
MIIGgjCCBGqgAwIBAgICAPgwDQYJKoZIhvcNAQELBQAwezELMAkGA1UEBhMCZnIx
DDAKBgNVBAgMA2lkZjEOMAwGA1UEBwwFcGFyaXMxDjAMBgNVBAoMBXZpdGFtMRQw
EgYDVQQLDAthdXRob3JpdGllczEoMCYGA1UEAwwfY2FfaW50ZXJtZWRpYXRlX2Ns
aWVudC1leHRlcm5hbDAeFw0xNzA4MDkxNjA0NTNaFw0yMDA4MDgxNjA0NTNaMFEx
CzAJBgNVBAYTAmZyMQwwCgYDVQQIDANpZGYxDjAMBgNVBAcMBXBhcmlzMQ4wDAYD
VQQKDAV2aXRhbTEUMBIGA1UEAwwLaWhtLXJlY2V0dGUwggIiMA0GCSqGSIb3DQEB
AQUAA4ICDwAwggIKAoICAQC6eA1zlxry65UxeQWAP5Q4JMuZKzpUYAz+K5a2zuHW
KIykxZmBat2yV/xIBxa1u/AEXHeOlyZpcd71B+2D4tei0ifM2nXEi+FampwYO3z2
2jX3euUYpG1x8l2G1sAgKRK9GNDpjWK6YmIRXNdMltU3SSOjInD3t5JdKVtCa5ye
bzKR73fWCW4yK6QAannfxCIx1/HKc5vj9nWagUnM+m6qnUjmQKUpWeDl2RetTQcC
N5p90Mz9rV+DDkaiSZeKxYrvTuQjSUn1H0kHm0Hj0+UU8HNkBp0AxauA/Py/QgYP
+cZd5bR9FIz5d4Jm6ECWssSVmtPGGm6rh0EpcjfKMEOB3UN+s42hkFiID1gZFDUK
uJtJJXwoI/xImXh0CM+JNNx+H7rNdhd49OMk7w2r1FxDCdfw3EsjyqwkwoonJRyo
cgGRS8tsc01aMuQeYYhAbb1vLHDW4U66CvVcTdPA1fT9IUQ2a3/l+kkVZmB+sg2/
225Cuw41VOTespxyg4Oa9vP7Nnx0Ku+Hlxb26dyrxhJlDg1USQ/OQRZz+qg6dwKP
Qq308pvFnaOuQfC2pCZsTU5Uflor48F3YrJb2KR6nEDB/jPU8dRcU0C/H5VS0ZLe
IrOailf0mrxpG3ec0kyo+VRySFjQ1SyxoeVvGbxROM5v2r+DhqLnWvSh/eCZg+ju
3wIDAQABo4IBODCCATQwJAYJYIZIAYb4QgENBBcWFUNlcnRpZmljYXQgQ2xpZW50
IFNTTDAdBgNVHQ4EFgQUgJDLiwPC2KKX7hHGm8E70emdSh4wgZ4GA1UdIwSBljCB
k4AUlj7Ud9OEQhnTYlxBfGR2Jlw5lQ2hd6R1MHMxCzAJBgNVBAYTAmZyMQwwCgYD
VQQIDANpZGYxDjAMBgNVBAcMBXBhcmlzMQ4wDAYDVQQKDAV2aXRhbTEUMBIGA1UE
CwwLYXV0aG9yaXRpZXMxIDAeBgNVBAMMF2NhX3Jvb3RfY2xpZW50LWV4dGVybmFs
ggIA9jAJBgNVHRIEAjAAMAwGA1UdEwEB/wQCMAAwCwYDVR0PBAQDAgXgMBEGCWCG
SAGG+EIBAQQEAwIHgDATBgNVHSUEDDAKBggrBgEFBQcDAjANBgkqhkiG9w0BAQsF
AAOCAgEAK7HvJ30tjifUpAVBIRLiex2LjtcyGcy3dtE8QEr7ENXEVva85/tHeHV7
UiTeF8EbHMBuhP70ulCliALwbxiCDYe/8sokfqAqc0wF25M80zA0BrgdOI+Hgo9M
2oBLKqOWJdlnS50OYTV5i4RbsifFbtCZlsa2KVUOn6lkiaa/WY9pi+7usKOBfjLx
GepKil9GT0dn/cYaqyKO+wXUpz6+sQFl4XyQRiSBTfPHX7S7wCoi3Nw3R0neGKDv
ZbFU+BYCLFxIasgAai1EoR04P/Jy+SyINdeXPuN2XKyHTnEjUUiMNQfFAAHYTjz3
ooyJdJ6T3iNA+Ti+p0ERpM4hgsMceUJ/OzdsEUlzxsrG4TcKq2TtN0mHdYhFKWIC
dQZ5PhkLUMnLlv4QN1MupHP/A+szjr6ypqrMzfg++XF6OeGhGWhgYx4cfGFsdDYx
lMh01GSF2EpylO63DkbH+EEC1i1i2WMky2NbNuIYvUyFohV2/BzxZiFwpLAW+9Ue
fwfHDkUlEeoF7hlMx61OV98pJw5vktw7ALKflcxcAWSM5drDQBheRCZrfbK8wFVg
C7klKrje7XCl5t9Bwi8KfQ2RiBEig8wO2nxXY7Do15B+pmMw4I0oGGQefct4zfcz
i0Oy6pMbjI6sHsLst0xB2o3nBdBVfTDcgTtVRc6c3XIzpQaPDYA=
-----END CERTIFICATE-----
