Certificate:
    Data:
        Version: 3 (0x2)
        Serial Number: 233 (0xe9)
    Signature Algorithm: sha256WithRSAEncryption
        Issuer: C=FR, ST=idf, L=paris, O=Vitam., CN=CA_client-external
        Validity
            Not Before: Mar 15 12:18:52 2017 GMT
            Not After : Mar 14 12:18:52 2020 GMT
        Subject: C=FR, ST=idf, L=paris, O=Vitam., CN=ihm-recette
        Subject Public Key Info:
            Public Key Algorithm: rsaEncryption
                Public-Key: (4096 bit)
                Modulus:
                    00:eb:dc:47:96:dc:cb:6b:1a:89:ff:9a:fd:ba:e4:
                    75:f2:2f:2b:40:c6:e6:43:22:c9:5d:32:da:78:b9:
                    b4:55:ab:62:08:a2:25:1a:7a:a1:75:22:9d:75:91:
                    28:12:0c:2a:72:35:32:73:23:8f:49:05:1b:f9:59:
                    f3:36:13:3c:2e:06:c6:67:75:6c:44:16:61:d5:e9:
                    33:35:88:d6:e7:d3:e5:6e:58:d3:20:9f:1e:5e:f5:
                    01:10:f9:db:78:7a:5f:ae:7a:77:73:2b:cf:be:4b:
                    e2:a7:31:cc:87:9a:e9:2c:c6:fb:05:9a:c8:17:31:
                    85:8f:7f:c8:6f:1e:20:ee:86:f8:74:84:cc:e8:8c:
                    8d:c7:63:ca:ba:4e:4d:6f:69:fd:90:d1:33:76:20:
                    4b:54:9c:a4:f7:0a:28:dc:45:2e:e7:82:f1:f7:a5:
                    a3:bf:ac:94:a9:eb:25:96:f7:b1:50:32:50:a6:d7:
                    31:94:22:4b:25:88:2d:53:61:06:7a:c6:e6:4f:db:
                    16:96:7f:74:26:af:1a:11:4b:79:00:7a:31:54:9a:
                    1e:2d:62:a0:f6:4b:19:d0:df:d0:62:a8:a7:20:4e:
                    62:cf:27:d6:33:01:dd:19:e7:2b:7a:a4:9f:3d:c4:
                    b0:44:f3:b6:c3:77:8c:20:9c:f8:f3:8c:a9:c7:3b:
                    14:de:33:63:22:5a:60:cf:d8:b1:06:47:05:02:98:
                    92:7d:fa:d6:69:23:a2:e9:67:70:1c:18:68:32:98:
                    c7:86:0b:23:eb:c3:b2:5f:5f:47:09:b6:ae:c4:cb:
                    49:0d:17:c1:dc:49:82:ee:85:56:05:36:23:8e:3a:
                    4e:54:41:d7:ef:5a:0e:58:6b:41:a3:be:09:83:47:
                    f8:61:e6:b7:96:92:74:80:88:05:30:d6:b7:c5:67:
                    b7:64:c2:e8:4e:7a:b8:bd:f8:3e:18:71:c2:98:e7:
                    e8:99:fc:df:ff:da:df:54:ad:8e:99:d0:a0:be:f3:
                    54:47:60:13:ce:ab:c4:06:7c:5b:d7:1f:be:67:d3:
                    10:82:13:cb:23:2e:5b:e1:53:ea:f4:5f:fb:64:66:
                    d4:71:9d:d0:8c:de:d5:0c:96:a7:db:bd:60:fb:b6:
                    23:76:06:8a:e9:e3:47:31:72:2d:9a:b8:8c:96:1b:
                    57:1a:3f:50:08:cd:89:01:c5:46:e0:31:fd:53:38:
                    9c:d4:47:59:d7:08:13:d4:cb:77:ff:e7:04:a4:6a:
                    8d:4e:b1:a8:91:2a:c1:7d:7e:23:97:5a:5e:53:64:
                    d9:96:2c:58:be:f4:0f:a8:d4:36:af:ca:0d:93:e2:
                    72:b4:e3:45:7f:98:c2:80:98:fb:44:36:44:ce:6a:
                    a2:8a:21
                Exponent: 65537 (0x10001)
        X509v3 extensions:
            Netscape Comment: 
                Certificat Client SSL
            X509v3 Subject Key Identifier: 
                42:4E:5B:B9:9E:64:A9:33:73:DA:9A:D4:2D:E3:3C:44:11:09:37:0B
            X509v3 Authority Key Identifier: 
                keyid:52:CF:41:75:A8:85:BC:E1:0D:F3:80:3E:7D:82:31:1A:78:CE:A0:A7
                DirName:/C=FR/ST=idf/L=paris/O=Vitam./CN=CA_client-external
                serial:E7

            X509v3 Issuer Alternative Name: 
                <EMPTY>

            X509v3 Subject Alternative Name: 
                DNS:ingest-external.service.consul
            X509v3 Basic Constraints: critical
                CA:FALSE
            X509v3 Key Usage: 
                Digital Signature, Non Repudiation, Key Encipherment
            Netscape Cert Type: 
                SSL Client
            X509v3 Extended Key Usage: 
                TLS Web Client Authentication
    Signature Algorithm: sha256WithRSAEncryption
         78:24:69:74:03:5f:7d:05:f6:b7:56:8f:98:78:7d:f6:8a:e1:
         65:e0:ca:6f:82:07:bd:85:8d:55:02:b1:be:cc:4a:f9:2c:1a:
         f8:87:34:cf:80:7c:60:5e:7c:35:23:7d:92:eb:e7:10:d3:b9:
         84:f7:0e:21:f5:12:06:13:2e:17:7a:c4:82:33:73:c9:83:9f:
         de:a6:8d:ae:da:83:0e:99:7e:a2:7d:a9:90:9c:62:42:dc:2c:
         4b:6b:00:30:dc:1f:6d:f3:e2:30:e3:03:38:bd:20:f3:46:17:
         f5:5d:de:e2:18:19:c2:d1:5a:a1:c8:ec:8d:cf:89:0f:b6:81:
         68:69:10:d0:c7:1e:de:19:99:ac:38:5d:ca:0b:16:43:3d:7d:
         12:1d:83:72:de:a9:cd:b3:af:cc:a9:08:87:9c:8a:6d:d2:f1:
         8e:22:c7:f0:b7:3c:57:93:67:10:62:46:a0:de:d0:f8:b2:0a:
         ad:76:77:bd:53:67:1d:52:a4:87:56:f8:75:2e:20:c2:54:15:
         bd:fc:d1:6d:d4:5c:25:93:7b:a7:8a:8a:15:5e:1f:34:bd:12:
         fe:4f:d1:58:d2:b0:b1:02:75:b3:fd:89:06:97:64:d3:4a:1b:
         65:af:83:91:eb:9f:4e:81:e9:9e:85:7a:ab:5f:19:dc:be:59:
         05:48:2c:2c:18:af:3d:39:31:12:38:41:3c:93:4d:f8:31:40:
         56:a0:ad:fb:4b:f7:fc:68:f0:bb:10:39:15:89:82:c4:1d:a6:
         ee:d8:fc:a5:4f:0b:72:cd:a9:f1:8e:5d:5b:3f:e1:35:32:60:
         61:34:fe:a5:af:e3:82:ac:a3:ff:d4:79:8c:c5:b4:7e:54:96:
         95:4b:6f:83:b8:93:e2:6c:9e:22:c1:9f:bf:f9:76:fc:d4:90:
         e2:f3:3a:84:94:ec:8d:fb:18:ad:b1:6e:ec:72:07:d8:b0:73:
         3d:9e:7f:95:d1:35:0f:fd:f0:67:ed:16:87:ed:97:63:d8:6c:
         bd:1d:7a:13:d3:56:22:25:9d:a0:ad:2c:eb:40:18:5a:8c:a0:
         69:58:cd:a9:15:82:12:b6:4d:89:ff:7f:12:43:3e:2e:f1:28:
         39:71:7c:82:36:63:8c:ec:c5:8c:95:af:92:04:27:6f:a7:e1:
         14:9f:d9:d1:07:6c:a7:74:34:05:a4:7a:1d:09:fc:ee:58:cb:
         11:9a:85:a1:52:65:b6:6a:59:67:87:ac:94:1c:07:b7:7f:31:
         7d:d0:5e:57:81:e6:a2:c6:1e:cc:2a:7d:d0:be:d6:d0:3d:e5:
         73:17:5a:be:ff:a5:8f:3d:b8:60:f4:63:c1:73:d6:fe:a8:42:
         5c:a0:dc:33:a4:41:f2:a6
-----BEGIN CERTIFICATE-----
MIIGcDCCBFigAwIBAgICAOkwDQYJKoZIhvcNAQELBQAwWTELMAkGA1UEBhMCRlIx
DDAKBgNVBAgTA2lkZjEOMAwGA1UEBxMFcGFyaXMxDzANBgNVBAoTBlZpdGFtLjEb
MBkGA1UEAxQSQ0FfY2xpZW50LWV4dGVybmFsMB4XDTE3MDMxNTEyMTg1MloXDTIw
MDMxNDEyMTg1MlowUjELMAkGA1UEBhMCRlIxDDAKBgNVBAgTA2lkZjEOMAwGA1UE
BxMFcGFyaXMxDzANBgNVBAoTBlZpdGFtLjEUMBIGA1UEAxMLaWhtLXJlY2V0dGUw
ggIiMA0GCSqGSIb3DQEBAQUAA4ICDwAwggIKAoICAQDr3EeW3MtrGon/mv265HXy
LytAxuZDIsldMtp4ubRVq2IIoiUaeqF1Ip11kSgSDCpyNTJzI49JBRv5WfM2Ezwu
BsZndWxEFmHV6TM1iNbn0+VuWNMgnx5e9QEQ+dt4el+uendzK8++S+KnMcyHmuks
xvsFmsgXMYWPf8hvHiDuhvh0hMzojI3HY8q6Tk1vaf2Q0TN2IEtUnKT3CijcRS7n
gvH3paO/rJSp6yWW97FQMlCm1zGUIksliC1TYQZ6xuZP2xaWf3QmrxoRS3kAejFU
mh4tYqD2SxnQ39BiqKcgTmLPJ9YzAd0Z5yt6pJ89xLBE87bDd4wgnPjzjKnHOxTe
M2MiWmDP2LEGRwUCmJJ9+tZpI6LpZ3AcGGgymMeGCyPrw7JfX0cJtq7Ey0kNF8Hc
SYLuhVYFNiOOOk5UQdfvWg5Ya0GjvgmDR/hh5reWknSAiAUw1rfFZ7dkwuhOeri9
+D4YccKY5+iZ/N//2t9UrY6Z0KC+81RHYBPOq8QGfFvXH75n0xCCE8sjLlvhU+r0
X/tkZtRxndCM3tUMlqfbvWD7tiN2Borp40cxci2auIyWG1caP1AIzYkBxUbgMf1T
OJzUR1nXCBPUy3f/5wSkao1OsaiRKsF9fiOXWl5TZNmWLFi+9A+o1Davyg2T4nK0
40V/mMKAmPtENkTOaqKKIQIDAQABo4IBRzCCAUMwJAYJYIZIAYb4QgENBBcWFUNl
cnRpZmljYXQgQ2xpZW50IFNTTDAdBgNVHQ4EFgQUQk5buZ5kqTNz2prULeM8RBEJ
NwswgYIGA1UdIwR7MHmAFFLPQXWohbzhDfOAPn2CMRp4zqCnoV2kWzBZMQswCQYD
VQQGEwJGUjEMMAoGA1UECBMDaWRmMQ4wDAYDVQQHEwVwYXJpczEPMA0GA1UEChMG
Vml0YW0uMRswGQYDVQQDFBJDQV9jbGllbnQtZXh0ZXJuYWyCAgDnMAkGA1UdEgQC
MAAwKQYDVR0RBCIwIIIeaW5nZXN0LWV4dGVybmFsLnNlcnZpY2UuY29uc3VsMAwG
A1UdEwEB/wQCMAAwCwYDVR0PBAQDAgXgMBEGCWCGSAGG+EIBAQQEAwIHgDATBgNV
HSUEDDAKBggrBgEFBQcDAjANBgkqhkiG9w0BAQsFAAOCAgEAeCRpdANffQX2t1aP
mHh99orhZeDKb4IHvYWNVQKxvsxK+Swa+Ic0z4B8YF58NSN9kuvnENO5hPcOIfUS
BhMuF3rEgjNzyYOf3qaNrtqDDpl+on2pkJxiQtwsS2sAMNwfbfPiMOMDOL0g80YX
9V3e4hgZwtFaocjsjc+JD7aBaGkQ0Mce3hmZrDhdygsWQz19Eh2Dct6pzbOvzKkI
h5yKbdLxjiLH8Lc8V5NnEGJGoN7Q+LIKrXZ3vVNnHVKkh1b4dS4gwlQVvfzRbdRc
JZN7p4qKFV4fNL0S/k/RWNKwsQJ1s/2JBpdk00obZa+DkeufToHpnoV6q18Z3L5Z
BUgsLBivPTkxEjhBPJNN+DFAVqCt+0v3/GjwuxA5FYmCxB2m7tj8pU8Lcs2p8Y5d
Wz/hNTJgYTT+pa/jgqyj/9R5jMW0flSWlUtvg7iT4myeIsGfv/l2/NSQ4vM6hJTs
jfsYrbFu7HIH2LBzPZ5/ldE1D/3wZ+0Wh+2XY9hsvR16E9NWIiWdoK0s60AYWoyg
aVjNqRWCErZNif9/EkM+LvEoOXF8gjZjjOzFjJWvkgQnb6fhFJ/Z0Qdsp3Q0BaR6
HQn87ljLEZqFoVJltmpZZ4eslBwHt38xfdBeV4HmosYezCp90L7W0D3lcxdavv+l
jz24YPRjwXPW/qhCXKDcM6RB8qY=
-----END CERTIFICATE-----
