Certificate:
    Data:
        Version: 3 (0x2)
        Serial Number: 321 (0x141)
        Signature Algorithm: sha256WithRSAEncryption
        Issuer: C=fr, ST=idf, L=paris, O=vitam, OU=authorities, CN=ca_intermediate_client-external
        Validity
            Not Before: Jan 12 16:13:04 2022 GMT
            Not After : Jan 11 16:13:04 2025 GMT
        Subject: C=fr, ST=idf, L=paris, O=vitam, CN=ihm-recette
        Subject Public Key Info:
            Public Key Algorithm: rsaEncryption
                RSA Public-Key: (4096 bit)
                Modulus:
                    00:ef:6c:54:58:a3:8b:43:b8:3c:8d:d4:ee:75:0e:
                    11:81:ab:b2:38:ea:0d:86:a0:ce:63:2f:5e:5f:81:
                    8c:f1:40:03:09:44:37:49:66:a1:7a:ac:d8:38:2c:
                    12:93:ec:3f:76:7e:89:0f:c6:d3:8e:ea:3d:0a:3c:
                    60:5e:78:3b:6d:f5:96:ef:68:b0:88:b5:5f:19:97:
                    08:e6:23:9e:10:d9:0e:ed:52:bd:a6:29:89:92:46:
                    62:47:72:25:2e:8a:a4:a9:f5:57:30:48:8d:d9:f0:
                    08:13:99:4d:c7:87:02:51:ee:d0:32:f8:5d:a9:48:
                    01:05:aa:c6:a3:85:a3:54:fa:19:43:a7:67:74:be:
                    0b:dc:a7:62:1a:ae:f8:3b:57:d0:a8:cf:6d:2e:74:
                    a4:3a:af:93:95:ce:89:e9:7f:2c:16:21:98:66:50:
                    64:d9:b3:e7:5a:08:ab:d1:bc:a3:2b:7c:57:3a:f8:
                    1d:e7:7f:5e:8e:ee:dd:c5:be:f3:18:90:19:82:05:
                    6f:74:57:6e:4d:81:02:d5:10:0b:de:f4:7a:8f:75:
                    16:5c:30:24:39:d6:65:39:b3:b1:74:e5:0b:08:c9:
                    d5:0a:16:9b:8b:34:11:40:3a:44:96:cd:a8:89:af:
                    36:78:e6:1e:95:3c:1e:04:a2:49:dd:f6:3d:d1:fc:
                    5e:62:cd:10:24:1c:6b:6c:f9:fa:81:6e:58:b6:98:
                    53:fb:ca:3d:5d:c4:62:6d:d0:13:3e:73:fc:a8:c8:
                    f4:ee:d4:ea:ae:ab:11:21:55:9f:b4:a6:83:4d:cb:
                    f3:93:34:a0:e8:40:a0:26:32:f3:b8:1c:dd:40:22:
                    5a:9b:87:7d:19:2b:ae:56:29:26:5b:cd:8e:d3:2a:
                    fb:79:56:7f:76:4d:09:37:eb:1f:2b:a7:83:3b:50:
                    9d:7f:2b:fd:78:f3:b0:e9:0d:6c:b7:d1:a6:00:ed:
                    04:5d:5c:a8:27:35:2a:78:02:1e:15:f9:b4:37:54:
                    f9:dd:03:ef:8c:50:ec:97:50:c1:8e:a8:c0:0e:6e:
                    bf:95:73:f2:1d:68:bc:52:ea:6f:80:01:65:1e:bf:
                    02:92:f4:8d:b5:7b:43:14:95:55:b4:b2:76:78:e3:
                    e5:f9:af:eb:d0:6d:2e:2b:15:21:e2:89:f8:d5:eb:
                    78:f6:12:c5:2b:e6:29:2e:2d:23:b3:f9:da:9d:b1:
                    76:0a:0c:93:97:40:f9:bd:50:e1:ab:bb:f8:aa:92:
                    f6:82:e1:b5:7e:9f:1b:4e:97:8d:22:f6:0e:06:54:
                    bc:ad:d2:6b:05:80:bb:97:0f:71:63:e0:fd:a1:04:
                    c7:00:4a:3d:f3:f8:fc:af:fc:8e:34:c6:d2:65:d2:
                    b8:3c:1d
                Exponent: 65537 (0x10001)
        X509v3 extensions:
            Netscape Comment: 
                Certificat Client SSL
            X509v3 Subject Key Identifier: 
                5A:BB:C9:C7:52:F6:14:A2:08:23:8B:DB:5D:85:7B:79:69:79:69:18
            X509v3 Authority Key Identifier: 
                keyid:D1:7F:00:C3:F0:94:D6:CB:E3:AE:F7:23:18:2E:1E:BA:53:66:F2:F8
                DirName:/C=fr/ST=idf/L=paris/O=vitam/OU=authorities/CN=ca_root_client-external
                serial:01:2D

            X509v3 Issuer Alternative Name: 
                <EMPTY>

            X509v3 Basic Constraints: critical
                CA:FALSE
            X509v3 Key Usage: 
                Digital Signature
            Netscape Cert Type: 
                SSL Client
            X509v3 Extended Key Usage: 
                TLS Web Client Authentication
    Signature Algorithm: sha256WithRSAEncryption
         27:31:21:d8:77:3a:34:fb:54:65:75:c3:27:b0:9b:39:57:0d:
         fa:a2:a8:97:29:75:e3:df:cf:93:ad:b0:6f:92:44:ff:ac:cd:
         4b:d1:58:d7:b3:3d:41:38:72:72:34:3c:60:19:20:00:55:31:
         a3:b9:29:5d:09:2e:b0:1b:90:82:fa:94:58:d1:f6:07:8a:33:
         98:d9:07:b3:cc:42:65:ce:d6:b1:01:41:45:bc:02:0f:a5:04:
         32:f2:37:97:4e:15:58:a2:d8:e1:a0:8c:4a:cf:98:07:1b:42:
         e8:e2:d4:ab:61:90:7d:2a:3c:47:08:1b:91:cb:db:ec:b7:97:
         ab:78:66:91:30:ec:19:26:85:d4:0b:97:ee:5f:82:ed:b3:b2:
         71:18:ca:83:f7:4a:40:ad:9d:c4:90:3d:cd:38:5a:04:d6:68:
         9b:be:a8:e8:fa:f2:09:9f:2e:a6:00:5d:2a:63:6c:96:2f:fc:
         cd:a3:1c:b3:5d:6c:0c:92:10:b0:c6:ee:0f:23:17:60:06:98:
         0f:63:da:a5:7e:cf:91:34:93:d1:7b:dc:31:76:fd:52:ac:c0:
         ea:3c:4a:73:f0:07:3b:f5:41:12:ef:d5:64:50:ce:f5:61:e8:
         32:33:44:a5:aa:e0:e2:8a:f2:37:5a:3a:d5:95:1f:65:a7:ac:
         14:e3:fd:d2:74:3e:b8:87:7d:1f:49:7c:b6:08:29:fa:7c:82:
         14:44:64:3c:60:70:84:dd:8d:1f:0e:c8:51:a4:56:87:6b:e0:
         94:3f:09:87:39:69:21:fe:26:19:60:91:82:17:61:6e:01:12:
         72:30:80:e6:26:2f:de:e3:62:6b:04:9b:14:5d:96:d5:20:e4:
         76:ff:fe:c2:a4:e4:5a:5e:34:a6:0b:07:73:04:f1:cb:5a:8f:
         c6:50:8c:e3:6e:a7:b0:aa:c8:19:7e:97:49:30:60:38:33:86:
         1b:cf:6b:d9:e6:b9:e2:fc:b1:0e:e8:01:31:95:52:85:46:6a:
         f1:69:7f:31:0c:64:5d:e4:f5:08:16:1d:33:49:02:9a:32:d3:
         37:77:e0:ca:54:01:4b:71:b8:e3:48:51:9f:ce:01:08:5d:2a:
         4f:c1:b6:e2:df:8e:d6:09:4d:d8:0b:f5:3c:17:a1:a3:62:a2:
         42:f4:e3:0d:e3:35:41:ea:c2:d1:94:ce:a2:8c:da:06:32:e8:
         bc:79:0a:bb:ce:29:ca:8a:58:04:6a:53:d6:19:d0:79:95:32:
         6c:d6:d8:6a:00:11:ed:40:55:2a:71:6c:c8:53:31:39:6c:e8:
         29:31:5c:96:3a:dc:6d:66:83:44:6c:ea:72:86:a4:e0:ee:0c:
         32:d4:d5:2a:56:38:62:ae
-----BEGIN CERTIFICATE-----
MIIGgjCCBGqgAwIBAgICAUEwDQYJKoZIhvcNAQELBQAwezELMAkGA1UEBhMCZnIx
DDAKBgNVBAgMA2lkZjEOMAwGA1UEBwwFcGFyaXMxDjAMBgNVBAoMBXZpdGFtMRQw
EgYDVQQLDAthdXRob3JpdGllczEoMCYGA1UEAwwfY2FfaW50ZXJtZWRpYXRlX2Ns
aWVudC1leHRlcm5hbDAeFw0yMjAxMTIxNjEzMDRaFw0yNTAxMTExNjEzMDRaMFEx
CzAJBgNVBAYTAmZyMQwwCgYDVQQIDANpZGYxDjAMBgNVBAcMBXBhcmlzMQ4wDAYD
VQQKDAV2aXRhbTEUMBIGA1UEAwwLaWhtLXJlY2V0dGUwggIiMA0GCSqGSIb3DQEB
AQUAA4ICDwAwggIKAoICAQDvbFRYo4tDuDyN1O51DhGBq7I46g2GoM5jL15fgYzx
QAMJRDdJZqF6rNg4LBKT7D92fokPxtOO6j0KPGBeeDtt9ZbvaLCItV8ZlwjmI54Q
2Q7tUr2mKYmSRmJHciUuiqSp9VcwSI3Z8AgTmU3HhwJR7tAy+F2pSAEFqsajhaNU
+hlDp2d0vgvcp2Iarvg7V9Coz20udKQ6r5OVzonpfywWIZhmUGTZs+daCKvRvKMr
fFc6+B3nf16O7t3FvvMYkBmCBW90V25NgQLVEAve9HqPdRZcMCQ51mU5s7F05QsI
ydUKFpuLNBFAOkSWzaiJrzZ45h6VPB4Eoknd9j3R/F5izRAkHGts+fqBbli2mFP7
yj1dxGJt0BM+c/yoyPTu1OquqxEhVZ+0poNNy/OTNKDoQKAmMvO4HN1AIlqbh30Z
K65WKSZbzY7TKvt5Vn92TQk36x8rp4M7UJ1/K/1487DpDWy30aYA7QRdXKgnNSp4
Ah4V+bQ3VPndA++MUOyXUMGOqMAObr+Vc/IdaLxS6m+AAWUevwKS9I21e0MUlVW0
snZ44+X5r+vQbS4rFSHiifjV63j2EsUr5ikuLSOz+dqdsXYKDJOXQPm9UOGru/iq
kvaC4bV+nxtOl40i9g4GVLyt0msFgLuXD3Fj4P2hBMcASj3z+Pyv/I40xtJl0rg8
HQIDAQABo4IBODCCATQwJAYJYIZIAYb4QgENBBcWFUNlcnRpZmljYXQgQ2xpZW50
IFNTTDAdBgNVHQ4EFgQUWrvJx1L2FKIII4vbXYV7eWl5aRgwgZ4GA1UdIwSBljCB
k4AU0X8Aw/CU1svjrvcjGC4eulNm8vihd6R1MHMxCzAJBgNVBAYTAmZyMQwwCgYD
VQQIDANpZGYxDjAMBgNVBAcMBXBhcmlzMQ4wDAYDVQQKDAV2aXRhbTEUMBIGA1UE
CwwLYXV0aG9yaXRpZXMxIDAeBgNVBAMMF2NhX3Jvb3RfY2xpZW50LWV4dGVybmFs
ggIBLTAJBgNVHRIEAjAAMAwGA1UdEwEB/wQCMAAwCwYDVR0PBAQDAgeAMBEGCWCG
SAGG+EIBAQQEAwIHgDATBgNVHSUEDDAKBggrBgEFBQcDAjANBgkqhkiG9w0BAQsF
AAOCAgEAJzEh2Hc6NPtUZXXDJ7CbOVcN+qKolyl149/Pk62wb5JE/6zNS9FY17M9
QThycjQ8YBkgAFUxo7kpXQkusBuQgvqUWNH2B4ozmNkHs8xCZc7WsQFBRbwCD6UE
MvI3l04VWKLY4aCMSs+YBxtC6OLUq2GQfSo8Rwgbkcvb7LeXq3hmkTDsGSaF1AuX
7l+C7bOycRjKg/dKQK2dxJA9zThaBNZom76o6PryCZ8upgBdKmNsli/8zaMcs11s
DJIQsMbuDyMXYAaYD2PapX7PkTST0XvcMXb9UqzA6jxKc/AHO/VBEu/VZFDO9WHo
MjNEparg4oryN1o61ZUfZaesFOP90nQ+uId9H0l8tggp+nyCFERkPGBwhN2NHw7I
UaRWh2vglD8JhzlpIf4mGWCRghdhbgEScjCA5iYv3uNiawSbFF2W1SDkdv/+wqTk
Wl40pgsHcwTxy1qPxlCM426nsKrIGX6XSTBgODOGG89r2ea54vyxDugBMZVShUZq
8Wl/MQxkXeT1CBYdM0kCmjLTN3fgylQBS3G440hRn84BCF0qT8G24t+O1glN2Av1
PBeho2KiQvTjDeM1QerC0ZTOoozaBjLovHkKu84pyopYBGpT1hnQeZUybNbYagAR
7UBVKnFsyFMxOWzoKTFcljrcbWaDRGzqcoak4O4MMtTVKlY4Yq4=
-----END CERTIFICATE-----
