Certificate:
    Data:
        Version: 3 (0x2)
        Serial Number: 305 (0x131)
        Signature Algorithm: sha256WithRSAEncryption
        Issuer: C=fr, ST=idf, L=paris, O=vitam, OU=authorities, CN=ca_intermediate_client-external
        Validity
            Not Before: Sep 15 13:01:13 2020 GMT
            Not After : Dec 31 23:59:59 9999 GMT
        Subject: C=fr, ST=idf, L=paris, O=vitam, CN=ihm-recette
        Subject Public Key Info:
            Public Key Algorithm: rsaEncryption
                RSA Public-Key: (4096 bit)
                Modulus:
                    00:b6:16:d6:1d:88:58:8a:b1:65:5e:f3:27:35:5a:
                    a4:49:6c:56:e6:74:9c:2c:5d:ee:a2:9a:60:a7:91:
                    99:38:51:6e:8e:55:5b:62:20:96:cf:e9:88:4d:f7:
                    6e:e4:9f:8d:5e:a6:9c:ad:d9:f1:f6:ad:3b:7a:d3:
                    b7:19:29:fc:14:d5:55:d2:b7:cb:2f:72:5c:5c:cf:
                    19:92:63:bb:a5:2d:03:88:99:9e:19:7b:50:be:4d:
                    45:d2:5c:b4:f9:53:c1:6d:9f:e8:90:41:5d:91:a8:
                    89:74:45:69:3a:6f:56:38:f6:c3:74:e5:5d:af:b0:
                    4a:4a:8d:c3:98:8b:11:52:b8:71:60:4d:37:73:98:
                    b2:f4:e4:d1:c2:44:db:e2:ba:a7:c1:0d:b3:7c:99:
                    bb:99:8d:c2:26:b8:a5:a6:66:39:a8:f1:c4:4e:36:
                    6c:c1:f2:38:f3:12:b9:88:e3:86:7c:f3:06:8d:a9:
                    ad:56:13:0c:7b:d4:b2:32:2a:0a:21:89:b7:53:be:
                    36:fe:e3:9b:68:69:b1:e5:e0:51:b4:e2:52:88:2b:
                    8a:f0:15:12:fb:32:c5:7e:0d:7b:a1:65:50:a3:3e:
                    6a:59:be:2b:53:fb:68:1b:12:34:95:8e:7c:86:78:
                    32:8b:4e:b9:0b:b2:a3:09:27:72:11:b2:f9:39:92:
                    91:f4:16:1f:c8:18:ee:40:a4:55:70:e0:9f:22:af:
                    0d:81:1b:67:1c:ba:a7:6c:dc:9c:e9:86:0f:6e:a2:
                    b0:ee:90:78:66:aa:bc:16:0d:b2:d8:21:cc:d7:30:
                    60:30:e8:33:19:2c:fa:81:88:6a:65:48:bb:18:a3:
                    fd:51:5b:dc:b6:ac:91:3e:35:4a:b9:51:05:78:5b:
                    bb:eb:c4:c9:67:12:53:71:ab:3d:c9:f1:8d:24:ad:
                    88:cb:d2:02:55:66:00:ea:c7:93:31:a0:93:00:ea:
                    ac:0e:da:1e:d9:39:94:3c:30:b0:2c:92:60:64:98:
                    04:9b:d8:08:38:2c:ab:8a:b2:dc:8b:f5:a6:3b:d9:
                    c0:f2:40:8b:8b:26:91:ec:6e:85:9a:83:da:42:5a:
                    ba:3c:d9:39:57:2b:4d:1b:fa:ed:28:60:cd:50:02:
                    6d:93:d2:d8:b6:e5:94:5f:e6:64:18:33:10:a7:37:
                    82:83:0b:4e:64:27:12:96:31:dc:35:fb:d7:25:a9:
                    42:be:28:ca:98:60:df:d6:1b:b7:58:23:05:68:37:
                    cb:3d:ba:3e:cf:56:69:39:26:b3:d2:22:34:3a:35:
                    3e:58:f9:fd:18:1a:2a:ab:a1:50:4f:b5:ce:a9:02:
                    96:9d:35:97:83:b7:e9:d5:45:c2:52:87:60:ad:18:
                    85:53:db
                Exponent: 65537 (0x10001)
        X509v3 extensions:
            Netscape Comment: 
                Certificat Client SSL
            X509v3 Subject Key Identifier: 
                4C:A8:FF:98:85:11:34:91:AE:AC:EF:5E:35:C2:09:69:BF:95:0F:3E
            X509v3 Authority Key Identifier: 
                keyid:D1:7F:00:C3:F0:94:D6:CB:E3:AE:F7:23:18:2E:1E:BA:53:66:F2:F8
                DirName:/C=fr/ST=idf/L=paris/O=vitam/OU=authorities/CN=ca_root_client-external
                serial:01:2D

            X509v3 Issuer Alternative Name: 
                <EMPTY>

            X509v3 Basic Constraints: critical
                CA:FALSE
            X509v3 Key Usage: 
                Digital Signature
            Netscape Cert Type: 
                SSL Client
            X509v3 Extended Key Usage: 
                TLS Web Client Authentication
    Signature Algorithm: sha256WithRSAEncryption
         19:0e:66:b4:1f:82:b6:cc:0a:f6:78:50:2b:5e:b3:ff:3a:c2:
         e7:8d:49:dd:34:ea:41:5c:9d:70:13:86:ff:0c:00:3f:00:62:
         c4:2a:df:49:8c:0e:ac:20:a8:3e:a2:b6:eb:fa:36:c4:27:ac:
         42:ef:c4:ab:fe:78:9e:8e:e7:13:59:97:f2:89:37:4d:ce:bc:
         c4:ce:63:0b:a7:ea:28:b3:61:a5:16:6c:08:3b:98:76:29:c1:
         83:c3:2e:1c:4d:80:1b:f4:da:07:97:88:e4:05:7b:a0:06:52:
         19:4a:45:9e:64:2e:9e:27:8b:b0:eb:3e:4a:98:3a:be:04:d3:
         e8:b9:0b:8d:53:9e:dd:b7:38:61:16:f5:40:6e:0e:23:fb:9a:
         ff:8e:e5:7d:18:38:99:7a:a5:b2:83:ce:49:3c:56:41:14:df:
         3c:c7:61:75:04:e7:27:7d:84:65:60:1a:7c:eb:c0:ef:87:ab:
         0d:a3:33:a8:20:7f:65:77:fe:13:27:fb:5e:f2:94:2a:c2:12:
         d8:91:08:cb:3d:63:d0:fc:25:c6:6a:93:69:60:8f:60:2a:90:
         02:e0:2d:f2:ee:cc:5d:7f:9d:a3:02:a0:2b:80:d3:be:fa:c6:
         a6:67:41:d8:64:8b:af:7f:1d:3b:8b:db:40:9b:ee:c3:3e:9b:
         fd:87:8a:44:01:74:73:1e:5e:6d:36:01:f6:28:d5:4e:35:13:
         12:a9:7e:fb:a0:63:c1:5a:aa:60:e4:b7:93:2f:13:56:28:7f:
         bc:06:33:69:4e:04:af:59:a2:fc:1f:e0:40:d0:ab:50:d3:e3:
         e9:f5:69:89:97:2e:f0:81:9d:a1:a4:0c:9e:92:6b:c9:4c:81:
         5a:74:fc:aa:fa:d3:2b:00:10:4e:30:1f:b0:1d:c0:e5:1a:b8:
         a4:d6:f1:a3:93:26:c5:5f:07:ea:c2:ee:9e:1d:76:01:51:db:
         40:5d:b0:65:98:02:70:b3:28:50:44:36:da:2e:52:d4:0a:04:
         5f:ca:c8:8a:99:23:8c:46:7f:ac:cd:26:4a:66:02:aa:b3:37:
         c9:d0:73:98:0c:1d:c1:48:21:cc:78:7d:df:f6:e1:16:e8:0f:
         e4:08:5a:ae:cd:9c:61:15:c5:e3:42:26:10:50:14:28:30:4a:
         cf:9f:a3:c9:1d:11:73:c5:bd:8d:48:a8:43:55:72:67:d0:44:
         35:94:cb:9b:6e:43:84:ee:3a:29:93:c7:7b:79:09:ad:25:11:
         8d:90:f4:f4:72:cf:15:83:86:33:ed:02:88:37:63:f6:29:e5:
         f8:8e:d3:c1:39:fd:6a:19:d9:28:3b:fe:aa:6d:16:b6:a5:c7:
         67:9b:a7:69:33:75:10:e6
-----BEGIN CERTIFICATE-----
MIIGhDCCBGygAwIBAgICATEwDQYJKoZIhvcNAQELBQAwezELMAkGA1UEBhMCZnIx
DDAKBgNVBAgMA2lkZjEOMAwGA1UEBwwFcGFyaXMxDjAMBgNVBAoMBXZpdGFtMRQw
EgYDVQQLDAthdXRob3JpdGllczEoMCYGA1UEAwwfY2FfaW50ZXJtZWRpYXRlX2Ns
aWVudC1leHRlcm5hbDAgFw0yMDA5MTUxMzAxMTNaGA85OTk5MTIzMTIzNTk1OVow
UTELMAkGA1UEBhMCZnIxDDAKBgNVBAgMA2lkZjEOMAwGA1UEBwwFcGFyaXMxDjAM
BgNVBAoMBXZpdGFtMRQwEgYDVQQDDAtpaG0tcmVjZXR0ZTCCAiIwDQYJKoZIhvcN
AQEBBQADggIPADCCAgoCggIBALYW1h2IWIqxZV7zJzVapElsVuZ0nCxd7qKaYKeR
mThRbo5VW2Igls/piE33buSfjV6mnK3Z8fatO3rTtxkp/BTVVdK3yy9yXFzPGZJj
u6UtA4iZnhl7UL5NRdJctPlTwW2f6JBBXZGoiXRFaTpvVjj2w3TlXa+wSkqNw5iL
EVK4cWBNN3OYsvTk0cJE2+K6p8ENs3yZu5mNwia4paZmOajxxE42bMHyOPMSuYjj
hnzzBo2prVYTDHvUsjIqCiGJt1O+Nv7jm2hpseXgUbTiUogrivAVEvsyxX4Ne6Fl
UKM+alm+K1P7aBsSNJWOfIZ4MotOuQuyowknchGy+TmSkfQWH8gY7kCkVXDgnyKv
DYEbZxy6p2zcnOmGD26isO6QeGaqvBYNstghzNcwYDDoMxks+oGIamVIuxij/VFb
3LaskT41SrlRBXhbu+vEyWcSU3GrPcnxjSStiMvSAlVmAOrHkzGgkwDqrA7aHtk5
lDwwsCySYGSYBJvYCDgsq4qy3Iv1pjvZwPJAi4smkexuhZqD2kJaujzZOVcrTRv6
7ShgzVACbZPS2LbllF/mZBgzEKc3goMLTmQnEpYx3DX71yWpQr4oyphg39Ybt1gj
BWg3yz26Ps9WaTkms9IiNDo1Plj5/RgaKquhUE+1zqkClp01l4O36dVFwlKHYK0Y
hVPbAgMBAAGjggE4MIIBNDAkBglghkgBhvhCAQ0EFxYVQ2VydGlmaWNhdCBDbGll
bnQgU1NMMB0GA1UdDgQWBBRMqP+YhRE0ka6s7141wglpv5UPPjCBngYDVR0jBIGW
MIGTgBTRfwDD8JTWy+Ou9yMYLh66U2by+KF3pHUwczELMAkGA1UEBhMCZnIxDDAK
BgNVBAgMA2lkZjEOMAwGA1UEBwwFcGFyaXMxDjAMBgNVBAoMBXZpdGFtMRQwEgYD
VQQLDAthdXRob3JpdGllczEgMB4GA1UEAwwXY2Ffcm9vdF9jbGllbnQtZXh0ZXJu
YWyCAgEtMAkGA1UdEgQCMAAwDAYDVR0TAQH/BAIwADALBgNVHQ8EBAMCB4AwEQYJ
YIZIAYb4QgEBBAQDAgeAMBMGA1UdJQQMMAoGCCsGAQUFBwMCMA0GCSqGSIb3DQEB
CwUAA4ICAQAZDma0H4K2zAr2eFArXrP/OsLnjUndNOpBXJ1wE4b/DAA/AGLEKt9J
jA6sIKg+orbr+jbEJ6xC78Sr/niejucTWZfyiTdNzrzEzmMLp+oos2GlFmwIO5h2
KcGDwy4cTYAb9NoHl4jkBXugBlIZSkWeZC6eJ4uw6z5KmDq+BNPouQuNU57dtzhh
FvVAbg4j+5r/juV9GDiZeqWyg85JPFZBFN88x2F1BOcnfYRlYBp868Dvh6sNozOo
IH9ld/4TJ/te8pQqwhLYkQjLPWPQ/CXGapNpYI9gKpAC4C3y7sxdf52jAqArgNO+
+samZ0HYZIuvfx07i9tAm+7DPpv9h4pEAXRzHl5tNgH2KNVONRMSqX77oGPBWqpg
5LeTLxNWKH+8BjNpTgSvWaL8H+BA0KtQ0+Pp9WmJly7wgZ2hpAyekmvJTIFadPyq
+tMrABBOMB+wHcDlGrik1vGjkybFXwfqwu6eHXYBUdtAXbBlmAJwsyhQRDbaLlLU
CgRfysiKmSOMRn+szSZKZgKqszfJ0HOYDB3BSCHMeH3f9uEW6A/kCFquzZxhFcXj
QiYQUBQoMErPn6PJHRFzxb2NSKhDVXJn0EQ1lMubbkOE7jopk8d7eQmtJRGNkPT0
cs8Vg4Yz7QKIN2P2KeX4jtPBOf1qGdkoO/6qbRa2pcdnm6dpM3UQ5g==
-----END CERTIFICATE-----
