Certificate:
    Data:
        Version: 3 (0x2)
        Serial Number: 291 (0x123)
    Signature Algorithm: sha256WithRSAEncryption
        Issuer: C=fr, ST=idf, L=paris, O=vitam, OU=authorities, CN=ca_intermediate_client-external
        Validity
            Not Before: Feb 22 16:37:09 2018 GMT
            Not After : Feb 21 16:37:09 2021 GMT
        Subject: C=fr, ST=idf, L=paris, O=vitam, CN=ihm-recette
        Subject Public Key Info:
            Public Key Algorithm: rsaEncryption
                Public-Key: (4096 bit)
                Modulus:
                    00:bb:38:45:f1:b4:fc:0c:b4:1a:01:16:b5:a3:38:
                    ba:0e:b8:eb:61:7d:68:54:17:c7:de:0a:60:ca:d3:
                    02:37:f0:b1:79:7b:ba:a2:01:32:fa:03:4e:49:1d:
                    88:8b:e3:2a:e9:a6:d2:69:eb:f6:bd:75:d9:3f:c6:
                    af:c6:3b:35:a6:28:35:f6:2a:06:63:f9:51:b7:de:
                    12:cc:b6:5c:80:6a:ad:af:7a:81:9f:af:da:1a:bb:
                    02:e8:55:f6:aa:f6:bf:89:1d:b3:29:e2:c7:06:8d:
                    6e:3c:24:de:a0:27:7c:0e:aa:52:0c:be:53:1d:88:
                    9e:27:35:a8:df:a7:86:ec:f9:88:bd:73:00:81:86:
                    f4:be:1e:eb:38:50:21:64:bc:ab:bb:e2:51:31:fd:
                    e3:10:36:ee:c2:a9:12:41:33:28:42:49:a9:2c:48:
                    40:78:64:2a:6e:28:f1:aa:6f:48:a7:c0:6d:7b:d8:
                    0e:71:c8:bf:7d:e2:33:42:81:6f:66:85:59:77:fc:
                    63:da:43:25:71:18:44:c4:e9:24:51:02:58:7d:5d:
                    6c:ad:a0:6d:4b:7f:23:75:77:49:c0:47:ca:6b:5b:
                    8c:44:0b:65:41:bb:76:ff:c6:10:de:03:c1:9a:74:
                    63:81:eb:f3:00:e2:97:b8:37:f3:69:6c:43:3a:ca:
                    b7:58:7d:8c:9f:b6:6d:62:4a:1d:24:c2:09:7d:05:
                    70:03:63:29:6d:5e:90:74:2d:cf:61:a1:ec:ce:ae:
                    7a:be:8f:5b:08:d7:ee:98:0b:03:f6:81:a8:16:04:
                    9d:c7:4a:06:62:8a:bb:c4:8e:4e:b2:2c:0a:fd:b9:
                    66:09:e5:7c:62:05:82:d3:e6:69:2f:43:a3:d3:30:
                    12:c7:3e:0e:52:af:8b:db:18:3e:4e:9a:d7:9b:dc:
                    a9:09:02:6c:3b:4e:75:18:ea:db:b2:c7:f8:b4:77:
                    84:0d:2d:f3:46:f8:63:c7:36:4e:6f:a6:90:95:6a:
                    9d:66:17:77:ec:28:02:bb:44:62:5c:2d:db:0e:21:
                    29:e2:5e:43:97:3a:ef:fd:98:36:de:3e:a7:0f:82:
                    ba:02:91:bc:12:80:a2:8a:1c:d3:30:3d:4d:69:63:
                    70:59:81:af:f5:35:05:aa:f3:16:a1:c5:74:a4:8e:
                    9b:83:58:98:34:bd:88:98:47:da:0f:16:f0:8f:08:
                    0c:ec:79:72:76:44:99:32:35:aa:3a:4a:a4:45:44:
                    92:a3:35:5e:99:6c:83:d2:d0:3e:63:5e:cf:c2:48:
                    5a:87:8d:24:f0:db:cc:77:81:f6:09:df:8e:5a:87:
                    f2:cc:52:b0:80:a1:bc:d0:17:68:2d:ca:8e:02:21:
                    3e:36:73
                Exponent: 65537 (0x10001)
        X509v3 extensions:
            Netscape Comment: 
                Certificat Client SSL
            X509v3 Subject Key Identifier: 
                32:8A:C0:FD:98:0B:16:DF:04:AB:AB:3B:ED:55:9D:DB:C0:01:1D:16
            X509v3 Authority Key Identifier: 
                keyid:9C:8B:2B:E0:30:68:BA:20:26:1D:BA:07:A0:48:19:6B:2C:DE:0E:26
                DirName:/C=fr/ST=idf/L=paris/O=vitam/OU=authorities/CN=ca_root_client-external
                serial:FC

            X509v3 Issuer Alternative Name: 
                <EMPTY>

            X509v3 Basic Constraints: critical
                CA:FALSE
            X509v3 Key Usage: 
                Digital Signature, Non Repudiation, Key Encipherment
            Netscape Cert Type: 
                SSL Client
            X509v3 Extended Key Usage: 
                TLS Web Client Authentication
    Signature Algorithm: sha256WithRSAEncryption
         02:83:57:20:48:b1:5a:39:06:e0:87:5f:42:0c:0c:dd:6d:c8:
         85:1e:ce:fe:73:69:35:0d:b5:20:a9:ad:64:7a:09:e0:71:83:
         70:e1:75:c6:1d:04:65:37:58:21:b4:8e:ea:39:35:4f:de:fd:
         29:54:3d:30:3a:74:66:2b:fd:d4:d1:64:8c:fb:5a:7d:37:d2:
         cb:15:18:76:bc:7c:c9:84:d9:0e:4d:25:91:9b:55:87:19:4e:
         f6:56:c9:8c:8f:05:84:aa:2c:ac:21:3a:37:4b:5c:90:be:99:
         94:09:5c:04:ec:a5:c0:a5:63:92:95:76:6d:ba:06:c3:8d:c8:
         ab:0d:1a:de:2f:70:ec:72:92:3b:5c:3d:45:d7:74:13:68:e4:
         01:42:58:6f:2b:d4:5a:75:3f:f1:b9:08:3e:17:00:63:31:82:
         01:ce:d9:32:b1:3b:4a:40:aa:3a:e6:4e:3d:f8:6b:de:9c:cd:
         91:7c:8d:2c:de:74:e7:ae:a0:bc:9a:0d:0c:7f:06:43:8c:5b:
         55:94:8c:78:fe:16:a3:e0:f9:e5:34:8a:f5:bb:76:19:7c:a0:
         da:f8:52:96:45:8c:71:b6:04:a7:47:d3:20:fa:c1:94:c2:6c:
         9f:20:78:3e:67:6e:e8:80:a2:ac:d3:f3:bc:20:c5:a0:23:52:
         f3:c6:d9:b3:c0:db:20:3a:d2:6b:aa:0b:f9:ed:64:84:b2:c3:
         22:6d:b7:7c:a0:45:d7:36:75:3d:d1:17:de:56:6e:a3:e9:50:
         90:7b:75:51:7b:a1:80:ed:74:fd:70:43:70:5d:8e:1c:43:99:
         c2:91:4f:8e:4e:50:12:73:e5:29:86:5d:c5:18:d9:f3:3c:a4:
         31:db:42:c9:63:b3:c4:b3:06:43:98:53:a7:bc:26:15:1b:e6:
         84:f2:67:14:7a:d6:5c:23:bf:8d:c9:62:9c:a9:ed:81:bf:9c:
         8d:e6:14:44:2a:1e:36:a8:64:33:3c:14:01:96:84:95:62:60:
         76:85:db:56:e7:9b:84:67:d4:2e:d3:ff:6f:2b:ae:0d:96:49:
         90:70:94:ae:a4:60:8a:46:72:2b:69:5a:52:3c:89:cc:de:b3:
         70:8a:65:79:b2:fb:4f:0e:cd:8e:95:cb:8e:15:cb:3e:13:45:
         97:9e:01:fb:8c:87:1e:d7:01:2b:80:8c:94:ad:f1:fc:8b:cd:
         70:bd:56:a0:6a:7a:0e:a0:47:87:84:46:97:44:14:66:ef:7d:
         18:83:6c:0b:2c:c3:c5:c4:45:15:32:45:92:17:ae:ce:29:6f:
         43:a9:bf:dd:ee:7a:e4:9b:48:66:88:33:b7:ee:08:24:41:f6:
         4b:c2:a1:6d:cf:28:d5:da
-----BEGIN CERTIFICATE-----
MIIGgjCCBGqgAwIBAgICASMwDQYJKoZIhvcNAQELBQAwezELMAkGA1UEBhMCZnIx
DDAKBgNVBAgMA2lkZjEOMAwGA1UEBwwFcGFyaXMxDjAMBgNVBAoMBXZpdGFtMRQw
EgYDVQQLDAthdXRob3JpdGllczEoMCYGA1UEAwwfY2FfaW50ZXJtZWRpYXRlX2Ns
aWVudC1leHRlcm5hbDAeFw0xODAyMjIxNjM3MDlaFw0yMTAyMjExNjM3MDlaMFEx
CzAJBgNVBAYTAmZyMQwwCgYDVQQIDANpZGYxDjAMBgNVBAcMBXBhcmlzMQ4wDAYD
VQQKDAV2aXRhbTEUMBIGA1UEAwwLaWhtLXJlY2V0dGUwggIiMA0GCSqGSIb3DQEB
AQUAA4ICDwAwggIKAoICAQC7OEXxtPwMtBoBFrWjOLoOuOthfWhUF8feCmDK0wI3
8LF5e7qiATL6A05JHYiL4yrpptJp6/a9ddk/xq/GOzWmKDX2KgZj+VG33hLMtlyA
aq2veoGfr9oauwLoVfaq9r+JHbMp4scGjW48JN6gJ3wOqlIMvlMdiJ4nNajfp4bs
+Yi9cwCBhvS+Hus4UCFkvKu74lEx/eMQNu7CqRJBMyhCSaksSEB4ZCpuKPGqb0in
wG172A5xyL994jNCgW9mhVl3/GPaQyVxGETE6SRRAlh9XWytoG1LfyN1d0nAR8pr
W4xEC2VBu3b/xhDeA8GadGOB6/MA4pe4N/NpbEM6yrdYfYyftm1iSh0kwgl9BXAD
YyltXpB0Lc9hoezOrnq+j1sI1+6YCwP2gagWBJ3HSgZiirvEjk6yLAr9uWYJ5Xxi
BYLT5mkvQ6PTMBLHPg5Sr4vbGD5Omteb3KkJAmw7TnUY6tuyx/i0d4QNLfNG+GPH
Nk5vppCVap1mF3fsKAK7RGJcLdsOISniXkOXOu/9mDbePqcPgroCkbwSgKKKHNMw
PU1pY3BZga/1NQWq8xahxXSkjpuDWJg0vYiYR9oPFvCPCAzseXJ2RJkyNao6SqRF
RJKjNV6ZbIPS0D5jXs/CSFqHjSTw28x3gfYJ345ah/LMUrCAobzQF2gtyo4CIT42
cwIDAQABo4IBODCCATQwJAYJYIZIAYb4QgENBBcWFUNlcnRpZmljYXQgQ2xpZW50
IFNTTDAdBgNVHQ4EFgQUMorA/ZgLFt8Eq6s77VWd28ABHRYwgZ4GA1UdIwSBljCB
k4AUnIsr4DBouiAmHboHoEgZayzeDiahd6R1MHMxCzAJBgNVBAYTAmZyMQwwCgYD
VQQIDANpZGYxDjAMBgNVBAcMBXBhcmlzMQ4wDAYDVQQKDAV2aXRhbTEUMBIGA1UE
CwwLYXV0aG9yaXRpZXMxIDAeBgNVBAMMF2NhX3Jvb3RfY2xpZW50LWV4dGVybmFs
ggIA/DAJBgNVHRIEAjAAMAwGA1UdEwEB/wQCMAAwCwYDVR0PBAQDAgXgMBEGCWCG
SAGG+EIBAQQEAwIHgDATBgNVHSUEDDAKBggrBgEFBQcDAjANBgkqhkiG9w0BAQsF
AAOCAgEAAoNXIEixWjkG4IdfQgwM3W3IhR7O/nNpNQ21IKmtZHoJ4HGDcOF1xh0E
ZTdYIbSO6jk1T979KVQ9MDp0Ziv91NFkjPtafTfSyxUYdrx8yYTZDk0lkZtVhxlO
9lbJjI8FhKosrCE6N0tckL6ZlAlcBOylwKVjkpV2bboGw43Iqw0a3i9w7HKSO1w9
Rdd0E2jkAUJYbyvUWnU/8bkIPhcAYzGCAc7ZMrE7SkCqOuZOPfhr3pzNkXyNLN50
566gvJoNDH8GQ4xbVZSMeP4Wo+D55TSK9bt2GXyg2vhSlkWMcbYEp0fTIPrBlMJs
nyB4Pmdu6ICirNPzvCDFoCNS88bZs8DbIDrSa6oL+e1khLLDIm23fKBF1zZ1PdEX
3lZuo+lQkHt1UXuhgO10/XBDcF2OHEOZwpFPjk5QEnPlKYZdxRjZ8zykMdtCyWOz
xLMGQ5hTp7wmFRvmhPJnFHrWXCO/jclinKntgb+cjeYURCoeNqhkMzwUAZaElWJg
doXbVuebhGfULtP/byuuDZZJkHCUrqRgikZyK2laUjyJzN6zcIplebL7Tw7NjpXL
jhXLPhNFl54B+4yHHtcBK4CMlK3x/IvNcL1WoGp6DqBHh4RGl0QUZu99GINsCyzD
xcRFFTJFkheuzilvQ6m/3e565JtIZogzt+4IJEH2S8Khbc8o1do=
-----END CERTIFICATE-----
