Certificate:
    Data:
        Version: 3 (0x2)
        Serial Number: 228 (0xe4)
    Signature Algorithm: sha256WithRSAEncryption
        Issuer: C=FR, ST=idf, L=paris, O=Vitam., CN=CA_client-external
        Validity
            Not Before: Mar  6 18:04:19 2017 GMT
            Not After : Mar  5 18:04:19 2020 GMT
        Subject: C=FR, ST=idf, L=paris, O=Vitam., CN=ihm-recette
        Subject Public Key Info:
            Public Key Algorithm: rsaEncryption
                Public-Key: (4096 bit)
                Modulus:
                    00:cf:76:59:33:ae:ed:20:84:71:60:ca:88:42:ff:
                    0b:1b:a9:ca:48:65:29:8f:12:e2:ff:67:ea:bc:2a:
                    ef:9c:4b:91:c2:c0:b8:6f:ec:77:94:e8:6d:be:9e:
                    7c:4b:0b:5d:82:dc:02:3f:5b:a2:8f:ac:04:5f:32:
                    54:c3:0b:f5:10:1b:b2:a6:b8:a1:29:5e:1a:2a:7f:
                    2c:29:1e:da:31:05:01:eb:93:d1:68:16:96:85:7a:
                    97:71:65:3e:56:25:d8:e8:a4:3c:ea:e6:df:34:7d:
                    d5:e0:f9:6b:1c:af:2b:9a:43:3b:15:02:fc:20:7e:
                    8a:95:eb:f6:04:dd:21:dd:1d:95:46:e6:e7:c3:ce:
                    1f:7f:3d:98:67:29:56:98:79:0f:c8:e9:92:3a:a5:
                    c4:a0:fe:d4:dd:9a:31:4d:02:0b:a9:12:35:2a:d6:
                    4a:38:f1:77:16:a6:10:c7:56:91:83:be:20:f7:9c:
                    57:b8:24:dc:b1:77:26:17:98:59:ed:fb:70:ff:ac:
                    67:80:f3:c1:a3:4b:bb:67:68:1b:59:81:08:18:a1:
                    4b:4b:06:5f:0b:9c:fc:1a:bd:50:af:28:3f:a4:bf:
                    c0:b8:12:f3:36:53:b6:92:fe:d5:0f:7f:2e:24:d4:
                    4f:03:82:56:54:f4:e2:46:da:3f:e0:44:90:18:53:
                    2f:7f:8c:84:b4:28:cf:05:58:ce:22:f8:71:20:2a:
                    49:ed:43:28:4b:50:f9:e0:c0:b0:a7:35:83:03:ea:
                    9d:b2:a5:40:66:1b:4f:28:92:0f:46:1e:b9:3a:34:
                    b3:0a:40:e1:f1:6c:39:88:02:41:fd:55:44:df:0e:
                    02:ba:d3:4e:bd:3d:0f:fe:4c:86:f3:0a:d6:2c:72:
                    33:79:79:7b:c1:af:90:ce:00:8d:ff:5a:2f:c5:17:
                    cc:8a:6a:56:8a:3f:51:1a:41:33:af:bb:2c:fb:c7:
                    7d:2e:aa:c3:36:dc:24:62:13:6a:48:94:b8:6b:13:
                    55:72:15:2f:55:95:ce:b5:f4:b5:32:fd:2f:42:f5:
                    45:40:a7:09:b4:af:fb:81:1a:c1:aa:39:bc:d4:ba:
                    68:2a:57:d9:6c:91:3d:5d:05:08:84:d1:6d:79:7e:
                    78:75:ca:ff:b1:62:cf:86:ed:62:29:74:61:2c:21:
                    9a:7e:bd:2f:3a:da:78:ca:2a:12:0c:17:b2:d0:0d:
                    38:12:a5:27:1e:83:bf:1f:83:cf:dc:ca:db:63:bc:
                    e4:e0:12:af:a8:89:bd:e3:8e:fc:fb:9e:45:b0:14:
                    5d:d4:77:cb:28:50:5d:47:17:f9:0c:e4:a3:1b:ed:
                    56:f2:3a:6b:ed:ac:dc:fa:9e:00:46:eb:8c:60:c7:
                    7c:ec:73
                Exponent: 65537 (0x10001)
        X509v3 extensions:
            Netscape Comment: 
                Certificat Client SSL
            X509v3 Subject Key Identifier: 
                47:6C:A3:69:7B:37:56:28:97:3E:48:25:32:75:04:BD:26:4A:3F:96
            X509v3 Authority Key Identifier: 
                keyid:36:48:CC:91:59:E7:8F:3D:F0:2E:12:2E:1C:47:64:26:7B:CF:4D:54
                DirName:/C=FR/ST=idf/L=paris/O=Vitam./CN=CA_client-external
                serial:E2

            X509v3 Issuer Alternative Name: 
                <EMPTY>

            X509v3 Subject Alternative Name: 
                DNS:ingest-external.service.consul
            X509v3 Basic Constraints: critical
                CA:FALSE
            X509v3 Key Usage: 
                Digital Signature, Non Repudiation, Key Encipherment
            Netscape Cert Type: 
                SSL Client
            X509v3 Extended Key Usage: 
                TLS Web Client Authentication
    Signature Algorithm: sha256WithRSAEncryption
         c2:0a:0d:2a:6a:1d:5c:f6:a2:ec:ed:ce:c3:a1:4b:db:9b:db:
         5b:0e:25:a4:04:8f:ac:5d:c0:71:a7:5b:83:c3:68:af:7a:e0:
         ee:a1:81:66:89:c0:76:01:5f:e6:b4:d4:53:07:b7:c4:02:7b:
         bb:cd:ef:5e:b8:5c:ac:89:11:62:58:07:25:99:6a:5e:1a:ce:
         68:e2:6c:65:3c:fb:06:b5:90:05:2a:f5:5c:e5:2f:f2:c0:0b:
         ce:8f:e2:a1:96:f4:3d:a9:e9:24:25:da:5a:7d:f6:4b:d8:03:
         00:09:da:e7:56:a2:ec:25:d1:9f:aa:07:0e:b6:4d:61:5f:9e:
         b4:13:a3:c7:18:55:42:a1:b9:69:f7:ac:bb:75:3b:04:11:a2:
         1e:24:0f:09:d7:bb:0f:d4:8a:cf:76:e8:07:c0:64:f9:38:07:
         c8:be:e6:f6:94:e2:4e:a8:4a:9d:96:67:28:a6:b5:b1:c5:cb:
         77:e6:b5:0e:34:b2:ae:ae:58:f4:9a:e6:7b:21:1e:a8:63:e5:
         79:24:59:03:14:95:fa:c1:27:78:65:15:a7:e3:e9:f6:2b:79:
         be:dd:33:57:dd:86:42:52:27:d5:28:10:a6:84:71:9d:8f:ef:
         65:02:77:d3:7c:da:49:07:e0:d7:45:82:55:ef:28:2a:e4:d8:
         cd:7a:c5:2e:7b:fb:80:80:30:ec:88:15:4c:7b:89:a2:34:c9:
         5f:f4:9d:6d:7a:48:cc:a3:6a:13:82:66:20:9a:4f:c5:35:1b:
         f1:6a:64:9f:39:3d:9d:74:46:86:aa:9e:98:18:c1:df:65:12:
         f7:56:62:1c:17:6b:19:d4:e4:b2:d4:19:6b:28:a6:8f:55:d3:
         6f:a8:55:8a:36:7b:a0:a9:77:36:a1:55:fa:8a:49:6e:f1:f7:
         28:0d:1d:13:da:e9:1a:b7:7c:56:65:75:4f:92:d3:5c:88:6a:
         65:86:7f:4d:48:dd:98:1f:52:29:44:86:32:6e:48:8c:72:7d:
         97:2a:66:f4:c2:1d:2e:00:68:5b:9e:56:27:e8:64:3c:de:a5:
         2a:7d:01:ab:63:a3:4a:82:ad:a3:cf:2a:55:24:25:45:28:fd:
         f8:d6:f1:19:b2:f9:d8:9f:91:70:41:0d:c2:23:0b:d5:fd:b0:
         61:93:3c:ea:39:28:54:74:f2:d8:93:24:06:0b:0a:65:d4:32:
         e8:e5:5f:7b:ea:77:44:54:7f:b1:8f:35:4f:a7:79:ca:a0:5c:
         62:9f:07:65:78:7e:da:04:a2:dc:2d:80:9a:18:ef:c7:12:aa:
         91:82:b6:90:22:4b:61:67:c1:9a:9d:b5:00:c1:f4:6a:eb:dc:
         95:b7:30:8a:9e:3d:78:41
-----BEGIN CERTIFICATE-----
MIIGcDCCBFigAwIBAgICAOQwDQYJKoZIhvcNAQELBQAwWTELMAkGA1UEBhMCRlIx
DDAKBgNVBAgMA2lkZjEOMAwGA1UEBwwFcGFyaXMxDzANBgNVBAoMBlZpdGFtLjEb
MBkGA1UEAwwSQ0FfY2xpZW50LWV4dGVybmFsMB4XDTE3MDMwNjE4MDQxOVoXDTIw
MDMwNTE4MDQxOVowUjELMAkGA1UEBhMCRlIxDDAKBgNVBAgMA2lkZjEOMAwGA1UE
BwwFcGFyaXMxDzANBgNVBAoMBlZpdGFtLjEUMBIGA1UEAwwLaWhtLXJlY2V0dGUw
ggIiMA0GCSqGSIb3DQEBAQUAA4ICDwAwggIKAoICAQDPdlkzru0ghHFgyohC/wsb
qcpIZSmPEuL/Z+q8Ku+cS5HCwLhv7HeU6G2+nnxLC12C3AI/W6KPrARfMlTDC/UQ
G7KmuKEpXhoqfywpHtoxBQHrk9FoFpaFepdxZT5WJdjopDzq5t80fdXg+Wscryua
QzsVAvwgfoqV6/YE3SHdHZVG5ufDzh9/PZhnKVaYeQ/I6ZI6pcSg/tTdmjFNAgup
EjUq1ko48XcWphDHVpGDviD3nFe4JNyxdyYXmFnt+3D/rGeA88GjS7tnaBtZgQgY
oUtLBl8LnPwavVCvKD+kv8C4EvM2U7aS/tUPfy4k1E8DglZU9OJG2j/gRJAYUy9/
jIS0KM8FWM4i+HEgKkntQyhLUPngwLCnNYMD6p2ypUBmG08okg9GHrk6NLMKQOHx
bDmIAkH9VUTfDgK60069PQ/+TIbzCtYscjN5eXvBr5DOAI3/Wi/FF8yKalaKP1Ea
QTOvuyz7x30uqsM23CRiE2pIlLhrE1VyFS9Vlc619LUy/S9C9UVApwm0r/uBGsGq
ObzUumgqV9lskT1dBQiE0W15fnh1yv+xYs+G7WIpdGEsIZp+vS862njKKhIMF7LQ
DTgSpSceg78fg8/cyttjvOTgEq+oib3jjvz7nkWwFF3Ud8soUF1HF/kM5KMb7Vby
OmvtrNz6ngBG64xgx3zscwIDAQABo4IBRzCCAUMwJAYJYIZIAYb4QgENBBcWFUNl
cnRpZmljYXQgQ2xpZW50IFNTTDAdBgNVHQ4EFgQUR2yjaXs3ViiXPkglMnUEvSZK
P5YwgYIGA1UdIwR7MHmAFDZIzJFZ54898C4SLhxHZCZ7z01UoV2kWzBZMQswCQYD
VQQGEwJGUjEMMAoGA1UECAwDaWRmMQ4wDAYDVQQHDAVwYXJpczEPMA0GA1UECgwG
Vml0YW0uMRswGQYDVQQDDBJDQV9jbGllbnQtZXh0ZXJuYWyCAgDiMAkGA1UdEgQC
MAAwKQYDVR0RBCIwIIIeaW5nZXN0LWV4dGVybmFsLnNlcnZpY2UuY29uc3VsMAwG
A1UdEwEB/wQCMAAwCwYDVR0PBAQDAgXgMBEGCWCGSAGG+EIBAQQEAwIHgDATBgNV
HSUEDDAKBggrBgEFBQcDAjANBgkqhkiG9w0BAQsFAAOCAgEAwgoNKmodXPai7O3O
w6FL25vbWw4lpASPrF3Acadbg8Nor3rg7qGBZonAdgFf5rTUUwe3xAJ7u83vXrhc
rIkRYlgHJZlqXhrOaOJsZTz7BrWQBSr1XOUv8sALzo/ioZb0PanpJCXaWn32S9gD
AAna51ai7CXRn6oHDrZNYV+etBOjxxhVQqG5afesu3U7BBGiHiQPCde7D9SKz3bo
B8Bk+TgHyL7m9pTiTqhKnZZnKKa1scXLd+a1DjSyrq5Y9JrmeyEeqGPleSRZAxSV
+sEneGUVp+Pp9it5vt0zV92GQlIn1SgQpoRxnY/vZQJ303zaSQfg10WCVe8oKuTY
zXrFLnv7gIAw7IgVTHuJojTJX/SdbXpIzKNqE4JmIJpPxTUb8Wpknzk9nXRGhqqe
mBjB32US91ZiHBdrGdTkstQZayimj1XTb6hVijZ7oKl3NqFV+opJbvH3KA0dE9rp
Grd8VmV1T5LTXIhqZYZ/TUjdmB9SKUSGMm5IjHJ9lypm9MIdLgBoW55WJ+hkPN6l
Kn0Bq2OjSoKto88qVSQlRSj9+NbxGbL52J+RcEENwiML1f2wYZM86jkoVHTy2JMk
BgsKZdQy6OVfe+p3RFR/sY81T6d5yqBcYp8HZXh+2gSi3C2AmhjvxxKqkYK2kCJL
YWfBmp21AMH0auvclbcwip49eEE=
-----END CERTIFICATE-----
