Certificate:
    Data:
        Version: 3 (0x2)
        Serial Number: 252 (0xfc)
    Signature Algorithm: sha256WithRSAEncryption
        Issuer: C=fr, ST=idf, L=paris, O=vitam, OU=authorities, CN=ca_root_client-external
        Validity
            Not Before: Feb  5 12:46:56 2018 GMT
            Not After : Feb  3 12:46:56 2028 GMT
        Subject: C=fr, ST=idf, L=paris, O=vitam, OU=authorities, CN=ca_intermediate_client-external
        Subject Public Key Info:
            Public Key Algorithm: rsaEncryption
                Public-Key: (4096 bit)
                Modulus:
                    00:a4:bc:fe:b2:42:a4:b5:eb:84:34:c4:f7:83:ef:
                    ba:83:3e:ab:61:d1:46:94:5c:55:fa:98:4b:22:73:
                    8c:9c:f2:0c:49:09:b0:c6:dc:6a:d6:d6:d3:81:8c:
                    dc:f2:5b:7d:b5:d8:ce:72:b5:cf:9a:02:c4:1f:87:
                    4b:37:fe:6a:4c:46:d2:3e:f0:38:3c:ba:4e:56:44:
                    e5:1a:6f:53:bf:2c:f9:8a:9d:75:27:48:b1:be:9d:
                    1f:e6:fd:23:60:c1:af:c4:e8:bc:38:34:d1:8f:79:
                    a3:2d:6e:29:a1:7f:e4:50:0b:ed:2a:af:ea:21:f9:
                    f4:38:24:01:0f:99:b4:5e:71:1e:9c:78:fa:c8:19:
                    6f:bf:e6:1b:ad:60:67:3e:09:06:53:da:27:61:48:
                    9b:bf:73:6f:ab:6d:9e:2c:5f:49:d7:f9:9f:ca:52:
                    55:f0:38:4e:9c:16:66:a9:c8:ec:2e:10:0e:61:69:
                    0f:8e:da:6a:72:65:f7:0e:4c:8d:d0:78:f9:18:a3:
                    f4:76:ff:ce:e3:76:82:2c:6a:5b:f0:f4:24:90:15:
                    62:35:6f:37:e1:04:9d:fa:26:26:ed:c8:6f:2f:e6:
                    94:6b:cd:8e:55:7c:36:ec:38:36:9b:03:96:d4:9f:
                    53:bf:87:49:a1:73:78:87:3e:d8:21:7d:4d:b7:33:
                    e5:33:0c:d3:78:57:9f:a1:76:20:97:b5:43:8b:ea:
                    c5:6e:31:8f:7e:f1:93:58:6d:d9:7f:d6:55:67:e2:
                    2e:da:41:d3:4d:fa:68:ba:22:8e:66:2f:09:39:5e:
                    c4:1c:70:df:78:c8:3f:9c:3e:74:50:c2:7a:0a:45:
                    22:dc:05:3c:7d:e1:72:6b:ff:2e:d9:22:14:13:a0:
                    1a:d0:dc:bb:18:bf:b0:38:c4:60:e8:22:46:17:42:
                    59:4f:f2:a1:89:a1:0a:31:b6:67:dc:1b:22:25:f1:
                    b0:39:22:36:7b:bc:7f:d7:16:88:d3:f0:3b:8e:2c:
                    01:a0:d5:9a:fb:a7:44:9a:f5:bd:d1:67:e5:ca:a5:
                    bf:bb:c6:d4:a7:0d:a8:96:f9:84:0d:9b:93:2e:65:
                    8f:cc:11:27:9a:56:26:f2:99:a1:6c:3e:52:f0:92:
                    0c:0a:cb:95:a0:1d:d1:45:b9:19:66:7d:11:d4:1f:
                    d1:3b:09:bc:40:b4:e8:6b:2b:b5:68:18:33:f3:80:
                    9b:12:7e:99:28:e4:55:2f:1c:a0:f6:49:e4:6c:7f:
                    98:bf:7a:5d:f9:7d:21:f8:59:7a:e3:ec:c2:86:3f:
                    e4:8c:99:69:84:c8:cf:48:d7:d8:0a:7e:7c:3b:bb:
                    fc:9d:3d:c3:69:ee:43:41:1a:00:0e:80:41:fe:3c:
                    a8:84:7b
                Exponent: 65537 (0x10001)
        X509v3 extensions:
            Netscape Comment: 
                CA Intermediate
            X509v3 Subject Key Identifier: 
                99:4E:FD:BA:7D:CF:EE:E1:A9:EA:F5:DA:73:BD:4A:D1:46:DA:D7:7C
            X509v3 Authority Key Identifier: 
                keyid:6C:9F:46:DC:62:A7:17:86:0A:8B:F4:D7:65:53:38:8C:25:23:AE:25
                DirName:/C=fr/ST=idf/L=paris/O=vitam/OU=authorities/CN=ca_root_client-external
                serial:FB

            X509v3 Basic Constraints: critical
                CA:TRUE, pathlen:0
            X509v3 Issuer Alternative Name: 
                <EMPTY>

            X509v3 Key Usage: 
                Certificate Sign, CRL Sign
            Netscape Cert Type: 
                SSL CA
    Signature Algorithm: sha256WithRSAEncryption
         3c:1f:ea:ef:6e:52:d4:0d:ea:8a:6d:ba:de:fa:d9:8d:c7:21:
         8c:68:ca:08:e1:4f:f5:95:5a:87:38:53:62:76:e6:68:e5:c4:
         fb:0c:ff:0d:1d:5f:96:5a:bf:79:55:fb:07:7b:56:68:7d:3a:
         a7:85:d4:72:70:3b:d6:0e:05:69:78:2c:37:21:c6:e1:06:42:
         79:79:31:71:3f:b1:48:77:11:fb:d2:3a:36:e9:48:71:fa:d3:
         00:a5:ac:2a:e9:98:ed:df:df:46:c3:a6:f0:86:7c:7c:92:d6:
         d2:86:ae:f3:4d:4d:7e:35:eb:c1:a7:fe:a5:90:63:40:83:37:
         2f:88:5e:cf:b3:f1:46:0d:8a:3e:26:ed:bc:6f:43:0a:d5:65:
         51:04:dd:da:ef:d5:6f:eb:27:f2:12:aa:e1:34:5e:1d:34:36:
         ab:a6:61:0a:5b:c5:dd:bb:f1:95:f0:04:ab:e0:30:f9:3e:28:
         1d:79:90:84:c1:d7:d3:f9:54:ee:22:94:c0:fd:8c:29:89:ad:
         27:f4:73:39:91:77:23:5e:2f:d2:9c:bd:ce:2b:4d:ba:63:e7:
         77:31:55:f5:70:c4:1d:fe:47:2b:ae:45:eb:88:b6:62:b7:51:
         29:bb:c4:b4:7b:10:bb:7d:01:93:70:88:ea:66:3a:16:99:33:
         8b:46:c0:f7:c5:ac:6f:4a:de:01:7a:24:e0:27:60:5a:92:7a:
         0c:47:8d:5c:51:51:00:58:dc:67:18:96:aa:bb:df:74:d1:5d:
         50:c6:6f:15:39:22:45:87:b2:31:05:e3:5b:a2:e9:e8:87:8e:
         ea:b0:1f:bd:52:d3:5a:27:6b:35:dd:1f:2f:37:12:f5:88:74:
         19:47:74:32:df:1b:34:48:b2:42:de:38:3a:71:8f:21:d9:78:
         62:f8:ec:31:e5:13:0c:56:7a:1b:1f:72:70:76:49:97:6a:b1:
         81:44:bd:75:bb:e5:e9:d1:7f:40:d0:cb:2f:73:d0:c7:3b:c5:
         20:b1:81:b7:12:57:cd:45:24:a4:ca:70:ac:ba:44:77:8b:1f:
         22:f6:5f:e1:f7:bf:7c:2e:e9:af:6e:df:f6:e8:f1:0a:45:7e:
         4d:ab:d5:81:90:d1:74:40:b4:da:43:bc:27:b8:31:02:e0:b2:
         d5:8d:50:d8:03:4d:02:e5:83:d2:c3:b9:84:bf:d2:02:2e:1c:
         a1:14:7f:a5:6c:32:c4:87:7e:90:40:f6:ef:45:f8:a8:a0:a8:
         5a:ea:ff:fa:c2:fc:ea:c6:3c:b3:21:2d:09:0c:dd:07:de:ce:
         c2:1c:c8:30:76:6f:a5:b6:59:02:5f:f4:da:4c:6b:fd:64:c3:
         c0:13:a7:6e:14:01:e0:e3
-----BEGIN CERTIFICATE-----
MIIGjzCCBHegAwIBAgICAPwwDQYJKoZIhvcNAQELBQAwczELMAkGA1UEBhMCZnIx
DDAKBgNVBAgMA2lkZjEOMAwGA1UEBwwFcGFyaXMxDjAMBgNVBAoMBXZpdGFtMRQw
EgYDVQQLDAthdXRob3JpdGllczEgMB4GA1UEAwwXY2Ffcm9vdF9jbGllbnQtZXh0
ZXJuYWwwHhcNMTgwMjA1MTI0NjU2WhcNMjgwMjAzMTI0NjU2WjB7MQswCQYDVQQG
EwJmcjEMMAoGA1UECAwDaWRmMQ4wDAYDVQQHDAVwYXJpczEOMAwGA1UECgwFdml0
YW0xFDASBgNVBAsMC2F1dGhvcml0aWVzMSgwJgYDVQQDDB9jYV9pbnRlcm1lZGlh
dGVfY2xpZW50LWV4dGVybmFsMIICIjANBgkqhkiG9w0BAQEFAAOCAg8AMIICCgKC
AgEApLz+skKkteuENMT3g++6gz6rYdFGlFxV+phLInOMnPIMSQmwxtxq1tbTgYzc
8lt9tdjOcrXPmgLEH4dLN/5qTEbSPvA4PLpOVkTlGm9Tvyz5ip11J0ixvp0f5v0j
YMGvxOi8ODTRj3mjLW4poX/kUAvtKq/qIfn0OCQBD5m0XnEenHj6yBlvv+YbrWBn
PgkGU9onYUibv3Nvq22eLF9J1/mfylJV8DhOnBZmqcjsLhAOYWkPjtpqcmX3DkyN
0Hj5GKP0dv/O43aCLGpb8PQkkBViNW834QSd+iYm7chvL+aUa82OVXw27Dg2mwOW
1J9Tv4dJoXN4hz7YIX1NtzPlMwzTeFefoXYgl7VDi+rFbjGPfvGTWG3Zf9ZVZ+Iu
2kHTTfpouiKOZi8JOV7EHHDfeMg/nD50UMJ6CkUi3AU8feFya/8u2SIUE6Aa0Ny7
GL+wOMRg6CJGF0JZT/KhiaEKMbZn3BsiJfGwOSI2e7x/1xaI0/A7jiwBoNWa+6dE
mvW90WflyqW/u8bUpw2olvmEDZuTLmWPzBEnmlYm8pmhbD5S8JIMCsuVoB3RRbkZ
Zn0R1B/ROwm8QLToayu1aBgz84CbEn6ZKORVLxyg9knkbH+Yv3pd+X0h+Fl64+zC
hj/kjJlphMjPSNfYCn58O7v8nT3Dae5DQRoADoBB/jyohHsCAwEAAaOCASMwggEf
MB4GCWCGSAGG+EIBDQQRFg9DQSBJbnRlcm1lZGlhdGUwHQYDVR0OBBYEFJlO/bp9
z+7hqer12nO9StFG2td8MIGeBgNVHSMEgZYwgZOAFGyfRtxipxeGCov012VTOIwl
I64loXekdTBzMQswCQYDVQQGEwJmcjEMMAoGA1UECAwDaWRmMQ4wDAYDVQQHDAVw
YXJpczEOMAwGA1UECgwFdml0YW0xFDASBgNVBAsMC2F1dGhvcml0aWVzMSAwHgYD
VQQDDBdjYV9yb290X2NsaWVudC1leHRlcm5hbIICAPswEgYDVR0TAQH/BAgwBgEB
/wIBADAJBgNVHRIEAjAAMAsGA1UdDwQEAwIBBjARBglghkgBhvhCAQEEBAMCAgQw
DQYJKoZIhvcNAQELBQADggIBADwf6u9uUtQN6optut762Y3HIYxoygjhT/WVWoc4
U2J25mjlxPsM/w0dX5Zav3lV+wd7Vmh9OqeF1HJwO9YOBWl4LDchxuEGQnl5MXE/
sUh3EfvSOjbpSHH60wClrCrpmO3f30bDpvCGfHyS1tKGrvNNTX4168Gn/qWQY0CD
Ny+IXs+z8UYNij4m7bxvQwrVZVEE3drv1W/rJ/ISquE0Xh00NqumYQpbxd278ZXw
BKvgMPk+KB15kITB19P5VO4ilMD9jCmJrSf0czmRdyNeL9Kcvc4rTbpj53cxVfVw
xB3+RyuuReuItmK3USm7xLR7ELt9AZNwiOpmOhaZM4tGwPfFrG9K3gF6JOAnYFqS
egxHjVxRUQBY3GcYlqq733TRXVDGbxU5IkWHsjEF41ui6eiHjuqwH71S01onazXd
Hy83EvWIdBlHdDLfGzRIskLeODpxjyHZeGL47DHlEwxWehsfcnB2SZdqsYFEvXW7
5enRf0DQyy9z0Mc7xSCxgbcSV81FJKTKcKy6RHeLHyL2X+H3v3wu6a9u3/bo8QpF
fk2r1YGQ0XRAtNpDvCe4MQLgstWNUNgDTQLlg9LDuYS/0gIuHKEUf6VsMsSHfpBA
9u9F+KigqFrq//rC/OrGPLMhLQkM3QfezsIcyDB2b6W2WQJf9NpMa/1kw8ATp24U
AeDj
-----END CERTIFICATE-----
