Certificate:
    Data:
        Version: 3 (0x2)
        Serial Number: 236 (0xec)
    Signature Algorithm: sha256WithRSAEncryption
        Issuer: C=fr, ST=idf, L=paris, O=vitam, OU=authorities, CN=ca_root_client-external
        Validity
            Not Before: Jul 12 14:29:02 2017 GMT
            Not After : Jul 10 14:29:02 2027 GMT
        Subject: C=fr, ST=idf, L=paris, O=vitam, OU=authorities, CN=ca_intermediate_client-external
        Subject Public Key Info:
            Public Key Algorithm: rsaEncryption
                Public-Key: (4096 bit)
                Modulus:
                    00:bc:ca:2b:b5:ae:ac:a7:1a:4e:17:61:e8:e4:e3:
                    05:05:94:3b:34:0d:ca:00:f3:51:69:7d:cc:1f:48:
                    f3:c0:28:50:6f:4b:89:06:d4:e5:18:22:2a:a6:61:
                    e8:4f:ad:9a:ca:9c:c5:bb:26:48:59:af:df:b9:16:
                    ac:b1:b4:ae:69:c3:22:f0:26:3e:1b:65:60:8e:cc:
                    2a:9f:5c:fe:cf:8c:c2:de:1a:43:9f:08:20:8c:3a:
                    23:f9:39:a6:f8:d1:66:51:2d:5b:84:bc:b8:2d:fa:
                    17:f0:a3:85:fe:06:8c:47:7f:3e:a7:5d:eb:bc:66:
                    60:9b:51:8a:c9:47:f8:eb:8a:7b:0d:2b:60:ee:5e:
                    a1:be:8f:a5:9e:dc:45:e9:8c:ff:7c:20:6c:f0:47:
                    2a:d6:68:2a:e4:d1:44:1c:00:97:02:a6:8b:2e:49:
                    88:44:8b:d2:8a:13:4a:ae:36:2b:9c:29:59:28:5f:
                    5c:df:a9:3c:af:23:21:a7:68:ce:93:4f:f8:ce:11:
                    86:c5:7d:09:6b:a8:69:55:ae:19:31:0f:e2:1b:a9:
                    ff:f9:93:a8:81:a4:74:f7:d0:b1:e8:6f:f3:50:2a:
                    d6:8d:9a:ff:8d:b5:31:46:05:4a:0c:d5:04:91:14:
                    af:52:06:c0:c5:c1:91:3e:68:14:6b:95:f3:7f:c3:
                    dd:c9:7e:42:5c:8f:b6:24:1e:7f:c0:02:85:07:fe:
                    98:2b:25:5d:b3:b8:b9:43:0f:6f:69:54:09:d8:23:
                    43:9f:85:f6:2b:6c:9a:b2:67:f6:80:58:e6:25:45:
                    5b:f8:51:7d:ad:de:9d:00:08:50:5a:3d:50:6b:83:
                    2c:b7:b0:da:39:b8:a9:a1:ce:8d:be:cc:5a:ae:b1:
                    ff:1d:8b:58:df:d9:56:ed:e9:83:e0:11:8a:d6:3b:
                    ee:4c:6b:95:64:3c:10:fe:b1:b7:11:9b:db:03:f1:
                    5c:04:90:28:ca:82:e6:54:b7:11:c7:01:60:a6:2e:
                    ff:4d:2e:37:c1:49:12:3c:b6:dd:91:f8:11:e5:d1:
                    78:41:2a:14:5f:11:41:03:79:08:87:dd:cb:70:31:
                    2a:b8:64:63:65:50:eb:26:34:60:ae:b7:5a:b6:61:
                    e6:a8:f9:38:8a:4d:66:5d:23:dd:03:1a:cf:27:88:
                    a3:1e:b2:80:43:55:87:f5:f0:09:7d:6d:eb:90:a0:
                    30:52:f3:7d:38:c1:d9:1e:48:ea:54:96:e5:a4:39:
                    75:62:41:14:60:5b:65:d3:2a:fb:b9:9f:8a:06:05:
                    d5:6e:a4:ca:2a:1c:9e:5a:d2:c2:69:dc:42:0f:65:
                    8c:f4:e7:19:69:60:0a:da:52:58:65:77:d8:ea:63:
                    66:d8:9d
                Exponent: 65537 (0x10001)
        X509v3 extensions:
            Netscape Comment: 
                CA Intermediate
            X509v3 Subject Key Identifier: 
                9F:47:4A:13:86:86:E6:CE:B1:7D:B0:A9:CD:A8:A0:9D:7D:A6:A5:F1
            X509v3 Authority Key Identifier: 
                keyid:B7:78:0B:A8:74:C8:BB:D2:2B:8B:73:DB:5D:D6:3B:05:88:F3:16:6F
                DirName:/C=fr/ST=idf/L=paris/O=vitam/OU=authorities/CN=ca_root_client-external
                serial:EB

            X509v3 Basic Constraints: critical
                CA:TRUE, pathlen:0
            X509v3 Issuer Alternative Name: 
                <EMPTY>

            X509v3 Key Usage: 
                Certificate Sign, CRL Sign
            Netscape Cert Type: 
                SSL CA
    Signature Algorithm: sha256WithRSAEncryption
         ac:b9:da:c6:79:94:f6:88:72:1e:ea:f3:0c:df:74:36:f7:c9:
         9b:19:f6:99:72:18:07:b2:81:f5:6f:b6:79:f2:ff:cf:ab:84:
         01:33:06:50:20:82:1b:05:55:c4:32:18:56:47:40:4f:08:da:
         4a:4d:28:c1:75:1b:a9:4f:ef:47:ab:db:d2:30:d8:18:60:73:
         24:95:ae:be:f1:dc:2a:82:2a:77:d0:61:f2:35:96:54:81:bb:
         e3:01:1b:fe:ce:fb:ab:44:f6:c0:3f:8f:37:82:f7:77:d2:61:
         1f:47:7e:ce:4a:6d:91:03:b8:37:82:1a:ec:e4:a7:dd:ed:45:
         d0:0d:ec:9b:c3:16:ef:bf:f2:f4:6a:00:ba:11:bb:04:1b:cb:
         06:97:01:59:83:23:2e:73:9b:f4:89:4f:03:af:b5:e4:cb:b7:
         2d:e6:19:e0:1c:0c:e8:87:d0:f6:0d:1f:9e:7c:67:1a:7b:68:
         4a:0e:94:1a:d2:20:53:dc:7f:26:1e:50:0c:5e:07:42:49:7c:
         d2:e7:d2:7e:7d:79:25:77:62:df:ac:ab:ca:55:9d:c9:26:eb:
         50:38:53:56:1e:26:5f:59:06:f1:4a:a0:d0:7b:e6:00:ab:8a:
         6b:b9:49:0e:b0:88:31:d5:64:fb:d6:b8:42:99:ce:e9:7e:bb:
         94:4f:1e:e7:bc:e5:5b:bc:a0:1b:33:12:f6:e5:d9:8c:71:8a:
         17:7a:c6:ae:a1:a9:79:32:de:c8:40:e5:83:b1:cb:e4:4c:5b:
         c9:5f:b8:6d:9a:36:b5:80:72:a4:52:f6:07:6e:e5:6e:dd:c6:
         31:84:03:6f:b7:c9:45:97:2f:01:7b:30:3e:5b:d2:10:13:19:
         10:fe:16:4d:35:66:2f:81:5e:2e:75:d0:4c:bb:8d:a2:5f:78:
         8d:ff:29:00:d8:9f:05:d3:91:7f:7e:b0:c2:8c:e4:f0:84:e2:
         5b:e6:33:c5:a1:81:b2:ba:f7:25:38:e4:56:cf:f2:44:3b:bb:
         6f:15:26:03:ca:b3:7f:eb:c7:35:8d:ae:7c:1a:eb:7b:bf:7d:
         b9:71:80:76:71:a2:cb:ef:37:0f:e0:33:fc:85:5d:48:db:28:
         b5:fe:61:1a:c4:34:5c:da:72:e1:80:37:7f:73:79:15:04:df:
         9a:d5:6c:67:7f:24:49:3d:6c:58:05:1c:6c:ae:a8:39:77:ec:
         81:c1:2e:fb:de:19:76:9b:eb:e0:b0:51:92:6c:b6:aa:00:ec:
         b4:66:28:9c:c2:45:6f:55:6c:8b:bd:6f:d5:4a:64:ef:bf:fd:
         42:19:1f:86:c3:c5:13:4a:3d:70:fd:5a:19:f5:97:56:72:4a:
         c9:4b:c0:68:d6:24:a6:d8
-----BEGIN CERTIFICATE-----
MIIGjzCCBHegAwIBAgICAOwwDQYJKoZIhvcNAQELBQAwczELMAkGA1UEBhMCZnIx
DDAKBgNVBAgMA2lkZjEOMAwGA1UEBwwFcGFyaXMxDjAMBgNVBAoMBXZpdGFtMRQw
EgYDVQQLDAthdXRob3JpdGllczEgMB4GA1UEAwwXY2Ffcm9vdF9jbGllbnQtZXh0
ZXJuYWwwHhcNMTcwNzEyMTQyOTAyWhcNMjcwNzEwMTQyOTAyWjB7MQswCQYDVQQG
EwJmcjEMMAoGA1UECAwDaWRmMQ4wDAYDVQQHDAVwYXJpczEOMAwGA1UECgwFdml0
YW0xFDASBgNVBAsMC2F1dGhvcml0aWVzMSgwJgYDVQQDDB9jYV9pbnRlcm1lZGlh
dGVfY2xpZW50LWV4dGVybmFsMIICIjANBgkqhkiG9w0BAQEFAAOCAg8AMIICCgKC
AgEAvMorta6spxpOF2Ho5OMFBZQ7NA3KAPNRaX3MH0jzwChQb0uJBtTlGCIqpmHo
T62aypzFuyZIWa/fuRassbSuacMi8CY+G2Vgjswqn1z+z4zC3hpDnwggjDoj+Tmm
+NFmUS1bhLy4LfoX8KOF/gaMR38+p13rvGZgm1GKyUf464p7DStg7l6hvo+lntxF
6Yz/fCBs8Ecq1mgq5NFEHACXAqaLLkmIRIvSihNKrjYrnClZKF9c36k8ryMhp2jO
k0/4zhGGxX0Ja6hpVa4ZMQ/iG6n/+ZOogaR099Cx6G/zUCrWjZr/jbUxRgVKDNUE
kRSvUgbAxcGRPmgUa5Xzf8PdyX5CXI+2JB5/wAKFB/6YKyVds7i5Qw9vaVQJ2CND
n4X2K2yasmf2gFjmJUVb+FF9rd6dAAhQWj1Qa4Mst7DaObipoc6NvsxarrH/HYtY
39lW7emD4BGK1jvuTGuVZDwQ/rG3EZvbA/FcBJAoyoLmVLcRxwFgpi7/TS43wUkS
PLbdkfgR5dF4QSoUXxFBA3kIh93LcDEquGRjZVDrJjRgrrdatmHmqPk4ik1mXSPd
AxrPJ4ijHrKAQ1WH9fAJfW3rkKAwUvN9OMHZHkjqVJblpDl1YkEUYFtl0yr7uZ+K
BgXVbqTKKhyeWtLCadxCD2WM9OcZaWAK2lJYZXfY6mNm2J0CAwEAAaOCASMwggEf
MB4GCWCGSAGG+EIBDQQRFg9DQSBJbnRlcm1lZGlhdGUwHQYDVR0OBBYEFJ9HShOG
hubOsX2wqc2ooJ19pqXxMIGeBgNVHSMEgZYwgZOAFLd4C6h0yLvSK4tz213WOwWI
8xZvoXekdTBzMQswCQYDVQQGEwJmcjEMMAoGA1UECAwDaWRmMQ4wDAYDVQQHDAVw
YXJpczEOMAwGA1UECgwFdml0YW0xFDASBgNVBAsMC2F1dGhvcml0aWVzMSAwHgYD
VQQDDBdjYV9yb290X2NsaWVudC1leHRlcm5hbIICAOswEgYDVR0TAQH/BAgwBgEB
/wIBADAJBgNVHRIEAjAAMAsGA1UdDwQEAwIBBjARBglghkgBhvhCAQEEBAMCAgQw
DQYJKoZIhvcNAQELBQADggIBAKy52sZ5lPaIch7q8wzfdDb3yZsZ9plyGAeygfVv
tnny/8+rhAEzBlAgghsFVcQyGFZHQE8I2kpNKMF1G6lP70er29Iw2BhgcySVrr7x
3CqCKnfQYfI1llSBu+MBG/7O+6tE9sA/jzeC93fSYR9Hfs5KbZEDuDeCGuzkp93t
RdAN7JvDFu+/8vRqALoRuwQbywaXAVmDIy5zm/SJTwOvteTLty3mGeAcDOiH0PYN
H558Zxp7aEoOlBrSIFPcfyYeUAxeB0JJfNLn0n59eSV3Yt+sq8pVnckm61A4U1Ye
Jl9ZBvFKoNB75gCrimu5SQ6wiDHVZPvWuEKZzul+u5RPHue85Vu8oBszEvbl2Yxx
ihd6xq6hqXky3shA5YOxy+RMW8lfuG2aNrWAcqRS9gdu5W7dxjGEA2+3yUWXLwF7
MD5b0hATGRD+Fk01Zi+BXi510Ey7jaJfeI3/KQDYnwXTkX9+sMKM5PCE4lvmM8Wh
gbK69yU45FbP8kQ7u28VJgPKs3/rxzWNrnwa63u/fblxgHZxosvvNw/gM/yFXUjb
KLX+YRrENFzacuGAN39zeRUE35rVbGd/JEk9bFgFHGyuqDl37IHBLvveGXab6+Cw
UZJstqoA7LRmKJzCRW9VbIu9b9VKZO+//UIZH4bDxRNKPXD9Whn1l1ZySslLwGjW
JKbY
-----END CERTIFICATE-----
