Certificate:
    Data:
        Version: 3 (0x2)
        Serial Number: 251 (0xfb)
    Signature Algorithm: sha256WithRSAEncryption
        Issuer: C=fr, ST=idf, L=paris, O=vitam, OU=authorities, CN=ca_root_client-external
        Validity
            Not Before: Feb 21 16:34:51 2018 GMT
            Not After : Feb 19 16:34:51 2028 GMT
        Subject: C=fr, ST=idf, L=paris, O=vitam, OU=authorities, CN=ca_root_client-external
        Subject Public Key Info:
            Public Key Algorithm: rsaEncryption
                Public-Key: (4096 bit)
                Modulus:
                    00:da:f0:a5:49:5c:55:1f:b9:c0:65:8c:47:d5:cd:
                    0a:c1:9e:3b:db:1e:ef:4c:71:1f:f1:26:fa:d4:ff:
                    8e:58:77:d0:0f:99:76:ee:c1:de:c1:4d:bd:0a:4a:
                    66:0b:21:e2:52:ce:a9:14:f9:9a:5e:23:03:64:8f:
                    08:4e:af:f1:9e:4c:6f:8d:c4:ca:94:35:86:9b:3e:
                    3f:94:47:dc:7f:d7:ba:d3:be:1d:25:07:52:ce:02:
                    60:7b:41:83:b6:39:ea:fb:f7:8b:1e:4c:89:b9:2e:
                    16:74:12:34:5d:63:de:29:6c:94:6d:c4:fe:41:8f:
                    60:94:f7:95:df:cd:2e:08:4e:74:f9:a9:a3:ef:e8:
                    1a:20:de:9b:ae:2f:f8:81:12:86:fe:08:2e:70:58:
                    f1:aa:5d:87:9d:6f:78:53:01:00:cd:99:c4:4c:46:
                    b7:a1:58:fb:bb:97:d4:22:fe:35:ab:63:c9:eb:b2:
                    59:e8:29:2a:44:90:9a:05:ad:a7:f9:d9:c7:4d:48:
                    fb:01:b2:53:a9:64:51:89:30:32:6b:a8:2d:26:d8:
                    ec:ec:a9:ba:9e:bf:e1:4e:cb:3e:a9:1d:cb:73:e6:
                    e6:b7:02:90:b9:e9:13:5e:f1:62:c1:32:e7:30:72:
                    d5:e4:90:bf:b4:3c:f8:e7:77:a6:94:a3:9e:57:0b:
                    dd:92:9d:a8:c2:59:84:b8:fe:91:20:59:6a:07:ed:
                    0a:4f:96:7e:03:ce:e4:a1:e4:b4:1c:2a:7e:f7:10:
                    37:46:75:09:61:10:ad:5b:5b:9b:d5:05:2d:cb:c1:
                    9f:64:b1:45:96:f6:1b:8e:8d:25:a8:aa:5a:5f:dc:
                    25:b4:69:8a:0d:a2:06:61:69:79:f3:04:7b:65:56:
                    3d:39:c0:c8:e1:00:79:ae:4b:43:82:8f:a1:0d:7c:
                    14:2c:7b:05:39:da:dd:50:d9:27:e1:7a:51:64:38:
                    ac:c5:4d:27:a1:0d:7d:f2:45:53:b1:23:41:03:79:
                    b7:89:48:31:e2:21:72:f2:85:e1:c6:f5:be:5e:1a:
                    f8:b0:fb:1f:a7:62:6b:8e:67:3a:2d:47:91:a3:68:
                    b1:f3:8a:17:fc:c3:14:08:19:b0:5f:5f:1c:99:2b:
                    28:85:73:65:cb:6d:05:3e:b1:a0:6c:c0:24:14:b4:
                    28:a6:11:83:43:06:0d:f0:0c:d6:2f:ea:8f:5f:dd:
                    b5:e9:41:09:74:f9:a2:e5:65:88:09:26:7a:37:35:
                    1a:18:ed:fe:33:fd:c9:30:dd:82:80:0d:83:46:bb:
                    ea:88:32:29:53:2a:71:46:f7:89:84:a3:c8:ee:b1:
                    94:0f:6c:21:d1:a3:27:f7:17:07:80:1d:99:e8:e0:
                    9f:20:1b
                Exponent: 65537 (0x10001)
        X509v3 extensions:
            Netscape Comment: 
                CA Root
            X509v3 Subject Key Identifier: 
                FD:FC:F0:84:43:7D:F4:4A:57:42:64:3E:B2:2E:B6:3A:79:1C:A4:F2
            X509v3 Authority Key Identifier: 
                keyid:FD:FC:F0:84:43:7D:F4:4A:57:42:64:3E:B2:2E:B6:3A:79:1C:A4:F2

            X509v3 Basic Constraints: critical
                CA:TRUE, pathlen:1
            X509v3 Key Usage: 
                Certificate Sign, CRL Sign
            Netscape Cert Type: 
                SSL CA
    Signature Algorithm: sha256WithRSAEncryption
         a0:1e:9f:8c:89:95:a3:72:4f:1c:0c:59:9b:38:51:4c:e5:79:
         58:1d:99:ce:2d:f7:41:d2:84:3d:94:19:58:63:69:8a:dd:6e:
         e7:5e:20:15:f2:be:5f:70:e9:be:67:11:cd:21:bd:c6:18:96:
         67:cc:52:c1:ef:80:5f:10:7a:ae:f4:5d:92:6c:d9:b7:88:e7:
         c1:75:9c:d6:a1:12:ed:fe:9f:af:26:51:cf:6d:7a:f0:16:50:
         83:50:92:02:1d:21:42:1c:40:cf:c1:75:42:04:f8:36:16:af:
         d3:34:e1:a3:b9:bd:70:e2:d7:a8:a8:cb:1c:be:ce:4b:e4:24:
         1f:8d:e8:6c:c9:f2:a1:94:98:7b:55:dd:5c:74:17:b6:74:01:
         92:b4:af:3a:99:c5:59:5c:55:d3:92:6d:67:37:55:35:f2:65:
         56:8f:4d:95:63:84:8d:be:4b:60:40:93:a4:5e:83:99:94:73:
         07:d1:53:9e:80:29:d7:6e:e3:90:76:e0:6a:0f:79:f2:2a:41:
         6b:53:8b:70:0c:f6:1d:b5:2f:2a:fe:a8:09:b0:79:63:ea:89:
         e2:f3:a7:ec:0b:8b:4c:54:8f:fd:13:e9:0b:08:40:28:8c:1e:
         bc:89:01:b6:1a:63:1f:e0:1f:da:c6:28:6e:ca:dd:92:2d:c1:
         ea:72:37:8b:86:87:5b:b8:7b:d0:4d:00:17:2a:e0:6a:29:a7:
         4f:c4:de:5c:71:48:aa:87:25:4f:83:93:49:0c:f1:73:40:78:
         22:b9:f7:f1:29:a6:21:4a:de:24:f2:86:02:13:77:f9:f1:82:
         26:4e:71:fa:ac:5f:0a:b9:f3:7b:da:73:8a:40:1e:d8:61:21:
         1a:e8:20:3e:d2:5c:42:93:31:50:9d:b5:1d:c9:e6:97:64:3b:
         cf:cd:13:a9:36:5f:33:8d:f4:33:4d:75:53:02:94:74:8b:77:
         00:65:36:7b:bd:fc:04:26:db:00:a7:e7:6e:78:b5:c3:c4:2d:
         7b:7a:9c:2c:1f:0a:ea:ce:70:09:9f:d5:3c:77:36:9d:b6:38:
         ee:4e:63:c5:59:11:c5:5e:85:81:94:cc:b7:fd:b3:20:84:70:
         c6:6d:99:68:cb:42:e2:52:5c:eb:d5:8e:7d:9c:2e:6f:08:63:
         50:34:b4:87:f5:09:5e:c1:a3:4e:e1:02:42:2f:07:80:30:9c:
         27:ed:d9:2b:19:fc:ef:aa:21:1a:bb:6f:fe:55:58:b4:38:6b:
         12:c2:9b:ff:0f:9c:9b:5c:56:18:81:fc:e7:1d:f4:05:aa:5a:
         8f:09:d3:33:a5:dc:12:49:33:bf:ad:a0:3a:17:1f:06:4c:30:
         54:2e:91:f5:f8:a2:7d:ad
-----BEGIN CERTIFICATE-----
MIIF8jCCA9qgAwIBAgICAPswDQYJKoZIhvcNAQELBQAwczELMAkGA1UEBhMCZnIx
DDAKBgNVBAgMA2lkZjEOMAwGA1UEBwwFcGFyaXMxDjAMBgNVBAoMBXZpdGFtMRQw
EgYDVQQLDAthdXRob3JpdGllczEgMB4GA1UEAwwXY2Ffcm9vdF9jbGllbnQtZXh0
ZXJuYWwwHhcNMTgwMjIxMTYzNDUxWhcNMjgwMjE5MTYzNDUxWjBzMQswCQYDVQQG
EwJmcjEMMAoGA1UECAwDaWRmMQ4wDAYDVQQHDAVwYXJpczEOMAwGA1UECgwFdml0
YW0xFDASBgNVBAsMC2F1dGhvcml0aWVzMSAwHgYDVQQDDBdjYV9yb290X2NsaWVu
dC1leHRlcm5hbDCCAiIwDQYJKoZIhvcNAQEBBQADggIPADCCAgoCggIBANrwpUlc
VR+5wGWMR9XNCsGeO9se70xxH/Em+tT/jlh30A+Zdu7B3sFNvQpKZgsh4lLOqRT5
ml4jA2SPCE6v8Z5Mb43EypQ1hps+P5RH3H/XutO+HSUHUs4CYHtBg7Y56vv3ix5M
ibkuFnQSNF1j3ilslG3E/kGPYJT3ld/NLghOdPmpo+/oGiDem64v+IEShv4ILnBY
8apdh51veFMBAM2ZxExGt6FY+7uX1CL+NatjyeuyWegpKkSQmgWtp/nZx01I+wGy
U6lkUYkwMmuoLSbY7Oypup6/4U7LPqkdy3Pm5rcCkLnpE17xYsEy5zBy1eSQv7Q8
+Od3ppSjnlcL3ZKdqMJZhLj+kSBZagftCk+WfgPO5KHktBwqfvcQN0Z1CWEQrVtb
m9UFLcvBn2SxRZb2G46NJaiqWl/cJbRpig2iBmFpefMEe2VWPTnAyOEAea5LQ4KP
oQ18FCx7BTna3VDZJ+F6UWQ4rMVNJ6ENffJFU7EjQQN5t4lIMeIhcvKF4cb1vl4a
+LD7H6dia45nOi1HkaNosfOKF/zDFAgZsF9fHJkrKIVzZcttBT6xoGzAJBS0KKYR
g0MGDfAM1i/qj1/dtelBCXT5ouVliAkmejc1Ghjt/jP9yTDdgoANg0a76ogyKVMq
cUb3iYSjyO6xlA9sIdGjJ/cXB4AdmejgnyAbAgMBAAGjgY8wgYwwFgYJYIZIAYb4
QgENBAkWB0NBIFJvb3QwHQYDVR0OBBYEFP388IRDffRKV0JkPrIutjp5HKTyMB8G
A1UdIwQYMBaAFP388IRDffRKV0JkPrIutjp5HKTyMBIGA1UdEwEB/wQIMAYBAf8C
AQEwCwYDVR0PBAQDAgEGMBEGCWCGSAGG+EIBAQQEAwICBDANBgkqhkiG9w0BAQsF
AAOCAgEAoB6fjImVo3JPHAxZmzhRTOV5WB2Zzi33QdKEPZQZWGNpit1u514gFfK+
X3DpvmcRzSG9xhiWZ8xSwe+AXxB6rvRdkmzZt4jnwXWc1qES7f6fryZRz2168BZQ
g1CSAh0hQhxAz8F1QgT4Nhav0zTho7m9cOLXqKjLHL7OS+QkH43obMnyoZSYe1Xd
XHQXtnQBkrSvOpnFWVxV05JtZzdVNfJlVo9NlWOEjb5LYECTpF6DmZRzB9FTnoAp
127jkHbgag958ipBa1OLcAz2HbUvKv6oCbB5Y+qJ4vOn7AuLTFSP/RPpCwhAKIwe
vIkBthpjH+Af2sYobsrdki3B6nI3i4aHW7h70E0AFyrgaimnT8TeXHFIqoclT4OT
SQzxc0B4Irn38SmmIUreJPKGAhN3+fGCJk5x+qxfCrnze9pzikAe2GEhGuggPtJc
QpMxUJ21Hcnml2Q7z80TqTZfM430M011UwKUdIt3AGU2e738BCbbAKfnbni1w8Qt
e3qcLB8K6s5wCZ/VPHc2nbY47k5jxVkRxV6FgZTMt/2zIIRwxm2ZaMtC4lJc69WO
fZwubwhjUDS0h/UJXsGjTuECQi8HgDCcJ+3ZKxn876ohGrtv/lVYtDhrEsKb/w+c
m1xWGIH85x30BapajwnTM6XcEkkzv62gOhcfBkwwVC6R9fiifa0=
-----END CERTIFICATE-----
