Certificate:
    Data:
        Version: 3 (0x2)
        Serial Number: 251 (0xfb)
    Signature Algorithm: sha256WithRSAEncryption
        Issuer: C=fr, ST=idf, L=paris, O=vitam, OU=authorities, CN=ca_root_client-external
        Validity
            Not Before: Feb  5 12:46:55 2018 GMT
            Not After : Feb  3 12:46:55 2028 GMT
        Subject: C=fr, ST=idf, L=paris, O=vitam, OU=authorities, CN=ca_root_client-external
        Subject Public Key Info:
            Public Key Algorithm: rsaEncryption
                Public-Key: (4096 bit)
                Modulus:
                    00:c3:4a:ba:1d:98:35:b1:8e:13:78:62:49:7b:c2:
                    ec:35:18:e7:c6:9f:c0:e9:39:ff:3a:60:3c:90:ee:
                    29:c8:85:2e:b7:cb:85:42:0b:e4:14:c7:b9:d5:12:
                    24:4f:e4:4d:b3:1c:30:71:8d:9c:c4:05:e8:a1:af:
                    84:af:7c:f9:2b:64:b4:3d:83:28:d0:14:65:33:d3:
                    f5:bc:5f:14:40:6b:5b:f1:70:71:a2:ce:15:1f:b7:
                    14:37:27:94:c8:36:f5:94:c4:ea:af:08:fa:36:d6:
                    95:17:6b:96:9b:b2:3b:f1:54:72:43:93:cb:55:04:
                    cd:8f:e0:31:c5:dc:67:ad:91:a4:84:ce:9c:8e:a5:
                    13:17:8e:97:91:26:8b:be:ac:63:d0:15:34:58:30:
                    d0:c5:f9:09:ee:5d:73:2d:c4:7a:79:25:13:44:b2:
                    34:67:93:fb:c3:e4:df:91:4c:71:ad:11:54:c0:a8:
                    ca:ef:a2:25:19:2b:79:8b:3d:fc:15:04:90:dc:c3:
                    03:9d:dc:8a:4e:d9:d9:4f:0c:d6:9d:80:ca:00:a5:
                    6d:6c:ba:e9:ab:29:91:cd:b7:f3:ed:64:38:18:21:
                    86:f2:27:f2:4b:e2:76:98:d4:42:7b:e3:c8:74:75:
                    2a:ec:52:e2:c7:d7:3d:a3:3e:4b:98:6d:68:b4:e3:
                    5f:e1:d9:57:03:6a:b6:ba:45:16:4a:8e:f7:79:1f:
                    b8:33:7c:99:f5:0b:0e:f3:6a:b7:16:1f:66:88:9a:
                    c1:db:ce:f6:3a:28:3e:e7:29:f4:13:22:1e:68:20:
                    b3:34:2d:d4:07:61:4b:f6:89:55:2a:bb:e6:23:51:
                    e7:33:fa:d8:62:ae:4e:47:46:84:8f:4d:06:3e:d6:
                    ac:20:8d:65:86:e9:da:0d:39:2a:4b:c0:1a:cd:91:
                    74:4c:17:36:f8:01:15:8b:db:57:83:52:7a:9c:83:
                    2b:55:05:e1:6a:98:df:ad:22:0f:5a:04:05:b8:3b:
                    50:f4:6f:0c:61:17:ca:2b:f9:4b:25:16:b3:6d:83:
                    0c:b3:5a:a4:f7:c1:34:98:1c:d3:73:e8:60:22:91:
                    69:4a:a9:3c:68:38:f8:37:59:9e:6c:bc:98:76:f1:
                    63:c1:5b:89:76:17:ba:7a:ac:c0:89:c5:78:df:56:
                    b4:c9:15:52:50:f6:c8:73:aa:75:0c:9a:44:10:2c:
                    38:ac:a3:64:f4:76:16:99:12:35:98:af:41:33:4d:
                    c1:3c:55:96:29:b3:ee:3f:1e:82:f6:db:d7:f4:b2:
                    f0:26:13:04:f8:f6:1a:37:7f:4e:1e:c3:8c:5f:78:
                    99:5a:ea:c9:a6:43:dd:33:ec:6e:02:73:3f:3e:b0:
                    cd:38:95
                Exponent: 65537 (0x10001)
        X509v3 extensions:
            Netscape Comment: 
                CA Root
            X509v3 Subject Key Identifier: 
                6C:9F:46:DC:62:A7:17:86:0A:8B:F4:D7:65:53:38:8C:25:23:AE:25
            X509v3 Authority Key Identifier: 
                keyid:6C:9F:46:DC:62:A7:17:86:0A:8B:F4:D7:65:53:38:8C:25:23:AE:25

            X509v3 Basic Constraints: critical
                CA:TRUE, pathlen:1
            X509v3 Key Usage: 
                Certificate Sign, CRL Sign
            Netscape Cert Type: 
                SSL CA
    Signature Algorithm: sha256WithRSAEncryption
         9d:a0:11:cb:47:0d:a8:1f:5c:79:bf:51:c8:57:bf:f4:75:da:
         6c:9b:68:ee:57:c2:aa:a4:6d:dc:94:af:89:72:40:00:9b:10:
         bc:de:b3:ae:02:a9:d2:61:cc:f4:70:83:17:b9:c8:05:9b:83:
         2c:6f:62:47:97:4f:09:91:f5:3b:08:af:d9:e2:3b:ec:ca:44:
         fb:53:91:d0:74:41:43:51:7f:10:5b:42:cd:90:90:d1:14:24:
         a7:b8:4a:4f:7d:9e:59:2b:29:b3:95:32:22:12:dd:37:2f:08:
         d7:ad:b0:4e:56:5e:87:e6:cd:b5:87:d5:ea:73:6e:a1:e4:cc:
         12:46:d9:0d:d7:b4:53:cd:77:a4:ab:2d:d1:bd:be:a5:c2:61:
         0d:50:70:ea:64:ab:65:42:a4:29:b6:f9:19:de:7c:b0:61:14:
         ad:ae:fa:e4:12:8f:95:fb:7a:3b:1d:78:e2:b8:9d:df:c3:4b:
         1f:d8:9b:93:16:14:ae:c2:02:5f:95:53:7c:6b:f0:b8:8c:b8:
         0b:28:8e:09:c3:08:f5:d7:ed:1c:a3:5f:ab:76:4b:36:9d:3a:
         46:58:86:2d:35:70:d9:61:cf:f8:e1:50:17:c1:a1:db:4e:32:
         92:d3:71:a4:0a:62:ab:1b:86:9e:04:4b:a6:70:79:5a:03:47:
         c8:e1:51:10:e7:eb:8c:f9:10:19:36:6e:18:42:06:e2:df:b2:
         f8:f3:ab:8c:fe:27:6c:85:0f:a2:7d:73:dc:36:47:b0:78:42:
         83:50:53:db:8c:85:15:02:de:cf:01:b4:22:8c:d2:9e:f2:90:
         27:e3:93:e6:5d:01:b2:9e:7f:1b:2a:1f:e9:75:99:17:1a:95:
         2c:16:c9:ea:16:4b:39:d8:94:c6:c0:e0:31:07:e1:23:87:f7:
         ec:ea:75:63:39:58:7e:06:64:cc:c9:de:d4:77:50:30:93:0a:
         a9:83:3d:21:da:96:c3:b1:0e:09:fa:f6:23:55:c7:d3:3b:04:
         35:41:3b:26:d5:17:f7:e7:e9:c9:23:07:0f:4f:ec:0c:62:43:
         ea:ea:99:7e:2a:b9:4a:39:0e:54:9e:09:53:87:88:e5:93:fc:
         e9:8c:7d:b0:05:a1:2e:96:3d:3f:e9:42:5b:4b:61:0e:5d:cf:
         01:50:6c:9b:fe:e7:6a:e3:b8:20:ed:ba:00:e7:d0:4f:9a:b9:
         f7:cf:fc:1c:a7:a8:93:d7:39:67:3c:24:37:58:b9:91:33:d2:
         b6:56:4b:ed:1d:06:84:e7:cd:1d:6c:1e:ac:69:95:5a:df:26:
         0c:18:fb:cc:b6:0d:1d:94:ff:90:c2:9d:9f:cc:5c:f7:38:5d:
         16:07:9b:60:bf:04:53:7c
-----BEGIN CERTIFICATE-----
MIIF8jCCA9qgAwIBAgICAPswDQYJKoZIhvcNAQELBQAwczELMAkGA1UEBhMCZnIx
DDAKBgNVBAgMA2lkZjEOMAwGA1UEBwwFcGFyaXMxDjAMBgNVBAoMBXZpdGFtMRQw
EgYDVQQLDAthdXRob3JpdGllczEgMB4GA1UEAwwXY2Ffcm9vdF9jbGllbnQtZXh0
ZXJuYWwwHhcNMTgwMjA1MTI0NjU1WhcNMjgwMjAzMTI0NjU1WjBzMQswCQYDVQQG
EwJmcjEMMAoGA1UECAwDaWRmMQ4wDAYDVQQHDAVwYXJpczEOMAwGA1UECgwFdml0
YW0xFDASBgNVBAsMC2F1dGhvcml0aWVzMSAwHgYDVQQDDBdjYV9yb290X2NsaWVu
dC1leHRlcm5hbDCCAiIwDQYJKoZIhvcNAQEBBQADggIPADCCAgoCggIBAMNKuh2Y
NbGOE3hiSXvC7DUY58afwOk5/zpgPJDuKciFLrfLhUIL5BTHudUSJE/kTbMcMHGN
nMQF6KGvhK98+StktD2DKNAUZTPT9bxfFEBrW/FwcaLOFR+3FDcnlMg29ZTE6q8I
+jbWlRdrlpuyO/FUckOTy1UEzY/gMcXcZ62RpITOnI6lExeOl5Emi76sY9AVNFgw
0MX5Ce5dcy3EenklE0SyNGeT+8Pk35FMca0RVMCoyu+iJRkreYs9/BUEkNzDA53c
ik7Z2U8M1p2AygClbWy66aspkc238+1kOBghhvIn8kvidpjUQnvjyHR1KuxS4sfX
PaM+S5htaLTjX+HZVwNqtrpFFkqO93kfuDN8mfULDvNqtxYfZoiawdvO9jooPucp
9BMiHmggszQt1AdhS/aJVSq75iNR5zP62GKuTkdGhI9NBj7WrCCNZYbp2g05KkvA
Gs2RdEwXNvgBFYvbV4NSepyDK1UF4WqY360iD1oEBbg7UPRvDGEXyiv5SyUWs22D
DLNapPfBNJgc03PoYCKRaUqpPGg4+DdZnmy8mHbxY8FbiXYXunqswInFeN9WtMkV
UlD2yHOqdQyaRBAsOKyjZPR2FpkSNZivQTNNwTxVlimz7j8egvbb1/Sy8CYTBPj2
Gjd/Th7DjF94mVrqyaZD3TPsbgJzPz6wzTiVAgMBAAGjgY8wgYwwFgYJYIZIAYb4
QgENBAkWB0NBIFJvb3QwHQYDVR0OBBYEFGyfRtxipxeGCov012VTOIwlI64lMB8G
A1UdIwQYMBaAFGyfRtxipxeGCov012VTOIwlI64lMBIGA1UdEwEB/wQIMAYBAf8C
AQEwCwYDVR0PBAQDAgEGMBEGCWCGSAGG+EIBAQQEAwICBDANBgkqhkiG9w0BAQsF
AAOCAgEAnaARy0cNqB9ceb9RyFe/9HXabJto7lfCqqRt3JSviXJAAJsQvN6zrgKp
0mHM9HCDF7nIBZuDLG9iR5dPCZH1Owiv2eI77MpE+1OR0HRBQ1F/EFtCzZCQ0RQk
p7hKT32eWSsps5UyIhLdNy8I162wTlZeh+bNtYfV6nNuoeTMEkbZDde0U813pKst
0b2+pcJhDVBw6mSrZUKkKbb5Gd58sGEUra765BKPlft6Ox144rid38NLH9ibkxYU
rsICX5VTfGvwuIy4CyiOCcMI9dftHKNfq3ZLNp06RliGLTVw2WHP+OFQF8Gh204y
ktNxpApiqxuGngRLpnB5WgNHyOFREOfrjPkQGTZuGEIG4t+y+POrjP4nbIUPon1z
3DZHsHhCg1BT24yFFQLezwG0IozSnvKQJ+OT5l0Bsp5/Gyof6XWZFxqVLBbJ6hZL
OdiUxsDgMQfhI4f37Op1YzlYfgZkzMne1HdQMJMKqYM9IdqWw7EOCfr2I1XH0zsE
NUE7JtUX9+fpySMHD0/sDGJD6uqZfiq5SjkOVJ4JU4eI5ZP86Yx9sAWhLpY9P+lC
W0thDl3PAVBsm/7nauO4IO26AOfQT5q598/8HKeok9c5ZzwkN1i5kTPStlZL7R0G
hOfNHWwerGmVWt8mDBj7zLYNHZT/kMKdn8xc9zhdFgebYL8EU3w=
-----END CERTIFICATE-----
