Certificate:
    Data:
        Version: 3 (0x2)
        Serial Number: 245 (0xf5)
    Signature Algorithm: sha256WithRSAEncryption
        Issuer: C=fr, ST=idf, L=paris, O=vitam, OU=authorities, CN=ca_root_client-external
        Validity
            Not Before: Aug  9 16:04:03 2017 GMT
            Not After : Aug  7 16:04:03 2027 GMT
        Subject: C=fr, ST=idf, L=paris, O=vitam, OU=authorities, CN=ca_root_client-external
        Subject Public Key Info:
            Public Key Algorithm: rsaEncryption
                Public-Key: (4096 bit)
                Modulus:
                    00:c1:f7:22:8c:7c:1c:87:c6:c6:e1:b2:d8:92:3a:
                    48:9d:ff:69:1f:60:96:f7:2b:4f:55:14:51:75:4e:
                    a5:0f:19:ba:fa:b1:7d:9b:59:f5:2f:46:10:e4:16:
                    cf:77:37:e6:e5:56:d7:b3:d4:b2:e0:07:92:bf:bd:
                    41:25:a3:ff:eb:35:44:c5:bb:59:da:2f:ce:8a:af:
                    90:53:b3:ed:29:7c:55:32:2a:bd:b9:78:bd:60:b5:
                    5e:3c:3e:79:0e:cc:8f:56:2b:44:0d:aa:13:d8:70:
                    71:70:8d:52:2c:3a:8d:73:8c:95:d6:38:4c:7e:a9:
                    7d:4f:d3:63:dd:39:57:c4:7d:43:69:f7:f6:59:ad:
                    df:0d:dc:53:26:14:58:cb:8f:ef:25:f1:c8:a4:fc:
                    38:23:00:10:71:04:1a:c7:1e:94:6a:ac:8a:a9:fe:
                    28:73:dc:45:3a:85:a2:e9:b0:fd:b9:54:69:ea:d2:
                    96:48:02:85:a8:7d:a1:7c:4a:ce:74:a7:24:4a:f7:
                    80:6e:c9:be:86:a7:67:43:db:c9:a3:c5:48:dd:8b:
                    0a:80:f9:c6:74:e2:f8:dd:f7:24:40:4b:c9:3c:71:
                    ad:e9:61:74:08:73:ef:cd:9f:59:da:9a:1e:77:7d:
                    93:e9:74:2b:c8:e5:93:e6:ff:0a:9c:a1:0d:de:fe:
                    d0:49:fa:bd:a9:16:76:e7:18:6a:d3:e5:33:b0:8b:
                    10:e3:fb:3c:52:ba:d9:2b:2c:2a:db:fa:20:cd:6c:
                    eb:44:0d:10:9c:89:4c:89:3b:b7:df:c4:96:d9:57:
                    e9:ea:0d:07:d5:f0:c6:54:e3:58:c1:ea:f3:e1:0f:
                    d6:9c:6e:f8:8d:97:fd:1d:f2:4f:b9:4f:68:e9:9d:
                    80:a4:a1:ea:d1:85:2e:82:1b:16:8c:6b:34:e9:17:
                    31:2b:06:c7:1e:1f:25:3a:39:c4:15:f7:1a:48:b4:
                    18:52:04:b9:cf:96:c9:80:e3:3e:b8:cf:b7:60:83:
                    0b:9a:93:81:9f:8d:c7:0b:7f:4b:21:86:73:17:9b:
                    77:58:64:0b:22:1c:75:6f:c0:d4:a0:66:90:51:b6:
                    c8:16:64:f8:27:3d:95:67:32:f0:aa:ec:6f:05:44:
                    3d:b8:40:e9:f7:e6:43:db:2b:13:e2:d9:d0:f1:40:
                    5a:7b:dd:10:a5:f7:17:9d:76:df:ec:bd:dc:ef:a2:
                    a2:3c:48:dc:01:a4:a3:ef:1b:6d:a5:6b:00:22:d3:
                    9c:d3:f6:fd:8b:c6:0c:fd:b9:86:d4:14:07:97:ab:
                    5b:c2:06:b7:93:00:60:24:0d:6f:d3:4c:2d:aa:df:
                    8c:d3:74:c8:3d:41:97:d6:15:a1:ec:ab:6b:3b:e5:
                    cd:b7:b7
                Exponent: 65537 (0x10001)
        X509v3 extensions:
            Netscape Comment: 
                CA Root
            X509v3 Subject Key Identifier: 
                4A:3C:B9:4E:33:47:58:AE:B5:AE:4E:78:24:42:CB:94:4B:19:C6:AC
            X509v3 Authority Key Identifier: 
                keyid:4A:3C:B9:4E:33:47:58:AE:B5:AE:4E:78:24:42:CB:94:4B:19:C6:AC

            X509v3 Basic Constraints: critical
                CA:TRUE, pathlen:1
            X509v3 Key Usage: 
                Certificate Sign, CRL Sign
            Netscape Cert Type: 
                SSL CA
    Signature Algorithm: sha256WithRSAEncryption
         5c:9d:1c:fc:f0:3a:3a:26:26:5f:b1:7e:0b:e4:98:44:57:c4:
         bf:17:dc:6c:83:74:9d:e0:a0:70:15:de:29:bc:d8:6a:f6:e2:
         a3:f2:75:ff:1c:19:84:9e:3d:47:1b:70:8e:e5:29:30:0e:fb:
         78:48:c9:d5:23:b0:54:48:73:d2:0f:a4:45:a3:06:b3:b5:3d:
         68:ad:f6:45:81:ef:0c:70:e5:a5:f2:54:81:bc:b8:ba:cf:33:
         ed:86:77:a5:17:93:82:77:66:9e:3d:cc:67:19:bc:a1:20:38:
         ee:b2:4a:0f:63:84:af:96:de:f4:68:46:52:33:87:ed:51:e4:
         bc:f0:b7:52:5a:8b:f6:7b:e9:12:2d:1b:00:f8:96:4b:7a:49:
         d6:fa:ee:f6:ed:5d:63:bd:be:6f:0c:e1:23:f1:92:88:d7:5e:
         f1:da:d3:da:08:27:3e:e4:88:8c:e8:05:77:8c:f7:5a:b3:13:
         57:2a:2c:8f:e3:da:fb:f1:e1:42:51:45:90:2f:6a:59:19:b8:
         56:b5:a6:ac:a2:d4:76:0b:d5:1e:28:e6:e3:04:4a:59:fb:3a:
         12:89:e7:18:ab:ec:8c:ea:de:21:b7:01:99:6a:09:37:ad:d5:
         69:3a:4f:81:4b:80:99:fe:93:99:aa:e1:93:a5:cf:31:ac:76:
         48:8e:19:a3:f1:a1:fb:9f:67:c7:00:d1:45:1a:d0:dc:b2:d6:
         da:9d:91:94:7d:cf:96:f4:c3:42:35:eb:4d:65:23:28:8c:4d:
         3b:b6:df:a2:17:f8:e1:16:4b:4a:41:62:9e:c2:a0:f0:a9:4b:
         db:45:4e:03:0e:1c:46:fa:0f:56:08:3f:26:cc:9c:56:dc:4d:
         49:63:3b:c1:6e:72:cc:92:67:4a:02:6b:27:f1:4b:fd:90:83:
         af:0e:5a:19:8c:c5:cc:8a:70:46:bb:41:7b:d0:a4:6a:2a:82:
         23:5b:fb:d9:7f:c8:e4:da:0b:73:1b:34:23:b7:2f:77:66:72:
         a2:dc:1d:ba:b4:6e:9c:8f:e4:e2:11:ae:c0:8e:4b:5b:1e:ae:
         96:7f:45:ff:17:b6:ef:fd:4f:b6:16:94:58:b8:4d:df:44:27:
         c5:11:ae:55:e7:32:05:45:ba:63:d7:43:9f:66:4d:e3:49:fe:
         d5:ae:70:92:e9:7e:0f:1b:0b:2c:61:9b:7c:80:00:d1:46:bd:
         81:cc:4d:0f:7b:a4:87:65:c7:c7:ac:91:17:d4:4a:2b:76:1d:
         93:5d:a7:05:64:74:a4:3c:8f:d7:88:50:09:78:74:a5:b4:1f:
         db:5b:9e:35:ea:22:28:a7:da:8e:98:69:32:f4:a2:03:e2:7a:
         9f:a0:96:1c:00:27:2a:a7
-----BEGIN CERTIFICATE-----
MIIF8jCCA9qgAwIBAgICAPUwDQYJKoZIhvcNAQELBQAwczELMAkGA1UEBhMCZnIx
DDAKBgNVBAgMA2lkZjEOMAwGA1UEBwwFcGFyaXMxDjAMBgNVBAoMBXZpdGFtMRQw
EgYDVQQLDAthdXRob3JpdGllczEgMB4GA1UEAwwXY2Ffcm9vdF9jbGllbnQtZXh0
ZXJuYWwwHhcNMTcwODA5MTYwNDAzWhcNMjcwODA3MTYwNDAzWjBzMQswCQYDVQQG
EwJmcjEMMAoGA1UECAwDaWRmMQ4wDAYDVQQHDAVwYXJpczEOMAwGA1UECgwFdml0
YW0xFDASBgNVBAsMC2F1dGhvcml0aWVzMSAwHgYDVQQDDBdjYV9yb290X2NsaWVu
dC1leHRlcm5hbDCCAiIwDQYJKoZIhvcNAQEBBQADggIPADCCAgoCggIBAMH3Iox8
HIfGxuGy2JI6SJ3/aR9glvcrT1UUUXVOpQ8ZuvqxfZtZ9S9GEOQWz3c35uVW17PU
suAHkr+9QSWj/+s1RMW7WdovzoqvkFOz7Sl8VTIqvbl4vWC1Xjw+eQ7Mj1YrRA2q
E9hwcXCNUiw6jXOMldY4TH6pfU/TY905V8R9Q2n39lmt3w3cUyYUWMuP7yXxyKT8
OCMAEHEEGscelGqsiqn+KHPcRTqFoumw/blUaerSlkgChah9oXxKznSnJEr3gG7J
voanZ0PbyaPFSN2LCoD5xnTi+N33JEBLyTxxrelhdAhz782fWdqaHnd9k+l0K8jl
k+b/CpyhDd7+0En6vakWducYatPlM7CLEOP7PFK62SssKtv6IM1s60QNEJyJTIk7
t9/EltlX6eoNB9XwxlTjWMHq8+EP1pxu+I2X/R3yT7lPaOmdgKSh6tGFLoIbFoxr
NOkXMSsGxx4fJTo5xBX3Gki0GFIEuc+WyYDjPrjPt2CDC5qTgZ+Nxwt/SyGGcxeb
d1hkCyIcdW/A1KBmkFG2yBZk+Cc9lWcy8KrsbwVEPbhA6ffmQ9srE+LZ0PFAWnvd
EKX3F5123+y93O+iojxI3AGko+8bbaVrACLTnNP2/YvGDP25htQUB5erW8IGt5MA
YCQNb9NMLarfjNN0yD1Bl9YVoeyrazvlzbe3AgMBAAGjgY8wgYwwFgYJYIZIAYb4
QgENBAkWB0NBIFJvb3QwHQYDVR0OBBYEFEo8uU4zR1iuta5OeCRCy5RLGcasMB8G
A1UdIwQYMBaAFEo8uU4zR1iuta5OeCRCy5RLGcasMBIGA1UdEwEB/wQIMAYBAf8C
AQEwCwYDVR0PBAQDAgEGMBEGCWCGSAGG+EIBAQQEAwICBDANBgkqhkiG9w0BAQsF
AAOCAgEAXJ0c/PA6OiYmX7F+C+SYRFfEvxfcbIN0neCgcBXeKbzYavbio/J1/xwZ
hJ49RxtwjuUpMA77eEjJ1SOwVEhz0g+kRaMGs7U9aK32RYHvDHDlpfJUgby4us8z
7YZ3pReTgndmnj3MZxm8oSA47rJKD2OEr5be9GhGUjOH7VHkvPC3UlqL9nvpEi0b
APiWS3pJ1vru9u1dY72+bwzhI/GSiNde8drT2ggnPuSIjOgFd4z3WrMTVyosj+Pa
+/HhQlFFkC9qWRm4VrWmrKLUdgvVHijm4wRKWfs6EonnGKvsjOreIbcBmWoJN63V
aTpPgUuAmf6Tmarhk6XPMax2SI4Zo/Gh+59nxwDRRRrQ3LLW2p2RlH3PlvTDQjXr
TWUjKIxNO7bfohf44RZLSkFinsKg8KlL20VOAw4cRvoPVgg/JsycVtxNSWM7wW5y
zJJnSgJrJ/FL/ZCDrw5aGYzFzIpwRrtBe9CkaiqCI1v72X/I5NoLcxs0I7cvd2Zy
otwdurRunI/k4hGuwI5LWx6uln9F/xe27/1PthaUWLhN30QnxRGuVecyBUW6Y9dD
n2ZN40n+1a5wkul+DxsLLGGbfIAA0Ua9gcxND3ukh2XHx6yRF9RKK3Ydk12nBWR0
pDyP14hQCXh0pbQf21ueNeoiKKfajphpMvSiA+J6n6CWHAAnKqc=
-----END CERTIFICATE-----
