Certificate:
    Data:
        Version: 3 (0x2)
        Serial Number: 262 (0x106)
    Signature Algorithm: sha256WithRSAEncryption
        Issuer: C=fr, ST=idf, L=paris, O=vitam, OU=authorities, CN=ca_intermediate_client-external
        Validity
            Not Before: Feb  5 12:57:40 2018 GMT
            Not After : Feb  4 12:57:40 2021 GMT
        Subject: C=fr, ST=idf, L=paris, O=vitam, CN=reverse
        Subject Public Key Info:
            Public Key Algorithm: rsaEncryption
                Public-Key: (4096 bit)
                Modulus:
                    00:f3:3f:e6:c5:16:16:6b:24:cc:40:97:76:1a:03:
                    a9:a7:1e:92:94:53:dd:39:2a:cf:9b:2f:f6:69:40:
                    28:9c:da:bf:50:9d:eb:21:9b:12:a2:c4:30:08:94:
                    e8:f8:b4:34:de:2d:39:a4:9c:79:03:71:c8:28:af:
                    dd:b8:12:55:df:28:cf:99:c6:86:cc:c3:c7:e0:2b:
                    38:b1:0d:8a:ad:44:04:1f:a9:7e:d0:38:8f:92:8b:
                    31:16:d6:86:78:8e:2d:36:92:38:38:22:1f:5c:b0:
                    26:d7:cd:78:f0:a9:5c:f6:37:f6:ee:04:7a:f4:25:
                    18:9a:16:a8:3e:c9:0c:65:0a:23:bf:44:02:e6:de:
                    e8:2a:19:4e:33:b6:86:6f:76:05:32:f1:31:96:ba:
                    b4:be:95:d4:a5:9e:2c:d1:22:59:df:04:cc:51:d9:
                    5d:ec:e3:6b:97:78:fb:72:17:fe:14:53:65:1e:41:
                    b0:c3:58:3e:2b:d3:03:43:f6:10:87:7a:30:c6:54:
                    be:81:0d:99:da:31:ea:f3:db:14:b8:ed:c6:ab:16:
                    26:10:da:f3:01:03:ba:bd:b3:dc:e5:9e:b2:1c:c3:
                    35:14:ba:c6:4b:93:f2:15:b5:c6:c5:91:9a:e4:5c:
                    a2:9d:65:bd:e5:a4:ca:55:9b:8f:47:fe:79:56:c1:
                    8e:a8:81:7b:25:41:53:5c:30:1b:ee:49:8b:1f:30:
                    65:1d:01:5d:78:b7:cf:f1:d2:6d:a7:4d:87:50:73:
                    ac:e5:66:00:6b:8f:6d:dc:9c:fe:21:d7:5a:99:d4:
                    72:1a:7a:88:a4:95:4b:9e:b8:a0:ab:7e:03:69:6f:
                    55:64:6a:22:99:7a:44:76:90:47:56:76:e7:3a:79:
                    94:11:68:6a:3c:23:c1:b4:7e:50:b2:77:27:3a:e0:
                    99:f6:dd:11:23:83:4b:ef:05:57:25:fc:5e:82:04:
                    d1:77:23:6e:8a:91:d1:9b:55:fa:92:e0:0b:89:4f:
                    34:eb:9d:17:00:4e:73:3e:48:bd:93:fd:be:d1:19:
                    55:f1:01:8e:07:38:30:48:94:65:f6:f2:76:6a:10:
                    08:56:72:5c:c5:ef:3b:1f:e8:ca:89:8c:f6:94:d0:
                    e3:6c:71:76:91:3e:f9:25:07:8f:30:67:ec:67:6e:
                    1b:5e:35:d4:d4:be:04:09:bc:93:e2:3b:31:fe:77:
                    cd:d2:54:71:a0:1b:c7:b3:5b:eb:df:0b:31:04:a4:
                    e5:d2:b9:cd:a5:48:8c:45:d5:02:cc:17:ac:b0:c8:
                    a3:a6:a1:04:2a:3b:9e:0d:92:44:fa:ea:ae:89:2f:
                    a4:23:7e:93:eb:e9:23:f9:12:a8:95:90:55:fd:fc:
                    df:76:0d
                Exponent: 65537 (0x10001)
        X509v3 extensions:
            Netscape Comment: 
                Certificat Client SSL
            X509v3 Subject Key Identifier: 
                F6:ED:07:FF:A4:87:17:51:5C:DD:A3:6E:EA:D4:E1:FB:E7:74:D9:05
            X509v3 Authority Key Identifier: 
                keyid:99:4E:FD:BA:7D:CF:EE:E1:A9:EA:F5:DA:73:BD:4A:D1:46:DA:D7:7C
                DirName:/C=fr/ST=idf/L=paris/O=vitam/OU=authorities/CN=ca_root_client-external
                serial:FC

            X509v3 Issuer Alternative Name: 
                <EMPTY>

            X509v3 Basic Constraints: critical
                CA:FALSE
            X509v3 Key Usage: 
                Digital Signature, Non Repudiation, Key Encipherment
            Netscape Cert Type: 
                SSL Client
            X509v3 Extended Key Usage: 
                TLS Web Client Authentication
    Signature Algorithm: sha256WithRSAEncryption
         8e:49:9b:54:44:cc:d5:00:4f:a4:b8:da:4c:fc:15:81:b2:54:
         8e:71:b0:ca:5d:a6:c3:7a:c3:fd:6f:0d:f3:a5:23:3b:da:0d:
         6a:41:30:da:f8:c5:f8:46:9b:71:e9:d0:45:8f:f9:bd:ad:db:
         ba:24:ac:0c:e8:11:bd:fd:77:07:32:96:3f:46:2f:9f:df:63:
         63:f1:30:6f:42:9d:47:60:24:9c:f3:7a:48:9b:71:52:2c:46:
         a0:8a:72:99:67:d7:f5:05:a4:a1:76:c0:d3:c9:34:2e:43:bf:
         1e:29:5c:71:c3:d6:04:cf:86:ec:1a:a1:36:b5:e8:a9:95:2d:
         50:76:ed:e7:c2:d9:65:f5:05:f7:8a:84:ba:c2:13:b5:31:c5:
         a8:9b:d1:7b:dd:bf:f4:9b:b4:0d:7d:d0:ba:0b:d6:49:69:4a:
         87:75:99:39:39:a1:9a:f8:de:40:4e:16:eb:cc:f1:c5:f0:48:
         4a:a3:6b:b0:af:10:a1:86:eb:ce:c2:56:34:b4:a3:7e:e7:00:
         0b:43:8a:09:1b:f0:96:39:c6:72:4c:04:f6:3a:4f:81:8f:77:
         c8:8f:85:03:d2:ec:c0:5b:fa:24:b3:3e:0e:a4:4e:4c:33:19:
         eb:8a:3a:be:66:75:a1:b1:95:b3:0b:3b:8e:30:36:24:61:11:
         35:b0:1d:1e:45:57:77:29:cc:4a:82:15:58:a5:b8:1e:eb:f1:
         11:69:2b:f2:b7:e2:4f:22:70:d8:ee:8d:b6:c3:03:35:40:94:
         b1:96:78:b9:7b:8c:31:50:ca:f0:3b:ab:9a:3f:b6:7c:9d:e0:
         a2:12:ef:04:d3:01:4f:86:f4:df:ec:1e:c2:35:e2:3b:17:45:
         e1:32:19:d5:30:a9:ee:59:d0:3f:f8:b5:c2:5a:55:2e:3c:19:
         e6:1f:f6:dc:8b:ac:d0:82:40:50:6b:88:ea:38:d9:ac:50:00:
         34:32:20:6e:58:5d:79:cd:ae:a1:59:35:8e:73:91:8c:45:5d:
         21:2c:f1:70:e0:23:39:b8:4f:9a:62:1c:98:93:fc:a0:4b:65:
         d9:17:54:bd:f8:c5:e9:99:12:97:4a:99:1a:d0:62:f7:26:c8:
         6d:55:0e:69:d3:fd:f0:4a:00:7e:d7:93:eb:49:69:13:b9:13:
         cc:ee:b4:2f:b6:5a:c4:e3:dc:d1:52:c3:60:e3:f0:00:3e:ad:
         c3:cd:71:a7:37:08:d4:fb:d7:51:6e:6e:7d:a2:6e:ab:95:2f:
         53:5e:02:5e:24:02:e9:60:fc:1c:93:93:e7:e9:01:2f:57:89:
         03:4d:a3:10:c9:bf:8b:5d:8d:eb:91:88:69:1d:ac:83:48:08:
         ab:b7:2a:ef:1e:58:6c:c9
-----BEGIN CERTIFICATE-----
MIIGfjCCBGagAwIBAgICAQYwDQYJKoZIhvcNAQELBQAwezELMAkGA1UEBhMCZnIx
DDAKBgNVBAgMA2lkZjEOMAwGA1UEBwwFcGFyaXMxDjAMBgNVBAoMBXZpdGFtMRQw
EgYDVQQLDAthdXRob3JpdGllczEoMCYGA1UEAwwfY2FfaW50ZXJtZWRpYXRlX2Ns
aWVudC1leHRlcm5hbDAeFw0xODAyMDUxMjU3NDBaFw0yMTAyMDQxMjU3NDBaME0x
CzAJBgNVBAYTAmZyMQwwCgYDVQQIDANpZGYxDjAMBgNVBAcMBXBhcmlzMQ4wDAYD
VQQKDAV2aXRhbTEQMA4GA1UEAwwHcmV2ZXJzZTCCAiIwDQYJKoZIhvcNAQEBBQAD
ggIPADCCAgoCggIBAPM/5sUWFmskzECXdhoDqacekpRT3Tkqz5sv9mlAKJzav1Cd
6yGbEqLEMAiU6Pi0NN4tOaSceQNxyCiv3bgSVd8oz5nGhszDx+ArOLENiq1EBB+p
ftA4j5KLMRbWhniOLTaSODgiH1ywJtfNePCpXPY39u4EevQlGJoWqD7JDGUKI79E
Aube6CoZTjO2hm92BTLxMZa6tL6V1KWeLNEiWd8EzFHZXezja5d4+3IX/hRTZR5B
sMNYPivTA0P2EId6MMZUvoENmdox6vPbFLjtxqsWJhDa8wEDur2z3OWeshzDNRS6
xkuT8hW1xsWRmuRcop1lveWkylWbj0f+eVbBjqiBeyVBU1wwG+5Jix8wZR0BXXi3
z/HSbadNh1BzrOVmAGuPbdyc/iHXWpnUchp6iKSVS564oKt+A2lvVWRqIpl6RHaQ
R1Z25zp5lBFoajwjwbR+ULJ3JzrgmfbdESODS+8FVyX8XoIE0XcjboqR0ZtV+pLg
C4lPNOudFwBOcz5IvZP9vtEZVfEBjgc4MEiUZfbydmoQCFZyXMXvOx/oyomM9pTQ
42xxdpE++SUHjzBn7GduG1411NS+BAm8k+I7Mf53zdJUcaAbx7Nb698LMQSk5dK5
zaVIjEXVAswXrLDIo6ahBCo7ng2SRPrqrokvpCN+k+vpI/kSqJWQVf3833YNAgMB
AAGjggE4MIIBNDAkBglghkgBhvhCAQ0EFxYVQ2VydGlmaWNhdCBDbGllbnQgU1NM
MB0GA1UdDgQWBBT27Qf/pIcXUVzdo27q1OH753TZBTCBngYDVR0jBIGWMIGTgBSZ
Tv26fc/u4anq9dpzvUrRRtrXfKF3pHUwczELMAkGA1UEBhMCZnIxDDAKBgNVBAgM
A2lkZjEOMAwGA1UEBwwFcGFyaXMxDjAMBgNVBAoMBXZpdGFtMRQwEgYDVQQLDAth
dXRob3JpdGllczEgMB4GA1UEAwwXY2Ffcm9vdF9jbGllbnQtZXh0ZXJuYWyCAgD8
MAkGA1UdEgQCMAAwDAYDVR0TAQH/BAIwADALBgNVHQ8EBAMCBeAwEQYJYIZIAYb4
QgEBBAQDAgeAMBMGA1UdJQQMMAoGCCsGAQUFBwMCMA0GCSqGSIb3DQEBCwUAA4IC
AQCOSZtURMzVAE+kuNpM/BWBslSOcbDKXabDesP9bw3zpSM72g1qQTDa+MX4Rptx
6dBFj/m9rdu6JKwM6BG9/XcHMpY/Ri+f32Nj8TBvQp1HYCSc83pIm3FSLEaginKZ
Z9f1BaShdsDTyTQuQ78eKVxxw9YEz4bsGqE2teiplS1Qdu3nwtll9QX3ioS6whO1
McWom9F73b/0m7QNfdC6C9ZJaUqHdZk5OaGa+N5AThbrzPHF8EhKo2uwrxChhuvO
wlY0tKN+5wALQ4oJG/CWOcZyTAT2Ok+Bj3fIj4UD0uzAW/oksz4OpE5MMxnrijq+
ZnWhsZWzCzuOMDYkYRE1sB0eRVd3KcxKghVYpbge6/ERaSvyt+JPInDY7o22wwM1
QJSxlni5e4wxUMrwO6uaP7Z8neCiEu8E0wFPhvTf7B7CNeI7F0XhMhnVMKnuWdA/
+LXCWlUuPBnmH/bci6zQgkBQa4jqONmsUAA0MiBuWF15za6hWTWOc5GMRV0hLPFw
4CM5uE+aYhyYk/ygS2XZF1S9+MXpmRKXSpka0GL3JshtVQ5p0/3wSgB+15PrSWkT
uRPM7rQvtlrE49zRUsNg4/AAPq3DzXGnNwjU+9dRbm59om6rlS9TXgJeJALpYPwc
k5Pn6QEvV4kDTaMQyb+LXY3rkYhpHayDSAirtyrvHlhsyQ==
-----END CERTIFICATE-----
