Certificate:
    Data:
        Version: 3 (0x2)
        Serial Number: 322 (0x142)
        Signature Algorithm: sha256WithRSAEncryption
        Issuer: C=fr, ST=idf, L=paris, O=vitam, OU=authorities, CN=ca_intermediate_client-external
        Validity
            Not Before: Jan 12 16:13:06 2022 GMT
            Not After : Jan 11 16:13:06 2025 GMT
        Subject: C=fr, ST=idf, L=paris, O=vitam, CN=reverse
        Subject Public Key Info:
            Public Key Algorithm: rsaEncryption
                RSA Public-Key: (4096 bit)
                Modulus:
                    00:ce:42:66:23:d2:77:47:17:6b:05:29:c5:c3:73:
                    5e:d0:c7:1a:74:35:9e:ac:a3:bb:46:0e:6f:17:fd:
                    59:7e:c4:ef:80:ae:6b:48:02:c4:d1:2c:26:34:be:
                    fa:1a:4d:02:d9:8f:5f:ae:23:83:3f:7f:82:92:c8:
                    1f:d9:97:52:74:62:2e:d4:e7:d0:d4:23:e1:bf:1b:
                    7d:46:4e:7e:bc:bd:7f:79:82:ca:cd:b2:f5:15:2c:
                    d2:93:7d:67:d5:4a:7b:83:7d:bf:f0:84:1d:89:92:
                    fb:e0:cf:88:81:54:4f:3d:b7:27:56:b0:cb:ac:c3:
                    a5:27:d9:e7:15:82:d3:59:7b:d7:ad:34:cf:e9:81:
                    18:b4:02:15:0a:15:83:76:ae:7b:60:da:a8:2e:cb:
                    1b:38:91:8d:26:45:fe:fb:6e:b1:3e:6f:32:24:40:
                    f0:37:48:1f:fb:2d:4a:5d:5c:0b:5b:ce:67:1c:35:
                    a5:da:53:8a:bc:da:c1:79:f8:ed:34:04:0b:dc:b0:
                    fc:38:e3:6b:17:4e:6d:2f:2a:7a:85:98:4c:e7:58:
                    30:8a:f9:c7:d6:86:14:ca:93:53:28:56:f9:ac:4d:
                    d7:e7:75:f4:d8:c5:9a:7c:d0:f0:dc:d5:7b:08:e0:
                    14:5a:96:fa:bb:ed:19:b7:40:67:ea:77:b2:3d:c3:
                    36:98:d1:ab:39:f7:5d:77:2d:b8:02:d4:a3:08:f1:
                    be:35:a7:bb:c2:6e:01:f6:bb:29:5e:fc:f5:55:83:
                    cf:03:dd:16:17:f7:17:5a:10:d6:30:6a:0b:66:31:
                    44:55:5c:7b:06:69:b3:be:9f:ab:6e:82:03:95:8d:
                    47:66:8c:23:3d:d6:cd:77:a4:20:73:56:f4:0a:59:
                    4b:96:fd:7c:b4:97:bd:18:b2:f9:57:cf:8d:a4:a7:
                    b2:70:b5:d3:7c:36:e7:9d:9a:8f:c8:85:75:2e:e9:
                    4b:9a:b1:fc:d6:61:39:41:ca:95:6c:09:07:10:23:
                    3e:ce:ee:c7:43:b1:33:cd:6a:1b:3b:98:e2:67:90:
                    05:d3:94:8c:7a:32:bd:7e:8f:f9:bd:45:dc:5c:a2:
                    a8:da:7f:8a:35:93:ca:38:da:97:31:bf:e7:a8:b1:
                    cc:58:65:79:79:1f:f6:4a:44:21:db:64:64:03:41:
                    28:51:9f:95:9b:b5:71:cd:5c:b4:6a:26:64:7a:a1:
                    4c:37:99:1e:41:b5:ce:d1:20:28:ad:f4:0a:80:a8:
                    3b:de:37:d9:e5:ea:9a:ef:4b:91:9e:a3:f5:e8:4a:
                    ed:a4:be:55:bb:1d:dd:d9:81:3c:80:3c:80:79:d4:
                    d7:00:96:92:7d:19:76:f3:70:88:f5:1c:6f:de:64:
                    91:0c:91
                Exponent: 65537 (0x10001)
        X509v3 extensions:
            Netscape Comment: 
                Certificat Client SSL
            X509v3 Subject Key Identifier: 
                F9:E6:48:05:D5:B8:3F:89:64:50:E1:52:98:FA:D6:A7:58:8A:E2:35
            X509v3 Authority Key Identifier: 
                keyid:D1:7F:00:C3:F0:94:D6:CB:E3:AE:F7:23:18:2E:1E:BA:53:66:F2:F8
                DirName:/C=fr/ST=idf/L=paris/O=vitam/OU=authorities/CN=ca_root_client-external
                serial:01:2D

            X509v3 Issuer Alternative Name: 
                <EMPTY>

            X509v3 Basic Constraints: critical
                CA:FALSE
            X509v3 Key Usage: 
                Digital Signature
            Netscape Cert Type: 
                SSL Client
            X509v3 Extended Key Usage: 
                TLS Web Client Authentication
    Signature Algorithm: sha256WithRSAEncryption
         01:45:77:2f:e5:86:34:d2:2f:30:83:fc:18:d8:e0:16:40:5a:
         76:66:ab:0e:cd:77:a8:b7:e0:a6:85:d0:82:d7:73:44:b1:b9:
         a0:4d:cf:43:66:82:1b:f0:c4:d6:10:dc:94:b0:35:ea:04:ce:
         f0:68:8d:5c:ac:b7:f3:2f:8d:67:99:e1:c7:6d:e0:8e:14:b8:
         a3:5d:e9:ce:19:eb:00:83:33:91:50:e7:98:51:c8:5f:f1:c6:
         2c:a3:6c:b2:c0:6d:45:9b:a2:67:69:a6:99:e8:a9:75:1a:d7:
         52:97:93:dd:33:58:a7:51:1f:50:e5:5d:27:84:f2:ad:a4:9b:
         9f:c0:0a:b0:e8:45:5b:e6:dd:b3:1b:2b:bc:82:2a:03:28:a7:
         69:4d:c0:94:61:1d:54:d5:0b:90:22:a6:07:8a:15:f0:68:18:
         85:8f:8c:5d:10:bf:d4:1f:76:29:88:b7:0e:73:e5:d2:a8:19:
         88:92:b9:ba:f9:02:c2:c4:7e:61:8f:16:54:13:c3:13:b1:da:
         3e:2f:26:e7:79:02:3a:86:77:43:34:11:9e:a0:0c:43:9a:fb:
         49:14:39:71:f3:03:4f:01:03:de:b3:2b:3a:6f:fc:0e:0a:14:
         9c:1b:3f:7a:f3:13:af:23:47:1c:cb:40:dd:21:09:b9:3d:31:
         98:59:73:93:ac:3d:ec:99:ae:35:ce:88:0b:0f:0f:49:da:6b:
         7e:1d:de:be:7a:a4:fa:73:ac:e2:75:56:11:9c:dc:65:1a:24:
         f1:3f:96:33:b1:7b:d0:b8:87:9b:72:55:56:8d:2f:0a:ea:f7:
         19:ac:c4:5e:ef:10:72:e5:eb:62:ef:26:21:10:ca:c2:92:47:
         d4:43:9e:68:79:46:0c:7c:91:d2:6c:da:96:08:56:44:da:35:
         14:23:02:47:d6:8d:45:bc:00:e0:2c:12:3b:01:76:16:32:b2:
         fb:78:97:a4:cd:81:eb:07:76:75:38:cd:fc:57:12:1c:4f:61:
         fd:52:3e:9c:43:54:b2:d4:83:5d:78:64:f1:07:f7:10:75:dd:
         32:3a:85:07:0a:7e:12:f6:ed:b0:5c:51:b6:78:bf:5e:23:35:
         05:5a:8a:37:ca:b2:30:0c:b6:7c:c9:2d:4f:a2:1c:ea:30:68:
         23:fb:e6:7c:a9:7e:78:e2:49:31:37:d8:bf:3d:63:57:0c:cd:
         1a:f0:c3:ea:dc:e5:78:de:05:63:d7:6d:3f:76:12:d9:e7:70:
         54:71:71:08:39:21:be:ef:43:2d:19:b7:27:a4:f0:8f:6f:3d:
         08:c8:bc:bc:ca:57:c4:eb:bb:13:9e:0e:1e:2d:20:bd:8d:c9:
         fe:54:68:5d:ec:80:82:51
-----BEGIN CERTIFICATE-----
MIIGfjCCBGagAwIBAgICAUIwDQYJKoZIhvcNAQELBQAwezELMAkGA1UEBhMCZnIx
DDAKBgNVBAgMA2lkZjEOMAwGA1UEBwwFcGFyaXMxDjAMBgNVBAoMBXZpdGFtMRQw
EgYDVQQLDAthdXRob3JpdGllczEoMCYGA1UEAwwfY2FfaW50ZXJtZWRpYXRlX2Ns
aWVudC1leHRlcm5hbDAeFw0yMjAxMTIxNjEzMDZaFw0yNTAxMTExNjEzMDZaME0x
CzAJBgNVBAYTAmZyMQwwCgYDVQQIDANpZGYxDjAMBgNVBAcMBXBhcmlzMQ4wDAYD
VQQKDAV2aXRhbTEQMA4GA1UEAwwHcmV2ZXJzZTCCAiIwDQYJKoZIhvcNAQEBBQAD
ggIPADCCAgoCggIBAM5CZiPSd0cXawUpxcNzXtDHGnQ1nqyju0YObxf9WX7E74Cu
a0gCxNEsJjS++hpNAtmPX64jgz9/gpLIH9mXUnRiLtTn0NQj4b8bfUZOfry9f3mC
ys2y9RUs0pN9Z9VKe4N9v/CEHYmS++DPiIFUTz23J1awy6zDpSfZ5xWC01l71600
z+mBGLQCFQoVg3aue2DaqC7LGziRjSZF/vtusT5vMiRA8DdIH/stSl1cC1vOZxw1
pdpTirzawXn47TQEC9yw/DjjaxdObS8qeoWYTOdYMIr5x9aGFMqTUyhW+axN1+d1
9NjFmnzQ8NzVewjgFFqW+rvtGbdAZ+p3sj3DNpjRqzn3XXctuALUowjxvjWnu8Ju
Afa7KV789VWDzwPdFhf3F1oQ1jBqC2YxRFVcewZps76fq26CA5WNR2aMIz3WzXek
IHNW9ApZS5b9fLSXvRiy+VfPjaSnsnC103w2552aj8iFdS7pS5qx/NZhOUHKlWwJ
BxAjPs7ux0OxM81qGzuY4meQBdOUjHoyvX6P+b1F3FyiqNp/ijWTyjjalzG/56ix
zFhleXkf9kpEIdtkZANBKFGflZu1cc1ctGomZHqhTDeZHkG1ztEgKK30CoCoO943
2eXqmu9LkZ6j9ehK7aS+Vbsd3dmBPIA8gHnU1wCWkn0ZdvNwiPUcb95kkQyRAgMB
AAGjggE4MIIBNDAkBglghkgBhvhCAQ0EFxYVQ2VydGlmaWNhdCBDbGllbnQgU1NM
MB0GA1UdDgQWBBT55kgF1bg/iWRQ4VKY+tanWIriNTCBngYDVR0jBIGWMIGTgBTR
fwDD8JTWy+Ou9yMYLh66U2by+KF3pHUwczELMAkGA1UEBhMCZnIxDDAKBgNVBAgM
A2lkZjEOMAwGA1UEBwwFcGFyaXMxDjAMBgNVBAoMBXZpdGFtMRQwEgYDVQQLDAth
dXRob3JpdGllczEgMB4GA1UEAwwXY2Ffcm9vdF9jbGllbnQtZXh0ZXJuYWyCAgEt
MAkGA1UdEgQCMAAwDAYDVR0TAQH/BAIwADALBgNVHQ8EBAMCB4AwEQYJYIZIAYb4
QgEBBAQDAgeAMBMGA1UdJQQMMAoGCCsGAQUFBwMCMA0GCSqGSIb3DQEBCwUAA4IC
AQABRXcv5YY00i8wg/wY2OAWQFp2ZqsOzXeot+CmhdCC13NEsbmgTc9DZoIb8MTW
ENyUsDXqBM7waI1crLfzL41nmeHHbeCOFLijXenOGesAgzORUOeYUchf8cYso2yy
wG1Fm6JnaaaZ6Kl1GtdSl5PdM1inUR9Q5V0nhPKtpJufwAqw6EVb5t2zGyu8gioD
KKdpTcCUYR1U1QuQIqYHihXwaBiFj4xdEL/UH3YpiLcOc+XSqBmIkrm6+QLCxH5h
jxZUE8MTsdo+LybneQI6hndDNBGeoAxDmvtJFDlx8wNPAQPesys6b/wOChScGz96
8xOvI0ccy0DdIQm5PTGYWXOTrD3sma41zogLDw9J2mt+Hd6+eqT6c6zidVYRnNxl
GiTxP5YzsXvQuIebclVWjS8K6vcZrMRe7xBy5eti7yYhEMrCkkfUQ55oeUYMfJHS
bNqWCFZE2jUUIwJH1o1FvADgLBI7AXYWMrL7eJekzYHrB3Z1OM38VxIcT2H9Uj6c
Q1Sy1INdeGTxB/cQdd0yOoUHCn4S9u2wXFG2eL9eIzUFWoo3yrIwDLZ8yS1Pohzq
MGgj++Z8qX544kkxN9i/PWNXDM0a8MPq3OV43gVj120/dhLZ53BUcXEIOSG+70Mt
GbcnpPCPbz0IyLy8ylfE67sTng4eLSC9jcn+VGhd7ICCUQ==
-----END CERTIFICATE-----
