Certificate:
    Data:
        Version: 3 (0x2)
        Serial Number: 292 (0x124)
    Signature Algorithm: sha256WithRSAEncryption
        Issuer: C=fr, ST=idf, L=paris, O=vitam, OU=authorities, CN=ca_intermediate_client-external
        Validity
            Not Before: Feb 22 16:37:10 2018 GMT
            Not After : Feb 21 16:37:10 2021 GMT
        Subject: C=fr, ST=idf, L=paris, O=vitam, CN=reverse
        Subject Public Key Info:
            Public Key Algorithm: rsaEncryption
                Public-Key: (4096 bit)
                Modulus:
                    00:ca:cb:e5:0c:ed:fd:7e:8f:4c:83:12:72:8c:a2:
                    ed:37:f7:44:a4:64:00:c0:73:8d:b8:94:24:34:9d:
                    8b:12:96:b9:c6:6d:a7:2f:71:f9:ce:a8:e8:eb:81:
                    f2:a4:98:ca:9b:97:6c:04:0f:9f:93:b7:70:2f:db:
                    13:3d:28:cc:0e:8b:87:87:0f:eb:3a:b1:d9:37:cc:
                    92:3d:3d:68:45:ac:93:77:9a:9e:5c:47:56:a1:68:
                    57:67:1a:16:22:c7:62:36:bc:ef:23:28:e8:21:73:
                    07:7d:b9:b4:ec:3e:56:b3:ba:69:53:6a:a0:23:d3:
                    66:f4:d8:f1:25:e1:34:9b:72:2f:8d:3c:11:27:fc:
                    17:50:9f:57:6a:34:b7:4a:50:e5:6b:45:7c:63:9d:
                    8a:6e:b5:d0:59:d9:d8:b6:fb:74:ea:0d:3c:82:8f:
                    27:09:29:c3:93:a8:d0:c9:ef:62:66:a6:1e:c0:a4:
                    da:34:03:83:21:54:8d:e7:c0:e1:f8:e7:46:0f:1f:
                    a0:90:7b:74:34:37:e0:b6:ac:55:72:62:9e:58:d8:
                    d8:8c:ee:20:85:01:e5:85:a2:12:fb:a0:02:7b:bb:
                    36:c8:77:2b:b7:a3:89:7c:de:bf:c5:4e:ab:98:f5:
                    59:20:e5:87:e0:a0:17:e1:cf:47:30:ca:bc:2f:39:
                    b6:84:87:97:bf:ff:4f:a8:92:39:24:d5:7e:d9:28:
                    93:d9:16:0c:2a:5b:b2:92:14:fc:21:58:18:a2:0d:
                    4e:d9:ca:15:22:bb:89:a0:e2:30:76:e1:c1:09:ba:
                    6d:9f:22:06:be:61:f3:1b:c3:f1:14:19:f8:48:c9:
                    3b:5e:49:ba:fd:8c:82:51:95:e8:0c:1c:8b:2b:c2:
                    f7:20:3f:de:07:54:47:9a:fa:db:36:14:1f:b4:59:
                    c6:ad:ee:e9:9b:5d:4d:e9:28:3b:a0:a3:4c:19:1a:
                    45:93:be:3a:11:1a:4f:47:0c:d6:c6:49:2b:6d:b5:
                    ed:f8:4f:f8:f5:e0:72:cb:83:3c:61:4e:7d:94:e0:
                    35:e8:8a:a0:b7:18:bd:a7:dc:53:99:10:98:62:41:
                    9b:24:ab:37:d1:5d:36:8a:e5:8c:dd:3b:9e:82:d9:
                    4a:c8:2e:ba:df:93:b0:d6:cb:3d:93:0c:ba:79:e8:
                    e4:e6:21:84:78:30:b3:52:b0:08:e2:24:34:2e:eb:
                    a9:1d:f8:56:5b:3c:a6:1b:de:e7:af:a2:13:36:07:
                    02:da:29:c7:8e:5c:e8:d7:be:85:81:61:04:1e:5f:
                    07:41:ba:03:20:13:bd:20:fd:46:63:0b:da:8e:f2:
                    53:99:d3:a7:56:dd:28:1a:f8:3b:30:b3:58:a7:4c:
                    9b:8d:9b
                Exponent: 65537 (0x10001)
        X509v3 extensions:
            Netscape Comment: 
                Certificat Client SSL
            X509v3 Subject Key Identifier: 
                3C:DD:45:6D:D3:E3:BF:17:DA:03:43:C7:EE:52:3A:41:4F:5A:83:80
            X509v3 Authority Key Identifier: 
                keyid:9C:8B:2B:E0:30:68:BA:20:26:1D:BA:07:A0:48:19:6B:2C:DE:0E:26
                DirName:/C=fr/ST=idf/L=paris/O=vitam/OU=authorities/CN=ca_root_client-external
                serial:FC

            X509v3 Issuer Alternative Name: 
                <EMPTY>

            X509v3 Basic Constraints: critical
                CA:FALSE
            X509v3 Key Usage: 
                Digital Signature, Non Repudiation, Key Encipherment
            Netscape Cert Type: 
                SSL Client
            X509v3 Extended Key Usage: 
                TLS Web Client Authentication
    Signature Algorithm: sha256WithRSAEncryption
         9c:9e:68:55:2d:11:5d:2e:de:98:9b:b7:57:fe:7c:67:43:95:
         2e:39:47:55:30:70:ef:32:96:3a:9c:37:34:1f:62:1d:3f:4a:
         5d:85:34:1d:30:8b:56:b5:43:a4:09:50:6d:42:d6:89:89:25:
         b0:62:27:7b:9a:06:60:22:f6:c2:d6:38:10:4e:3e:30:c8:d2:
         6e:33:7a:a1:33:2b:22:5c:1f:6a:3e:f9:ad:6d:d5:ca:80:3d:
         42:e8:30:32:7b:cc:38:ae:27:a1:25:9e:13:1e:8c:20:3d:8d:
         98:00:bb:1c:0b:2b:b9:bd:4b:cc:32:dc:8f:53:c1:e9:28:97:
         74:8f:96:d7:89:84:a5:4b:01:10:8e:ce:34:6a:cc:b8:08:03:
         4f:a3:77:c5:11:d0:e9:76:81:54:c7:ce:5a:9d:ed:44:3b:36:
         24:cf:fc:af:5d:77:45:f2:70:31:c4:01:63:79:3d:2c:0c:8e:
         a9:77:3d:1c:a8:61:25:44:1e:5a:0a:89:34:fb:ba:7a:6e:43:
         01:ca:70:9f:ec:eb:8f:41:46:df:8c:5d:9e:21:5f:4e:0c:6f:
         68:1e:b3:80:b4:99:23:43:bd:ba:12:59:31:5a:dc:f2:1a:61:
         81:3f:b7:fd:9d:34:56:95:7a:8e:aa:96:7f:84:f6:fb:51:5f:
         8a:8d:a6:b3:b1:00:b3:0f:0d:88:4a:01:08:32:ff:4f:19:f3:
         59:cd:28:cc:c3:38:be:da:af:ff:bd:6f:c1:e6:b5:8f:2f:97:
         2e:cf:22:11:99:08:4f:16:62:dd:28:0a:3a:48:0a:7a:6b:0e:
         73:0a:3a:7d:43:a4:cc:c0:d9:8f:f3:2b:dd:6e:55:89:6d:35:
         af:28:47:fd:f6:01:8b:74:fe:9c:4a:5a:9d:03:44:7c:b8:3f:
         fc:23:a8:2b:4e:45:67:22:2e:96:6f:3c:33:4e:18:d9:00:ac:
         6d:a2:dc:37:15:8c:9b:2a:63:5f:ee:3f:78:1d:ca:7f:03:86:
         2c:45:ab:b3:cb:8e:67:f5:8b:45:f9:a2:67:c8:5a:1c:e2:9f:
         20:96:8e:58:ae:81:04:31:95:08:ad:75:91:51:74:d9:95:91:
         7e:69:c5:e2:e4:ce:ca:41:05:24:93:65:97:68:04:0e:d3:64:
         1c:6a:54:47:11:e1:a0:5f:7c:ff:62:d2:ef:c5:a9:55:a0:71:
         02:3f:9e:1a:60:5a:93:a9:06:b0:b4:c9:e4:32:69:bb:6e:d3:
         c8:86:db:a1:44:08:37:f9:59:44:09:a1:cc:e4:3c:01:70:ed:
         7c:f1:3e:bf:2a:27:b9:16:26:68:d3:de:bd:a6:3b:7f:00:39:
         a6:b1:58:7c:bb:9a:d7:08
-----BEGIN CERTIFICATE-----
MIIGfjCCBGagAwIBAgICASQwDQYJKoZIhvcNAQELBQAwezELMAkGA1UEBhMCZnIx
DDAKBgNVBAgMA2lkZjEOMAwGA1UEBwwFcGFyaXMxDjAMBgNVBAoMBXZpdGFtMRQw
EgYDVQQLDAthdXRob3JpdGllczEoMCYGA1UEAwwfY2FfaW50ZXJtZWRpYXRlX2Ns
aWVudC1leHRlcm5hbDAeFw0xODAyMjIxNjM3MTBaFw0yMTAyMjExNjM3MTBaME0x
CzAJBgNVBAYTAmZyMQwwCgYDVQQIDANpZGYxDjAMBgNVBAcMBXBhcmlzMQ4wDAYD
VQQKDAV2aXRhbTEQMA4GA1UEAwwHcmV2ZXJzZTCCAiIwDQYJKoZIhvcNAQEBBQAD
ggIPADCCAgoCggIBAMrL5Qzt/X6PTIMScoyi7Tf3RKRkAMBzjbiUJDSdixKWucZt
py9x+c6o6OuB8qSYypuXbAQPn5O3cC/bEz0ozA6Lh4cP6zqx2TfMkj09aEWsk3ea
nlxHVqFoV2caFiLHYja87yMo6CFzB325tOw+VrO6aVNqoCPTZvTY8SXhNJtyL408
ESf8F1CfV2o0t0pQ5WtFfGOdim610FnZ2Lb7dOoNPIKPJwkpw5Oo0MnvYmamHsCk
2jQDgyFUjefA4fjnRg8foJB7dDQ34LasVXJinljY2IzuIIUB5YWiEvugAnu7Nsh3
K7ejiXzev8VOq5j1WSDlh+CgF+HPRzDKvC85toSHl7//T6iSOSTVftkok9kWDCpb
spIU/CFYGKINTtnKFSK7iaDiMHbhwQm6bZ8iBr5h8xvD8RQZ+EjJO15Juv2MglGV
6AwciyvC9yA/3gdUR5r62zYUH7RZxq3u6ZtdTekoO6CjTBkaRZO+OhEaT0cM1sZJ
K2217fhP+PXgcsuDPGFOfZTgNeiKoLcYvafcU5kQmGJBmySrN9FdNorljN07noLZ
Ssguut+TsNbLPZMMunno5OYhhHgws1KwCOIkNC7rqR34Vls8phve56+iEzYHAtop
x45c6Ne+hYFhBB5fB0G6AyATvSD9RmML2o7yU5nTp1bdKBr4OzCzWKdMm42bAgMB
AAGjggE4MIIBNDAkBglghkgBhvhCAQ0EFxYVQ2VydGlmaWNhdCBDbGllbnQgU1NM
MB0GA1UdDgQWBBQ83UVt0+O/F9oDQ8fuUjpBT1qDgDCBngYDVR0jBIGWMIGTgBSc
iyvgMGi6ICYdugegSBlrLN4OJqF3pHUwczELMAkGA1UEBhMCZnIxDDAKBgNVBAgM
A2lkZjEOMAwGA1UEBwwFcGFyaXMxDjAMBgNVBAoMBXZpdGFtMRQwEgYDVQQLDAth
dXRob3JpdGllczEgMB4GA1UEAwwXY2Ffcm9vdF9jbGllbnQtZXh0ZXJuYWyCAgD8
MAkGA1UdEgQCMAAwDAYDVR0TAQH/BAIwADALBgNVHQ8EBAMCBeAwEQYJYIZIAYb4
QgEBBAQDAgeAMBMGA1UdJQQMMAoGCCsGAQUFBwMCMA0GCSqGSIb3DQEBCwUAA4IC
AQCcnmhVLRFdLt6Ym7dX/nxnQ5UuOUdVMHDvMpY6nDc0H2IdP0pdhTQdMItWtUOk
CVBtQtaJiSWwYid7mgZgIvbC1jgQTj4wyNJuM3qhMysiXB9qPvmtbdXKgD1C6DAy
e8w4riehJZ4THowgPY2YALscCyu5vUvMMtyPU8HpKJd0j5bXiYSlSwEQjs40asy4
CANPo3fFEdDpdoFUx85ane1EOzYkz/yvXXdF8nAxxAFjeT0sDI6pdz0cqGElRB5a
Cok0+7p6bkMBynCf7OuPQUbfjF2eIV9ODG9oHrOAtJkjQ726ElkxWtzyGmGBP7f9
nTRWlXqOqpZ/hPb7UV+KjaazsQCzDw2ISgEIMv9PGfNZzSjMwzi+2q//vW/B5rWP
L5cuzyIRmQhPFmLdKAo6SAp6aw5zCjp9Q6TMwNmP8yvdblWJbTWvKEf99gGLdP6c
SlqdA0R8uD/8I6grTkVnIi6WbzwzThjZAKxtotw3FYybKmNf7j94Hcp/A4YsRauz
y45n9YtF+aJnyFoc4p8glo5YroEEMZUIrXWRUXTZlZF+acXi5M7KQQUkk2WXaAQO
02QcalRHEeGgX3z/YtLvxalVoHECP54aYFqTqQawtMnkMmm7btPIhtuhRAg3+VlE
CaHM5DwBcO188T6/Kie5FiZo0969pjt/ADmmsVh8u5rXCA==
-----END CERTIFICATE-----
