Certificate:
    Data:
        Version: 3 (0x2)
        Serial Number: 317 (0x13d)
        Signature Algorithm: sha256WithRSAEncryption
        Issuer: C=fr, ST=idf, L=paris, O=vitam, OU=authorities, CN=ca_intermediate_client-external
        Validity
            Not Before: Nov 10 14:35:58 2021 GMT
            Not After : Nov  9 14:35:58 2024 GMT
        Subject: C=fr, ST=idf, L=paris, O=vitam, CN=reverse
        Subject Public Key Info:
            Public Key Algorithm: rsaEncryption
                RSA Public-Key: (4096 bit)
                Modulus:
                    00:b1:45:1a:45:de:99:a6:5c:85:58:4a:bf:9c:95:
                    f6:0c:3a:12:17:ab:98:19:95:39:f5:74:6b:42:35:
                    b6:80:3a:0b:29:19:70:55:c5:06:98:cd:96:a1:5c:
                    ed:06:09:ea:15:f1:cb:e8:a6:62:c2:fb:ab:52:f6:
                    ab:95:f5:f6:a5:e2:49:83:21:eb:48:df:94:b3:de:
                    a1:eb:94:aa:96:f3:67:b0:92:39:21:0c:3e:b8:57:
                    72:48:c8:ef:ad:19:64:88:48:eb:97:50:ad:ec:24:
                    15:e3:ff:c9:26:03:d9:bd:d0:bc:37:33:3f:e7:9a:
                    fc:6f:67:1f:43:fb:64:1b:b5:2e:8f:db:11:7f:e2:
                    5c:0d:99:3c:e1:d4:dd:e0:2e:ee:d8:bb:5e:f4:68:
                    2e:9c:2a:73:7e:7a:2c:6d:c9:cf:b1:c6:bd:09:54:
                    5f:d6:eb:84:70:60:f7:30:a1:e4:aa:75:cf:58:65:
                    e8:52:0f:7d:c3:97:35:98:80:58:73:45:33:d8:25:
                    19:af:c9:8c:cc:1e:0e:f1:81:ef:c4:35:44:0a:01:
                    a0:4f:d7:a4:59:6b:26:06:28:90:44:17:c4:4b:6f:
                    cf:af:52:75:ae:e8:49:08:34:ba:15:8c:56:ef:13:
                    8c:fc:65:a4:bc:d3:57:50:e9:a8:73:f1:2a:6a:f0:
                    67:7c:6f:fc:fb:bb:97:a5:3d:e0:f7:13:83:d9:32:
                    00:34:8d:cb:08:7c:db:5b:20:cf:70:93:c0:fd:44:
                    e2:a9:be:f8:f9:86:87:9a:74:d6:ba:13:00:03:16:
                    0b:ad:d2:4a:92:ee:b7:2a:93:d2:d5:a9:70:86:3c:
                    ab:cc:f9:30:4d:77:f7:cc:d7:0b:ad:82:49:84:f6:
                    dd:99:b1:a1:07:f9:43:35:64:a8:06:80:8f:cd:f8:
                    3b:76:da:4f:75:bb:09:63:32:9a:44:9c:72:85:a6:
                    66:50:ad:7e:ac:4f:13:8d:5a:84:43:60:2a:6e:33:
                    e3:2d:36:4d:a4:fb:88:c8:2f:e1:2c:2c:72:cb:8e:
                    5f:70:7c:02:d4:09:6c:4f:ef:05:ce:ec:78:46:46:
                    c7:e1:2b:4f:e6:93:cb:19:83:d6:f8:62:c0:e9:d1:
                    c8:6e:16:66:52:2b:65:b0:2d:fd:e6:91:f7:fa:b3:
                    6d:8c:da:88:25:53:3f:5e:cb:45:2f:72:9f:20:27:
                    66:1c:67:94:3c:0d:e6:ff:9a:a5:79:93:39:1a:c3:
                    e8:85:31:e9:45:4e:70:05:7b:60:62:ec:80:f5:33:
                    7c:fd:6c:32:f8:55:68:d3:5c:94:ad:2e:83:8e:80:
                    09:84:0d:9a:fc:ff:6d:74:53:d9:fe:57:16:c6:42:
                    cf:d5:53
                Exponent: 65537 (0x10001)
        X509v3 extensions:
            Netscape Comment: 
                Certificat Client SSL
            X509v3 Subject Key Identifier: 
                DC:31:57:9A:7E:9A:AA:DF:9D:E7:3C:50:3D:48:17:0C:1A:85:68:44
            X509v3 Authority Key Identifier: 
                keyid:D1:7F:00:C3:F0:94:D6:CB:E3:AE:F7:23:18:2E:1E:BA:53:66:F2:F8
                DirName:/C=fr/ST=idf/L=paris/O=vitam/OU=authorities/CN=ca_root_client-external
                serial:01:2D

            X509v3 Issuer Alternative Name: 
                <EMPTY>

            X509v3 Basic Constraints: critical
                CA:FALSE
            X509v3 Key Usage: 
                Digital Signature
            Netscape Cert Type: 
                SSL Client
            X509v3 Extended Key Usage: 
                TLS Web Client Authentication
    Signature Algorithm: sha256WithRSAEncryption
         3a:2e:e8:47:77:e3:2b:ab:86:6f:6e:7b:ba:25:13:7b:29:1b:
         05:ed:5c:7c:a6:1c:cd:fe:c0:be:ee:ae:68:e9:1f:92:8a:80:
         1e:e9:f6:bc:ae:be:3c:87:f2:cf:47:3f:be:0f:77:e5:4d:6a:
         49:ce:a5:ad:f8:b8:d0:fa:5f:d7:3e:06:b3:fd:c1:f4:d6:18:
         36:6f:a9:d2:eb:9c:da:8d:22:43:6c:d4:b5:f1:a7:b4:89:d3:
         e2:dd:30:c8:7f:8e:bd:1c:3b:e0:19:0d:8a:7c:b5:19:54:39:
         00:a1:0a:eb:8b:cc:89:6e:2c:b3:dd:c7:fa:5f:f4:8a:11:cb:
         c3:1f:d3:79:5d:06:50:57:7b:8c:ec:e0:36:02:3e:bf:6c:6b:
         2c:db:c4:f2:6d:44:5c:d5:80:92:a5:df:93:0c:09:f2:43:aa:
         4e:cb:78:c4:ca:9d:fb:b2:60:93:07:e8:18:f0:59:da:a0:b6:
         c1:cf:0e:c0:d3:0b:ba:09:52:73:1c:4d:b9:f5:84:a3:4f:99:
         85:78:f8:1b:41:51:ba:f2:a3:eb:1c:35:e3:76:61:05:4f:72:
         2b:f2:3f:cc:2c:66:ca:df:fc:12:bc:5d:9f:46:dc:d2:17:5b:
         f2:b1:46:96:bf:de:43:50:23:f9:9a:8c:aa:fc:05:3b:f1:ce:
         f9:a9:ed:c2:52:17:0f:f9:95:83:95:92:cc:dc:c3:a6:dc:8e:
         9d:b2:c7:19:05:b6:6e:d2:11:6c:2d:1d:8f:d0:b5:4d:0f:44:
         91:b3:b3:2f:98:76:b9:30:91:40:14:23:8d:82:20:ec:03:1f:
         ee:6a:6c:76:d9:9f:f6:5d:6f:15:71:b5:3a:de:fc:d3:3e:83:
         ef:74:1f:a0:15:f3:5a:1f:23:c5:6e:a3:e3:2b:7f:1b:6d:98:
         4d:e0:78:52:8c:58:78:9c:c0:51:43:db:59:c6:97:3a:b2:02:
         4b:eb:02:e2:b4:44:b9:8d:a2:63:97:aa:a6:0b:5c:7a:66:35:
         98:64:41:75:5f:a5:a9:e9:53:d4:2f:f0:80:90:ab:13:27:c6:
         04:7c:7a:08:13:5b:8b:d6:f0:8c:a7:43:58:a7:7e:39:7e:62:
         6a:33:3b:92:d4:6c:ea:a5:50:fb:2d:68:39:25:f6:88:22:4a:
         39:d3:9f:cd:69:06:c8:42:39:54:d3:0e:d6:72:13:c0:ee:1e:
         c5:3d:2e:1e:59:d8:93:b3:41:7a:5c:e8:97:71:f5:6c:f1:29:
         be:e8:b4:0e:16:4d:0d:03:6e:bb:bb:63:84:2c:88:40:40:33:
         65:99:f1:7c:6d:3a:63:96:72:0d:0c:0f:fd:ca:82:f4:45:33:
         b3:f9:06:07:92:34:18:be
-----BEGIN CERTIFICATE-----
MIIGfjCCBGagAwIBAgICAT0wDQYJKoZIhvcNAQELBQAwezELMAkGA1UEBhMCZnIx
DDAKBgNVBAgMA2lkZjEOMAwGA1UEBwwFcGFyaXMxDjAMBgNVBAoMBXZpdGFtMRQw
EgYDVQQLDAthdXRob3JpdGllczEoMCYGA1UEAwwfY2FfaW50ZXJtZWRpYXRlX2Ns
aWVudC1leHRlcm5hbDAeFw0yMTExMTAxNDM1NThaFw0yNDExMDkxNDM1NThaME0x
CzAJBgNVBAYTAmZyMQwwCgYDVQQIDANpZGYxDjAMBgNVBAcMBXBhcmlzMQ4wDAYD
VQQKDAV2aXRhbTEQMA4GA1UEAwwHcmV2ZXJzZTCCAiIwDQYJKoZIhvcNAQEBBQAD
ggIPADCCAgoCggIBALFFGkXemaZchVhKv5yV9gw6EhermBmVOfV0a0I1toA6CykZ
cFXFBpjNlqFc7QYJ6hXxy+imYsL7q1L2q5X19qXiSYMh60jflLPeoeuUqpbzZ7CS
OSEMPrhXckjI760ZZIhI65dQrewkFeP/ySYD2b3QvDczP+ea/G9nH0P7ZBu1Lo/b
EX/iXA2ZPOHU3eAu7ti7XvRoLpwqc356LG3Jz7HGvQlUX9brhHBg9zCh5Kp1z1hl
6FIPfcOXNZiAWHNFM9glGa/JjMweDvGB78Q1RAoBoE/XpFlrJgYokEQXxEtvz69S
da7oSQg0uhWMVu8TjPxlpLzTV1DpqHPxKmrwZ3xv/Pu7l6U94PcTg9kyADSNywh8
21sgz3CTwP1E4qm++PmGh5p01roTAAMWC63SSpLutyqT0tWpcIY8q8z5ME1398zX
C62CSYT23ZmxoQf5QzVkqAaAj834O3baT3W7CWMymkSccoWmZlCtfqxPE41ahENg
Km4z4y02TaT7iMgv4SwscsuOX3B8AtQJbE/vBc7seEZGx+ErT+aTyxmD1vhiwOnR
yG4WZlIrZbAt/eaR9/qzbYzaiCVTP17LRS9ynyAnZhxnlDwN5v+apXmTORrD6IUx
6UVOcAV7YGLsgPUzfP1sMvhVaNNclK0ug46ACYQNmvz/bXRT2f5XFsZCz9VTAgMB
AAGjggE4MIIBNDAkBglghkgBhvhCAQ0EFxYVQ2VydGlmaWNhdCBDbGllbnQgU1NM
MB0GA1UdDgQWBBTcMVeafpqq353nPFA9SBcMGoVoRDCBngYDVR0jBIGWMIGTgBTR
fwDD8JTWy+Ou9yMYLh66U2by+KF3pHUwczELMAkGA1UEBhMCZnIxDDAKBgNVBAgM
A2lkZjEOMAwGA1UEBwwFcGFyaXMxDjAMBgNVBAoMBXZpdGFtMRQwEgYDVQQLDAth
dXRob3JpdGllczEgMB4GA1UEAwwXY2Ffcm9vdF9jbGllbnQtZXh0ZXJuYWyCAgEt
MAkGA1UdEgQCMAAwDAYDVR0TAQH/BAIwADALBgNVHQ8EBAMCB4AwEQYJYIZIAYb4
QgEBBAQDAgeAMBMGA1UdJQQMMAoGCCsGAQUFBwMCMA0GCSqGSIb3DQEBCwUAA4IC
AQA6LuhHd+Mrq4Zvbnu6JRN7KRsF7Vx8phzN/sC+7q5o6R+SioAe6fa8rr48h/LP
Rz++D3flTWpJzqWt+LjQ+l/XPgaz/cH01hg2b6nS65zajSJDbNS18ae0idPi3TDI
f469HDvgGQ2KfLUZVDkAoQrri8yJbiyz3cf6X/SKEcvDH9N5XQZQV3uM7OA2Aj6/
bGss28TybURc1YCSpd+TDAnyQ6pOy3jEyp37smCTB+gY8FnaoLbBzw7A0wu6CVJz
HE259YSjT5mFePgbQVG68qPrHDXjdmEFT3Ir8j/MLGbK3/wSvF2fRtzSF1vysUaW
v95DUCP5moyq/AU78c75qe3CUhcP+ZWDlZLM3MOm3I6dsscZBbZu0hFsLR2P0LVN
D0SRs7MvmHa5MJFAFCONgiDsAx/uamx22Z/2XW8VcbU63vzTPoPvdB+gFfNaHyPF
bqPjK38bbZhN4HhSjFh4nMBRQ9tZxpc6sgJL6wLitES5jaJjl6qmC1x6ZjWYZEF1
X6Wp6VPUL/CAkKsTJ8YEfHoIE1uL1vCMp0NYp345fmJqMzuS1GzqpVD7LWg5JfaI
Iko505/NaQbIQjlU0w7WchPA7h7FPS4eWdiTs0F6XOiXcfVs8Sm+6LQOFk0NA267
u2OELIhAQDNlmfF8bTpjlnINDA/9yoL0RTOz+QYHkjQYvg==
-----END CERTIFICATE-----
