Certificate:
    Data:
        Version: 3 (0x2)
        Serial Number: 249 (0xf9)
    Signature Algorithm: sha256WithRSAEncryption
        Issuer: C=fr, ST=idf, L=paris, O=vitam, OU=authorities, CN=ca_intermediate_client-external
        Validity
            Not Before: Aug  9 16:04:56 2017 GMT
            Not After : Aug  8 16:04:56 2020 GMT
        Subject: C=fr, ST=idf, L=paris, O=vitam, CN=reverse
        Subject Public Key Info:
            Public Key Algorithm: rsaEncryption
                Public-Key: (4096 bit)
                Modulus:
                    00:d9:9f:73:6f:7d:b5:1c:b2:94:6f:ce:5d:90:d3:
                    03:81:22:0d:1b:0d:90:d9:fe:10:97:4e:d2:73:a3:
                    0a:7a:35:bb:ce:22:1f:61:f1:b4:94:e2:a9:12:f3:
                    14:b9:bc:68:ff:cd:ff:6b:d4:82:a4:90:0e:ef:e0:
                    b6:64:60:69:9b:10:e7:5a:b2:0a:e0:cb:70:e4:5d:
                    ca:1b:3f:4c:40:85:50:6b:36:c9:64:95:f9:0c:86:
                    9f:d9:11:82:2f:f5:a8:49:5a:d9:8d:c6:5e:ea:03:
                    9b:6a:28:c0:af:45:4f:a0:84:bb:6a:68:90:85:95:
                    43:49:58:47:ae:77:a9:54:c8:f5:cb:58:4b:77:cb:
                    f5:64:41:ee:dd:25:c8:53:a1:df:e7:d8:be:eb:a9:
                    dc:66:78:7d:83:87:01:5d:5a:22:30:93:ef:ba:f7:
                    97:b6:ba:54:25:e0:ea:fa:8c:11:84:f3:13:79:f8:
                    ea:fe:9b:25:dc:cf:bd:ec:7f:8b:cf:f7:6d:32:22:
                    bc:2d:41:e0:49:d9:6e:b6:f0:a0:9d:43:5f:6d:8a:
                    4a:1d:9b:01:a6:17:d9:7d:0c:d7:c3:7f:79:e4:6a:
                    47:de:16:5a:26:ed:2d:c3:d4:d6:fe:d4:fb:7f:81:
                    74:57:32:c2:67:41:d5:77:a6:6f:f5:ad:70:52:9b:
                    3e:ea:4c:42:8b:c2:c0:b6:e4:93:22:c5:65:0b:cb:
                    a8:29:f1:bb:0d:f2:2b:a3:94:ab:9a:34:35:30:d7:
                    6c:c9:26:ee:a4:b7:4b:fe:2f:7c:42:fa:e7:f6:15:
                    88:d6:95:2c:0d:a3:7b:a3:b6:05:65:d3:65:91:5a:
                    fa:60:48:5d:32:df:55:09:66:cd:34:8f:4e:dc:e3:
                    dd:e9:48:84:52:f9:7f:4b:92:a0:8e:ed:5d:2a:c4:
                    97:24:12:c7:e6:ed:1e:eb:e7:21:3b:98:62:f1:1e:
                    69:a3:3b:ec:72:5c:3d:87:18:ed:d8:b2:d4:1c:8b:
                    a9:7c:62:36:d9:1e:18:78:b0:62:d7:5b:0f:08:bc:
                    14:50:83:e2:0b:d4:3e:9f:36:5f:c3:a8:b1:1d:b7:
                    c4:ee:ca:27:30:6e:b0:57:65:03:c4:a5:8b:2b:34:
                    13:78:b7:5e:24:12:ad:2a:e1:2a:5a:72:12:82:38:
                    72:eb:2a:2d:a5:45:62:5f:3d:85:25:45:37:da:75:
                    91:bd:d4:ee:90:c0:50:cb:a9:a7:12:68:62:5f:23:
                    30:69:0a:8b:b2:9d:ee:72:bb:4a:d7:6f:5a:71:ee:
                    a4:33:9d:7e:6f:e8:1c:2b:87:9e:d8:91:9b:4e:b0:
                    4f:5e:14:b8:e1:ad:89:e4:6d:f6:95:bf:25:fa:66:
                    78:e3:b1
                Exponent: 65537 (0x10001)
        X509v3 extensions:
            Netscape Comment: 
                Certificat Client SSL
            X509v3 Subject Key Identifier: 
                DC:B7:7F:25:C6:2F:AF:34:2A:A1:08:79:51:05:25:8A:08:FF:49:15
            X509v3 Authority Key Identifier: 
                keyid:96:3E:D4:77:D3:84:42:19:D3:62:5C:41:7C:64:76:26:5C:39:95:0D
                DirName:/C=fr/ST=idf/L=paris/O=vitam/OU=authorities/CN=ca_root_client-external
                serial:F6

            X509v3 Issuer Alternative Name: 
                <EMPTY>

            X509v3 Basic Constraints: critical
                CA:FALSE
            X509v3 Key Usage: 
                Digital Signature, Non Repudiation, Key Encipherment
            Netscape Cert Type: 
                SSL Client
            X509v3 Extended Key Usage: 
                TLS Web Client Authentication
    Signature Algorithm: sha256WithRSAEncryption
         1c:3f:d1:ce:24:22:e8:8d:b9:76:f3:13:f2:27:8b:1c:57:b8:
         1b:48:2d:34:ec:5d:98:64:c3:f9:cb:4a:ec:2a:45:2f:30:16:
         a1:2c:63:68:04:aa:15:97:bc:58:2b:03:c6:4d:61:08:31:f5:
         5c:5b:63:65:b7:6f:ce:49:db:35:51:bd:4e:8e:f9:f9:e5:ce:
         eb:40:ea:4f:dd:b1:f5:17:04:b5:47:44:77:27:e2:ae:af:d4:
         21:be:eb:b5:76:a2:6f:9e:f3:ab:ee:41:ad:6a:fc:f6:9f:de:
         08:21:08:e8:e6:06:7f:a4:c1:7e:08:c0:c1:37:34:ab:50:c1:
         96:8f:2e:26:e5:1c:fe:a2:5c:45:79:cd:b1:40:79:8f:5b:64:
         6a:53:70:e8:ca:b6:fd:1d:79:2d:37:b8:c8:1e:7a:56:78:d4:
         ca:9a:84:b2:cf:9b:f1:8a:45:81:1c:74:93:0c:56:5a:db:b4:
         4e:6b:1e:a4:1b:03:7f:a7:26:93:90:c4:ec:01:ff:14:8b:6a:
         4a:4b:55:f8:9a:35:05:f0:e3:c6:66:d1:3b:40:f0:63:23:94:
         aa:ad:fa:05:be:18:74:aa:10:c6:22:f8:eb:ea:b7:b3:4c:86:
         73:40:b0:08:45:3a:d7:38:45:87:c8:63:eb:46:f7:85:ee:2a:
         2e:8e:db:b8:a1:d4:40:90:d7:ab:bc:af:e0:a9:a6:df:86:0e:
         2a:21:96:a7:b1:3d:2c:89:a6:73:b6:23:c6:2c:d9:a4:4c:14:
         44:ff:78:37:d6:ef:a1:34:b6:fa:8e:d1:b1:37:d0:9c:45:8b:
         8e:0f:6e:1e:5c:7a:c3:1a:e6:bb:68:84:ef:98:e4:31:2a:1f:
         cd:4a:f5:17:8c:dc:ed:20:25:35:6c:fc:48:4a:89:b3:ea:c4:
         b9:82:74:7d:3c:d0:f2:73:f6:a3:60:2c:67:fa:54:83:96:af:
         12:7f:48:4b:48:be:d8:19:0e:cd:ed:09:d6:45:6a:64:70:83:
         00:e6:d8:e9:b0:07:b7:3c:a3:a7:ef:86:b2:53:59:aa:77:df:
         1f:cd:a7:d1:f2:f7:9e:a8:86:0c:ae:e6:bb:62:0c:85:69:ff:
         3a:1a:96:85:03:7f:91:c6:49:59:dd:2b:87:cd:6b:bf:fb:6a:
         74:4b:74:51:bb:0c:2f:f7:4d:cb:33:2b:b3:fa:e8:be:3a:63:
         2e:6f:e9:09:f6:9e:c1:ee:7c:e4:ba:d0:66:14:fc:d1:7f:94:
         e8:a1:2c:d8:67:96:f1:bb:9f:d0:b5:04:e8:3e:a2:1e:81:1d:
         da:21:58:b1:e3:08:35:fa:60:6a:c3:7e:c1:20:b8:be:e1:13:
         d6:ae:ae:2f:31:4d:90:d5
-----BEGIN CERTIFICATE-----
MIIGfjCCBGagAwIBAgICAPkwDQYJKoZIhvcNAQELBQAwezELMAkGA1UEBhMCZnIx
DDAKBgNVBAgMA2lkZjEOMAwGA1UEBwwFcGFyaXMxDjAMBgNVBAoMBXZpdGFtMRQw
EgYDVQQLDAthdXRob3JpdGllczEoMCYGA1UEAwwfY2FfaW50ZXJtZWRpYXRlX2Ns
aWVudC1leHRlcm5hbDAeFw0xNzA4MDkxNjA0NTZaFw0yMDA4MDgxNjA0NTZaME0x
CzAJBgNVBAYTAmZyMQwwCgYDVQQIDANpZGYxDjAMBgNVBAcMBXBhcmlzMQ4wDAYD
VQQKDAV2aXRhbTEQMA4GA1UEAwwHcmV2ZXJzZTCCAiIwDQYJKoZIhvcNAQEBBQAD
ggIPADCCAgoCggIBANmfc299tRyylG/OXZDTA4EiDRsNkNn+EJdO0nOjCno1u84i
H2HxtJTiqRLzFLm8aP/N/2vUgqSQDu/gtmRgaZsQ51qyCuDLcORdyhs/TECFUGs2
yWSV+QyGn9kRgi/1qEla2Y3GXuoDm2oowK9FT6CEu2pokIWVQ0lYR653qVTI9ctY
S3fL9WRB7t0lyFOh3+fYvuup3GZ4fYOHAV1aIjCT77r3l7a6VCXg6vqMEYTzE3n4
6v6bJdzPvex/i8/3bTIivC1B4EnZbrbwoJ1DX22KSh2bAaYX2X0M18N/eeRqR94W
WibtLcPU1v7U+3+BdFcywmdB1Xemb/WtcFKbPupMQovCwLbkkyLFZQvLqCnxuw3y
K6OUq5o0NTDXbMkm7qS3S/4vfEL65/YViNaVLA2je6O2BWXTZZFa+mBIXTLfVQlm
zTSPTtzj3elIhFL5f0uSoI7tXSrElyQSx+btHuvnITuYYvEeaaM77HJcPYcY7diy
1ByLqXxiNtkeGHiwYtdbDwi8FFCD4gvUPp82X8OosR23xO7KJzBusFdlA8Sliys0
E3i3XiQSrSrhKlpyEoI4cusqLaVFYl89hSVFN9p1kb3U7pDAUMuppxJoYl8jMGkK
i7Kd7nK7StdvWnHupDOdfm/oHCuHntiRm06wT14UuOGtieRt9pW/JfpmeOOxAgMB
AAGjggE4MIIBNDAkBglghkgBhvhCAQ0EFxYVQ2VydGlmaWNhdCBDbGllbnQgU1NM
MB0GA1UdDgQWBBTct38lxi+vNCqhCHlRBSWKCP9JFTCBngYDVR0jBIGWMIGTgBSW
PtR304RCGdNiXEF8ZHYmXDmVDaF3pHUwczELMAkGA1UEBhMCZnIxDDAKBgNVBAgM
A2lkZjEOMAwGA1UEBwwFcGFyaXMxDjAMBgNVBAoMBXZpdGFtMRQwEgYDVQQLDAth
dXRob3JpdGllczEgMB4GA1UEAwwXY2Ffcm9vdF9jbGllbnQtZXh0ZXJuYWyCAgD2
MAkGA1UdEgQCMAAwDAYDVR0TAQH/BAIwADALBgNVHQ8EBAMCBeAwEQYJYIZIAYb4
QgEBBAQDAgeAMBMGA1UdJQQMMAoGCCsGAQUFBwMCMA0GCSqGSIb3DQEBCwUAA4IC
AQAcP9HOJCLojbl28xPyJ4scV7gbSC007F2YZMP5y0rsKkUvMBahLGNoBKoVl7xY
KwPGTWEIMfVcW2Nlt2/OSds1Ub1Ojvn55c7rQOpP3bH1FwS1R0R3J+Kur9Qhvuu1
dqJvnvOr7kGtavz2n94IIQjo5gZ/pMF+CMDBNzSrUMGWjy4m5Rz+olxFec2xQHmP
W2RqU3Doyrb9HXktN7jIHnpWeNTKmoSyz5vxikWBHHSTDFZa27ROax6kGwN/pyaT
kMTsAf8Ui2pKS1X4mjUF8OPGZtE7QPBjI5SqrfoFvhh0qhDGIvjr6rezTIZzQLAI
RTrXOEWHyGPrRveF7ioujtu4odRAkNervK/gqabfhg4qIZansT0siaZztiPGLNmk
TBRE/3g31u+hNLb6jtGxN9CcRYuOD24eXHrDGua7aITvmOQxKh/NSvUXjNztICU1
bPxISomz6sS5gnR9PNDyc/ajYCxn+lSDlq8Sf0hLSL7YGQ7N7QnWRWpkcIMA5tjp
sAe3PKOn74ayU1mqd98fzafR8veeqIYMrua7YgyFaf86GpaFA3+RxklZ3SuHzWu/
+2p0S3RRuwwv903LMyuz+ui+OmMub+kJ9p7B7nzkutBmFPzRf5TooSzYZ5bxu5/Q
tQToPqIegR3aIVix4wg1+mBqw37BILi+4RPWrq4vMU2Q1Q==
-----END CERTIFICATE-----
