Certificate:
    Data:
        Version: 3 (0x2)
        Serial Number: 306 (0x132)
        Signature Algorithm: sha256WithRSAEncryption
        Issuer: C=fr, ST=idf, L=paris, O=vitam, OU=authorities, CN=ca_intermediate_client-external
        Validity
            Not Before: Sep 15 13:01:14 2020 GMT
            Not After : Dec 31 23:59:59 9999 GMT
        Subject: C=fr, ST=idf, L=paris, O=vitam, CN=reverse
        Subject Public Key Info:
            Public Key Algorithm: rsaEncryption
                RSA Public-Key: (4096 bit)
                Modulus:
                    00:b9:66:80:c3:5a:cb:d7:14:23:3a:48:85:6d:aa:
                    8d:45:23:ce:0c:0c:95:1f:92:e4:97:f5:83:93:69:
                    fb:dd:81:56:3a:5e:f2:3a:4b:ea:a3:db:01:f6:51:
                    f7:4b:4e:84:98:a1:c4:b9:f2:4d:bf:39:91:45:95:
                    52:19:34:51:2a:6d:77:2f:4d:66:f6:ba:e5:d4:eb:
                    cf:fd:de:6a:b8:db:02:ce:23:7d:93:ac:d5:bf:8e:
                    68:4d:01:a1:90:e0:5d:62:80:89:c9:f4:39:70:17:
                    ac:c5:bc:48:7c:2c:4e:ad:20:74:7c:c1:8d:aa:2b:
                    44:77:b2:97:48:f7:b2:a0:95:c2:b2:24:cd:15:9b:
                    f2:b9:c9:a2:1d:12:38:1c:5b:fa:a4:dd:a6:5f:fc:
                    24:ec:0f:65:47:18:fb:e5:96:b8:be:35:84:31:a4:
                    34:cc:77:61:e8:62:b9:97:a1:85:94:bc:e2:38:99:
                    db:82:34:a4:cc:b2:23:79:0d:cf:d0:c0:c4:cf:2e:
                    50:e2:20:c6:61:8e:14:7e:7f:9d:f2:4a:51:04:be:
                    de:ec:b8:c5:d7:e1:34:a6:fb:a6:ed:c9:c5:45:27:
                    55:41:7b:dc:36:0d:88:93:ff:ef:8d:bb:a8:f9:5a:
                    3e:64:66:f5:3a:3f:50:3a:12:17:42:07:27:b7:03:
                    75:7c:bb:34:f0:92:b3:fb:4c:95:71:ca:81:6a:1c:
                    15:b7:64:28:a9:03:06:63:44:34:c0:90:96:af:40:
                    a1:96:be:13:d8:93:6b:0f:b5:1b:73:62:09:98:26:
                    5c:06:da:4f:5e:6a:f2:4b:82:04:a3:27:81:bf:ba:
                    aa:6c:10:bb:9f:01:0c:e5:3d:32:fb:83:67:2a:ae:
                    22:07:79:ad:3d:10:12:cd:09:59:16:e5:33:15:1e:
                    b5:4c:6a:53:37:cf:17:8c:0e:f7:91:ae:d9:52:81:
                    bf:02:ac:84:73:e8:3c:b5:4a:57:f7:0a:a3:0b:6f:
                    73:35:1d:c0:1d:f4:6f:38:f6:9b:18:14:1b:b1:11:
                    be:f3:94:03:ec:88:77:1b:7e:b2:57:1b:f4:df:34:
                    6e:62:27:ab:86:03:d4:64:ab:6a:25:bc:13:cc:d2:
                    05:58:a1:8c:01:76:03:d0:42:db:e3:68:03:b0:bd:
                    42:a9:df:77:b8:ef:c9:cf:e0:1b:2f:5e:c4:49:30:
                    1a:a6:ff:b0:31:ed:c8:be:8b:d0:b8:2e:a2:64:8d:
                    62:7e:f9:78:8a:42:4d:73:86:ca:d7:80:96:01:4f:
                    a4:af:82:53:63:63:01:aa:5d:eb:69:c8:7f:86:ca:
                    a5:33:82:e2:31:f3:fd:74:e2:3d:26:f9:2d:c2:c5:
                    d1:a0:f7
                Exponent: 65537 (0x10001)
        X509v3 extensions:
            Netscape Comment: 
                Certificat Client SSL
            X509v3 Subject Key Identifier: 
                12:D7:F2:4B:9C:A0:99:E9:8C:2A:F2:1C:90:F4:49:FE:AF:8E:66:4C
            X509v3 Authority Key Identifier: 
                keyid:D1:7F:00:C3:F0:94:D6:CB:E3:AE:F7:23:18:2E:1E:BA:53:66:F2:F8
                DirName:/C=fr/ST=idf/L=paris/O=vitam/OU=authorities/CN=ca_root_client-external
                serial:01:2D

            X509v3 Issuer Alternative Name: 
                <EMPTY>

            X509v3 Basic Constraints: critical
                CA:FALSE
            X509v3 Key Usage: 
                Digital Signature
            Netscape Cert Type: 
                SSL Client
            X509v3 Extended Key Usage: 
                TLS Web Client Authentication
    Signature Algorithm: sha256WithRSAEncryption
         18:16:25:a1:12:3b:2b:2c:3e:6c:62:a8:84:14:75:79:28:1f:
         02:2b:f2:1d:8a:39:1e:e3:1b:29:6a:45:71:67:8e:fa:04:64:
         e0:64:e7:49:a2:4a:7f:ec:20:6a:2c:23:36:1d:3b:4e:9d:6d:
         11:d0:b4:89:02:dd:f6:3e:da:32:e5:94:dd:31:a5:ac:07:a7:
         5c:6a:17:e5:c2:98:7d:8c:21:11:a0:70:28:dc:a7:73:4e:6e:
         13:2f:3d:27:14:1e:90:89:0f:14:2b:35:89:e5:85:3b:31:f6:
         59:a7:9e:41:9d:ea:46:21:43:e7:ff:0f:45:7f:f7:91:a1:01:
         24:69:e7:7c:cc:a7:56:73:e6:7d:a4:b0:81:46:46:f7:5f:2c:
         ac:6d:ed:ca:03:8b:7c:aa:86:32:b1:52:ce:0c:94:d1:a9:c9:
         5b:68:cc:59:e4:60:12:be:9f:a5:8e:de:9c:24:a3:b0:8d:cb:
         33:8b:8a:8b:03:bf:09:cf:95:ad:22:15:ce:16:01:98:57:e0:
         00:33:cf:7c:04:fc:4a:b5:15:c1:61:0f:7a:21:d9:61:51:0a:
         b9:22:b4:89:cd:f6:68:54:72:ae:85:84:dd:c3:55:29:cc:de:
         a1:65:74:7c:95:46:f3:98:e6:c5:80:9b:35:cc:04:a8:d9:90:
         8b:d7:6b:69:9f:02:d1:58:eb:3b:6f:25:47:f2:2e:99:28:1c:
         f3:7e:72:a4:53:16:88:02:4b:8c:7a:52:2a:4e:91:2a:be:4b:
         9a:ba:87:a2:4c:92:c0:9f:77:c5:33:e6:1f:04:6f:33:9c:12:
         86:4a:e8:c3:41:70:74:c6:3b:a0:55:80:11:aa:a7:ae:44:4c:
         94:8d:20:73:af:97:e2:d4:72:93:47:d7:df:f1:74:0d:c7:c6:
         77:95:49:2b:fb:83:64:da:41:76:17:16:86:3b:c9:37:4b:a3:
         50:61:77:e6:fe:41:aa:55:bb:35:96:b4:90:3e:c4:01:54:69:
         b9:0e:0c:1a:79:4c:5b:4f:e8:48:ca:d1:c6:e1:e3:70:2a:f2:
         4e:54:68:d4:d5:67:a0:6b:b7:90:e8:49:8d:e3:1f:0f:a1:b8:
         fb:aa:64:9c:f6:d9:c2:fd:eb:74:90:ac:6f:4e:e0:90:f4:1c:
         1e:5c:31:07:cb:33:36:b7:57:00:fa:e9:99:df:16:2e:8e:a7:
         4e:72:84:47:20:bf:f7:bc:ec:68:92:c1:ef:26:2e:11:5d:b7:
         39:79:83:59:ad:b0:d2:e0:cd:fa:8d:21:73:81:f2:1e:f7:a3:
         e0:d3:01:5c:14:bc:6a:a4:3a:f1:99:df:90:69:30:79:a2:00:
         ed:07:73:2a:d5:80:0b:68
-----BEGIN CERTIFICATE-----
MIIGgDCCBGigAwIBAgICATIwDQYJKoZIhvcNAQELBQAwezELMAkGA1UEBhMCZnIx
DDAKBgNVBAgMA2lkZjEOMAwGA1UEBwwFcGFyaXMxDjAMBgNVBAoMBXZpdGFtMRQw
EgYDVQQLDAthdXRob3JpdGllczEoMCYGA1UEAwwfY2FfaW50ZXJtZWRpYXRlX2Ns
aWVudC1leHRlcm5hbDAgFw0yMDA5MTUxMzAxMTRaGA85OTk5MTIzMTIzNTk1OVow
TTELMAkGA1UEBhMCZnIxDDAKBgNVBAgMA2lkZjEOMAwGA1UEBwwFcGFyaXMxDjAM
BgNVBAoMBXZpdGFtMRAwDgYDVQQDDAdyZXZlcnNlMIICIjANBgkqhkiG9w0BAQEF
AAOCAg8AMIICCgKCAgEAuWaAw1rL1xQjOkiFbaqNRSPODAyVH5Lkl/WDk2n73YFW
Ol7yOkvqo9sB9lH3S06EmKHEufJNvzmRRZVSGTRRKm13L01m9rrl1OvP/d5quNsC
ziN9k6zVv45oTQGhkOBdYoCJyfQ5cBesxbxIfCxOrSB0fMGNqitEd7KXSPeyoJXC
siTNFZvyucmiHRI4HFv6pN2mX/wk7A9lRxj75Za4vjWEMaQ0zHdh6GK5l6GFlLzi
OJnbgjSkzLIjeQ3P0MDEzy5Q4iDGYY4Ufn+d8kpRBL7e7LjF1+E0pvum7cnFRSdV
QXvcNg2Ik//vjbuo+Vo+ZGb1Oj9QOhIXQgcntwN1fLs08JKz+0yVccqBahwVt2Qo
qQMGY0Q0wJCWr0Chlr4T2JNrD7Ubc2IJmCZcBtpPXmryS4IEoyeBv7qqbBC7nwEM
5T0y+4NnKq4iB3mtPRASzQlZFuUzFR61TGpTN88XjA73ka7ZUoG/AqyEc+g8tUpX
9wqjC29zNR3AHfRvOPabGBQbsRG+85QD7Ih3G36yVxv03zRuYierhgPUZKtqJbwT
zNIFWKGMAXYD0ELb42gDsL1Cqd93uO/Jz+AbL17ESTAapv+wMe3IvovQuC6iZI1i
fvl4ikJNc4bK14CWAU+kr4JTY2MBql3rach/hsqlM4LiMfP9dOI9JvktwsXRoPcC
AwEAAaOCATgwggE0MCQGCWCGSAGG+EIBDQQXFhVDZXJ0aWZpY2F0IENsaWVudCBT
U0wwHQYDVR0OBBYEFBLX8kucoJnpjCryHJD0Sf6vjmZMMIGeBgNVHSMEgZYwgZOA
FNF/AMPwlNbL4673IxguHrpTZvL4oXekdTBzMQswCQYDVQQGEwJmcjEMMAoGA1UE
CAwDaWRmMQ4wDAYDVQQHDAVwYXJpczEOMAwGA1UECgwFdml0YW0xFDASBgNVBAsM
C2F1dGhvcml0aWVzMSAwHgYDVQQDDBdjYV9yb290X2NsaWVudC1leHRlcm5hbIIC
AS0wCQYDVR0SBAIwADAMBgNVHRMBAf8EAjAAMAsGA1UdDwQEAwIHgDARBglghkgB
hvhCAQEEBAMCB4AwEwYDVR0lBAwwCgYIKwYBBQUHAwIwDQYJKoZIhvcNAQELBQAD
ggIBABgWJaESOyssPmxiqIQUdXkoHwIr8h2KOR7jGylqRXFnjvoEZOBk50miSn/s
IGosIzYdO06dbRHQtIkC3fY+2jLllN0xpawHp1xqF+XCmH2MIRGgcCjcp3NObhMv
PScUHpCJDxQrNYnlhTsx9lmnnkGd6kYhQ+f/D0V/95GhASRp53zMp1Zz5n2ksIFG
RvdfLKxt7coDi3yqhjKxUs4MlNGpyVtozFnkYBK+n6WO3pwko7CNyzOLiosDvwnP
la0iFc4WAZhX4AAzz3wE/Eq1FcFhD3oh2WFRCrkitInN9mhUcq6FhN3DVSnM3qFl
dHyVRvOY5sWAmzXMBKjZkIvXa2mfAtFY6ztvJUfyLpkoHPN+cqRTFogCS4x6UipO
kSq+S5q6h6JMksCfd8Uz5h8EbzOcEoZK6MNBcHTGO6BVgBGqp65ETJSNIHOvl+LU
cpNH19/xdA3HxneVSSv7g2TaQXYXFoY7yTdLo1Bhd+b+QapVuzWWtJA+xAFUabkO
DBp5TFtP6EjK0cbh43Aq8k5UaNTVZ6Brt5DoSY3jHw+huPuqZJz22cL963SQrG9O
4JD0HB5cMQfLMza3VwD66ZnfFi6Op05yhEcgv/e87GiSwe8mLhFdtzl5g1mtsNLg
zfqNIXOB8h73o+DTAVwUvGqkOvGZ35BpMHmiAO0HcyrVgAto
-----END CERTIFICATE-----
