Certificate:
    Data:
        Version: 3 (0x2)
        Serial Number: 239 (0xef)
    Signature Algorithm: sha256WithRSAEncryption
        Issuer: C=fr, ST=idf, L=paris, O=vitam, OU=authorities, CN=ca_intermediate_client-external
        Validity
            Not Before: Jul 12 14:30:00 2017 GMT
            Not After : Jul 11 14:30:00 2020 GMT
        Subject: C=fr, ST=idf, L=paris, O=vitam, CN=reverse
        Subject Public Key Info:
            Public Key Algorithm: rsaEncryption
                Public-Key: (4096 bit)
                Modulus:
                    00:d6:f5:89:f6:47:a1:0d:20:9e:99:7f:e3:e9:85:
                    da:0d:dd:05:e3:fc:4a:fc:1b:1d:d3:dd:bf:35:82:
                    74:49:a7:08:45:d2:40:c9:e3:76:08:50:de:51:69:
                    7a:04:2b:56:62:d1:3d:be:39:ed:8e:5d:2f:0f:ef:
                    8c:58:ad:0d:bd:35:d7:4c:cb:39:8c:ec:ad:58:58:
                    05:13:6a:1a:89:44:83:68:e6:fc:84:95:58:18:54:
                    d9:ee:d3:ca:56:de:c0:b4:02:6a:d0:88:4c:aa:3f:
                    26:cf:b2:b9:27:b9:24:e2:15:f1:66:90:69:43:24:
                    d3:26:8d:1e:dc:08:c9:6a:4f:f2:8b:ea:2a:f0:b4:
                    3f:4a:f9:3d:c6:4c:c3:19:34:5d:82:08:d7:02:dd:
                    43:9b:e5:bc:77:a3:e2:3c:91:c5:1e:07:6f:61:02:
                    64:ef:31:b5:f9:2d:30:6b:ab:1f:a8:f7:d9:f4:29:
                    de:9f:96:08:13:c1:63:9f:d2:b0:23:b1:75:3e:14:
                    a9:69:51:b7:1e:34:6d:cf:d5:06:09:1a:83:8c:78:
                    dd:ee:62:9e:54:6e:23:65:d9:1a:c9:f2:8f:19:b5:
                    03:d6:45:90:54:7d:94:f2:4c:fb:3d:74:44:13:71:
                    e6:91:78:72:c5:00:cf:2b:99:56:13:cd:05:ed:0f:
                    93:18:e4:d7:c1:14:5f:92:86:32:cc:80:eb:30:c7:
                    f3:b8:fb:b3:d9:49:99:d0:a8:cc:04:0b:e7:ce:22:
                    c9:b1:e0:f4:34:b6:ba:96:be:29:dd:eb:b5:f2:97:
                    45:77:5d:06:5a:fb:d0:30:5e:c3:39:55:05:e0:90:
                    86:48:a6:c6:d0:c4:68:8b:ca:35:fb:42:52:9b:72:
                    98:c0:08:67:98:f5:7a:5f:89:6a:3a:fa:42:0a:07:
                    86:89:7d:9b:58:8c:28:7f:ea:00:bf:19:b9:b1:2b:
                    9c:86:b6:20:b1:a1:43:86:74:e3:c2:4a:4c:52:96:
                    1e:77:cb:21:06:fc:3b:be:a7:26:68:b8:03:16:70:
                    64:d1:02:1c:5c:ef:12:39:5a:2f:87:a5:0a:65:e2:
                    1b:4a:77:8b:50:fe:09:50:ec:5e:41:18:e2:77:16:
                    15:e0:a4:6a:a6:e8:c3:a3:ec:f5:66:54:b8:5b:b4:
                    b3:66:58:9c:c9:2a:78:bf:5e:f7:34:40:c8:51:b2:
                    e7:27:e7:4a:78:81:2a:61:03:97:65:3e:12:ec:6c:
                    6f:f5:9c:ba:1a:f7:ab:b1:e9:45:81:6d:56:09:83:
                    c1:b9:a0:03:68:26:cf:bc:b8:c2:19:0e:7a:b8:f1:
                    41:4b:de:0b:50:94:ec:2e:89:09:ae:fd:8d:ce:83:
                    70:65:0b
                Exponent: 65537 (0x10001)
        X509v3 extensions:
            Netscape Comment: 
                Certificat Client SSL
            X509v3 Subject Key Identifier: 
                6E:78:0F:6A:B1:65:48:30:DC:D8:12:80:38:BB:4A:9F:C7:4F:D4:AB
            X509v3 Authority Key Identifier: 
                keyid:9F:47:4A:13:86:86:E6:CE:B1:7D:B0:A9:CD:A8:A0:9D:7D:A6:A5:F1
                DirName:/C=fr/ST=idf/L=paris/O=vitam/OU=authorities/CN=ca_root_client-external
                serial:EC

            X509v3 Issuer Alternative Name: 
                <EMPTY>

            X509v3 Basic Constraints: critical
                CA:FALSE
            X509v3 Key Usage: 
                Digital Signature, Non Repudiation, Key Encipherment
            Netscape Cert Type: 
                SSL Client
            X509v3 Extended Key Usage: 
                TLS Web Client Authentication
    Signature Algorithm: sha256WithRSAEncryption
         97:d2:6d:d2:37:09:51:22:b9:f9:f5:48:bb:55:ac:fa:1f:d7:
         d5:ee:63:63:1f:f8:e8:ea:f7:e6:b4:11:50:df:15:39:42:ef:
         75:6b:b0:3f:7a:54:28:e7:45:95:2f:37:3d:12:e3:dc:1b:0e:
         87:f9:49:00:f6:30:c2:38:23:c3:93:56:0b:48:ed:da:03:94:
         6b:07:99:dd:b7:ba:78:81:1e:ad:87:ac:25:f9:a3:5b:8d:ae:
         0d:f6:35:d3:f5:49:47:c4:3b:29:8b:5d:c0:19:24:12:9c:6a:
         a0:27:e6:c7:06:4f:8e:09:67:43:5f:df:30:84:af:59:61:1a:
         d1:2d:44:39:1f:bf:cf:e3:a0:3e:69:db:c4:f6:07:c2:5b:ca:
         e4:a2:c6:a3:b2:aa:e4:36:14:44:4b:90:f9:ff:86:6c:fa:c2:
         17:64:1c:72:ad:30:27:b6:49:d0:6a:d8:8c:e3:df:af:b3:9f:
         76:9f:d5:d8:26:64:54:c4:86:56:10:d9:ab:08:10:0b:3c:5a:
         55:3f:7b:0d:80:88:1f:bd:70:1c:78:70:6a:8a:2d:cc:92:d1:
         3d:fc:6b:fe:b7:64:42:44:aa:9e:77:ab:d2:97:3c:a9:f4:eb:
         62:51:8d:0d:1a:ce:c3:cc:29:25:be:ab:4f:89:36:01:12:23:
         71:0d:41:16:ba:17:ac:4c:54:5d:24:6f:c1:c9:ad:1c:c2:87:
         98:2d:d3:a7:0b:9f:df:db:7d:0b:e7:2b:19:ee:62:d7:80:9f:
         34:d0:3e:84:52:ab:e2:a4:b5:a8:b4:0c:9a:10:63:10:38:42:
         1e:df:ee:45:cb:5f:9a:51:fa:40:ad:ca:4b:94:50:96:92:99:
         1b:5c:e2:48:aa:db:85:a9:11:e2:8e:74:f3:00:4e:a7:73:ab:
         28:fc:00:1c:b3:90:dc:81:4e:b1:90:e8:35:14:e6:b7:0c:91:
         c3:7b:67:2b:51:b7:61:66:0c:4b:b6:99:a4:2d:5d:f1:2e:96:
         2e:b7:67:a2:2e:cf:95:70:3b:cf:be:c3:66:87:30:62:a2:aa:
         40:67:78:f5:cd:b0:f3:21:4f:71:56:e5:0f:11:0b:d8:29:73:
         46:68:18:9d:33:e8:10:0e:27:c9:68:5d:24:19:c1:71:e7:c3:
         ca:38:44:48:78:e8:3f:22:de:21:7b:97:32:04:8f:89:df:ae:
         ba:19:26:98:5d:3e:52:73:1e:77:4d:d4:39:b6:de:fa:41:4f:
         44:d2:be:df:30:0f:ab:3b:c6:d9:9f:08:5a:29:0e:4d:4f:d5:
         ac:4b:b3:12:6e:cd:dc:22:af:38:74:ad:7a:93:2e:97:ce:73:
         fd:17:24:07:a8:a9:fc:e4
-----BEGIN CERTIFICATE-----
MIIGfjCCBGagAwIBAgICAO8wDQYJKoZIhvcNAQELBQAwezELMAkGA1UEBhMCZnIx
DDAKBgNVBAgMA2lkZjEOMAwGA1UEBwwFcGFyaXMxDjAMBgNVBAoMBXZpdGFtMRQw
EgYDVQQLDAthdXRob3JpdGllczEoMCYGA1UEAwwfY2FfaW50ZXJtZWRpYXRlX2Ns
aWVudC1leHRlcm5hbDAeFw0xNzA3MTIxNDMwMDBaFw0yMDA3MTExNDMwMDBaME0x
CzAJBgNVBAYTAmZyMQwwCgYDVQQIDANpZGYxDjAMBgNVBAcMBXBhcmlzMQ4wDAYD
VQQKDAV2aXRhbTEQMA4GA1UEAwwHcmV2ZXJzZTCCAiIwDQYJKoZIhvcNAQEBBQAD
ggIPADCCAgoCggIBANb1ifZHoQ0gnpl/4+mF2g3dBeP8SvwbHdPdvzWCdEmnCEXS
QMnjdghQ3lFpegQrVmLRPb457Y5dLw/vjFitDb0110zLOYzsrVhYBRNqGolEg2jm
/ISVWBhU2e7TylbewLQCatCITKo/Js+yuSe5JOIV8WaQaUMk0yaNHtwIyWpP8ovq
KvC0P0r5PcZMwxk0XYII1wLdQ5vlvHej4jyRxR4Hb2ECZO8xtfktMGurH6j32fQp
3p+WCBPBY5/SsCOxdT4UqWlRtx40bc/VBgkag4x43e5inlRuI2XZGsnyjxm1A9ZF
kFR9lPJM+z10RBNx5pF4csUAzyuZVhPNBe0Pkxjk18EUX5KGMsyA6zDH87j7s9lJ
mdCozAQL584iybHg9DS2upa+Kd3rtfKXRXddBlr70DBewzlVBeCQhkimxtDEaIvK
NftCUptymMAIZ5j1el+Jajr6QgoHhol9m1iMKH/qAL8ZubErnIa2ILGhQ4Z048JK
TFKWHnfLIQb8O76nJmi4AxZwZNECHFzvEjlaL4elCmXiG0p3i1D+CVDsXkEY4ncW
FeCkaqbow6Ps9WZUuFu0s2ZYnMkqeL9e9zRAyFGy5yfnSniBKmEDl2U+Euxsb/Wc
uhr3q7HpRYFtVgmDwbmgA2gmz7y4whkOerjxQUveC1CU7C6JCa79jc6DcGULAgMB
AAGjggE4MIIBNDAkBglghkgBhvhCAQ0EFxYVQ2VydGlmaWNhdCBDbGllbnQgU1NM
MB0GA1UdDgQWBBRueA9qsWVIMNzYEoA4u0qfx0/UqzCBngYDVR0jBIGWMIGTgBSf
R0oThobmzrF9sKnNqKCdfaal8aF3pHUwczELMAkGA1UEBhMCZnIxDDAKBgNVBAgM
A2lkZjEOMAwGA1UEBwwFcGFyaXMxDjAMBgNVBAoMBXZpdGFtMRQwEgYDVQQLDAth
dXRob3JpdGllczEgMB4GA1UEAwwXY2Ffcm9vdF9jbGllbnQtZXh0ZXJuYWyCAgDs
MAkGA1UdEgQCMAAwDAYDVR0TAQH/BAIwADALBgNVHQ8EBAMCBeAwEQYJYIZIAYb4
QgEBBAQDAgeAMBMGA1UdJQQMMAoGCCsGAQUFBwMCMA0GCSqGSIb3DQEBCwUAA4IC
AQCX0m3SNwlRIrn59Ui7Vaz6H9fV7mNjH/jo6vfmtBFQ3xU5Qu91a7A/elQo50WV
Lzc9EuPcGw6H+UkA9jDCOCPDk1YLSO3aA5RrB5ndt7p4gR6th6wl+aNbja4N9jXT
9UlHxDspi13AGSQSnGqgJ+bHBk+OCWdDX98whK9ZYRrRLUQ5H7/P46A+advE9gfC
W8rkosajsqrkNhRES5D5/4Zs+sIXZBxyrTAntknQatiM49+vs592n9XYJmRUxIZW
ENmrCBALPFpVP3sNgIgfvXAceHBqii3MktE9/Gv+t2RCRKqed6vSlzyp9OtiUY0N
Gs7DzCklvqtPiTYBEiNxDUEWuhesTFRdJG/Bya0cwoeYLdOnC5/f230L5ysZ7mLX
gJ800D6EUqvipLWotAyaEGMQOEIe3+5Fy1+aUfpArcpLlFCWkpkbXOJIqtuFqRHi
jnTzAE6nc6so/AAcs5DcgU6xkOg1FOa3DJHDe2crUbdhZgxLtpmkLV3xLpYut2ei
Ls+VcDvPvsNmhzBioqpAZ3j1zbDzIU9xVuUPEQvYKXNGaBidM+gQDifJaF0kGcFx
58PKOERIeOg/It4he5cyBI+J3666GSaYXT5Scx53TdQ5tt76QU9E0r7fMA+rO8bZ
nwhaKQ5NT9WsS7MSbs3cIq84dK16ky6XznP9FyQHqKn85A==
-----END CERTIFICATE-----
