Certificate:
    Data:
        Version: 3 (0x2)
        Serial Number: 234 (0xea)
    Signature Algorithm: sha256WithRSAEncryption
        Issuer: C=FR, ST=idf, L=paris, O=Vitam., CN=CA_client-external
        Validity
            Not Before: Mar 15 12:18:54 2017 GMT
            Not After : Mar 14 12:18:54 2020 GMT
        Subject: C=FR, ST=idf, L=paris, O=Vitam., CN=reverse
        Subject Public Key Info:
            Public Key Algorithm: rsaEncryption
                Public-Key: (4096 bit)
                Modulus:
                    00:d3:28:c1:ef:ed:43:e3:49:aa:eb:b6:2a:7a:22:
                    70:b9:79:79:95:7a:a4:39:ac:d4:e1:3f:88:b5:fa:
                    ac:1a:7c:b1:d8:c4:3d:ff:9f:ec:d3:7d:e0:5a:b9:
                    7b:c9:d1:c5:1a:8d:be:ae:bf:4b:d1:c1:1d:ad:d2:
                    46:4e:3b:b3:06:0b:cc:7c:93:27:3c:8e:6e:96:50:
                    26:41:e2:3d:aa:ce:bd:74:30:68:76:17:3b:85:76:
                    f6:37:03:a5:4d:00:63:a8:58:e5:7e:34:29:a2:28:
                    cf:b2:18:a8:3f:1b:0d:86:52:38:32:ea:09:9e:f8:
                    4f:4c:4f:e1:39:46:93:2f:e1:45:34:f5:d1:ae:f7:
                    d5:e5:38:e8:5d:e8:58:e2:92:67:31:48:37:53:a9:
                    0a:33:6b:1e:73:8b:27:d8:02:b1:8f:50:16:05:b4:
                    67:4e:71:4b:02:2f:57:77:fb:f7:8b:99:f4:1e:2b:
                    1f:80:2c:fc:f2:4f:52:bc:59:af:46:f8:0b:91:4e:
                    46:9f:e5:b8:d0:bf:c4:b5:3f:bd:1e:c2:67:21:60:
                    82:7b:3a:36:a3:5c:d1:7c:4d:17:00:4f:dc:67:a6:
                    2f:29:4c:69:36:09:af:31:c9:10:0a:1d:f9:39:10:
                    cd:89:5e:80:75:44:56:63:98:1d:da:07:88:ab:26:
                    88:50:ad:4d:48:35:c1:1a:91:fe:33:f7:ce:91:f2:
                    e2:23:20:89:f8:ea:f4:d0:ee:a2:75:e8:cf:de:03:
                    1d:75:02:cd:3c:27:c3:be:a2:a8:92:e0:81:e9:e5:
                    fb:63:95:8e:13:ee:bf:45:c8:fe:3b:36:f3:fd:79:
                    6b:1b:ab:09:f6:49:84:d7:fe:b4:3a:62:52:1f:13:
                    92:1b:e5:5a:f5:cb:d0:95:2f:d4:8f:45:9a:ef:25:
                    53:90:1a:cf:3b:17:d4:00:4d:7d:ea:4d:4f:a0:17:
                    61:38:00:0c:0a:6a:40:f3:4e:ba:ba:75:81:09:30:
                    6e:fa:7a:91:bf:40:1c:0b:ad:34:e6:19:57:43:fc:
                    ad:32:74:9c:c1:fb:b5:e8:4e:e4:bd:9f:c6:c9:d6:
                    94:ee:07:77:df:ff:95:bf:fc:02:d7:15:83:e8:bb:
                    59:68:1f:8f:b4:25:52:5a:aa:97:bb:40:33:38:d3:
                    9a:1b:d9:d0:d6:d7:ed:e9:0a:ab:e9:cd:18:ff:c1:
                    ad:fe:8d:f6:e5:a3:31:23:1b:f1:0d:e5:62:bf:9d:
                    fd:ed:a3:40:af:a1:9e:c4:8c:ab:e7:94:7e:b2:fe:
                    7b:ee:1b:e0:7d:5e:25:dd:c8:0d:f3:33:5e:83:a8:
                    e4:2d:41:4b:3c:e1:d9:70:78:06:4a:8f:b4:05:b8:
                    1d:95:51
                Exponent: 65537 (0x10001)
        X509v3 extensions:
            Netscape Comment: 
                Certificat Client SSL
            X509v3 Subject Key Identifier: 
                CA:89:5F:94:B1:24:B8:E9:1A:F0:54:BE:28:85:9F:B0:03:B4:20:49
            X509v3 Authority Key Identifier: 
                keyid:52:CF:41:75:A8:85:BC:E1:0D:F3:80:3E:7D:82:31:1A:78:CE:A0:A7
                DirName:/C=FR/ST=idf/L=paris/O=Vitam./CN=CA_client-external
                serial:E7

            X509v3 Issuer Alternative Name: 
                <EMPTY>

            X509v3 Subject Alternative Name: 
                DNS:ingest-external.service.consul
            X509v3 Basic Constraints: critical
                CA:FALSE
            X509v3 Key Usage: 
                Digital Signature, Non Repudiation, Key Encipherment
            Netscape Cert Type: 
                SSL Client
            X509v3 Extended Key Usage: 
                TLS Web Client Authentication
    Signature Algorithm: sha256WithRSAEncryption
         65:0b:b6:99:9a:23:ea:80:9e:e6:d2:90:ec:5d:95:a9:15:14:
         e8:2c:66:8b:ea:8e:a1:ab:d9:6b:c0:35:6b:7f:b2:6b:67:bc:
         04:ea:4a:84:07:2d:2b:ca:0f:17:dd:e1:4e:58:65:18:49:3d:
         f2:a4:01:4e:4c:b0:fd:c3:ff:a0:10:39:42:04:fd:0c:29:c5:
         fc:a8:2b:c8:50:db:56:e4:38:9c:8d:8c:79:70:47:b9:42:7b:
         6b:60:f0:56:2d:d6:5a:21:90:91:60:88:d1:ef:cf:18:18:07:
         45:0f:fd:f5:43:17:4c:54:59:0e:e8:d4:5d:93:b3:c6:aa:3e:
         36:5f:6e:8e:67:6a:21:74:ab:57:6c:c2:22:17:ed:af:26:49:
         fa:80:06:86:7a:38:fe:2a:0f:37:c1:49:ee:15:92:49:5e:26:
         3f:ca:e2:13:0c:fa:cf:f0:c1:58:62:e2:ee:52:c2:01:ff:5e:
         2e:fe:31:e6:00:e1:99:25:ab:7f:e6:ac:2c:c7:82:45:3f:a3:
         18:07:82:25:01:78:64:db:55:97:43:cb:1e:c6:f0:ae:35:53:
         89:21:99:62:00:8f:e1:ae:ee:5c:56:a1:83:4c:3d:81:b2:8a:
         c9:ec:1a:f0:6e:ba:79:fe:7a:f1:35:44:8f:77:e8:54:77:cc:
         37:f8:d8:b9:30:e3:b2:ae:96:7c:e8:63:05:e0:9a:c0:44:e8:
         53:0e:75:c6:82:f5:74:8c:33:77:db:db:2e:b5:0d:75:3c:1a:
         9d:ea:92:fb:9c:0d:23:8a:6c:e5:7a:0b:88:f7:cb:0d:9b:03:
         79:3f:15:96:23:d2:be:1f:c2:ae:99:dc:65:d8:dd:05:77:7a:
         8f:77:d2:c9:b4:92:5b:41:24:ef:80:5d:af:a1:5c:20:69:0d:
         57:31:35:6e:42:b0:75:85:da:64:94:5e:ea:fa:f7:ec:d3:dd:
         ec:aa:8a:da:3a:69:50:7d:d3:d7:ad:37:36:26:e9:e5:0f:3f:
         64:6f:fc:54:cb:68:f6:5d:24:40:ce:00:f0:06:88:e3:84:db:
         71:9a:33:45:13:17:15:69:0d:dc:26:36:9a:ea:e1:50:f0:75:
         67:69:a2:be:ab:cb:81:ee:c2:ee:74:e4:46:e5:c3:01:38:1d:
         23:d9:df:45:2f:34:30:4e:9a:12:e7:87:53:21:eb:09:0a:2c:
         61:a6:64:96:c1:05:dc:9c:96:c9:f4:5a:77:5d:f2:dd:54:3d:
         ad:e2:34:d1:18:2d:58:23:4c:99:86:eb:39:91:4f:df:98:8f:
         f0:07:d0:ae:9b:27:4d:25:70:b1:c2:f4:46:86:0c:1e:31:d0:
         02:cc:3d:4d:a4:55:61:58
-----BEGIN CERTIFICATE-----
MIIGbDCCBFSgAwIBAgICAOowDQYJKoZIhvcNAQELBQAwWTELMAkGA1UEBhMCRlIx
DDAKBgNVBAgTA2lkZjEOMAwGA1UEBxMFcGFyaXMxDzANBgNVBAoTBlZpdGFtLjEb
MBkGA1UEAxQSQ0FfY2xpZW50LWV4dGVybmFsMB4XDTE3MDMxNTEyMTg1NFoXDTIw
MDMxNDEyMTg1NFowTjELMAkGA1UEBhMCRlIxDDAKBgNVBAgTA2lkZjEOMAwGA1UE
BxMFcGFyaXMxDzANBgNVBAoTBlZpdGFtLjEQMA4GA1UEAxMHcmV2ZXJzZTCCAiIw
DQYJKoZIhvcNAQEBBQADggIPADCCAgoCggIBANMowe/tQ+NJquu2KnoicLl5eZV6
pDms1OE/iLX6rBp8sdjEPf+f7NN94Fq5e8nRxRqNvq6/S9HBHa3SRk47swYLzHyT
JzyObpZQJkHiParOvXQwaHYXO4V29jcDpU0AY6hY5X40KaIoz7IYqD8bDYZSODLq
CZ74T0xP4TlGky/hRTT10a731eU46F3oWOKSZzFIN1OpCjNrHnOLJ9gCsY9QFgW0
Z05xSwIvV3f794uZ9B4rH4As/PJPUrxZr0b4C5FORp/luNC/xLU/vR7CZyFggns6
NqNc0XxNFwBP3GemLylMaTYJrzHJEAod+TkQzYlegHVEVmOYHdoHiKsmiFCtTUg1
wRqR/jP3zpHy4iMgifjq9NDuonXoz94DHXUCzTwnw76iqJLggenl+2OVjhPuv0XI
/js28/15axurCfZJhNf+tDpiUh8TkhvlWvXL0JUv1I9Fmu8lU5AazzsX1ABNfepN
T6AXYTgADApqQPNOurp1gQkwbvp6kb9AHAutNOYZV0P8rTJ0nMH7tehO5L2fxsnW
lO4Hd9//lb/8AtcVg+i7WWgfj7QlUlqql7tAMzjTmhvZ0NbX7ekKq+nNGP/Brf6N
9uWjMSMb8Q3lYr+d/e2jQK+hnsSMq+eUfrL+e+4b4H1eJd3IDfMzXoOo5C1BSzzh
2XB4BkqPtAW4HZVRAgMBAAGjggFHMIIBQzAkBglghkgBhvhCAQ0EFxYVQ2VydGlm
aWNhdCBDbGllbnQgU1NMMB0GA1UdDgQWBBTKiV+UsSS46RrwVL4ohZ+wA7QgSTCB
ggYDVR0jBHsweYAUUs9BdaiFvOEN84A+fYIxGnjOoKehXaRbMFkxCzAJBgNVBAYT
AkZSMQwwCgYDVQQIEwNpZGYxDjAMBgNVBAcTBXBhcmlzMQ8wDQYDVQQKEwZWaXRh
bS4xGzAZBgNVBAMUEkNBX2NsaWVudC1leHRlcm5hbIICAOcwCQYDVR0SBAIwADAp
BgNVHREEIjAggh5pbmdlc3QtZXh0ZXJuYWwuc2VydmljZS5jb25zdWwwDAYDVR0T
AQH/BAIwADALBgNVHQ8EBAMCBeAwEQYJYIZIAYb4QgEBBAQDAgeAMBMGA1UdJQQM
MAoGCCsGAQUFBwMCMA0GCSqGSIb3DQEBCwUAA4ICAQBlC7aZmiPqgJ7m0pDsXZWp
FRToLGaL6o6hq9lrwDVrf7JrZ7wE6kqEBy0ryg8X3eFOWGUYST3ypAFOTLD9w/+g
EDlCBP0MKcX8qCvIUNtW5DicjYx5cEe5QntrYPBWLdZaIZCRYIjR788YGAdFD/31
QxdMVFkO6NRdk7PGqj42X26OZ2ohdKtXbMIiF+2vJkn6gAaGejj+Kg83wUnuFZJJ
XiY/yuITDPrP8MFYYuLuUsIB/14u/jHmAOGZJat/5qwsx4JFP6MYB4IlAXhk21WX
Q8sexvCuNVOJIZliAI/hru5cVqGDTD2BsorJ7Brwbrp5/nrxNUSPd+hUd8w3+Ni5
MOOyrpZ86GMF4JrAROhTDnXGgvV0jDN329sutQ11PBqd6pL7nA0jimzleguI98sN
mwN5PxWWI9K+H8Kumdxl2N0Fd3qPd9LJtJJbQSTvgF2voVwgaQ1XMTVuQrB1hdpk
lF7q+vfs093sqoraOmlQfdPXrTc2JunlDz9kb/xUy2j2XSRAzgDwBojjhNtxmjNF
ExcVaQ3cJjaa6uFQ8HVnaaK+q8uB7sLudORG5cMBOB0j2d9FLzQwTpoS54dTIesJ
CixhpmSWwQXcnJbJ9Fp3XfLdVD2t4jTRGC1YI0yZhus5kU/fmI/wB9CumydNJXCx
wvRGhgweMdACzD1NpFVhWA==
-----END CERTIFICATE-----
