Certificate:
    Data:
        Version: 3 (0x2)
        Serial Number: 299 (0x12b)
    Signature Algorithm: sha256WithRSAEncryption
        Issuer: C=fr, ST=idf, L=paris, O=vitam, OU=authorities, CN=ca_intermediate_client-external
        Validity
            Not Before: Oct 19 08:41:08 2018 GMT
            Not After : Oct 18 08:41:08 2021 GMT
        Subject: C=fr, ST=idf, L=paris, O=vitam, CN=reverse
        Subject Public Key Info:
            Public Key Algorithm: rsaEncryption
                Public-Key: (4096 bit)
                Modulus:
                    00:a1:75:03:91:10:14:b1:4d:b1:af:68:43:6a:58:
                    6a:a9:3d:4d:18:bf:81:7e:36:48:13:e9:9a:3c:39:
                    77:99:b7:3f:6e:6c:e9:3b:37:f1:32:cf:95:46:bf:
                    0d:00:b9:08:96:e6:7b:9b:a8:63:b9:bc:8f:c3:9b:
                    b4:98:64:a3:c0:cf:86:45:92:5a:9d:b4:8f:99:90:
                    42:58:71:81:b3:ce:22:ff:f3:6a:49:f1:d7:bf:8a:
                    85:8c:52:bb:f2:8b:99:0b:3d:80:f1:9e:36:b9:26:
                    07:0d:30:71:9c:a9:4a:d0:66:ad:11:82:44:c4:50:
                    35:ab:96:8b:fd:58:6c:1a:78:52:4d:15:9d:bb:bd:
                    53:f3:85:a8:fe:ab:b9:54:33:e4:67:dd:5f:93:b9:
                    3f:e3:81:d9:58:b2:5e:d5:cf:f8:af:81:9a:4c:4b:
                    d8:5d:6f:de:ac:7f:2f:42:85:ff:c8:e1:af:0b:da:
                    45:e5:cc:ec:9a:7f:bf:27:76:91:58:c5:71:12:21:
                    62:1a:25:5f:73:f2:67:f7:da:87:19:9e:8d:c3:df:
                    1b:90:cc:c4:9e:12:83:d2:3e:d9:8c:6f:02:cb:2c:
                    c0:45:9a:7a:45:d2:a7:cb:8a:0d:12:46:2b:c5:8c:
                    f2:05:1b:99:9c:1c:d9:11:1e:85:4e:53:b4:59:e0:
                    a9:87:65:17:a9:ae:e4:e8:28:f5:11:01:fa:d8:dd:
                    5c:40:57:fa:0a:9b:5f:a6:53:33:3b:e0:41:ba:52:
                    b5:9e:86:e5:05:08:55:1c:28:bb:f9:00:6d:79:f2:
                    4c:31:da:fc:09:58:b2:af:45:b8:c8:8b:f5:72:b3:
                    3d:4f:d5:86:11:7b:a3:1e:bd:aa:3f:17:bf:0e:63:
                    39:e6:2c:f6:bb:8f:f4:b1:aa:65:99:21:b8:d7:d5:
                    b9:77:dc:65:b0:fa:cf:ee:c0:01:e7:cd:b8:e1:6a:
                    72:38:b4:0e:61:f0:dc:4b:a1:9b:5e:3b:65:9f:e5:
                    2a:20:a9:93:8d:06:5a:85:42:44:86:b9:f0:c6:35:
                    18:d6:cc:a8:e6:e5:69:7a:d8:30:b2:24:7b:89:9e:
                    95:0e:f9:cd:96:fb:da:be:4d:ae:de:bf:00:a5:52:
                    09:43:c0:28:ca:06:03:2d:6f:d9:23:39:91:3b:a1:
                    20:97:4c:85:3f:41:48:03:70:66:c1:89:35:78:b8:
                    93:ef:db:fd:80:7e:44:69:ad:ae:45:f9:15:ce:24:
                    ce:d5:8e:c9:b8:0c:a6:82:8a:a5:da:55:d8:17:1a:
                    e7:0b:c9:dc:cb:20:13:7c:c0:74:0d:4e:0d:38:78:
                    14:84:62:16:c7:d5:d1:63:f1:3a:e3:f9:26:e4:05:
                    76:96:6b
                Exponent: 65537 (0x10001)
        X509v3 extensions:
            Netscape Comment: 
                Certificat Client SSL
            X509v3 Subject Key Identifier: 
                AD:A9:D9:D9:C3:C0:F3:BF:A3:CB:89:11:F2:B5:D6:5D:62:24:65:EF
            X509v3 Authority Key Identifier: 
                keyid:C9:3C:3C:C8:A5:F9:D0:93:F8:D5:E2:7E:36:7A:C6:91:ED:2A:7B:AC
                DirName:/C=fr/ST=idf/L=paris/O=vitam/OU=authorities/CN=ca_root_client-external
                serial:01:26

            X509v3 Issuer Alternative Name: 
                <EMPTY>

            X509v3 Basic Constraints: critical
                CA:FALSE
            X509v3 Key Usage: 
                Digital Signature
            Netscape Cert Type: 
                SSL Client
            X509v3 Extended Key Usage: 
                TLS Web Client Authentication
    Signature Algorithm: sha256WithRSAEncryption
         2d:1a:58:f8:6d:54:79:90:9a:eb:8f:d9:51:17:f0:62:8f:88:
         fa:b7:89:2b:97:09:ff:5e:ac:f1:79:2f:b6:69:f1:96:e9:f1:
         1d:71:a4:ec:04:0a:bb:1e:3c:cd:d9:08:c5:ed:8c:10:af:7e:
         3c:e1:45:50:47:97:05:df:d0:0d:8b:2f:f0:58:cd:de:66:2d:
         ae:b8:e0:02:64:c2:7c:6d:fb:30:04:a4:f6:d0:49:5e:7d:48:
         f2:6d:f6:fe:09:83:a7:bc:24:3b:16:b8:78:e9:0c:52:3e:85:
         d5:5b:96:ca:4f:ca:32:a4:ae:a4:00:8d:d7:fe:38:16:be:ea:
         f7:11:1d:11:f5:ec:50:53:c2:e0:f6:e8:3b:d3:1f:a2:21:3b:
         8c:f2:ad:c4:60:11:63:a0:94:cb:36:cc:f9:b1:27:bf:8e:ea:
         69:90:4c:a8:4d:20:3b:8a:67:c8:e5:dc:f0:76:89:43:44:65:
         e5:3e:32:30:5b:c3:8e:9a:9f:47:58:3e:7a:c2:87:9f:34:32:
         1f:01:70:3b:e7:47:d8:02:f7:1c:9f:d2:cd:fa:08:b6:ee:5d:
         ed:4e:fe:76:ab:11:ac:33:8d:b4:50:69:84:44:e7:79:00:4a:
         6e:47:a7:67:ce:a8:b7:ff:35:36:91:82:dc:eb:f3:72:b5:13:
         da:59:18:54:7e:88:2b:fc:01:ae:24:92:a2:47:e4:91:f3:6c:
         ca:40:dd:11:45:c1:f9:68:79:50:95:1f:9c:30:cf:47:ae:5e:
         7e:89:95:4f:ad:77:90:19:da:8a:fa:35:ef:18:78:7f:e0:a1:
         03:d5:11:e1:69:f0:d1:b6:f7:8e:9c:70:fd:f4:97:b3:21:60:
         4a:4f:bb:5d:ba:49:68:3a:90:65:8d:e7:5a:7e:c5:10:db:14:
         0b:2b:8a:ca:51:23:3d:02:68:ef:82:a3:b8:2f:a3:f5:55:9d:
         c0:0c:cb:b0:aa:2f:4f:69:5b:aa:25:6d:9c:89:42:66:a2:d1:
         f1:f1:29:5d:f4:51:c8:20:a5:56:37:04:f1:42:5a:8b:e6:31:
         1e:1e:f1:db:1e:ad:40:86:65:30:78:62:dd:8b:81:e5:ad:cf:
         29:d6:3c:2d:e7:f6:d4:e5:2b:3b:37:82:95:fe:81:29:38:d3:
         a3:39:c0:da:d3:55:e9:97:09:97:df:24:8b:6c:bd:a5:18:17:
         b3:d0:80:8b:be:cc:ca:a7:7d:96:cc:2c:fc:62:85:52:10:49:
         c5:bd:5e:ed:65:dd:e4:8d:a3:50:52:37:47:63:c7:60:4b:5f:
         46:f3:43:de:be:39:9e:2c:96:c3:54:38:4b:4e:61:41:9e:11:
         32:17:9d:24:d5:6f:b1:d2
-----BEGIN CERTIFICATE-----
MIIGfjCCBGagAwIBAgICASswDQYJKoZIhvcNAQELBQAwezELMAkGA1UEBhMCZnIx
DDAKBgNVBAgMA2lkZjEOMAwGA1UEBwwFcGFyaXMxDjAMBgNVBAoMBXZpdGFtMRQw
EgYDVQQLDAthdXRob3JpdGllczEoMCYGA1UEAwwfY2FfaW50ZXJtZWRpYXRlX2Ns
aWVudC1leHRlcm5hbDAeFw0xODEwMTkwODQxMDhaFw0yMTEwMTgwODQxMDhaME0x
CzAJBgNVBAYTAmZyMQwwCgYDVQQIDANpZGYxDjAMBgNVBAcMBXBhcmlzMQ4wDAYD
VQQKDAV2aXRhbTEQMA4GA1UEAwwHcmV2ZXJzZTCCAiIwDQYJKoZIhvcNAQEBBQAD
ggIPADCCAgoCggIBAKF1A5EQFLFNsa9oQ2pYaqk9TRi/gX42SBPpmjw5d5m3P25s
6Ts38TLPlUa/DQC5CJbme5uoY7m8j8ObtJhko8DPhkWSWp20j5mQQlhxgbPOIv/z
aknx17+KhYxSu/KLmQs9gPGeNrkmBw0wcZypStBmrRGCRMRQNauWi/1YbBp4Uk0V
nbu9U/OFqP6ruVQz5GfdX5O5P+OB2ViyXtXP+K+BmkxL2F1v3qx/L0KF/8jhrwva
ReXM7Jp/vyd2kVjFcRIhYholX3PyZ/fahxmejcPfG5DMxJ4Sg9I+2YxvAssswEWa
ekXSp8uKDRJGK8WM8gUbmZwc2REehU5TtFngqYdlF6mu5Ogo9REB+tjdXEBX+gqb
X6ZTMzvgQbpStZ6G5QUIVRwou/kAbXnyTDHa/AlYsq9FuMiL9XKzPU/VhhF7ox69
qj8Xvw5jOeYs9ruP9LGqZZkhuNfVuXfcZbD6z+7AAefNuOFqcji0DmHw3Euhm147
ZZ/lKiCpk40GWoVCRIa58MY1GNbMqOblaXrYMLIke4melQ75zZb72r5Nrt6/AKVS
CUPAKMoGAy1v2SM5kTuhIJdMhT9BSANwZsGJNXi4k+/b/YB+RGmtrkX5Fc4kztWO
ybgMpoKKpdpV2Bca5wvJ3MsgE3zAdA1ODTh4FIRiFsfV0WPxOuP5JuQFdpZrAgMB
AAGjggE4MIIBNDAkBglghkgBhvhCAQ0EFxYVQ2VydGlmaWNhdCBDbGllbnQgU1NM
MB0GA1UdDgQWBBStqdnZw8Dzv6PLiRHytdZdYiRl7zCBngYDVR0jBIGWMIGTgBTJ
PDzIpfnQk/jV4n42esaR7Sp7rKF3pHUwczELMAkGA1UEBhMCZnIxDDAKBgNVBAgM
A2lkZjEOMAwGA1UEBwwFcGFyaXMxDjAMBgNVBAoMBXZpdGFtMRQwEgYDVQQLDAth
dXRob3JpdGllczEgMB4GA1UEAwwXY2Ffcm9vdF9jbGllbnQtZXh0ZXJuYWyCAgEm
MAkGA1UdEgQCMAAwDAYDVR0TAQH/BAIwADALBgNVHQ8EBAMCB4AwEQYJYIZIAYb4
QgEBBAQDAgeAMBMGA1UdJQQMMAoGCCsGAQUFBwMCMA0GCSqGSIb3DQEBCwUAA4IC
AQAtGlj4bVR5kJrrj9lRF/Bij4j6t4krlwn/XqzxeS+2afGW6fEdcaTsBAq7HjzN
2QjF7YwQr3484UVQR5cF39ANiy/wWM3eZi2uuOACZMJ8bfswBKT20ElefUjybfb+
CYOnvCQ7Frh46QxSPoXVW5bKT8oypK6kAI3X/jgWvur3ER0R9exQU8Lg9ug70x+i
ITuM8q3EYBFjoJTLNsz5sSe/juppkEyoTSA7imfI5dzwdolDRGXlPjIwW8OOmp9H
WD56woefNDIfAXA750fYAvccn9LN+gi27l3tTv52qxGsM420UGmEROd5AEpuR6dn
zqi3/zU2kYLc6/NytRPaWRhUfogr/AGuJJKiR+SR82zKQN0RRcH5aHlQlR+cMM9H
rl5+iZVPrXeQGdqK+jXvGHh/4KED1RHhafDRtveOnHD99JezIWBKT7tdukloOpBl
jedafsUQ2xQLK4rKUSM9AmjvgqO4L6P1VZ3ADMuwqi9PaVuqJW2ciUJmotHx8Sld
9FHIIKVWNwTxQlqL5jEeHvHbHq1AhmUweGLdi4Hlrc8p1jwt5/bU5Ss7N4KV/oEp
ONOjOcDa01XplwmX3ySLbL2lGBez0ICLvszKp32WzCz8YoVSEEnFvV7tZd3kjaNQ
UjdHY8dgS19G80PevjmeLJbDVDhLTmFBnhEyF50k1W+x0g==
-----END CERTIFICATE-----
