Certificate:
    Data:
        Version: 3 (0x2)
        Serial Number: 188 (0xbc)
    Signature Algorithm: sha256WithRSAEncryption
        Issuer: C=fr, ST=idf, L=paris, O=vitam, OU=authorities, CN=ca_root_timestamping
        Validity
            Not Before: Aug  9 16:04:08 2017 GMT
            Not After : Aug  7 16:04:08 2027 GMT
        Subject: C=fr, ST=idf, L=paris, O=vitam, OU=authorities, CN=ca_intermediate_timestamping
        Subject Public Key Info:
            Public Key Algorithm: rsaEncryption
                Public-Key: (4096 bit)
                Modulus:
                    00:a3:41:78:df:49:30:9d:30:79:eb:e4:00:44:5c:
                    90:07:ac:b1:1d:0c:42:55:a3:7a:72:88:3c:37:e7:
                    70:5c:0e:fe:e5:ab:34:d3:e9:8b:c2:bb:83:58:fe:
                    9c:aa:b0:79:d9:4b:99:0d:60:16:0b:2f:98:9b:dc:
                    67:85:98:6d:10:39:d7:58:7c:d8:4d:29:25:03:08:
                    9f:0f:72:23:07:e4:13:06:c2:4f:aa:25:32:f8:d4:
                    14:30:47:19:cc:39:49:d1:02:72:97:7a:1b:5c:7d:
                    5e:97:70:56:73:1d:21:92:5d:a1:35:63:f5:f4:8f:
                    03:f5:42:16:87:1e:1c:d8:80:3e:a4:17:28:66:46:
                    64:39:92:43:72:6a:ff:7a:2b:9d:33:90:9a:73:fd:
                    46:79:79:e0:1f:63:e8:99:29:f1:cb:5e:42:ef:47:
                    38:52:49:d3:62:01:aa:ce:6d:7f:fc:c6:e6:15:23:
                    5f:cc:6e:95:41:60:77:4c:69:2a:e4:2f:a2:8e:47:
                    d5:46:a5:c8:6c:11:57:3e:97:8c:5c:c9:d3:fe:8d:
                    21:40:4f:0e:e4:02:31:cb:09:52:5d:0f:7c:35:17:
                    9f:b4:f8:c9:dc:42:c3:4c:fb:c1:33:83:e3:74:a8:
                    99:4a:12:f2:d0:c3:87:50:84:8d:ea:c2:1a:6d:00:
                    2a:a5:95:89:f7:04:eb:aa:6d:f2:85:c4:e9:c4:1f:
                    2b:2c:ef:f6:40:03:ff:a4:a9:73:b3:22:5f:9b:f5:
                    9f:33:b0:f3:8f:3c:7b:e3:b5:83:0f:c3:a5:6f:bb:
                    b4:9e:ae:02:35:b2:5c:c6:d0:5a:39:af:28:6d:e4:
                    78:0f:ea:75:ff:63:3a:31:54:bc:53:ee:d2:78:ad:
                    c1:d6:eb:f4:11:01:a0:ff:17:fa:66:73:f7:a6:bc:
                    25:4c:95:16:51:3c:cd:be:12:1b:78:3a:44:7c:f2:
                    b0:54:f4:bb:30:e8:80:aa:a1:76:ec:37:b3:14:c0:
                    a3:b8:ca:2b:11:1a:2e:66:1c:1a:66:27:06:c0:58:
                    de:d5:94:30:62:77:e5:cd:71:6c:40:63:11:54:d5:
                    cd:dc:2b:d1:2c:64:6e:3c:2e:21:55:33:e4:88:a2:
                    d6:aa:64:1b:71:46:5e:79:32:fc:f4:83:78:a4:b0:
                    8f:25:e2:ef:19:b9:1b:6c:1b:33:d9:ca:94:a2:cb:
                    23:cf:85:8d:35:07:b7:a7:f5:c8:6f:bb:3b:2b:f7:
                    8f:9d:84:30:29:45:94:77:fa:14:5c:64:aa:08:7d:
                    96:3a:cc:77:d3:f7:2e:e7:8a:79:8c:50:32:34:8b:
                    20:5c:fc:2f:12:d5:94:f5:e2:2e:db:25:18:c1:e2:
                    01:9e:5d
                Exponent: 65537 (0x10001)
        X509v3 extensions:
            Netscape Comment: 
                CA Intermediate
            X509v3 Subject Key Identifier: 
                36:18:5F:4A:02:83:0E:59:26:6C:7F:BD:46:13:8D:3F:27:FF:FC:B0
            X509v3 Authority Key Identifier: 
                keyid:F5:70:56:93:F0:DF:49:12:BF:75:12:F8:4A:D7:1E:64:B9:32:67:BA
                DirName:/C=fr/ST=idf/L=paris/O=vitam/OU=authorities/CN=ca_root_timestamping
                serial:BB

            X509v3 Basic Constraints: critical
                CA:TRUE, pathlen:0
            X509v3 Issuer Alternative Name: 
                <EMPTY>

            X509v3 Key Usage: 
                Certificate Sign, CRL Sign
            Netscape Cert Type: 
                SSL CA
    Signature Algorithm: sha256WithRSAEncryption
         73:4f:8d:d3:4c:94:d8:3e:3b:0f:c0:39:dd:77:18:24:c1:90:
         84:35:9b:15:8c:76:97:6f:a3:b3:70:b1:18:d9:88:18:65:8f:
         17:70:45:62:dd:47:e1:34:9b:59:e9:d6:03:86:59:1b:32:c5:
         1a:1a:8d:1c:40:29:40:c4:b0:b4:eb:36:6e:87:d8:31:a6:be:
         8f:f1:db:69:c9:6a:9f:f2:dc:a7:39:38:fb:ca:17:b4:a9:74:
         22:5c:7b:99:1f:af:e6:65:a2:10:c5:4f:1d:86:b7:8c:ce:41:
         2e:95:f2:fe:8e:c4:f8:60:57:fe:4a:83:b1:41:6a:d0:81:f9:
         60:9b:a1:d1:05:4d:6f:76:19:fe:f2:68:3b:2e:9c:6b:5a:23:
         c2:aa:be:50:74:e5:51:9b:d3:6b:1e:e2:cd:7a:34:0b:ef:ee:
         ce:7e:e2:67:71:8e:0f:1a:94:82:50:f4:e8:8b:2c:ed:75:b7:
         f7:73:f6:8b:8d:e9:a6:4a:83:99:87:9b:0a:a3:cc:6d:7a:c2:
         ab:37:b1:81:d4:e6:58:6c:3d:bb:b5:ee:05:34:62:95:64:7d:
         59:ff:af:11:17:23:24:81:35:f8:8c:88:b5:02:2a:56:e5:12:
         7f:e4:5b:1c:38:e5:b8:0c:90:52:f6:78:6e:5c:bb:4f:71:c0:
         ae:2b:97:21:1a:4d:0c:67:39:c6:16:ef:36:3d:d7:1b:ee:c9:
         da:bd:a2:f6:d9:7b:9c:58:8c:e3:2a:37:54:1a:25:9b:21:6d:
         3c:75:43:c4:e8:f0:ce:ea:94:7a:d7:4a:35:eb:8f:d0:2b:74:
         bd:5f:2f:3c:5c:2c:48:e5:5c:5f:10:33:11:98:89:bd:cc:2d:
         2f:b2:0d:60:1c:ae:56:56:10:f2:dc:6b:75:62:62:80:f2:11:
         48:27:01:c7:28:1c:0f:b3:46:d2:ab:b8:7e:cc:2d:a1:75:ca:
         52:69:63:66:70:13:36:9f:e0:1f:43:88:89:37:c7:14:cc:99:
         43:ff:be:e4:c3:c3:99:39:41:4d:f5:73:1e:2a:2e:79:68:c8:
         ef:8e:ed:d9:6a:c6:47:b1:75:33:3e:e0:40:bf:81:7f:f6:3a:
         9f:c0:ba:7c:51:03:ab:91:55:ea:5b:20:31:e6:db:d8:9d:e0:
         44:b1:e5:9a:b7:bd:cd:03:3e:27:f8:92:6b:db:2f:e6:d7:d5:
         15:22:b7:87:cc:05:5d:b1:86:3a:a3:16:42:9d:7e:bb:23:ea:
         69:87:2b:00:fd:aa:7c:58:b4:a4:27:93:05:e6:99:e7:da:06:
         0b:c8:5b:8b:87:f1:d2:39:3f:c3:eb:8b:84:66:21:45:83:2c:
         67:ab:10:65:a1:b8:87:67
-----BEGIN CERTIFICATE-----
MIIGhjCCBG6gAwIBAgICALwwDQYJKoZIhvcNAQELBQAwcDELMAkGA1UEBhMCZnIx
DDAKBgNVBAgMA2lkZjEOMAwGA1UEBwwFcGFyaXMxDjAMBgNVBAoMBXZpdGFtMRQw
EgYDVQQLDAthdXRob3JpdGllczEdMBsGA1UEAwwUY2Ffcm9vdF90aW1lc3RhbXBp
bmcwHhcNMTcwODA5MTYwNDA4WhcNMjcwODA3MTYwNDA4WjB4MQswCQYDVQQGEwJm
cjEMMAoGA1UECAwDaWRmMQ4wDAYDVQQHDAVwYXJpczEOMAwGA1UECgwFdml0YW0x
FDASBgNVBAsMC2F1dGhvcml0aWVzMSUwIwYDVQQDDBxjYV9pbnRlcm1lZGlhdGVf
dGltZXN0YW1waW5nMIICIjANBgkqhkiG9w0BAQEFAAOCAg8AMIICCgKCAgEAo0F4
30kwnTB56+QARFyQB6yxHQxCVaN6cog8N+dwXA7+5as00+mLwruDWP6cqrB52UuZ
DWAWCy+Ym9xnhZhtEDnXWHzYTSklAwifD3IjB+QTBsJPqiUy+NQUMEcZzDlJ0QJy
l3obXH1el3BWcx0hkl2hNWP19I8D9UIWhx4c2IA+pBcoZkZkOZJDcmr/eiudM5Ca
c/1GeXngH2PomSnxy15C70c4UknTYgGqzm1//MbmFSNfzG6VQWB3TGkq5C+ijkfV
RqXIbBFXPpeMXMnT/o0hQE8O5AIxywlSXQ98NReftPjJ3ELDTPvBM4PjdKiZShLy
0MOHUISN6sIabQAqpZWJ9wTrqm3yhcTpxB8rLO/2QAP/pKlzsyJfm/WfM7Dzjzx7
47WDD8Olb7u0nq4CNbJcxtBaOa8obeR4D+p1/2M6MVS8U+7SeK3B1uv0EQGg/xf6
ZnP3prwlTJUWUTzNvhIbeDpEfPKwVPS7MOiAqqF27DezFMCjuMorERouZhwaZicG
wFje1ZQwYnflzXFsQGMRVNXN3CvRLGRuPC4hVTPkiKLWqmQbcUZeeTL89IN4pLCP
JeLvGbkbbBsz2cqUossjz4WNNQe3p/XIb7s7K/ePnYQwKUWUd/oUXGSqCH2WOsx3
0/cu54p5jFAyNIsgXPwvEtWU9eIu2yUYweIBnl0CAwEAAaOCASAwggEcMB4GCWCG
SAGG+EIBDQQRFg9DQSBJbnRlcm1lZGlhdGUwHQYDVR0OBBYEFDYYX0oCgw5ZJmx/
vUYTjT8n//ywMIGbBgNVHSMEgZMwgZCAFPVwVpPw30kSv3US+ErXHmS5Mme6oXSk
cjBwMQswCQYDVQQGEwJmcjEMMAoGA1UECAwDaWRmMQ4wDAYDVQQHDAVwYXJpczEO
MAwGA1UECgwFdml0YW0xFDASBgNVBAsMC2F1dGhvcml0aWVzMR0wGwYDVQQDDBRj
YV9yb290X3RpbWVzdGFtcGluZ4ICALswEgYDVR0TAQH/BAgwBgEB/wIBADAJBgNV
HRIEAjAAMAsGA1UdDwQEAwIBBjARBglghkgBhvhCAQEEBAMCAgQwDQYJKoZIhvcN
AQELBQADggIBAHNPjdNMlNg+Ow/AOd13GCTBkIQ1mxWMdpdvo7NwsRjZiBhljxdw
RWLdR+E0m1np1gOGWRsyxRoajRxAKUDEsLTrNm6H2DGmvo/x22nJap/y3Kc5OPvK
F7SpdCJce5kfr+ZlohDFTx2Gt4zOQS6V8v6OxPhgV/5Kg7FBatCB+WCbodEFTW92
Gf7yaDsunGtaI8KqvlB05VGb02se4s16NAvv7s5+4mdxjg8alIJQ9OiLLO11t/dz
9ouN6aZKg5mHmwqjzG16wqs3sYHU5lhsPbu17gU0YpVkfVn/rxEXIySBNfiMiLUC
KlblEn/kWxw45bgMkFL2eG5cu09xwK4rlyEaTQxnOcYW7zY91xvuydq9ovbZe5xY
jOMqN1QaJZshbTx1Q8To8M7qlHrXSjXrj9ArdL1fLzxcLEjlXF8QMxGYib3MLS+y
DWAcrlZWEPLca3ViYoDyEUgnAccoHA+zRtKruH7MLaF1ylJpY2ZwEzaf4B9DiIk3
xxTMmUP/vuTDw5k5QU31cx4qLnloyO+O7dlqxkexdTM+4EC/gX/2Op/AunxRA6uR
VepbIDHm29id4ESx5Zq3vc0DPif4kmvbL+bX1RUit4fMBV2xhjqjFkKdfrsj6mmH
KwD9qnxYtKQnkwXmmefaBgvIW4uH8dI5P8Pri4RmIUWDLGerEGWhuIdn
-----END CERTIFICATE-----
