Certificate:
    Data:
        Version: 3 (0x2)
        Serial Number: 211 (0xd3)
        Signature Algorithm: sha256WithRSAEncryption
        Issuer: C=fr, ST=idf, L=paris, O=vitam, OU=authorities, CN=ca_root_timestamping
        Validity
            Not Before: Sep 15 12:58:49 2020 GMT
            Not After : Dec 31 23:59:59 9999 GMT
        Subject: C=fr, ST=idf, L=paris, O=vitam, OU=authorities, CN=ca_intermediate_timestamping
        Subject Public Key Info:
            Public Key Algorithm: rsaEncryption
                RSA Public-Key: (4096 bit)
                Modulus:
                    00:d7:9a:6c:d4:41:11:ef:2e:e9:12:9b:e9:56:04:
                    1e:9a:be:bd:1d:bd:60:b2:70:ae:d9:38:c0:72:8d:
                    9f:fc:6d:b7:5c:e7:e1:5d:bf:0c:2e:df:03:25:07:
                    61:8d:37:6a:dd:53:28:b6:aa:13:52:2e:53:7a:26:
                    2f:98:47:ea:07:1d:44:c9:81:cb:b1:84:88:d9:8c:
                    33:f7:7c:ab:9a:34:18:ef:0a:91:82:6a:96:5d:54:
                    8e:cc:7b:f1:62:a4:8d:8c:4c:e4:b0:70:4c:88:97:
                    cb:a5:50:92:8f:4f:a1:be:6b:1d:a0:a9:59:83:a9:
                    a8:ac:0f:c0:de:76:f4:20:f3:cf:18:70:8e:79:e8:
                    a8:81:a0:7d:42:d1:15:b9:6d:1c:57:18:41:05:e3:
                    16:15:0a:5c:ad:ce:ad:b6:84:2f:51:17:15:2c:ac:
                    44:9e:ca:92:e7:de:49:f7:af:5f:0a:98:40:1d:78:
                    0e:de:44:be:4a:c8:15:21:99:49:d3:bb:f6:f1:28:
                    71:2d:a3:2b:3d:6f:04:35:c0:67:ee:9c:1a:24:b7:
                    14:3d:5a:84:4d:0b:be:b2:8b:42:06:57:76:4c:e7:
                    e8:ec:6c:65:0b:6a:aa:ed:ec:56:43:2e:7b:a2:ae:
                    1d:c8:3c:56:c4:c4:38:e9:c2:1e:50:1a:76:55:52:
                    31:b6:00:17:71:f2:db:2b:32:7b:d5:ef:a0:af:dd:
                    96:26:dc:92:ae:30:52:51:1f:35:d2:23:43:ba:68:
                    07:96:9f:69:f2:fa:66:ed:94:1e:7c:b4:c8:4b:56:
                    b4:01:4c:b3:c4:d8:c1:7f:62:88:80:1f:6d:cb:db:
                    af:ad:a0:21:a2:30:8f:47:b7:3f:5e:90:ef:01:65:
                    25:90:26:a5:9f:6c:d5:22:1d:86:92:71:dc:4c:75:
                    b4:51:0d:c1:68:6d:a2:0b:f3:39:d6:3a:91:3d:51:
                    8a:b9:10:ea:62:9a:b4:d3:c3:76:4e:9d:89:4f:6c:
                    01:9f:78:10:cb:0a:84:81:d2:1c:b8:4c:43:03:34:
                    dc:be:8d:28:e1:06:a4:31:96:4c:40:72:9d:bb:40:
                    db:42:a4:d0:03:51:27:36:63:9c:ca:04:df:2b:0b:
                    3e:53:c3:0a:43:6a:a8:bd:fb:9b:d3:d8:a8:c8:02:
                    1b:34:6d:d2:e1:4c:84:a7:97:2d:de:7c:6d:38:f3:
                    d4:f8:73:9b:c9:2f:6a:6b:ed:0f:a9:d1:43:ad:de:
                    85:80:5d:14:81:39:92:42:1a:e4:f0:aa:99:bc:68:
                    c1:84:32:97:74:93:ac:0c:6e:16:4f:9a:c5:1a:ee:
                    43:7e:94:45:13:96:d0:b1:b0:85:ef:67:cf:cf:01:
                    e7:44:0b
                Exponent: 65537 (0x10001)
        X509v3 extensions:
            Netscape Comment: 
                CA Intermediate
            X509v3 Subject Key Identifier: 
                93:82:7B:10:90:72:99:CD:ED:DC:95:CF:E5:3A:F9:D9:45:3D:6F:A1
            X509v3 Authority Key Identifier: 
                keyid:B4:C3:C5:77:58:44:AD:C9:51:68:03:2A:1E:E2:E5:60:23:31:00:18
                DirName:/C=fr/ST=idf/L=paris/O=vitam/OU=authorities/CN=ca_root_timestamping
                serial:D2

            X509v3 Basic Constraints: critical
                CA:TRUE, pathlen:0
            X509v3 Issuer Alternative Name: 
                <EMPTY>

            X509v3 Key Usage: 
                Certificate Sign, CRL Sign
            Netscape Cert Type: 
                SSL CA
    Signature Algorithm: sha256WithRSAEncryption
         07:b6:67:82:c7:74:24:db:d6:d5:53:64:c3:b9:0f:61:36:51:
         81:b8:4b:be:a6:fb:7d:22:46:c4:28:92:7a:43:81:d6:74:fa:
         e4:e5:fc:10:d1:1a:c3:06:81:ce:07:5e:3e:db:c1:26:53:f9:
         35:92:88:8f:1c:df:a9:4a:99:3e:ee:5d:9b:1b:06:ec:b7:32:
         11:db:d9:7c:8b:07:15:b5:40:fb:8c:b6:41:76:2c:e1:21:25:
         af:eb:d1:0f:d8:43:19:8c:db:44:bc:bb:83:59:ba:41:29:80:
         d1:a8:6f:5f:35:e2:c0:37:cf:32:c4:d3:34:5a:a2:af:39:c2:
         e9:da:7b:45:52:a0:96:18:de:34:01:da:fc:86:81:05:f3:ee:
         09:d7:b3:d8:e7:42:17:05:84:65:3f:56:66:a3:fe:a5:42:0f:
         52:9e:a3:2c:65:38:7a:b4:12:b7:6b:cc:5b:31:3b:21:3e:46:
         ad:dc:6e:cf:e0:0d:a8:9c:d6:f7:33:5c:07:80:26:28:38:52:
         d2:cd:9c:ea:04:3d:e3:7b:1d:f6:d4:d8:34:53:bd:0d:9d:2e:
         5a:e0:fb:cf:7f:e3:95:dc:46:8e:45:ae:89:ad:67:30:10:3f:
         d3:69:44:bc:f3:bb:1d:62:a8:d1:5a:d7:34:0f:7f:b0:29:02:
         e2:1e:3c:26:b7:1a:34:d6:29:91:5e:20:63:f5:ff:ed:fe:f8:
         ee:95:69:47:aa:7a:5c:67:6d:4b:73:4e:ea:59:9a:87:32:db:
         76:5a:fd:5d:06:6e:07:2a:9d:7e:5e:74:d7:a7:47:70:ca:af:
         d1:3a:1d:52:fc:a7:71:04:9a:96:1c:38:eb:3e:35:c5:00:bf:
         41:ec:6f:db:43:d5:af:cc:ee:71:42:6a:97:88:62:13:6c:ec:
         c7:c2:e0:3f:f5:9d:7c:96:66:d3:d5:77:d8:e0:ec:22:fe:60:
         0e:60:67:d1:2f:9c:54:e6:be:b5:a6:55:87:53:c3:f2:83:5b:
         b4:83:55:ba:8e:cb:b1:21:c5:e7:f9:b6:a0:c7:7c:e8:b3:e6:
         c2:ed:6b:bc:f4:81:05:33:52:14:71:38:3b:49:d7:dd:cb:d3:
         12:11:8a:25:eb:52:9e:71:58:ef:16:79:9c:b1:c7:d5:63:1f:
         5e:a8:cd:17:ee:d9:11:81:73:a8:00:db:e4:d0:ef:d1:0b:5b:
         8a:fe:4b:0e:53:e8:a8:38:cb:af:11:d0:61:43:06:c9:1e:85:
         29:ea:22:a5:da:5f:bf:6f:d6:a9:19:12:f7:85:b9:7d:1a:a9:
         d6:c9:7e:6f:da:a1:26:85:93:77:c1:c1:aa:11:05:80:13:a7:
         b4:e1:ed:3e:8b:a8:79:b7
-----BEGIN CERTIFICATE-----
MIIGiDCCBHCgAwIBAgICANMwDQYJKoZIhvcNAQELBQAwcDELMAkGA1UEBhMCZnIx
DDAKBgNVBAgMA2lkZjEOMAwGA1UEBwwFcGFyaXMxDjAMBgNVBAoMBXZpdGFtMRQw
EgYDVQQLDAthdXRob3JpdGllczEdMBsGA1UEAwwUY2Ffcm9vdF90aW1lc3RhbXBp
bmcwIBcNMjAwOTE1MTI1ODQ5WhgPOTk5OTEyMzEyMzU5NTlaMHgxCzAJBgNVBAYT
AmZyMQwwCgYDVQQIDANpZGYxDjAMBgNVBAcMBXBhcmlzMQ4wDAYDVQQKDAV2aXRh
bTEUMBIGA1UECwwLYXV0aG9yaXRpZXMxJTAjBgNVBAMMHGNhX2ludGVybWVkaWF0
ZV90aW1lc3RhbXBpbmcwggIiMA0GCSqGSIb3DQEBAQUAA4ICDwAwggIKAoICAQDX
mmzUQRHvLukSm+lWBB6avr0dvWCycK7ZOMByjZ/8bbdc5+Fdvwwu3wMlB2GNN2rd
Uyi2qhNSLlN6Ji+YR+oHHUTJgcuxhIjZjDP3fKuaNBjvCpGCapZdVI7Me/FipI2M
TOSwcEyIl8ulUJKPT6G+ax2gqVmDqaisD8DedvQg888YcI556KiBoH1C0RW5bRxX
GEEF4xYVClytzq22hC9RFxUsrESeypLn3kn3r18KmEAdeA7eRL5KyBUhmUnTu/bx
KHEtoys9bwQ1wGfunBoktxQ9WoRNC76yi0IGV3ZM5+jsbGULaqrt7FZDLnuirh3I
PFbExDjpwh5QGnZVUjG2ABdx8tsrMnvV76Cv3ZYm3JKuMFJRHzXSI0O6aAeWn2ny
+mbtlB58tMhLVrQBTLPE2MF/YoiAH23L26+toCGiMI9Htz9ekO8BZSWQJqWfbNUi
HYaScdxMdbRRDcFobaIL8znWOpE9UYq5EOpimrTTw3ZOnYlPbAGfeBDLCoSB0hy4
TEMDNNy+jSjhBqQxlkxAcp27QNtCpNADUSc2Y5zKBN8rCz5TwwpDaqi9+5vT2KjI
Ahs0bdLhTISnly3efG0489T4c5vJL2pr7Q+p0UOt3oWAXRSBOZJCGuTwqpm8aMGE
Mpd0k6wMbhZPmsUa7kN+lEUTltCxsIXvZ8/PAedECwIDAQABo4IBIDCCARwwHgYJ
YIZIAYb4QgENBBEWD0NBIEludGVybWVkaWF0ZTAdBgNVHQ4EFgQUk4J7EJBymc3t
3JXP5Tr52UU9b6EwgZsGA1UdIwSBkzCBkIAUtMPFd1hErclRaAMqHuLlYCMxABih
dKRyMHAxCzAJBgNVBAYTAmZyMQwwCgYDVQQIDANpZGYxDjAMBgNVBAcMBXBhcmlz
MQ4wDAYDVQQKDAV2aXRhbTEUMBIGA1UECwwLYXV0aG9yaXRpZXMxHTAbBgNVBAMM
FGNhX3Jvb3RfdGltZXN0YW1waW5nggIA0jASBgNVHRMBAf8ECDAGAQH/AgEAMAkG
A1UdEgQCMAAwCwYDVR0PBAQDAgEGMBEGCWCGSAGG+EIBAQQEAwICBDANBgkqhkiG
9w0BAQsFAAOCAgEAB7Zngsd0JNvW1VNkw7kPYTZRgbhLvqb7fSJGxCiSekOB1nT6
5OX8ENEawwaBzgdePtvBJlP5NZKIjxzfqUqZPu5dmxsG7LcyEdvZfIsHFbVA+4y2
QXYs4SElr+vRD9hDGYzbRLy7g1m6QSmA0ahvXzXiwDfPMsTTNFqirznC6dp7RVKg
lhjeNAHa/IaBBfPuCdez2OdCFwWEZT9WZqP+pUIPUp6jLGU4erQSt2vMWzE7IT5G
rdxuz+ANqJzW9zNcB4AmKDhS0s2c6gQ943sd9tTYNFO9DZ0uWuD7z3/jldxGjkWu
ia1nMBA/02lEvPO7HWKo0VrXNA9/sCkC4h48JrcaNNYpkV4gY/X/7f747pVpR6p6
XGdtS3NO6lmahzLbdlr9XQZuByqdfl5016dHcMqv0TodUvyncQSalhw46z41xQC/
Qexv20PVr8zucUJql4hiE2zsx8LgP/WdfJZm09V32ODsIv5gDmBn0S+cVOa+taZV
h1PD8oNbtINVuo7LsSHF5/m2oMd86LPmwu1rvPSBBTNSFHE4O0nX3cvTEhGKJetS
nnFY7xZ5nLHH1WMfXqjNF+7ZEYFzqADb5NDv0Qtbiv5LDlPoqDjLrxHQYUMGyR6F
Keoipdpfv2/WqRkS94W5fRqp1sl+b9qhJoWTd8HBqhEFgBOntOHtPouoebc=
-----END CERTIFICATE-----
