Certificate:
    Data:
        Version: 3 (0x2)
        Serial Number: 191 (0xbf)
    Signature Algorithm: sha256WithRSAEncryption
        Issuer: C=fr, ST=idf, L=paris, O=vitam, OU=authorities, CN=ca_root_timestamping
        Validity
            Not Before: Feb  5 12:46:58 2018 GMT
            Not After : Feb  3 12:46:58 2028 GMT
        Subject: C=fr, ST=idf, L=paris, O=vitam, OU=authorities, CN=ca_intermediate_timestamping
        Subject Public Key Info:
            Public Key Algorithm: rsaEncryption
                Public-Key: (4096 bit)
                Modulus:
                    00:c3:6b:b4:40:c4:de:95:0e:5a:ba:5a:6c:7c:70:
                    83:71:0f:65:e9:57:3a:91:b7:0b:80:33:d1:a5:c6:
                    ab:7f:eb:2f:04:b7:b4:9e:e3:60:fc:2b:b3:4e:c7:
                    4c:f3:c3:7e:71:a6:da:58:0e:6c:fe:34:f1:75:e3:
                    21:48:b4:2d:a5:f2:fc:10:0d:25:02:a6:00:29:ee:
                    ea:c9:1e:4c:13:e5:33:20:13:f3:07:b0:fb:5f:5d:
                    56:bf:7c:f2:ac:82:4d:66:93:80:4c:d8:9a:39:84:
                    a8:67:05:74:5e:bc:03:5c:a8:34:d0:63:22:be:b6:
                    53:b8:74:0b:5a:23:d2:05:0a:35:c6:94:c8:5b:21:
                    68:f9:76:9b:fa:ef:5a:13:d6:42:72:65:8c:18:5a:
                    d8:c8:40:3f:d3:cb:b0:19:27:84:1b:81:8e:8e:02:
                    88:53:e9:a1:3e:65:5f:09:2c:6e:aa:c3:85:74:a6:
                    3a:a3:76:01:61:00:bb:23:d0:58:23:4e:8c:ed:70:
                    78:6b:65:6d:23:c6:50:ad:8a:bd:18:1a:99:04:13:
                    0f:a7:fb:0b:66:9c:26:cf:a6:97:7b:16:42:e1:f2:
                    b1:93:55:21:9c:02:b1:65:cb:55:b1:6d:16:01:73:
                    39:7a:aa:d5:48:ae:9f:aa:f4:28:17:22:24:6b:2f:
                    8e:54:a0:dc:82:1d:a0:94:c9:6b:25:47:6b:1b:4d:
                    ba:05:84:34:6f:b8:49:0b:76:9a:76:e5:8f:3b:28:
                    dd:dd:0b:ec:5e:34:d4:6a:cc:f2:63:d6:9b:49:b5:
                    d7:9a:1d:89:b7:42:c3:fe:bf:f0:42:5c:a8:0c:2f:
                    d8:28:ae:a1:34:d6:c2:68:5b:85:72:1f:53:1f:27:
                    a3:1c:fc:4c:34:7e:5c:ff:0a:d3:01:ad:94:59:1d:
                    fb:e3:d5:8b:1e:63:1e:7a:c5:19:3c:72:a1:2c:36:
                    03:95:31:a3:8c:72:f7:85:e2:ed:c9:31:5d:0b:c4:
                    2a:c1:a7:f3:4e:c1:7d:f5:4f:42:81:75:d0:ba:5c:
                    d1:0d:67:fa:6a:a7:67:fa:0f:08:c5:62:b8:c6:1f:
                    97:5c:28:1a:73:ea:fa:47:5d:9c:09:af:f5:29:be:
                    7b:d5:9c:cc:db:4f:6f:ad:11:42:f0:a7:48:9d:cb:
                    f2:a7:23:3d:9f:ef:26:d6:9c:b9:7f:a2:30:27:11:
                    37:1b:f6:fb:f1:dc:4e:83:86:5d:18:03:57:db:09:
                    9b:0d:b2:e3:b1:97:15:69:ac:ec:a4:35:e9:4c:fe:
                    ba:da:b5:c9:8c:69:ae:d4:2b:0f:0c:df:40:dc:5c:
                    cd:09:37:51:9c:71:c1:85:03:1d:81:7c:e5:ac:d4:
                    de:84:53
                Exponent: 65537 (0x10001)
        X509v3 extensions:
            Netscape Comment: 
                CA Intermediate
            X509v3 Subject Key Identifier: 
                07:68:B8:7D:DE:17:3A:45:CD:1C:BC:97:83:80:C9:14:01:53:FE:91
            X509v3 Authority Key Identifier: 
                keyid:97:C5:F8:1B:13:9F:AF:95:34:2A:71:06:67:BF:10:0A:AB:E3:C3:9F
                DirName:/C=fr/ST=idf/L=paris/O=vitam/OU=authorities/CN=ca_root_timestamping
                serial:BE

            X509v3 Basic Constraints: critical
                CA:TRUE, pathlen:0
            X509v3 Issuer Alternative Name: 
                <EMPTY>

            X509v3 Key Usage: 
                Certificate Sign, CRL Sign
            Netscape Cert Type: 
                SSL CA
    Signature Algorithm: sha256WithRSAEncryption
         82:d7:75:a8:24:13:0f:97:32:e6:c2:f0:00:b4:2d:26:8f:96:
         b2:57:e2:8c:50:25:de:6a:6d:0a:fb:06:bc:13:42:62:52:a9:
         88:a4:88:e2:da:27:2c:65:6d:48:d6:67:d9:c9:1c:58:3a:42:
         2c:4f:32:5a:8f:c5:e4:8d:04:83:f4:ca:14:8d:7f:68:83:03:
         7f:0a:e5:1b:ef:ab:6f:23:15:c4:f2:e5:58:03:74:d2:82:33:
         d4:1e:9f:31:1f:dc:00:60:ba:5a:8d:5f:cc:17:06:db:49:4f:
         d4:2b:e8:c1:9c:d7:0a:be:bb:97:4f:06:76:38:ef:13:61:a9:
         3b:fa:c0:20:e0:92:ea:b5:e1:44:d0:b6:7b:78:c3:34:05:59:
         48:72:5b:76:71:b0:9f:d7:3a:af:83:27:c8:17:2f:45:87:06:
         55:ce:dd:ea:14:96:2d:3b:f8:2b:b3:cb:08:b2:09:0a:75:d8:
         b5:e5:fa:6f:3f:0a:21:a1:ca:44:a0:d1:35:73:80:7f:5f:87:
         ab:dd:d2:1f:53:38:31:fc:4a:5e:61:15:78:81:1a:f8:2e:7f:
         9b:f4:86:4d:c9:49:30:d8:c3:db:a9:58:a0:70:09:30:50:bd:
         74:15:b9:17:18:a4:97:89:16:e5:73:c1:c0:76:03:a5:2d:ab:
         33:f4:f4:ea:2a:60:ec:c1:a7:4e:3f:84:fc:81:21:c9:b0:c1:
         d1:0a:01:fb:42:e9:23:27:b1:0e:5f:1b:04:2b:e5:c4:57:4d:
         0a:66:58:5e:e9:d6:73:70:31:2b:99:12:9a:42:da:e3:a0:19:
         07:b8:18:38:c0:4c:a3:c6:ba:2e:71:6e:48:fb:b8:e6:00:ed:
         4a:89:dd:59:b6:07:74:e0:b2:d7:16:ed:69:80:de:f6:19:e0:
         ce:f8:7f:f3:7c:b0:f0:4e:be:69:d0:de:66:1d:3c:7d:79:2b:
         ba:8a:d9:ff:1e:31:fc:35:f7:52:57:f8:38:5a:86:37:37:c3:
         2b:a4:d8:d0:30:c7:09:71:5d:82:4a:1b:ca:da:d2:e5:9d:17:
         7f:0b:51:72:c5:2a:04:95:ab:09:eb:25:4f:d7:f9:85:8b:56:
         fd:04:28:16:27:2c:5e:12:83:70:70:9f:64:f6:43:56:35:59:
         58:7f:53:ac:2d:d7:b8:25:20:03:fd:ed:97:da:f2:09:3a:d0:
         55:e6:c0:ab:e8:10:b9:0d:15:34:f5:c3:eb:96:20:c0:91:b0:
         a8:73:67:e6:42:0e:e4:60:9e:5c:13:1a:74:dd:17:14:5b:fe:
         7b:57:23:c5:37:c0:0f:01:68:f0:46:da:d5:48:a6:e6:96:fd:
         0f:9e:c5:57:01:41:e8:a6
-----BEGIN CERTIFICATE-----
MIIGhjCCBG6gAwIBAgICAL8wDQYJKoZIhvcNAQELBQAwcDELMAkGA1UEBhMCZnIx
DDAKBgNVBAgMA2lkZjEOMAwGA1UEBwwFcGFyaXMxDjAMBgNVBAoMBXZpdGFtMRQw
EgYDVQQLDAthdXRob3JpdGllczEdMBsGA1UEAwwUY2Ffcm9vdF90aW1lc3RhbXBp
bmcwHhcNMTgwMjA1MTI0NjU4WhcNMjgwMjAzMTI0NjU4WjB4MQswCQYDVQQGEwJm
cjEMMAoGA1UECAwDaWRmMQ4wDAYDVQQHDAVwYXJpczEOMAwGA1UECgwFdml0YW0x
FDASBgNVBAsMC2F1dGhvcml0aWVzMSUwIwYDVQQDDBxjYV9pbnRlcm1lZGlhdGVf
dGltZXN0YW1waW5nMIICIjANBgkqhkiG9w0BAQEFAAOCAg8AMIICCgKCAgEAw2u0
QMTelQ5aulpsfHCDcQ9l6Vc6kbcLgDPRpcarf+svBLe0nuNg/CuzTsdM88N+caba
WA5s/jTxdeMhSLQtpfL8EA0lAqYAKe7qyR5ME+UzIBPzB7D7X11Wv3zyrIJNZpOA
TNiaOYSoZwV0XrwDXKg00GMivrZTuHQLWiPSBQo1xpTIWyFo+Xab+u9aE9ZCcmWM
GFrYyEA/08uwGSeEG4GOjgKIU+mhPmVfCSxuqsOFdKY6o3YBYQC7I9BYI06M7XB4
a2VtI8ZQrYq9GBqZBBMPp/sLZpwmz6aXexZC4fKxk1UhnAKxZctVsW0WAXM5eqrV
SK6fqvQoFyIkay+OVKDcgh2glMlrJUdrG026BYQ0b7hJC3aaduWPOyjd3QvsXjTU
aszyY9abSbXXmh2Jt0LD/r/wQlyoDC/YKK6hNNbCaFuFch9THyejHPxMNH5c/wrT
Aa2UWR3749WLHmMeesUZPHKhLDYDlTGjjHL3heLtyTFdC8QqwafzTsF99U9CgXXQ
ulzRDWf6aqdn+g8IxWK4xh+XXCgac+r6R12cCa/1Kb571ZzM209vrRFC8KdIncvy
pyM9n+8m1py5f6IwJxE3G/b78dxOg4ZdGANX2wmbDbLjsZcVaazspDXpTP662rXJ
jGmu1CsPDN9A3FzNCTdRnHHBhQMdgXzlrNTehFMCAwEAAaOCASAwggEcMB4GCWCG
SAGG+EIBDQQRFg9DQSBJbnRlcm1lZGlhdGUwHQYDVR0OBBYEFAdouH3eFzpFzRy8
l4OAyRQBU/6RMIGbBgNVHSMEgZMwgZCAFJfF+BsTn6+VNCpxBme/EAqr48OfoXSk
cjBwMQswCQYDVQQGEwJmcjEMMAoGA1UECAwDaWRmMQ4wDAYDVQQHDAVwYXJpczEO
MAwGA1UECgwFdml0YW0xFDASBgNVBAsMC2F1dGhvcml0aWVzMR0wGwYDVQQDDBRj
YV9yb290X3RpbWVzdGFtcGluZ4ICAL4wEgYDVR0TAQH/BAgwBgEB/wIBADAJBgNV
HRIEAjAAMAsGA1UdDwQEAwIBBjARBglghkgBhvhCAQEEBAMCAgQwDQYJKoZIhvcN
AQELBQADggIBAILXdagkEw+XMubC8AC0LSaPlrJX4oxQJd5qbQr7BrwTQmJSqYik
iOLaJyxlbUjWZ9nJHFg6QixPMlqPxeSNBIP0yhSNf2iDA38K5Rvvq28jFcTy5VgD
dNKCM9QenzEf3ABgulqNX8wXBttJT9Qr6MGc1wq+u5dPBnY47xNhqTv6wCDgkuq1
4UTQtnt4wzQFWUhyW3ZxsJ/XOq+DJ8gXL0WHBlXO3eoUli07+CuzywiyCQp12LXl
+m8/CiGhykSg0TVzgH9fh6vd0h9TODH8Sl5hFXiBGvguf5v0hk3JSTDYw9upWKBw
CTBQvXQVuRcYpJeJFuVzwcB2A6UtqzP09OoqYOzBp04/hPyBIcmwwdEKAftC6SMn
sQ5fGwQr5cRXTQpmWF7p1nNwMSuZEppC2uOgGQe4GDjATKPGui5xbkj7uOYA7UqJ
3Vm2B3TgstcW7WmA3vYZ4M74f/N8sPBOvmnQ3mYdPH15K7qK2f8eMfw191JX+Dha
hjc3wyuk2NAwxwlxXYJKG8ra0uWdF38LUXLFKgSVqwnrJU/X+YWLVv0EKBYnLF4S
g3Bwn2T2Q1Y1WVh/U6wt17glIAP97Zfa8gk60FXmwKvoELkNFTT1w+uWIMCRsKhz
Z+ZCDuRgnlwTGnTdFxRb/ntXI8U3wA8BaPBG2tVIpuaW/Q+exVcBQeim
-----END CERTIFICATE-----
