Certificate:
    Data:
        Version: 3 (0x2)
        Serial Number: 187 (0xbb)
    Signature Algorithm: sha256WithRSAEncryption
        Issuer: C=fr, ST=idf, L=paris, O=vitam, OU=authorities, CN=ca_root_timestamping
        Validity
            Not Before: Aug  9 16:04:07 2017 GMT
            Not After : Aug  7 16:04:07 2027 GMT
        Subject: C=fr, ST=idf, L=paris, O=vitam, OU=authorities, CN=ca_root_timestamping
        Subject Public Key Info:
            Public Key Algorithm: rsaEncryption
                Public-Key: (4096 bit)
                Modulus:
                    00:cd:fc:13:61:e1:64:b7:eb:cb:2a:b2:91:01:ca:
                    7c:32:d9:0e:a1:10:55:f3:92:e6:f3:71:5b:cf:5a:
                    ec:94:0b:01:e3:f7:4c:26:08:04:ee:e4:61:fc:e6:
                    de:44:50:9e:0c:03:74:f2:17:4b:ab:7d:c6:21:2b:
                    08:4a:41:ec:62:58:17:89:ad:1f:1e:c8:40:82:3d:
                    aa:fd:b6:3c:2f:81:6e:81:1c:f8:5a:81:ae:8f:ad:
                    01:84:4f:98:ff:5a:e1:45:13:51:6e:c4:2e:f3:e2:
                    65:99:70:8c:25:87:a6:6a:3b:4a:83:14:a6:49:bb:
                    23:5f:06:d1:d1:d8:ca:7f:43:04:dc:38:e3:26:03:
                    c8:38:92:b8:ae:8d:8f:c7:d7:ed:a1:16:91:46:ac:
                    52:9c:f4:b1:8f:a4:81:23:0c:14:d3:0e:c5:0f:cc:
                    aa:ac:1b:85:e8:ad:ac:93:e5:7c:1f:91:e8:1c:61:
                    24:75:f9:6e:6f:e1:d4:08:4c:ed:a2:13:cd:d9:25:
                    cf:3d:71:6c:9e:69:36:9f:98:e3:21:7b:b6:88:7d:
                    bd:f2:1b:92:6b:c4:e6:07:95:a1:92:16:70:58:37:
                    bf:23:b1:8f:d1:92:00:52:f4:0f:8f:c0:37:31:41:
                    ad:44:ac:4e:ed:8e:c4:cb:7e:41:f8:99:a4:c1:c9:
                    c3:76:80:b9:f0:01:48:d9:24:b1:d4:c1:70:e7:db:
                    44:f0:81:ae:ec:9d:82:4f:09:f0:38:3f:79:10:95:
                    8f:bb:f0:90:d4:bf:3a:3e:37:9a:7b:ab:c2:75:2b:
                    71:59:c9:a3:4d:d9:0b:f5:16:7e:a3:50:f3:c5:38:
                    2a:62:7f:0f:a5:23:87:80:8b:90:b2:4f:92:99:f9:
                    79:62:2f:40:d1:84:4f:1d:d7:92:d7:25:84:11:b8:
                    6c:80:f6:7d:16:8b:9e:7a:04:d7:df:f2:59:8c:16:
                    35:9f:61:ab:a3:25:c6:22:3a:f9:20:37:3a:c2:e9:
                    00:5e:07:39:cc:42:21:c1:9a:90:e3:be:28:3d:c6:
                    ce:fc:01:b2:89:33:16:a2:18:ce:d1:a5:a4:44:95:
                    84:c3:37:28:48:7d:ec:4f:7e:8b:7f:6b:68:29:06:
                    96:54:67:25:8f:6d:52:c3:c3:fa:df:90:e3:b0:fe:
                    36:e0:e6:93:67:d9:5b:9d:73:55:b3:da:c5:66:05:
                    f1:d8:78:27:43:25:72:48:f9:d4:b4:f5:96:0b:d7:
                    2e:63:cc:8a:a3:b9:88:2f:72:84:03:0b:4b:55:df:
                    f1:87:69:f3:dd:f1:f2:f8:e1:ab:32:61:2e:65:7b:
                    ec:3e:da:6d:bc:1d:e6:78:61:9c:3d:73:21:d6:17:
                    b7:b2:23
                Exponent: 65537 (0x10001)
        X509v3 extensions:
            Netscape Comment: 
                CA Root
            X509v3 Subject Key Identifier: 
                F5:70:56:93:F0:DF:49:12:BF:75:12:F8:4A:D7:1E:64:B9:32:67:BA
            X509v3 Authority Key Identifier: 
                keyid:F5:70:56:93:F0:DF:49:12:BF:75:12:F8:4A:D7:1E:64:B9:32:67:BA

            X509v3 Basic Constraints: critical
                CA:TRUE, pathlen:1
            X509v3 Key Usage: 
                Certificate Sign, CRL Sign
            Netscape Cert Type: 
                SSL CA
    Signature Algorithm: sha256WithRSAEncryption
         c8:0a:e5:81:32:cc:55:c1:64:f6:98:84:d0:4a:93:49:55:3c:
         a2:2f:e2:b9:c1:c7:2c:a1:c3:38:07:f3:0c:41:d3:29:a3:62:
         88:fb:d2:a0:6b:c8:fd:2a:da:8d:29:cd:7e:e2:2a:0b:db:b4:
         44:7c:d0:2e:a1:76:d3:59:ba:72:2a:90:d7:e4:67:b0:58:85:
         44:e2:23:73:a4:5a:34:8f:4b:df:b9:b1:89:ee:ac:1f:e4:d6:
         a7:6e:98:75:cb:86:93:6e:c5:92:f2:1e:44:07:34:3a:24:e0:
         c8:35:f0:46:6f:89:44:ca:8a:ad:69:d4:8e:d6:4f:a7:90:d7:
         a5:28:90:26:ae:18:48:ca:be:38:e5:9f:cd:67:d0:d7:f0:70:
         53:a9:c1:ef:83:8e:50:cc:9c:5e:a7:91:7b:18:0f:62:62:9e:
         67:91:6f:8d:e0:8c:83:cc:14:55:b2:dc:2b:cf:91:e2:e4:ce:
         a3:66:45:79:b1:30:89:c6:3d:af:58:33:98:e1:0a:79:a1:67:
         c2:8c:6f:f5:1f:07:f8:d7:67:38:f1:ed:61:fb:a4:64:00:20:
         a1:da:93:7a:6f:68:eb:78:75:cc:23:35:84:dc:79:38:03:7f:
         31:67:43:52:4d:af:8f:31:95:d5:02:4e:de:b6:e1:4d:37:9f:
         61:85:18:8b:5b:6b:bf:d3:35:81:ce:35:a8:b4:bb:9f:94:80:
         5a:6f:db:92:66:19:e8:19:41:5f:8b:51:98:ec:04:2e:03:97:
         ca:66:2d:d1:84:47:bb:52:13:91:fc:32:c4:e6:a8:6c:98:84:
         72:82:db:f9:66:b8:ba:f0:97:c3:31:50:d8:2b:8d:16:30:8b:
         70:3c:4b:16:db:ce:4e:09:db:b3:63:38:6f:63:bd:f2:b7:8b:
         82:75:a7:44:50:37:98:51:8d:0a:f0:90:38:11:e9:dd:96:b9:
         4f:e0:08:e2:69:a2:4b:fb:1c:ea:f2:08:49:19:2e:36:79:b6:
         b0:57:ce:0f:9f:7c:db:42:64:2a:77:c7:ec:ce:d9:b5:c0:5c:
         69:41:87:a7:78:be:35:d7:88:92:34:21:2a:10:39:85:24:57:
         2a:cd:94:5b:a5:67:18:95:81:08:41:bb:bc:fe:9d:94:87:99:
         20:7f:a3:21:84:03:c5:63:60:f1:81:66:90:ae:08:f6:da:37:
         31:aa:15:bf:4c:64:b7:7d:ed:04:53:71:03:1a:6a:96:52:52:
         09:ea:9b:af:52:65:eb:de:11:f9:44:3b:d8:85:df:d5:a7:3a:
         1c:da:59:f7:a7:04:03:83:8b:6d:79:85:a7:42:a3:af:fa:b4:
         34:96:05:6b:de:fd:f9:32
-----BEGIN CERTIFICATE-----
MIIF7DCCA9SgAwIBAgICALswDQYJKoZIhvcNAQELBQAwcDELMAkGA1UEBhMCZnIx
DDAKBgNVBAgMA2lkZjEOMAwGA1UEBwwFcGFyaXMxDjAMBgNVBAoMBXZpdGFtMRQw
EgYDVQQLDAthdXRob3JpdGllczEdMBsGA1UEAwwUY2Ffcm9vdF90aW1lc3RhbXBp
bmcwHhcNMTcwODA5MTYwNDA3WhcNMjcwODA3MTYwNDA3WjBwMQswCQYDVQQGEwJm
cjEMMAoGA1UECAwDaWRmMQ4wDAYDVQQHDAVwYXJpczEOMAwGA1UECgwFdml0YW0x
FDASBgNVBAsMC2F1dGhvcml0aWVzMR0wGwYDVQQDDBRjYV9yb290X3RpbWVzdGFt
cGluZzCCAiIwDQYJKoZIhvcNAQEBBQADggIPADCCAgoCggIBAM38E2HhZLfryyqy
kQHKfDLZDqEQVfOS5vNxW89a7JQLAeP3TCYIBO7kYfzm3kRQngwDdPIXS6t9xiEr
CEpB7GJYF4mtHx7IQII9qv22PC+BboEc+FqBro+tAYRPmP9a4UUTUW7ELvPiZZlw
jCWHpmo7SoMUpkm7I18G0dHYyn9DBNw44yYDyDiSuK6Nj8fX7aEWkUasUpz0sY+k
gSMMFNMOxQ/MqqwbheitrJPlfB+R6BxhJHX5bm/h1AhM7aITzdklzz1xbJ5pNp+Y
4yF7toh9vfIbkmvE5geVoZIWcFg3vyOxj9GSAFL0D4/ANzFBrUSsTu2OxMt+QfiZ
pMHJw3aAufABSNkksdTBcOfbRPCBruydgk8J8Dg/eRCVj7vwkNS/Oj43mnurwnUr
cVnJo03ZC/UWfqNQ88U4KmJ/D6Ujh4CLkLJPkpn5eWIvQNGETx3XktclhBG4bID2
fRaLnnoE19/yWYwWNZ9hq6MlxiI6+SA3OsLpAF4HOcxCIcGakOO+KD3GzvwBsokz
FqIYztGlpESVhMM3KEh97E9+i39raCkGllRnJY9tUsPD+t+Q47D+NuDmk2fZW51z
VbPaxWYF8dh4J0Mlckj51LT1lgvXLmPMiqO5iC9yhAMLS1Xf8Ydp893x8vjhqzJh
LmV77D7abbwd5nhhnD1zIdYXt7IjAgMBAAGjgY8wgYwwFgYJYIZIAYb4QgENBAkW
B0NBIFJvb3QwHQYDVR0OBBYEFPVwVpPw30kSv3US+ErXHmS5Mme6MB8GA1UdIwQY
MBaAFPVwVpPw30kSv3US+ErXHmS5Mme6MBIGA1UdEwEB/wQIMAYBAf8CAQEwCwYD
VR0PBAQDAgEGMBEGCWCGSAGG+EIBAQQEAwICBDANBgkqhkiG9w0BAQsFAAOCAgEA
yArlgTLMVcFk9piE0EqTSVU8oi/iucHHLKHDOAfzDEHTKaNiiPvSoGvI/SrajSnN
fuIqC9u0RHzQLqF201m6ciqQ1+RnsFiFROIjc6RaNI9L37mxie6sH+TWp26YdcuG
k27FkvIeRAc0OiTgyDXwRm+JRMqKrWnUjtZPp5DXpSiQJq4YSMq+OOWfzWfQ1/Bw
U6nB74OOUMycXqeRexgPYmKeZ5FvjeCMg8wUVbLcK8+R4uTOo2ZFebEwicY9r1gz
mOEKeaFnwoxv9R8H+NdnOPHtYfukZAAgodqTem9o63h1zCM1hNx5OAN/MWdDUk2v
jzGV1QJO3rbhTTefYYUYi1trv9M1gc41qLS7n5SAWm/bkmYZ6BlBX4tRmOwELgOX
ymYt0YRHu1ITkfwyxOaobJiEcoLb+Wa4uvCXwzFQ2CuNFjCLcDxLFtvOTgnbs2M4
b2O98reLgnWnRFA3mFGNCvCQOBHp3Za5T+AI4mmiS/sc6vIISRkuNnm2sFfOD598
20JkKnfH7M7ZtcBcaUGHp3i+NdeIkjQhKhA5hSRXKs2UW6VnGJWBCEG7vP6dlIeZ
IH+jIYQDxWNg8YFmkK4I9to3MaoVv0xkt33tBFNxAxpqllJSCeqbr1Jl694R+UQ7
2IXf1ac6HNpZ96cEA4OLbXmFp0Kjr/q0NJYFa979+TI=
-----END CERTIFICATE-----
