Certificate:
    Data:
        Version: 3 (0x2)
        Serial Number: 181 (0xb5)
    Signature Algorithm: sha256WithRSAEncryption
        Issuer: C=fr, ST=idf, L=paris, O=vitam, OU=authorities, CN=ca_root_timestamping
        Validity
            Not Before: Jul 12 14:29:05 2017 GMT
            Not After : Jul 10 14:29:05 2027 GMT
        Subject: C=fr, ST=idf, L=paris, O=vitam, OU=authorities, CN=ca_root_timestamping
        Subject Public Key Info:
            Public Key Algorithm: rsaEncryption
                Public-Key: (4096 bit)
                Modulus:
                    00:ea:de:73:f9:93:ec:24:76:ec:c1:49:65:d1:7d:
                    2a:6b:f8:99:51:3e:ca:af:47:29:b4:73:e6:4a:95:
                    1f:52:0e:45:a1:21:59:6d:36:43:47:67:08:42:3a:
                    87:12:6b:90:9a:aa:55:71:3b:c0:c7:fd:81:4b:e3:
                    8d:d9:3a:9a:35:71:80:24:4e:b3:5e:52:35:6b:57:
                    63:70:5c:64:73:e0:df:f2:4f:81:2e:f6:e8:a6:f8:
                    8a:bc:fa:a1:7e:be:7a:18:71:c8:ce:1b:d6:10:57:
                    4c:ab:7f:9a:2c:03:ad:91:62:23:ae:1d:e5:9b:ed:
                    c1:76:32:f6:d3:47:68:c3:dc:b1:94:19:e0:84:fa:
                    cf:c0:82:17:af:2c:3d:cf:fd:58:89:3d:4d:1b:c2:
                    f4:c4:2b:e7:aa:5a:ba:5c:2d:56:03:e4:5f:ef:f1:
                    81:33:0a:79:d7:5d:ae:18:8d:77:22:dc:b6:b5:5a:
                    f3:56:8a:9e:26:9d:e1:60:8a:42:08:19:39:71:b4:
                    26:49:f6:f0:ca:3f:f9:bb:89:a2:bb:d2:e6:ee:f8:
                    cc:e3:a7:08:8a:d0:eb:a0:9c:20:49:41:d7:b5:b6:
                    c9:95:b1:05:59:3b:0a:4d:a2:80:2b:33:8f:4f:23:
                    3c:ab:67:57:ec:87:72:8f:2e:49:0f:2d:2c:18:85:
                    f5:32:e2:9c:83:10:b0:f5:ae:f1:02:87:73:53:65:
                    35:15:43:08:11:9f:c7:a1:c6:af:58:0b:8d:03:8b:
                    99:29:6c:e9:f9:76:9a:ec:ed:c2:36:45:f5:14:9c:
                    1b:1f:c3:c6:65:46:4b:b7:33:52:46:3d:7e:e0:b7:
                    95:5c:d3:2e:25:87:16:f8:d4:c7:eb:44:57:06:4b:
                    66:1e:d4:01:1c:f7:91:65:5a:b8:c2:55:da:4d:45:
                    f4:8b:dc:01:c1:47:e0:65:60:2f:6b:20:48:1d:0b:
                    c7:7d:d5:20:e7:48:16:4c:83:26:7a:c0:11:57:9f:
                    c9:56:cc:5a:33:d0:aa:4d:df:ac:d8:12:f5:d3:a6:
                    0d:b4:ae:93:6f:1a:4c:de:d0:6e:32:44:f0:18:d4:
                    c5:f8:cd:58:23:ea:9a:f6:a4:4e:4c:90:91:74:ef:
                    d6:af:1b:7d:dd:fb:3a:50:b9:06:ab:f8:b0:59:fa:
                    51:1b:24:d1:d1:c2:b6:3a:f3:00:ff:d6:63:99:46:
                    38:93:26:98:9b:e6:bf:dc:e4:75:6b:47:05:df:ff:
                    73:55:cf:60:e7:c5:44:5c:de:b3:d2:42:60:5c:6d:
                    b9:f6:67:fa:5a:82:12:ff:38:1b:85:c4:ef:3f:9d:
                    0a:da:41:38:22:6e:bb:fc:96:fe:d8:50:b0:8f:4d:
                    24:02:d5
                Exponent: 65537 (0x10001)
        X509v3 extensions:
            Netscape Comment: 
                CA Root
            X509v3 Subject Key Identifier: 
                9E:A0:63:21:51:E3:D7:E5:30:98:D3:C7:B3:36:29:96:DA:A1:F5:01
            X509v3 Authority Key Identifier: 
                keyid:9E:A0:63:21:51:E3:D7:E5:30:98:D3:C7:B3:36:29:96:DA:A1:F5:01

            X509v3 Basic Constraints: critical
                CA:TRUE, pathlen:1
            X509v3 Key Usage: 
                Certificate Sign, CRL Sign
            Netscape Cert Type: 
                SSL CA
    Signature Algorithm: sha256WithRSAEncryption
         a4:e9:01:37:21:2e:db:5e:f6:5b:5f:71:82:a3:ab:fa:70:43:
         b2:47:be:61:01:e6:ce:c1:97:cc:d1:c4:95:19:89:37:c6:36:
         81:5f:b1:68:3f:75:56:31:0f:fb:6d:48:27:30:e7:75:ec:01:
         d4:89:52:48:8e:19:c9:78:34:4d:4a:d2:9e:e3:db:3a:a3:fc:
         cc:eb:96:45:b5:8a:4c:e3:ac:99:a7:3d:c3:aa:f0:ff:0f:59:
         38:59:07:b3:c4:f3:a3:50:ed:2d:55:55:10:ea:3a:26:b2:7c:
         08:de:cb:47:0a:a1:c3:f3:89:f0:36:ad:63:38:8c:a4:79:12:
         92:16:89:44:c8:76:16:09:2f:07:6b:ac:da:eb:72:99:f1:2a:
         3a:2c:2b:3a:e0:73:93:30:78:05:b8:bc:53:17:85:b6:1f:7c:
         1e:db:8a:fb:e7:ff:8d:93:ef:85:71:e6:82:14:3b:5d:5e:9e:
         3d:ee:33:51:05:5a:0a:9f:6c:29:c4:e7:da:37:28:eb:b5:ef:
         04:81:ae:35:9b:d2:a3:e8:f4:12:1f:ba:6b:4f:b1:d5:a1:5c:
         8c:ea:f2:d5:45:70:fa:a5:d3:a4:e0:e4:4e:9b:1f:8b:5e:8f:
         82:c0:c1:d5:0b:5b:d3:b1:f0:b3:bb:fd:23:d2:3e:7b:29:4f:
         43:26:22:8d:ed:e1:58:7a:d6:76:00:38:fb:83:9f:63:1b:8c:
         92:59:e3:70:4c:84:b2:e8:e0:6b:a5:7b:53:3e:55:df:2d:7f:
         c2:93:5a:0b:56:da:1d:eb:6d:a6:12:16:68:75:39:f6:e1:37:
         b0:ff:65:b6:f5:92:56:1b:93:c1:00:47:66:72:a4:f1:b8:e4:
         f8:73:5c:1b:dc:a1:77:c0:2e:77:05:e1:9f:78:6d:f6:24:f8:
         ee:f4:e2:c0:9a:d0:c0:a0:e4:d9:0a:8b:ff:06:f8:87:fe:55:
         31:9c:e3:d4:51:39:58:57:e2:38:d6:85:22:48:eb:80:2b:15:
         70:91:e3:3b:d2:13:2c:6c:4c:ff:63:3d:3f:ca:9a:f5:90:6e:
         47:3b:97:a7:62:0e:d1:55:55:6a:b9:ff:d9:3a:b7:86:9d:a1:
         d0:f9:2a:62:ce:b4:49:1d:e6:64:3d:e1:e2:c6:b0:0a:1d:c5:
         53:19:0c:5f:a9:a2:11:23:67:1d:ef:71:6d:07:a8:6f:cf:32:
         df:13:cb:b2:04:27:e4:5c:63:f8:38:52:24:2d:3e:60:19:e1:
         5b:41:6c:d1:41:c8:1f:d6:76:31:1c:4c:53:a7:e3:06:b5:6c:
         c0:49:18:71:17:fc:80:9d:09:8c:6e:b5:8a:59:a6:b9:1b:0a:
         c1:c0:59:fe:b7:b4:5c:0b
-----BEGIN CERTIFICATE-----
MIIF7DCCA9SgAwIBAgICALUwDQYJKoZIhvcNAQELBQAwcDELMAkGA1UEBhMCZnIx
DDAKBgNVBAgMA2lkZjEOMAwGA1UEBwwFcGFyaXMxDjAMBgNVBAoMBXZpdGFtMRQw
EgYDVQQLDAthdXRob3JpdGllczEdMBsGA1UEAwwUY2Ffcm9vdF90aW1lc3RhbXBp
bmcwHhcNMTcwNzEyMTQyOTA1WhcNMjcwNzEwMTQyOTA1WjBwMQswCQYDVQQGEwJm
cjEMMAoGA1UECAwDaWRmMQ4wDAYDVQQHDAVwYXJpczEOMAwGA1UECgwFdml0YW0x
FDASBgNVBAsMC2F1dGhvcml0aWVzMR0wGwYDVQQDDBRjYV9yb290X3RpbWVzdGFt
cGluZzCCAiIwDQYJKoZIhvcNAQEBBQADggIPADCCAgoCggIBAOrec/mT7CR27MFJ
ZdF9Kmv4mVE+yq9HKbRz5kqVH1IORaEhWW02Q0dnCEI6hxJrkJqqVXE7wMf9gUvj
jdk6mjVxgCROs15SNWtXY3BcZHPg3/JPgS726Kb4irz6oX6+ehhxyM4b1hBXTKt/
miwDrZFiI64d5ZvtwXYy9tNHaMPcsZQZ4IT6z8CCF68sPc/9WIk9TRvC9MQr56pa
ulwtVgPkX+/xgTMKedddrhiNdyLctrVa81aKniad4WCKQggZOXG0Jkn28Mo/+buJ
orvS5u74zOOnCIrQ66CcIElB17W2yZWxBVk7Ck2igCszj08jPKtnV+yHco8uSQ8t
LBiF9TLinIMQsPWu8QKHc1NlNRVDCBGfx6HGr1gLjQOLmSls6fl2muztwjZF9RSc
Gx/DxmVGS7czUkY9fuC3lVzTLiWHFvjUx+tEVwZLZh7UARz3kWVauMJV2k1F9Ivc
AcFH4GVgL2sgSB0Lx33VIOdIFkyDJnrAEVefyVbMWjPQqk3frNgS9dOmDbSuk28a
TN7QbjJE8BjUxfjNWCPqmvakTkyQkXTv1q8bfd37OlC5Bqv4sFn6URsk0dHCtjrz
AP/WY5lGOJMmmJvmv9zkdWtHBd//c1XPYOfFRFzes9JCYFxtufZn+lqCEv84G4XE
7z+dCtpBOCJuu/yW/thQsI9NJALVAgMBAAGjgY8wgYwwFgYJYIZIAYb4QgENBAkW
B0NBIFJvb3QwHQYDVR0OBBYEFJ6gYyFR49flMJjTx7M2KZbaofUBMB8GA1UdIwQY
MBaAFJ6gYyFR49flMJjTx7M2KZbaofUBMBIGA1UdEwEB/wQIMAYBAf8CAQEwCwYD
VR0PBAQDAgEGMBEGCWCGSAGG+EIBAQQEAwICBDANBgkqhkiG9w0BAQsFAAOCAgEA
pOkBNyEu2172W19xgqOr+nBDske+YQHmzsGXzNHElRmJN8Y2gV+xaD91VjEP+21I
JzDndewB1IlSSI4ZyXg0TUrSnuPbOqP8zOuWRbWKTOOsmac9w6rw/w9ZOFkHs8Tz
o1DtLVVVEOo6JrJ8CN7LRwqhw/OJ8DatYziMpHkSkhaJRMh2FgkvB2us2utymfEq
OiwrOuBzkzB4Bbi8UxeFth98HtuK++f/jZPvhXHmghQ7XV6ePe4zUQVaCp9sKcTn
2jco67XvBIGuNZvSo+j0Eh+6a0+x1aFcjOry1UVw+qXTpODkTpsfi16PgsDB1Qtb
07Hws7v9I9I+eylPQyYije3hWHrWdgA4+4OfYxuMklnjcEyEsujga6V7Uz5V3y1/
wpNaC1baHettphIWaHU59uE3sP9ltvWSVhuTwQBHZnKk8bjk+HNcG9yhd8AudwXh
n3ht9iT47vTiwJrQwKDk2QqL/wb4h/5VMZzj1FE5WFfiONaFIkjrgCsVcJHjO9IT
LGxM/2M9P8qa9ZBuRzuXp2IO0VVVarn/2Tq3hp2h0PkqYs60SR3mZD3h4sawCh3F
UxkMX6miESNnHe9xbQeob88y3xPLsgQn5Fxj+DhSJC0+YBnhW0Fs0UHIH9Z2MRxM
U6fjBrVswEkYcRf8gJ0JjG61ilmmuRsKwcBZ/re0XAs=
-----END CERTIFICATE-----
