Certificate:
    Data:
        Version: 3 (0x2)
        Serial Number: 175 (0xaf)
    Signature Algorithm: sha256WithRSAEncryption
        Issuer: C=FR, ST=idf, L=paris, O=Vitam., CN=CA_timestamping
        Validity
            Not Before: Mar  6 18:03:42 2017 GMT
            Not After : Mar  4 18:03:42 2027 GMT
        Subject: C=FR, ST=idf, L=paris, O=Vitam., CN=CA_timestamping
        Subject Public Key Info:
            Public Key Algorithm: rsaEncryption
                Public-Key: (2048 bit)
                Modulus:
                    00:ca:cb:03:04:c2:cb:6d:53:c5:5e:4f:89:66:6a:
                    d2:f9:3d:11:ca:d6:5c:3e:a5:d5:fa:b1:2c:4e:ca:
                    06:8a:02:81:33:08:fe:1b:39:15:14:ae:90:5d:1a:
                    54:58:71:2e:f7:6e:05:82:6e:29:e0:0b:1b:4c:5a:
                    12:6c:13:d9:cf:cf:17:f9:69:f1:77:e6:34:b0:97:
                    9c:0e:ea:f0:dc:f7:10:b1:3d:da:8e:97:ca:34:97:
                    94:3d:f2:e0:80:6a:6f:c0:68:0b:08:93:9e:e6:d8:
                    a5:92:93:44:c3:ca:1a:0f:c4:77:76:e2:d9:8e:f2:
                    d0:7d:f6:36:9b:a3:1d:30:ab:c6:f9:6c:e1:57:a0:
                    81:53:bd:9f:dd:ce:0b:53:74:81:e5:cd:c3:51:2e:
                    20:da:90:c0:13:78:6d:34:97:23:ed:bb:c5:b5:ea:
                    a8:6d:43:c2:02:06:a3:68:5d:90:31:d3:72:b1:cd:
                    13:09:aa:69:55:c3:67:19:af:36:aa:02:5c:f4:d3:
                    92:74:3b:fc:db:db:a7:94:fb:51:f1:50:fd:62:ce:
                    9e:98:20:ab:c4:77:a9:a1:d5:4b:ef:bd:e8:bc:fb:
                    71:2e:7e:98:a0:84:44:a9:24:bd:a0:b7:4e:aa:da:
                    fa:4b:54:23:2e:ef:ca:eb:39:56:d7:83:1a:3d:20:
                    a2:3b
                Exponent: 65537 (0x10001)
        X509v3 extensions:
            X509v3 Subject Key Identifier: 
                AB:71:F3:08:97:F9:1F:E8:23:43:85:DF:38:BE:A5:87:2E:47:FC:91
            X509v3 Authority Key Identifier: 
                keyid:AB:71:F3:08:97:F9:1F:E8:23:43:85:DF:38:BE:A5:87:2E:47:FC:91

            X509v3 Basic Constraints: 
                CA:TRUE
    Signature Algorithm: sha256WithRSAEncryption
         12:50:f2:a0:f6:7d:db:de:48:1e:4f:ce:91:e4:51:61:fc:62:
         5f:1f:a2:eb:0b:ae:a0:e6:80:8e:08:3e:09:fa:36:08:6b:37:
         4e:d5:c6:7a:ef:55:18:50:08:11:4a:ef:a9:07:43:32:16:2a:
         44:88:56:68:9a:a7:5f:97:43:bd:6e:22:a7:32:f0:af:ba:bf:
         c0:eb:e3:01:8d:e8:c6:9b:b9:8a:ef:15:db:5c:59:b8:bb:64:
         90:d1:86:6d:dd:00:f4:0e:9c:ac:88:cd:fc:21:bb:69:46:3f:
         3d:a6:cb:b7:4f:b8:f7:8e:d7:e5:9d:6a:da:f6:aa:36:ae:19:
         46:67:3a:cc:ac:42:73:d9:15:39:d7:c5:a0:9a:57:10:67:70:
         51:fb:86:f9:47:a9:5b:8f:1c:a9:44:3f:60:c6:08:52:cd:7a:
         e8:5b:ff:dd:22:ad:18:8b:95:63:f3:63:9b:64:c4:8c:97:87:
         af:17:31:ce:6e:a5:70:65:69:1f:a4:df:87:cc:46:30:96:21:
         cf:b8:b3:12:ab:b4:dc:0a:3b:ff:64:6e:79:2e:8a:c1:0e:e2:
         9e:3b:82:ca:33:5e:1e:f6:f6:d2:f8:d1:21:04:34:5f:53:3d:
         0c:f2:33:3c:7d:e0:4f:5b:76:91:33:30:55:ff:b1:f7:c9:16:
         47:af:99:3e
-----BEGIN CERTIFICATE-----
MIIDeDCCAmCgAwIBAgICAK8wDQYJKoZIhvcNAQELBQAwVjELMAkGA1UEBhMCRlIx
DDAKBgNVBAgMA2lkZjEOMAwGA1UEBwwFcGFyaXMxDzANBgNVBAoMBlZpdGFtLjEY
MBYGA1UEAwwPQ0FfdGltZXN0YW1waW5nMB4XDTE3MDMwNjE4MDM0MloXDTI3MDMw
NDE4MDM0MlowVjELMAkGA1UEBhMCRlIxDDAKBgNVBAgMA2lkZjEOMAwGA1UEBwwF
cGFyaXMxDzANBgNVBAoMBlZpdGFtLjEYMBYGA1UEAwwPQ0FfdGltZXN0YW1waW5n
MIIBIjANBgkqhkiG9w0BAQEFAAOCAQ8AMIIBCgKCAQEAyssDBMLLbVPFXk+JZmrS
+T0RytZcPqXV+rEsTsoGigKBMwj+GzkVFK6QXRpUWHEu924Fgm4p4AsbTFoSbBPZ
z88X+Wnxd+Y0sJecDurw3PcQsT3ajpfKNJeUPfLggGpvwGgLCJOe5tilkpNEw8oa
D8R3duLZjvLQffY2m6MdMKvG+WzhV6CBU72f3c4LU3SB5c3DUS4g2pDAE3htNJcj
7bvFteqobUPCAgajaF2QMdNysc0TCappVcNnGa82qgJc9NOSdDv829unlPtR8VD9
Ys6emCCrxHepodVL773ovPtxLn6YoIREqSS9oLdOqtr6S1QjLu/K6zlW14MaPSCi
OwIDAQABo1AwTjAdBgNVHQ4EFgQUq3HzCJf5H+gjQ4XfOL6lhy5H/JEwHwYDVR0j
BBgwFoAUq3HzCJf5H+gjQ4XfOL6lhy5H/JEwDAYDVR0TBAUwAwEB/zANBgkqhkiG
9w0BAQsFAAOCAQEAElDyoPZ9295IHk/OkeRRYfxiXx+i6wuuoOaAjgg+Cfo2CGs3
TtXGeu9VGFAIEUrvqQdDMhYqRIhWaJqnX5dDvW4ipzLwr7q/wOvjAY3oxpu5iu8V
21xZuLtkkNGGbd0A9A6crIjN/CG7aUY/PabLt0+4947X5Z1q2vaqNq4ZRmc6zKxC
c9kVOdfFoJpXEGdwUfuG+UepW48cqUQ/YMYIUs166Fv/3SKtGIuVY/Njm2TEjJeH
rxcxzm6lcGVpH6Tfh8xGMJYhz7izEqu03Ao7/2RueS6KwQ7injuCyjNeHvb20vjR
IQQ0X1M9DPIzPH3gT1t2kTMwVf+x98kWR6+ZPg==
-----END CERTIFICATE-----
