Certificate:
    Data:
        Version: 3 (0x2)
        Serial Number: 190 (0xbe)
    Signature Algorithm: sha256WithRSAEncryption
        Issuer: C=fr, ST=idf, L=paris, O=vitam, OU=authorities, CN=ca_root_timestamping
        Validity
            Not Before: Feb  5 12:46:57 2018 GMT
            Not After : Feb  3 12:46:57 2028 GMT
        Subject: C=fr, ST=idf, L=paris, O=vitam, OU=authorities, CN=ca_root_timestamping
        Subject Public Key Info:
            Public Key Algorithm: rsaEncryption
                Public-Key: (4096 bit)
                Modulus:
                    00:b9:15:c5:1d:e5:5b:f8:f4:88:31:9e:60:bd:76:
                    94:d9:72:ee:4e:fd:dc:a4:f0:fd:0a:36:0b:65:e0:
                    6b:4e:fe:2a:f2:35:0d:ba:d8:2f:36:20:0b:fb:8a:
                    28:67:81:dd:15:be:cb:8a:84:12:65:03:b0:4e:a2:
                    12:dc:bb:40:c2:3b:32:c2:26:a2:4d:d5:cc:a8:90:
                    2a:f9:70:ac:50:3c:06:b2:a9:fe:51:f5:45:50:f5:
                    d6:f8:a7:31:a0:d8:49:f0:2b:06:6d:1e:e8:5b:95:
                    ae:20:89:b0:ee:d7:34:fa:f9:64:40:8b:71:b2:24:
                    ba:f2:16:01:3a:30:7a:d8:b9:20:06:24:26:e3:4e:
                    21:72:1b:22:df:c8:91:32:9d:eb:ee:47:27:d3:ae:
                    2c:8f:58:a6:ce:ac:02:81:f5:67:76:e6:57:5b:77:
                    e6:8a:c4:1b:2e:27:27:69:ec:26:be:5e:4b:f9:a0:
                    a0:83:d5:cd:ef:59:10:82:aa:e1:e6:02:f9:d4:93:
                    04:28:a8:cf:ab:8f:3f:c8:34:bd:8c:fd:c7:09:84:
                    0d:90:00:db:2d:43:d9:e9:fd:62:af:94:b5:67:a0:
                    c3:17:86:5d:c1:43:0a:fb:d9:cc:75:a8:28:47:2d:
                    3a:94:86:52:60:65:e2:9c:f8:05:aa:27:83:f8:40:
                    67:50:42:d1:48:85:31:be:7e:07:de:db:42:78:b3:
                    16:b9:ca:66:99:a7:c0:23:0c:1a:1a:95:a7:d5:66:
                    d6:42:50:b5:4f:f7:85:32:e3:36:84:f8:32:a8:79:
                    a4:c7:d6:f8:8d:db:8a:ae:6c:db:c9:7f:b9:0d:f8:
                    6f:3a:96:a3:39:4b:ec:d8:df:d9:01:23:70:b0:a6:
                    05:5b:4a:76:60:72:6a:ad:c5:a3:b1:40:29:e7:02:
                    e2:13:71:6a:27:75:e5:1c:e1:1e:19:d1:c5:e6:1d:
                    92:cf:7c:78:cc:0b:19:0b:e8:61:d7:55:30:2d:d8:
                    0b:6b:21:cd:1d:f0:ff:ca:3d:24:55:3a:d0:ff:05:
                    6f:66:fa:bc:f6:26:10:4f:35:d2:60:9c:68:c9:0c:
                    2b:6f:3e:81:7c:be:73:98:da:0a:df:9f:bc:8e:30:
                    f8:12:29:8f:fb:2f:a5:a4:84:8c:7b:da:8a:34:c8:
                    46:90:41:73:06:6b:19:77:4b:50:c4:24:b8:fe:27:
                    b1:96:55:46:6a:82:64:60:e0:ac:68:68:2a:41:82:
                    c9:8c:cd:51:14:72:42:58:e3:b7:5b:83:d3:6e:a0:
                    56:55:f1:86:b3:af:a4:e9:44:1a:12:78:9c:65:35:
                    d8:86:6d:30:b0:e1:14:de:b3:c9:33:f3:33:8c:4c:
                    39:ad:a5
                Exponent: 65537 (0x10001)
        X509v3 extensions:
            Netscape Comment: 
                CA Root
            X509v3 Subject Key Identifier: 
                97:C5:F8:1B:13:9F:AF:95:34:2A:71:06:67:BF:10:0A:AB:E3:C3:9F
            X509v3 Authority Key Identifier: 
                keyid:97:C5:F8:1B:13:9F:AF:95:34:2A:71:06:67:BF:10:0A:AB:E3:C3:9F

            X509v3 Basic Constraints: critical
                CA:TRUE, pathlen:1
            X509v3 Key Usage: 
                Certificate Sign, CRL Sign
            Netscape Cert Type: 
                SSL CA
    Signature Algorithm: sha256WithRSAEncryption
         40:55:0d:2c:c6:bc:8c:63:a5:9d:0d:6e:07:22:00:e8:ee:43:
         b1:ad:ee:86:4e:9c:54:89:da:3b:85:a2:d0:82:6d:80:5d:df:
         e2:68:41:ce:df:56:7c:73:6e:7b:35:58:79:eb:d0:96:4f:34:
         00:2e:9c:6e:2e:2f:47:e3:c4:b4:bd:44:8f:7f:b2:7e:68:2e:
         f4:aa:71:2f:86:a0:23:fc:da:43:d1:3b:36:a3:77:3a:da:e1:
         e7:8a:a8:8f:50:2c:e0:43:53:5e:b0:e1:f1:9b:26:ae:97:71:
         21:2d:f0:45:da:be:06:7c:de:2b:74:04:e2:85:1e:93:2f:48:
         01:ff:3c:e4:69:a3:83:22:97:95:49:52:c6:fa:bb:80:12:2d:
         c9:97:5f:8e:40:4d:40:e4:51:ad:a9:ec:a7:66:be:1a:41:56:
         40:d3:7f:a3:69:53:1e:df:7e:64:8e:ff:88:8c:1e:25:36:e4:
         4b:49:81:e2:db:55:aa:3b:0f:33:97:58:1b:3a:e9:af:d4:df:
         45:37:4e:8c:9f:f7:21:39:44:a5:cf:3c:11:62:c1:e5:e6:c6:
         4e:5d:44:93:0a:23:8c:2e:66:02:71:36:da:d6:97:64:41:d8:
         42:ab:0e:fd:97:43:e1:8d:30:1f:f9:03:ba:d5:33:8f:75:85:
         e4:82:b6:d0:f4:95:66:43:19:a9:3b:2c:81:bc:69:15:7c:d6:
         b9:34:1b:ba:ab:bc:6a:0c:3a:3a:ba:8b:cf:53:7e:37:db:9b:
         ad:30:53:37:07:2d:05:ff:d5:26:c9:20:41:06:28:c9:9c:ea:
         9f:68:57:c6:46:01:e8:9e:27:35:27:0f:4c:ca:4a:a8:f1:e7:
         d8:d4:53:b2:cd:d0:6c:49:dd:4c:5c:8f:5c:06:dd:1d:00:ce:
         01:33:08:bd:b4:6a:d2:96:15:1b:fb:cc:5a:c7:29:e5:0c:19:
         cd:9c:ee:53:08:88:8b:6d:2e:a9:e4:51:0e:ec:50:b1:b5:14:
         9e:53:59:70:9c:42:04:e7:22:8b:a3:99:b1:b1:c0:1b:0d:20:
         da:51:ba:3b:c1:b1:4f:21:53:5e:9b:30:ef:42:05:dd:33:79:
         56:51:4d:a5:1a:d2:d7:95:cb:da:db:e1:5f:95:99:5d:48:42:
         c8:52:67:07:6c:38:6e:61:cc:57:8d:c5:66:fb:8b:63:8a:77:
         ce:77:7f:ac:40:ef:66:47:c7:f6:0e:80:22:c8:24:20:19:db:
         28:56:86:8e:36:c5:c3:10:72:f4:92:9f:6c:58:ee:fb:84:f1:
         30:6f:18:1e:40:33:63:3b:66:c9:0c:d0:b2:6a:99:dd:26:0e:
         5e:ff:90:22:33:7a:31:6b
-----BEGIN CERTIFICATE-----
MIIF7DCCA9SgAwIBAgICAL4wDQYJKoZIhvcNAQELBQAwcDELMAkGA1UEBhMCZnIx
DDAKBgNVBAgMA2lkZjEOMAwGA1UEBwwFcGFyaXMxDjAMBgNVBAoMBXZpdGFtMRQw
EgYDVQQLDAthdXRob3JpdGllczEdMBsGA1UEAwwUY2Ffcm9vdF90aW1lc3RhbXBp
bmcwHhcNMTgwMjA1MTI0NjU3WhcNMjgwMjAzMTI0NjU3WjBwMQswCQYDVQQGEwJm
cjEMMAoGA1UECAwDaWRmMQ4wDAYDVQQHDAVwYXJpczEOMAwGA1UECgwFdml0YW0x
FDASBgNVBAsMC2F1dGhvcml0aWVzMR0wGwYDVQQDDBRjYV9yb290X3RpbWVzdGFt
cGluZzCCAiIwDQYJKoZIhvcNAQEBBQADggIPADCCAgoCggIBALkVxR3lW/j0iDGe
YL12lNly7k793KTw/Qo2C2Xga07+KvI1DbrYLzYgC/uKKGeB3RW+y4qEEmUDsE6i
Ety7QMI7MsImok3VzKiQKvlwrFA8BrKp/lH1RVD11vinMaDYSfArBm0e6FuVriCJ
sO7XNPr5ZECLcbIkuvIWAToweti5IAYkJuNOIXIbIt/IkTKd6+5HJ9OuLI9Yps6s
AoH1Z3bmV1t35orEGy4nJ2nsJr5eS/mgoIPVze9ZEIKq4eYC+dSTBCioz6uPP8g0
vYz9xwmEDZAA2y1D2en9Yq+UtWegwxeGXcFDCvvZzHWoKEctOpSGUmBl4pz4Baon
g/hAZ1BC0UiFMb5+B97bQnizFrnKZpmnwCMMGhqVp9Vm1kJQtU/3hTLjNoT4Mqh5
pMfW+I3biq5s28l/uQ34bzqWozlL7Njf2QEjcLCmBVtKdmByaq3Fo7FAKecC4hNx
aid15RzhHhnRxeYdks98eMwLGQvoYddVMC3YC2shzR3w/8o9JFU60P8Fb2b6vPYm
EE810mCcaMkMK28+gXy+c5jaCt+fvI4w+BIpj/svpaSEjHvaijTIRpBBcwZrGXdL
UMQkuP4nsZZVRmqCZGDgrGhoKkGCyYzNURRyQljjt1uD026gVlXxhrOvpOlEGhJ4
nGU12IZtMLDhFN6zyTPzM4xMOa2lAgMBAAGjgY8wgYwwFgYJYIZIAYb4QgENBAkW
B0NBIFJvb3QwHQYDVR0OBBYEFJfF+BsTn6+VNCpxBme/EAqr48OfMB8GA1UdIwQY
MBaAFJfF+BsTn6+VNCpxBme/EAqr48OfMBIGA1UdEwEB/wQIMAYBAf8CAQEwCwYD
VR0PBAQDAgEGMBEGCWCGSAGG+EIBAQQEAwICBDANBgkqhkiG9w0BAQsFAAOCAgEA
QFUNLMa8jGOlnQ1uByIA6O5Dsa3uhk6cVInaO4Wi0IJtgF3f4mhBzt9WfHNuezVY
eevQlk80AC6cbi4vR+PEtL1Ej3+yfmgu9KpxL4agI/zaQ9E7NqN3Otrh54qoj1As
4ENTXrDh8ZsmrpdxIS3wRdq+BnzeK3QE4oUeky9IAf885GmjgyKXlUlSxvq7gBIt
yZdfjkBNQORRransp2a+GkFWQNN/o2lTHt9+ZI7/iIweJTbkS0mB4ttVqjsPM5dY
Gzrpr9TfRTdOjJ/3ITlEpc88EWLB5ebGTl1EkwojjC5mAnE22taXZEHYQqsO/ZdD
4Y0wH/kDutUzj3WF5IK20PSVZkMZqTssgbxpFXzWuTQbuqu8agw6OrqLz1N+N9ub
rTBTNwctBf/VJskgQQYoyZzqn2hXxkYB6J4nNScPTMpKqPHn2NRTss3QbEndTFyP
XAbdHQDOATMIvbRq0pYVG/vMWscp5QwZzZzuUwiIi20uqeRRDuxQsbUUnlNZcJxC
BOcii6OZsbHAGw0g2lG6O8GxTyFTXpsw70IF3TN5VlFNpRrS15XL2tvhX5WZXUhC
yFJnB2w4bmHMV43FZvuLY4p3znd/rEDvZkfH9g6AIsgkIBnbKFaGjjbFwxBy9JKf
bFju+4TxMG8YHkAzYztmyQzQsmqZ3SYOXv+QIjN6MWs=
-----END CERTIFICATE-----
